(dp1
S'StarWarsEU'
p2
I27
sS'NUFC'
p3
I8
sS'Poetry'
p4
I33
sS'uglyduckling'
p5
I238
sS'everymanshouldknow'
p6
I885
sS'relationships'
p7
I432
sS'paris'
p8
I6
sS'Honda'
p9
I64
sS'unixporn'
p10
I109
sS'HistoryPorn'
p11
I824
sS'detroitlions'
p12
I72
sS'2007scape'
p13
I59
sS'teaching'
p14
I6
sS'mwo'
p15
I18
sS'fountainpens'
p16
I47
sS'pornID'
p17
I57
sS'geology'
p18
I44
sS'skyrimmods'
p19
I317
sS'moviescirclejerk'
p20
I23
sS'PandR'
p21
I495
sS'synthesizers'
p22
I50
sS'Stargate'
p23
I101
sS'Scrubs'
p24
I92
sS'Military'
p25
I607
sS'magicskyfairy'
p26
I133
sS'Steam'
p27
I632
sS'AlienBlue'
p28
I402
sS'Pokemongiveaway'
p29
I36
sS'gonewildstories'
p30
I86
sS'NewsOfTheWeird'
p31
I220
sS'SteamGameSwap'
p32
I217
sS'starcitizen'
p33
I340
sS'polyamory'
p34
I73
sS'spiders'
p35
I159
sS'BackYardChickens'
p36
I60
sS'totalwar'
p37
I249
sS'entp'
p38
I4
sS'electricians'
p39
I35
sS'AskAcademia'
p40
I54
sS'MechanicAdvice'
p41
I365
sS'OneY'
p42
I327
sS'kratom'
p43
I18
sS'LongDistance'
p44
I74
sS'razer'
p45
I11
sS'LSD'
p46
I144
sS'deadmau5'
p47
I26
sS'socialskills'
p48
I589
sS'bipolar'
p49
I21
sS'socialism'
p50
I482
sS'gamedev'
p51
I419
sS'chiliadmystery'
p52
I20
sS'disney'
p53
I319
sS'TeamRedditTeams'
p54
I10
sS'Beatmatch'
p55
I33
sS'TMNT'
p56
I44
sS'iOSProgramming'
p57
I37
sS'malelivingspace'
p58
I342
sS'lgbt'
p59
I480
sS'Ohio'
p60
I7
sS'melbourne'
p61
I17
sS'braswap'
p62
I22
sS'WarshipPorn'
p63
I318
sS'OnePiece'
p64
I107
sS'piercing'
p65
I112
sS'Hair'
p66
I120
sS'SourceFed'
p67
I22
sS'learnart'
p68
I36
sS'Audi'
p69
I48
sS'QuotesPorn'
p70
I763
sS'Health'
p71
I369
sS'Browns'
p72
I81
sS'ContagiousLaughter'
p73
I630
sS'cocaine'
p74
I14
sS'ffxiv'
p75
I130
sS'sanantonio'
p76
I8
sS'FiftyFifty'
p77
I713
sS'barstoolsports'
p78
I6
sS'portugal'
p79
I2
sS'army'
p80
I55
sS'Drugs'
p81
I498
sS'TeenMFA'
p82
I19
sS'coins'
p83
I16
sS'firstimpression'
p84
I286
sS'trailerparkboys'
p85
I322
sS'admincraft'
p86
I35
sS'arma'
p87
I171
sS'kohi'
p88
I5
sS'swtor'
p89
I91
sS'CallOfDuty'
p90
I86
sS'ftlgame'
p91
I307
sS'berlin'
p92
I8
sS'TheGirlSurvivalGuide'
p93
I263
sS'NeutralPolitics'
p94
I261
sS'ghettoglamourshots'
p95
I367
sS'tampa'
p96
I6
sS'EDC'
p97
I632
sS'hardwareswap'
p98
I198
sS'EDH'
p99
I35
sS'EDM'
p100
I112
sS'movies'
p101
I542
sS'standupshots'
p102
I796
sS'PhotoshopRequest'
p103
I14
sS'Bravenewbies'
p104
I10
sS'punk'
p105
I153
sS'india'
p106
I112
sS'DecidingToBeBetter'
p107
I399
sS'gadgets'
p108
I615
sS'kpics'
p109
I6
sS'UofT'
p110
I9
sS'Tgirls'
p111
I81
sS'ploungeafterdark'
p112
I8
sS'AnnArbor'
p113
I5
sS'SRSsucks'
p114
I259
sS'HouseOfCards'
p115
I494
sS'travel'
p116
I569
sS'RealGirls'
p117
I543
sS'gats'
p118
I52
sS'Destiny'
p119
I16
sS'911truth'
p120
I31
sS'ploompax'
p121
I12
sS'wallpapers'
p122
I719
sS'gaming'
p123
I532
sS'poker'
p124
I43
sS'Hammocks'
p125
I65
sS'askscience'
p126
I649
sS'nerdcubed'
p127
I145
sS'dogpictures'
p128
I341
sS'italy'
p129
I5
sS'law'
p130
I256
sS'Cuckold'
p131
I72
sS'CFB'
p132
I451
sS'FortWorth'
p133
I6
sS'ultimate'
p134
I1
sS'vfx'
p135
I15
sS'pantyselling'
p136
I25
sS'wine'
p137
I71
sS'CityPorn'
p138
I594
sS'zen'
p139
I68
sS'randomactsofamazon'
p140
I15
sS'russian'
p141
I14
sS'london'
p142
I234
sS'stencils'
p143
I14
sS'oakland'
p144
I11
sS'japan'
p145
I351
sS'vita'
p146
I284
sS'panthers'
p147
I59
sS'GlobalOffensive'
p148
I318
sS'BDSMGW'
p149
I70
sS'badlinguistics'
p150
I137
sS'cyanogenmod'
p151
I72
sS'Dogtraining'
p152
I126
sS'writing'
p153
I565
sS'Screenwriting'
p154
I75
sS'Rift'
p155
I14
sS'LeagueofLegendsMeta'
p156
I15
sS'Judaism'
p157
I57
sS'losangeleskings'
p158
I41
sS'hockeyplayers'
p159
I24
sS'BDSMcommunity'
p160
I76
sS'DJs'
p161
I46
sS'Volvo'
p162
I29
sS'Braveryjerk'
p163
I167
sS'Liberal'
p164
I183
sS'dvdcollection'
p165
I33
sS'shittyadviceanimals'
p166
I104
sS'mead'
p167
I21
sS'arrow'
p168
I316
sS'MCFC'
p169
I21
sS'milwaukee'
p170
I4
sS'snakes'
p171
I37
sS'Rateme'
p172
I407
sS'literature'
p173
I177
sS'dubstep'
p174
I141
sS'ChivalryGame'
p175
I15
sS'navy'
p176
I21
sS'USMC'
p177
I36
sS'Feminism'
p178
I340
sS'askgaybros'
p179
I38
sS'Blowjobs'
p180
I79
sS'WoT'
p181
I19
sS'shittyfoodporn'
p182
I730
sS'Muse'
p183
I8
sS'medicine'
p184
I206
sS'gonewildcurvy'
p185
I207
sS'AFL'
p186
I16
sS'bestof'
p187
I849
sS'Metal'
p188
I456
sS'LadyBoners'
p189
I471
sS'knifeclub'
p190
I119
sS'Morrowind'
p191
I80
sS'dayz'
p192
I407
sS'CanadaPolitics'
p193
I99
sS'GoneWildCD'
p194
I42
sS'rocksmith'
p195
I13
sS'dogecoin'
p196
I504
sS'LawSchool'
p197
I13
sS'ShinyPokemon'
p198
I43
sS'steroids'
p199
I26
sS'Luthier'
p200
I22
sS'nhl'
p201
I239
sS'Trophies'
p202
I15
sS'BitcoinMining'
p203
I26
sS'rant'
p204
I352
sS'seinfeld'
p205
I251
sS'thick'
p206
I133
sS'TheLastAirbender'
p207
I529
sS'ECE'
p208
I57
sS'lego'
p209
I612
sS'ANormalDayInRussia'
p210
I684
sS'hawks'
p211
I52
sS'TheFacebookDelusion'
p212
I271
sS'Volkswagen'
p213
I100
sS'PenmanshipPorn'
p214
I613
sS'shittyadvice'
p215
I339
sS'dogs'
p216
I507
sS'asktransgender'
p217
I55
sS'ObscureMedia'
p218
I248
sS'iOSthemes'
p219
I53
sS'makinghiphop'
p220
I43
sS'alternativeart'
p221
I323
sS'Genealogy'
p222
I4
sS'Spiderman'
p223
I112
sS'mildlyinfuriating'
p224
I844
sS'dresdenfiles'
p225
I46
sS'SEO'
p226
I25
sS'weightlifting'
p227
I20
sS'Awwducational'
p228
I669
sS'BBW'
p229
I55
sS'Charleston'
p230
I2
sS'northernireland'
p231
I13
sS'BBQ'
p232
I141
sS'toronto'
p233
I376
sS'Chargers'
p234
I61
sS'worldpolitics'
p235
I727
sS'InsideGaming'
p236
I16
sS'AmateurArchives'
p237
I73
sS'newzealand'
p238
I76
sS'nononono'
p239
I857
sS'MMORPG'
p240
I115
sS'hacking'
p241
I241
sS'KerbalSpaceProgram'
p242
I550
sS'gallifrey'
p243
I399
sS'NewSkaters'
p244
I8
sS'crappymusic'
p245
I163
sS'ginger'
p246
I106
sS'leafs'
p247
I42
sS'hentai'
p248
I71
sS'GalaxyNote3'
p249
I25
sS'macgaming'
p250
I16
sS'triangle'
p251
I5
sS'4x4'
p252
I121
sS'Parenting'
p253
I477
sS'chess'
p254
I80
sS'TexasRangers'
p255
I25
sS'MuayThai'
p256
I8
sS'translator'
p257
I38
sS'germany'
p258
I137
sS'EnoughLibertarianSpam'
p259
I214
sS'Gaming4Gamers'
p260
I430
sS'Minecraft'
p261
I573
sS'Scrolls'
p262
I1
sS'Velo'
p263
I11
sS'Texans'
p264
I54
sS'medical'
p265
I20
sS'investing'
p266
I501
sS'nsfw_gifs'
p267
I319
sS'Borderlands2'
p268
I199
sS'WildStar'
p269
I173
sS'mtgcube'
p270
I10
sS'Heavymind'
p271
I449
sS'GWCouples'
p272
I89
sS'Hiphopcirclejerk'
p273
I55
sS'graffhelp'
p274
I4
sS'crossfit'
p275
I39
sS'Stance'
p276
I76
sS'minnesota'
p277
I25
sS'shittybattlestations'
p278
I364
sS'Torontobluejays'
p279
I50
sS'GrandTheftAutoV'
p280
I595
sS'sneakermarket'
p281
I18
sS'usenet'
p282
I70
sS'PublicFreakout'
p283
I689
sS'Anxiety'
p284
I375
sS'de'
p285
I29
sS'Bitcoin'
p286
I505
sS'geek'
p287
I875
sS'realdubstep'
p288
I23
sS'wedding'
p289
I82
sS'Swimming'
p290
I9
sS'AskGames'
p291
I61
sS'SkyrimPorn'
p292
I29
sS'HuntsvilleAlabama'
p293
I1
sS'hardstyle'
p294
I18
sS'Monstercat'
p295
I32
sS'architecture'
p296
I159
sS'ems'
p297
I24
sS'playstation'
p298
I91
sS'EngineeringStudents'
p299
I194
sS'TheRedPill'
p300
I436
sS'RotMG'
p301
I2
sS'AskScienceDiscussion'
p302
I97
sS'DMT'
p303
I37
sS'torrents'
p304
I334
sS'PS3'
p305
I505
sS'Android'
p306
I675
sS'taiwan'
p307
I12
sS'PS4'
p308
I478
sS'firstworldanarchists'
p309
I845
sS'Dodgers'
p310
I64
sS'classiccars'
p311
I65
sS'trapmuzik'
p312
I25
sS'poppunkers'
p313
I33
sS'Harmontown'
p314
I16
sS'wikipedia'
p315
I625
sS'pcmasterrace'
p316
I569
sS'magicTCG'
p317
I357
sS'spaceengineers'
p318
I154
sS'AskFeminists'
p319
I71
sS'Finland'
p320
I11
sS'casualiama'
p321
I727
sS'stunfisk'
p322
I26
sS'mazda'
p323
I39
sS'GameDealsMeta'
p324
I30
sS'answers'
p325
I675
sS'grandrapids'
p326
I5
sS'news'
p327
I555
sS'chicagobulls'
p328
I60
sS'scuba'
p329
I27
sS'WouldYouRather'
p330
I357
sS'guitarpedals'
p331
I47
sS'ukpolitics'
p332
I210
sS'Cartalk'
p333
I242
sS'AppHookup'
p334
I78
sS'StockMarket'
p335
I18
sS'ShingekiNoKyojin'
p336
I230
sS'stopsmoking'
p337
I184
sS'ainbow'
p338
I366
sS'Blink182'
p339
I7
sS'chrome'
p340
I364
sS'Gunners'
p341
I81
sS'beer'
p342
I596
sS'ak47'
p343
I36
sS'goodyearwelt'
p344
I23
sS'androiddev'
p345
I129
sS'canucks'
p346
I34
sS'fatlogic'
p347
I697
sS'Fallout'
p348
I622
sS'CarAV'
p349
I78
sS'Aquariums'
p350
I280
sS'roguelikes'
p351
I78
sS'TopGear'
p352
I658
sS'r4r'
p353
I208
sS'aviation'
p354
I483
sS'darksouls'
p355
I394
sS'glutenfree'
p356
I36
sS'Winnipeg'
p357
I5
sS'DotA2'
p358
I272
sS'Cleveland'
p359
I7
sS'leaves'
p360
I51
sS'windowsphone'
p361
I225
sS'mexico'
p362
I9
sS'sushi'
p363
I32
sS'FanTheories'
p364
I692
sS'Libraries'
p365
I4
sS'gamecollecting'
p366
I277
sS'australia'
p367
I501
sS'ShitRedditSays'
p368
I259
sS'drunkvapes'
p369
I11
sS'YGOBinders'
p370
I4
sS'IndieGaming'
p371
I370
sS'Python'
p372
I202
sS'pitbulls'
p373
I127
sS'GoneMild'
p374
I109
sS'bicycletouring'
p375
I36
sS'talesfromtechsupport'
p376
I772
sS'PostHardcore'
p377
I35
sS'playrust'
p378
I188
sS'TwinCities'
p379
I6
sS'thesims'
p380
I295
sS'fireemblem'
p381
I83
sS'preppers'
p382
I143
sS'bikewrench'
p383
I45
sS'Portland'
p384
I305
sS'AnimeSketch'
p385
I22
sS'Sonsofanarchy'
p386
I219
sS'kpop'
p387
I22
sS'Helicopters'
p388
I23
sS'Cinema4D'
p389
I14
sS'Dexter'
p390
I165
sS'rickandmorty'
p391
I543
sS'quotes'
p392
I395
sS'perfectloops'
p393
I628
sS'Pets'
p394
I244
sS'InternetIsBeautiful'
p395
I683
sS'ShitRConservativeSays'
p396
I68
sS'furry'
p397
I49
sS'pharmacy'
p398
I6
sS'Connecticut'
p399
I8
sS'animation'
p400
I64
sS'woahdude'
p401
I776
sS'Buddhism'
p402
I279
sS'esports'
p403
I17
sS'ketogains'
p404
I36
sS'DenverBroncos'
p405
I146
sS'footballmanagergames'
p406
I50
sS'twinks'
p407
I25
sS'caps'
p408
I32
sS'toosoon'
p409
I526
sS'amateurradio'
p410
I97
sS'gifs'
p411
I517
sS'Art'
p412
I493
sS'fitnesscirclejerk'
p413
I19
sS'orlando'
p414
I8
sS'xbox'
p415
I60
sS'Megaten'
p416
I69
sS'zombies'
p417
I329
sS'ArcherFX'
p418
I703
sS'gaymersgonewild'
p419
I29
sS'getdisciplined'
p420
I421
sS'whatisthisthing'
p421
I817
sS'korea'
p422
I26
sS'NetflixBestOf'
p423
I798
sS'NewYorkMets'
p424
I36
sS'malaysia'
p425
I6
sS'MarkMyWords'
p426
I376
sS'radiohead'
p427
I55
sS'Djent'
p428
I21
sS'humor'
p429
I704
sS'mountandblade'
p430
I155
sS'AskNYC'
p431
I24
sS'rutgers'
p432
I3
sS'ExpectationVsReality'
p433
I666
sS'NorthCarolina'
p434
I18
sS'edmproduction'
p435
I140
sS'Cubs'
p436
I48
sS'lifehacks'
p437
I858
sS'letsplay'
p438
I66
sS'SCP'
p439
I231
sS'Kayaking'
p440
I24
sS'marketing'
p441
I60
sS'Random_Acts_Of_Pizza'
p442
I132
sS'PlantedTank'
p443
I25
sS'Frugal'
p444
I806
sS'promos'
p445
I678
sS'shittyaskscience'
p446
I735
sS'HITsWorthTurkingFor'
p447
I14
sS'htpc'
p448
I68
sS'newtothenavy'
p449
I7
sS'wildhockey'
p450
I32
sS'BlackMetal'
p451
I17
sS'Christianity'
p452
I530
sS'sixwordstories'
p453
I199
sS'AnimalsBeingBros'
p454
I703
sS'AskPhysics'
p455
I24
sS'Dallas'
p456
I78
sS'TinyTits'
p457
I93
sS'ft86'
p458
I25
sS'miamidolphins'
p459
I57
sS'ADHD'
p460
I321
sS'Korean'
p461
I19
sS'exmuslim'
p462
I46
sS'Argentinacirclejerk'
p463
I1
sS'gis'
p464
I6
sS'Bad_Cop_No_Donut'
p465
I789
sS'flying'
p466
I169
sS'nova'
p467
I9
sS'gif'
p468
I603
sS'Ubuntu'
p469
I291
sS'Standup'
p470
I132
sS'Calligraphy'
p471
I27
sS'happy'
p472
I570
sS'Stacked'
p473
I77
sS'bdsm'
p474
I79
sS'shortscarystories'
p475
I92
sS'batman'
p476
I587
sS'occupywallstreet'
p477
I194
sS'Dentistry'
p478
I4
sS'snackexchange'
p479
I185
sS'bengals'
p480
I57
sS'rule34'
p481
I285
sS'lgg2'
p482
I30
sS'webcomics'
p483
I339
sS'FixedGearBicycle'
p484
I58
sS'BostonBruins'
p485
I51
sS'mindcrackcirclejerk'
p486
I10
sS'whiskey'
p487
I46
sS'BritishTV'
p488
I92
sS'TryingForABaby'
p489
I28
sS'SanJoseSharks'
p490
I42
sS'golang'
p491
I28
sS'webdev'
p492
I402
sS'ToolBand'
p493
I18
sS'eatsandwiches'
p494
I333
sS'excel'
p495
I112
sS'MillerPlanetside'
p496
I3
sS'dawngate'
p497
I23
sS'linguistics'
p498
I335
sS'saplings'
p499
I99
sS'nottheonion'
p500
I737
sS'Trucks'
p501
I141
sS'ClopClop'
p502
I10
sS'football'
p503
I37
sS'GTAV'
p504
I365
sS'microgrowery'
p505
I55
sS'Accounting'
p506
I21
sS'fcbayern'
p507
I19
sS'comicbooks'
p508
I604
sS'allthingsprotoss'
p509
I7
sS'AirForce'
p510
I19
sS'guitarlessons'
p511
I29
sS'TF2fashionadvice'
p512
I27
sS'asheville'
p513
I5
sS'redditblack'
p514
I4
sS'terriblefacebookmemes'
p515
I396
sS'PrettyGirls'
p516
I428
sS'playmindcrack'
p517
I13
sS'gainit'
p518
I268
sS'OttawaSenators'
p519
I28
sS'climateskeptics'
p520
I34
sS'cincinnati'
p521
I9
sS'ABraThatFits'
p522
I127
sS'Shitty_Car_Mods'
p523
I713
sS'TaylorSwift'
p524
I8
sS'milf'
p525
I247
sS'wiiu'
p526
I453
sS'skiing'
p527
I92
sS'freelance'
p528
I49
sS'editors'
p529
I24
sS'Showerthoughts'
p530
I556
sS'duolingo'
p531
I62
sS'environment'
p532
I554
sS'reptiles'
p533
I22
sS'Redskins'
p534
I64
sS'Atlanta'
p535
I143
sS'NewOrleans'
p536
I3
sS'vegan'
p537
I250
sS'Jokes'
p538
I535
sS'vegas'
p539
I4
sS'WhiteRights'
p540
I33
sS'anonymous'
p541
I55
sS'litecoin'
p542
I70
sS'prisonarchitect'
p543
I87
sS'Celebs'
p544
I610
sS'predaddit'
p545
I13
sS'fantasywriters'
p546
I26
sS'dbz'
p547
I329
sS'techsupport'
p548
I634
sS'baconreader'
p549
I6
sS'pcgaming'
p550
I669
sS'Cumberbitches'
p551
I29
sS'DCcomics'
p552
I371
sS'fatpeoplestories'
p553
I647
sS'Swingers'
p554
I20
sS'marchingband'
p555
I4
sS'Sissies'
p556
I42
sS'electronics'
p557
I251
sS'boardgames'
p558
I413
sS'InteriorDesign'
p559
I292
sS'Ford'
p560
I49
sS'Nexus5'
p561
I337
sS'StonerPhilosophy'
p562
I56
sS'Nexus7'
p563
I187
sS'worldnews'
p564
I555
sS'marvelheroes'
p565
I30
sS'vexillology'
p566
I481
sS'ExposurePorn'
p567
I127
sS'OnceUponATime'
p568
I51
sS'transtimelines'
p569
I38
sS'baseball'
p570
I545
sS'OkCupid'
p571
I494
sS'Meditation'
p572
I365
sS'ThriftStoreHauls'
p573
I512
sS'Breadit'
p574
I114
sS'lakers'
p575
I60
sS'progmetal'
p576
I60
sS'javahelp'
p577
I20
sS'evangelion'
p578
I69
sS'Maine'
p579
I6
sS'montreal'
p580
I18
sS'whatsthisbug'
p581
I493
sS'yiff'
p582
I23
sS'hiking'
p583
I129
sS'Catholicism'
p584
I63
sS'martialarts'
p585
I57
sS'AmIFreeToGo'
p586
I270
sS'AntiJokes'
p587
I255
sS'IdiotsFightingThings'
p588
I765
sS'FinalFantasy'
p589
I303
sS'gamemaker'
p590
I6
sS'chromeos'
p591
I91
sS'Multicopter'
p592
I114
sS'gonewildaudio'
p593
I69
sS'HIMYM'
p594
I489
sS'AskHistorians'
p595
I706
sS'OutOfTheLoop'
p596
I929
sS'sports'
p597
I499
sS'Techno'
p598
I25
sS'ifyoulikeblank'
p599
I475
sS'misleadingthumbnails'
p600
I640
sS'Pareidolia'
p601
I684
sS'Eve'
p602
I297
sS'oregon'
p603
I18
sS'cordcutters'
p604
I725
sS'ladybonersgw'
p605
I104
sS'UFOs'
p606
I218
sS'baduk'
p607
I5
sS'piano'
p608
I43
sS'gameswap'
p609
I69
sS'judo'
p610
I7
sS'trackers'
p611
I152
sS'PolishGauntlet'
p612
I15
sS'alcoholism'
p613
I3
sS'Glitch_in_the_Matrix'
p614
I457
sS'WaltDisneyWorld'
p615
I12
sS'MMA'
p616
I437
sS'gamernews'
p617
I620
sS'NewsOfTheStupid'
p618
I339
sS'audiophile'
p619
I414
sS'awesome'
p620
I388
sS'Pathfinder_RPG'
p621
I87
sS'Kappa'
p622
I28
sS'supremeclothing'
p623
I22
sS'counting'
p624
I191
sS'PersonalFinanceCanada'
p625
I40
sS'Pizza'
p626
I399
sS'asmr'
p627
I446
sS'PowerMetal'
p628
I7
sS'MURICA'
p629
I814
sS'TheNarutoWorld'
p630
I5
sS'NBA2k'
p631
I97
sS'vancouver'
p632
I84
sS'bikecommuting'
p633
I55
sS'RedditLaqueristas'
p634
I308
sS'spaceporn'
p635
I713
sS'nyc'
p636
I571
sS'economy'
p637
I264
sS'GameSale'
p638
I47
sS'triathlon'
p639
I12
sS'mac'
p640
I297
sS'GradSchool'
p641
I57
sS'Sidehugs'
p642
I19
sS'BitcoinMarkets'
p643
I89
sS'oculus'
p644
I517
sS'Toonami'
p645
I31
sS'drumcorps'
p646
I4
sS'futurebeats'
p647
I161
sS'eFreebies'
p648
I187
sS'nl_Kripparrian'
p649
I14
sS'tall'
p650
I535
sS'ImGoingToHellForThis'
p651
I747
sS'manga'
p652
I174
sS'shield'
p653
I282
sS'Hunting'
p654
I163
sS'Guildwars2'
p655
I175
sS'washingtondc'
p656
I157
sS'PurplePillDebate'
p657
I80
sS'dataisbeautiful'
p658
I749
sS'LucidDreaming'
p659
I393
sS'arduino'
p660
I208
sS'MAA'
p661
I1
sS'MMFB'
p662
I79
sS'AndroidQuestions'
p663
I532
sS'applehelp'
p664
I310
sS'Bioshock'
p665
I304
sS'WorldofTanks'
p666
I104
sS'SoccerBetting'
p667
I13
sS'texas'
p668
I322
sS'MilitaryPorn'
p669
I642
sS'electronicmusic'
p670
I463
sS'finance'
p671
I135
sS'Scotland'
p672
I268
sS'halo'
p673
I442
sS'occult'
p674
I63
sS'creepyPMs'
p675
I671
sS'asianamerican'
p676
I31
sS'penpals'
p677
I50
sS'crypto'
p678
I80
sS'Watches'
p679
I320
sS'AdviceAnimals'
p680
I454
sS'haskell'
p681
I34
sS'aspergers'
p682
I43
sS'mildlyinteresting'
p683
I589
sS'TrueAtheism'
p684
I606
sS'badhistory'
p685
I478
sS'latin'
p686
I13
sS'awwnime'
p687
I101
sS'indianapolis'
p688
I1
sS'CryptoCurrency'
p689
I54
sS'malegrooming'
p690
I197
sS'canada'
p691
I615
sS'SNSD'
p692
I7
sS'htcone'
p693
I70
sS'space'
p694
I719
sS'Michigan'
p695
I77
sS'ACTrade'
p696
I25
sS'Dreadlocks'
p697
I5
sS'malefashionadvice'
p698
I612
sS'penguins'
p699
I29
sS'MCPE'
p700
I11
sS'AutoDetailing'
p701
I189
sS'Bondage'
p702
I66
sS'StLouis'
p703
I38
sS'cars'
p704
I591
sS'kansascity'
p705
I8
sS'ontario'
p706
I38
sS'vinyl'
p707
I416
sS'freemasonry'
p708
I1
sS'longrange'
p709
I39
sS'youtubehaiku'
p710
I649
sS'simracing'
p711
I52
sS'headphones'
p712
I474
sS'programming'
p713
I585
sS'howtonotgiveafuck'
p714
I588
sS'raleigh'
p715
I5
sS'MakeupAddicts'
p716
I88
sS'whatstheword'
p717
I267
sS'Dachshund'
p718
I8
sS'xbmc'
p719
I82
sS'Adelaide'
p720
I9
sS'Brazil'
p721
I4
sS'spotted'
p722
I93
sS'tennis'
p723
I46
sS'pokemon'
p724
I485
sS'JRPG'
p725
I114
sS'granturismo'
p726
I35
sS'modelmakers'
p727
I23
sS'europe'
p728
I594
sS'MeanJokes'
p729
I162
sS'explainlikeimfive'
p730
I532
sS'nutrition'
p731
I170
sS'Scholar'
p732
I17
sS'HVAC'
p733
I15
sS'3DS'
p734
I445
sS'ableton'
p735
I30
sS'MLPCCG'
p736
I5
sS'short'
p737
I143
sS'indieheads'
p738
I60
sS'VapePorn'
p739
I17
sS'learnpython'
p740
I122
sS'Battlefield'
p741
I253
sS'television'
p742
I580
sS'Colorado'
p743
I61
sS'sailing'
p744
I55
sS'PS2Cobalt'
p745
I3
sS'typography'
p746
I111
sS'knives'
p747
I394
sS'russia'
p748
I144
sS'formula1'
p749
I397
sS'BPD'
p750
I14
sS'FoodPorn'
p751
I676
sS'wifesharing'
p752
I88
sS'conspiracy'
p753
I778
sS'AnythingGoesNews'
p754
I215
sS'superman'
p755
I63
sS'GaybrosGoneWild'
p756
I32
sS'warriors'
p757
I34
sS'ChineseLanguage'
p758
I20
sS'DaftPunk'
p759
I231
sS'hookah'
p760
I25
sS'britishproblems'
p761
I554
sS'madisonwi'
p762
I4
sS'Futurology'
p763
I729
sS'MLS'
p764
I218
sS'INTP'
p765
I80
sS'crochet'
p766
I141
sS'dayzlfg'
p767
I3
sS'SVExchange'
p768
I21
sS'flyfishing'
p769
I20
sS'Amsterdam'
p770
I9
sS'malefashion'
p771
I38
sS'talesfromcallcenters'
p772
I24
sS'fffffffuuuuuuuuuuuu'
p773
I683
sS'PleX'
p774
I126
sS'selfpublish'
p775
I9
sS'sgsflair'
p776
I70
sS'spacex'
p777
I132
sS'PuzzleAndDragons'
p778
I4
sS'TheoryOfReddit'
p779
I530
sS'Sacramento'
p780
I7
sS'booksuggestions'
p781
I338
sS'VinylCollectors'
p782
I20
sS'whowouldwin'
p783
I654
sS'hockey'
p784
I502
sS'AsianHotties'
p785
I70
sS'CoDCompetitive'
p786
I17
sS'MetalMemes'
p787
I130
sS'freedonuts'
p788
I2
sS'thinkpad'
p789
I37
sS'beatles'
p790
I77
sS'arresteddevelopment'
p791
I471
sS'Random_Acts_Of_Amazon'
p792
I297
sS'mormon'
p793
I7
sS'xxketo'
p794
I86
sS'KerbalAcademy'
p795
I29
sS'lostgeneration'
p796
I387
sS'AllThingsTerran'
p797
I8
sS'elderscrollsonline'
p798
I271
sS'Denmark'
p799
I6
sS'homestead'
p800
I224
sS'Netrunner'
p801
I11
sS'HongKong'
p802
I16
sS'WeAreTheMusicMakers'
p803
I449
sS'pornvids'
p804
I62
sS'nsfw'
p805
I549
sS'truetf2'
p806
I31
sS'asatru'
p807
I10
sS'AskWomen'
p808
I573
sS'TheSimpsons'
p809
I621
sS'Entrepreneur'
p810
I461
sS'cocktails'
p811
I66
sS'osugame'
p812
I21
sS'college'
p813
I149
sS'entwives'
p814
I66
sS'pebble'
p815
I98
sS'KarmaCourt'
p816
I140
sS'MLPLounge'
p817
I129
sS'camping'
p818
I287
sS'behindthegifs'
p819
I735
sS'breakingbad'
p820
I699
sS'CompanyOfHeroes'
p821
I15
sS'outside'
p822
I781
sS'longisland'
p823
I8
sS'jobs'
p824
I533
sS'cscareerquestions'
p825
I194
sS'Diablo3Monks'
p826
I10
sS'giftcardexchange'
p827
I26
sS'gamingsuggestions'
p828
I322
sS'RedditDayOf'
p829
I460
sS'fitmeals'
p830
I266
sS'3dsFCswap'
p831
I10
sS'relationship_advice'
p832
I377
sS'BustyPetite'
p833
I380
sS'WWE'
p834
I52
sS'itookapicture'
p835
I626
sS'GunPorn'
p836
I306
sS'tulsa'
p837
I1
sS'GetMotivated'
p838
I603
sS'pakistan'
p839
I12
sS'bikesgonewild'
p840
I98
sS'cancer'
p841
I2
sS'Divorce'
p842
I4
sS'robotics'
p843
I94
sS'reactiongifs'
p844
I744
sS'Wordpress'
p845
I50
sS'Documentaries'
p846
I635
sS'EarthPorn'
p847
I568
sS'Bonsai'
p848
I12
sS'peacecorps'
p849
I1
sS'Heroclix'
p850
I1
sS'cycling'
p851
I44
sS'Charlotte'
p852
I6
sS'thelastofusfactions'
p853
I10
sS'RandomActsOfPizza'
p854
I35
sS'ketorecipes'
p855
I235
sS'confessions'
p856
I142
sS'HunterXHunter'
p857
I25
sS'MakeupAddiction'
p858
I375
sS'androidapps'
p859
I449
sS'marvelstudios'
p860
I246
sS'somethingimade'
p861
I663
sS'emulation'
p862
I161
sS'bmx'
p863
I17
sS'ruby'
p864
I43
sS'ABDL'
p865
I6
sS'GiveMeTheVirus'
p866
I7
sS'KingkillerChronicle'
p867
I19
sS'Shave_Bazaar'
p868
I9
sS'blackladies'
p869
I44
sS'Perfectfit'
p870
I498
sS'offbeat'
p871
I897
sS'Musicthemetime'
p872
I3
sS'titanfall'
p873
I417
sS'LGBTeens'
p874
I21
sS'latterdaysaints'
p875
I10
sS'ICanDrawThat'
p876
I213
sS'GNV'
p877
I3
sS'Cooking'
p878
I718
sS'IASIP'
p879
I505
sS'DIY'
p880
I640
sS'assassinscreed'
p881
I359
sS'technology'
p882
I684
sS'cheatatmathhomework'
p883
I16
sS'Israel'
p884
I153
sS'Jazz'
p885
I108
sS'pokemonzetaomicron'
p886
I78
sS'touhou'
p887
I23
sS'daddit'
p888
I414
sS'watchpeopledie'
p889
I634
sS'tolkienfans'
p890
I67
sS'singapore'
p891
I10
sS'Toyota'
p892
I41
sS'DebateAChristian'
p893
I120
sS'linux_gaming'
p894
I169
sS'climbing'
p895
I127
sS'Physics'
p896
I467
sS'PipeTobacco'
p897
I32
sS'traps'
p898
I80
sS'TrueFilm'
p899
I316
sS'dfsports'
p900
I13
sS'TimAndEric'
p901
I101
sS'gtavcustoms'
p902
I32
sS'Graffiti'
p903
I187
sS'AskEngineers'
p904
I322
sS'diablo3'
p905
I244
sS'awwwtf'
p906
I482
sS'Barca'
p907
I20
sS'brisbane'
p908
I10
sS'Boxing'
p909
I78
sS'rupaulsdragrace'
p910
I28
sS'mycology'
p911
I130
sS'dadjokes'
p912
I717
sS'woodworking'
p913
I553
sS'whitepeoplegifs'
p914
I544
sS'Greyhounds'
p915
I3
sS'Miata'
p916
I49
sS'UIUC'
p917
I5
sS'Advice'
p918
I313
sS'linuxadmin'
p919
I61
sS'LearnJapanese'
p920
I58
sS'fairytail'
p921
I32
sS'perth'
p922
I9
sS'offmychest'
p923
I635
sS'Delaware'
p924
I3
sS'RandomActsOfPolish'
p925
I46
sS'Attackontitangame'
p926
I3
sS'dota2loungebets'
p927
I6
sS'altgonewild'
p928
I88
sS'Dualsport'
p929
I28
sS'Shadowrun'
p930
I20
sS'SmiteLFM'
p931
I1
sS'grammar'
p932
I75
sS'bodyweightfitness'
p933
I398
sS'oblivion'
p934
I78
sS'compsci'
p935
I276
sS'montageparodies'
p936
I510
sS'incremental_games'
p937
I37
sS'HPMOR'
p938
I25
sS'ShouldIbuythisgame'
p939
I486
sS'cowboys'
p940
I89
sS'Berserk'
p941
I26
sS'gameofthrones'
p942
I620
sS'phoenix'
p943
I1
sS'Wicca'
p944
I6
sS'3Dprinting'
p945
I232
sS'glassheads'
p946
I52
sS'metalgearsolid'
p947
I223
sS'transformers'
p948
I28
sS'business'
p949
I511
sS'FloridaMan'
p950
I803
sS'skrillex'
p951
I20
sS'nyjets'
p952
I68
sS'JonTron'
p953
I209
sS'drums'
p954
I90
sS'whatsthisplant'
p955
I181
sS'custommagic'
p956
I19
sS'MvC3'
p957
I3
sS'GoneWildPlus'
p958
I84
sS'dontstarve'
p959
I46
sS'wheredidthesodago'
p960
I836
sS'Images'
p961
I336
sS'NSFWFunny'
p962
I323
sS'amiugly'
p963
I407
sS'puppy101'
p964
I13
sS'linuxquestions'
p965
I120
sS'bjj'
p966
I32
sS'snapchat'
p967
I13
sS'marijuanaenthusiasts'
p968
I247
sS'Warhammer40k'
p969
I59
sS'homestuck'
p970
I58
sS'mcservers'
p971
I21
sS'DnD'
p972
I453
sS'DnB'
p973
I39
sS'philadelphia'
p974
I136
sS'cats'
p975
I621
sS'emacs'
p976
I30
sS'raisedbynarcissists'
p977
I455
sS'cablefail'
p978
I191
sS'spicy'
p979
I159
sS'gamegrumps'
p980
I356
sS'snes'
p981
I33
sS'beerporn'
p982
I147
sS'bindingofisaac'
p983
I227
sS'starbucks'
p984
I7
sS'itmejp'
p985
I9
sS'rugbyunion'
p986
I52
sS'shittyaskreddit'
p987
I178
sS'Marvel'
p988
I556
sS'videography'
p989
I30
sS'rage'
p990
I850
sS'comics'
p991
I813
sS'House'
p992
I27
sS'xmen'
p993
I86
sS'asexuality'
p994
I10
sS'rust'
p995
I23
sS'fullmoviesonyoutube'
p996
I777
sS'rva'
p997
I4
sS'videos'
p998
I475
sS'SketchDaily'
p999
I18
sS'arabs'
p1000
I33
sS'FL_Studio'
p1001
I23
sS'peloton'
p1002
I16
sS'politics'
p1003
I706
sS'Veterans'
p1004
I31
sS'ForeverAlone'
p1005
I359
sS'24hoursupport'
p1006
I45
sS'bicycling'
p1007
I620
sS'Survival'
p1008
I342
sS'shittyama'
p1009
I292
sS'zelda'
p1010
I497
sS'OrthodoxChristianity'
p1011
I11
sS'Cinemagraphs'
p1012
I526
sS'ScotchSwap'
p1013
I6
sS'Frugal_Jerk'
p1014
I330
sS'GalaxyS3'
p1015
I25
sS'ColoradoAvalanche'
p1016
I34
sS'stocks'
p1017
I54
sS'alcohol'
p1018
I36
sS'Thetruthishere'
p1019
I35
sS'cosplaygirls'
p1020
I492
sS'AdoptMyVillager'
p1021
I16
sS'feedthebeast'
p1022
I130
sS'Kikpals'
p1023
I21
sS'curvy'
p1024
I154
sS'cpp'
p1025
I44
sS'AsianBeauty'
p1026
I44
sS'livesound'
p1027
I25
sS'learndota2'
p1028
I20
sS'AndroidGaming'
p1029
I433
sS'shrooms'
p1030
I53
sS'KitchenConfidential'
p1031
I287
sS'goldenretrievers'
p1032
I11
sS'SampleSize'
p1033
I182
sS'Transmogrification'
p1034
I9
sS'askphilosophy'
p1035
I185
sS'financialindependence'
p1036
I207
sS'Miniswap'
p1037
I4
sS'Cricket'
p1038
I46
sS'Scotch'
p1039
I167
sS'Habs'
p1040
I39
sS'acting'
p1041
I7
sS'swoleacceptance'
p1042
I146
sS'MaddenUltimateTeam'
p1043
I38
sS'ImaginaryMonsters'
p1044
I410
sS'webhosting'
p1045
I52
sS'BMW'
p1046
I206
sS'InfertilityBabies'
p1047
I10
sS'PerfectTiming'
p1048
I797
sS'YouShouldKnow'
p1049
I910
sS'Jeep'
p1050
I204
sS'horror'
p1051
I412
sS'progrockmusic'
p1052
I28
sS'bleach'
p1053
I43
sS'spelunky'
p1054
I13
sS'IWantToLearn'
p1055
I699
sS'Pegging'
p1056
I65
sS'ftm'
p1057
I12
sS'yugioh'
p1058
I46
sS'anal'
p1059
I74
sS'LetsTalkMusic'
p1060
I188
sS'tea'
p1061
I355
sS'Denver'
p1062
I100
sS'POLITIC'
p1063
I257
sS'rapbattles'
p1064
I3
sS'AmISexy'
p1065
I218
sS'nba'
p1066
I455
sS'fantasyfootball'
p1067
I361
sS'cigars'
p1068
I92
sS'forwardsfromgrandma'
p1069
I722
sS'frugalmalefashion'
p1070
I491
sS'skeptic'
p1071
I773
sS'AskPhotography'
p1072
I10
sS'Anticonsumption'
p1073
I221
sS'powerrangers'
p1074
I27
sS'GuessTheMovie'
p1075
I142
sS'guns'
p1076
I621
sS'tattoos'
p1077
I582
sS'iran'
p1078
I16
sS'hcfactions'
p1079
I8
sS'needamod'
p1080
I172
sS'LetsNotMeet'
p1081
I273
sS'legaladvice'
p1082
I500
sS'AskElectronics'
p1083
I137
sS'Ebay'
p1084
I24
sS'Supplements'
p1085
I49
sS'berkeley'
p1086
I7
sS'doctorwho'
p1087
I627
sS'Braves'
p1088
I43
sS'WritingPrompts'
p1089
I479
sS'sanfrancisco'
p1090
I264
sS'nursing'
p1091
I41
sS'vegetarian'
p1092
I202
sS'creepy'
p1093
I529
sS'pics'
p1094
I436
sS'cripplingalcoholism'
p1095
I137
sS'advertising'
p1096
I26
sS'IWantOut'
p1097
I406
sS'HalfLife'
p1098
I205
sS'shanghai'
p1099
I7
sS'Yogscast'
p1100
I142
sS'todayilearned'
p1101
I526
sS'jailbreak'
p1102
I297
sS'vim'
p1103
I61
sS'Louisville'
p1104
I3
sS'ronandfez'
p1105
I5
sS'Eminem'
p1106
I23
sS'Columbus'
p1107
I8
sS'WebGames'
p1108
I326
sS'musictheory'
p1109
I78
sS'battlefield_4'
p1110
I464
sS'pkmntcgtrades'
p1111
I12
sS'Philippines'
p1112
I4
sS'galaxys4'
p1113
I27
sS'namenerds'
p1114
I41
sS'KillLaKill'
p1115
I157
sS'showerbeer'
p1116
I317
sS'science'
p1117
I708
sS'firstworldproblems'
p1118
I785
sS'Mustang'
p1119
I59
sS'history'
p1120
I607
sS'Denton'
p1121
I4
sS'weightroom'
p1122
I132
sS'AskScienceFiction'
p1123
I637
sS'Glocks'
p1124
I53
sS'Infographics'
p1125
I364
sS'Throwers'
p1126
I1
sS'CampingandHiking'
p1127
I479
sS'hardbodies'
p1128
I340
sS'techsupportmacgyver'
p1129
I627
sS'backpacking'
p1130
I194
sS'Hotchickswithtattoos'
p1131
I185
sS'scifi'
p1132
I774
sS'starcraft'
p1133
I341
sS'Dreams'
p1134
I40
sS'Archery'
p1135
I40
sS'Chattanooga'
p1136
I3
sS'blackops2'
p1137
I29
sS'discgolf'
p1138
I50
sS'budgetfood'
p1139
I344
sS'oaklandraiders'
p1140
I67
sS'comicbookmovies'
p1141
I111
sS'uwaterloo'
p1142
I9
sS'MachinePorn'
p1143
I479
sS'Warframe'
p1144
I122
sS'Shitstatistssay'
p1145
I112
sS'crafts'
p1146
I201
sS'streetwear'
p1147
I120
sS'DataHoarder'
p1148
I86
sS'Nerf'
p1149
I7
sS'photoshop'
p1150
I77
sS'help'
p1151
I108
sS'softwareswap'
p1152
I86
sS'DoesAnybodyElse'
p1153
I707
sS'pettyrevenge'
p1154
I780
sS'malehairadvice'
p1155
I439
sS'SF4'
p1156
I43
sS'DeepIntoYouTube'
p1157
I642
sS'csharp'
p1158
I40
sS'DIY_eJuice'
p1159
I11
sS'gamingpc'
p1160
I273
sS'islam'
p1161
I208
sS'YGOSales'
p1162
I4
sS'summonerschool'
p1163
I199
sS'computers'
p1164
I57
sS'ottawa'
p1165
I17
sS'Cardinals'
p1166
I53
sS'StonerEngineering'
p1167
I270
sS'gamedesign'
p1168
I50
sS'TrueChristian'
p1169
I26
sS'argentina'
p1170
I4
sS'soccer'
p1171
I477
sS'askseddit'
p1172
I41
sS'TheRedLion'
p1173
I12
sS'Frisson'
p1174
I661
sS'GunsAreCool'
p1175
I130
sS'food'
p1176
I584
sS'90daysgoal'
p1177
I6
sS'shittydarksouls'
p1178
I6
sS'gmod'
p1179
I56
sS'NoStupidQuestions'
p1180
I784
sS'VideoEditing'
p1181
I27
sS'makeupexchange'
p1182
I61
sS'WatchItForThePlot'
p1183
I634
sS'freebies'
p1184
I762
sS'radiocontrol'
p1185
I70
sS'gamemusic'
p1186
I204
sS'energy'
p1187
I281
sS'Saints'
p1188
I49
sS'MST3K'
p1189
I47
sS'Dota2Trade'
p1190
I18
sS'TwoXChromosomes'
p1191
I476
sS'Magic'
p1192
I3
sS'DunderMifflin'
p1193
I438
sS'psychology'
p1194
I571
sS'demonssouls'
p1195
I20
sS'LearnUselessTalents'
p1196
I747
sS'leagueoflegends'
p1197
I195
sS'randomsexiness'
p1198
I129
sS'Astronomy'
p1199
I563
sS'DarkSouls2'
p1200
I314
sS'CatsStandingUp'
p1201
I123
sS'ass'
p1202
I297
sS'wisconsin'
p1203
I20
sS'hackintosh'
p1204
I70
sS'longboarding'
p1205
I175
sS'Tucson'
p1206
I1
sS'Roadcam'
p1207
I428
sS'TributeMe'
p1208
I67
sS'PoliticalHumor'
p1209
I429
sS'TalesFromThePizzaGuy'
p1210
I221
sS'running'
p1211
I465
sS'ar15'
p1212
I137
sS'belgium'
p1213
I8
sS'snowboarding'
p1214
I159
sS'NYKnicks'
p1215
I43
sS'Turkey'
p1216
I15
sS'seduction'
p1217
I466
sS'weddingplanning'
p1218
I136
sS'churning'
p1219
I54
sS'sydney'
p1220
I16
sS'misc'
p1221
I359
sS'patientgamers'
p1222
I717
sS'feet'
p1223
I74
sS'conspiratard'
p1224
I754
sS'GreenBayPackers'
p1225
I172
sS'cade'
p1226
I29
sS'gtaonline'
p1227
I125
sS'Tribes'
p1228
I2
sS'tf2'
p1229
I474
sS'projectcar'
p1230
I86
sS'OldSchoolCool'
p1231
I602
sS'OpiatesRecovery'
p1232
I10
sS'onetruegod'
p1233
I328
sS'rails'
p1234
I26
sS'Autos'
p1235
I559
sS'shittyreactiongifs'
p1236
I453
sS'Everton'
p1237
I19
sS'aves'
p1238
I48
sS'SuggestALaptop'
p1239
I277
sS'GTA'
p1240
I289
sS'TrollYChromosome'
p1241
I638
sS'Metroid'
p1242
I63
sS'DaystromInstitute'
p1243
I236
sS'GODZILLA'
p1244
I145
sS'mylittlepony'
p1245
I305
sS'DumpsterDiving'
p1246
I75
sS'madmen'
p1247
I282
sS'Plumbing'
p1248
I14
sS'dogemarket'
p1249
I160
sS'vintageaudio'
p1250
I22
sS'SelfDrivingCars'
p1251
I134
sS'sto'
p1252
I17
sS'Coilporn'
p1253
I21
sS'kindle'
p1254
I91
sS'CombatFootage'
p1255
I562
sS'XWingTMG'
p1256
I11
sS'COents'
p1257
I19
sS'collapse'
p1258
I317
sS'HighQualityGifs'
p1259
I628
sS'Aleague'
p1260
I27
sS'trance'
p1261
I22
sS'self'
p1262
I811
sS'HomeworkHelp'
p1263
I53
sS'StarcraftCirclejerk'
p1264
I7
sS'CivcraftExchange'
p1265
I5
sS'vmware'
p1266
I33
sS'BeardPorn'
p1267
I61
sS'paydaytheheist'
p1268
I277
sS'MovieSuggestions'
p1269
I157
sS'curlyhair'
p1270
I131
sS'ActionFigures'
p1271
I28
sS'KingdomHearts'
p1272
I98
sS'pittsburgh'
p1273
I6
sS'realmadrid'
p1274
I19
sS'personalfinance'
p1275
I494
sS'progresspics'
p1276
I558
sS'statistics'
p1277
I36
sS'beyondthebump'
p1278
I65
sS'RBA'
p1279
I22
sS'windows'
p1280
I437
sS'jakeandamir'
p1281
I5
sS'newjersey'
p1282
I173
sS'Silverbugs'
p1283
I51
sS'TumblrInAction'
p1284
I784
sS'Fishing'
p1285
I292
sS'vaporents'
p1286
I205
sS'golf'
p1287
I233
sS'Psychonaut'
p1288
I446
sS'adventuretime'
p1289
I564
sS'runescape'
p1290
I128
sS'guineapigs'
p1291
I8
sS'stalker'
p1292
I41
sS'bodybuilding'
p1293
I382
sS'Foodforthought'
p1294
I694
sS'blender'
p1295
I78
sS'Amateur'
p1296
I195
sS'Bass'
p1297
I111
sS'printSF'
p1298
I132
sS'French'
p1299
I41
sS'harrypotter'
p1300
I590
sS'wicked_edge'
p1301
I523
sS'Trove'
p1302
I5
sS'DetroitRedWings'
p1303
I43
sS'boulder'
p1304
I9
sS'Cubers'
p1305
I7
sS'TalesFromYourServer'
p1306
I421
sS'CrusaderKings'
p1307
I232
sS'trees'
p1308
I474
sS'Conservative'
p1309
I560
sS'PrettyGirlsUglyFaces'
p1310
I332
sS'overclocking'
p1311
I59
sS'AbandonedPorn'
p1312
I795
sS'spikes'
p1313
I16
sS'Rabbits'
p1314
I76
sS'tmobile'
p1315
I110
sS'progressive'
p1316
I346
sS'postrock'
p1317
I38
sS'progun'
p1318
I206
sS'Marijuana'
p1319
I202
sS'Minneapolis'
p1320
I6
sS'croatia'
p1321
I2
sS'ClashOfClans'
p1322
I219
sS'corgi'
p1323
I238
sS'PHP'
p1324
I75
sS'cringe'
p1325
I752
sS'airsoftmarket'
p1326
I8
sS'bakchodi'
p1327
I3
sS'Rochester'
p1328
I3
sS'CalgaryFlames'
p1329
I28
sS'devils'
p1330
I28
sS'VictoriaBC'
p1331
I8
sS'sex'
p1332
I551
sS'SanJose'
p1333
I10
sS'see'
p1334
I292
sS'friendsafari'
p1335
I34
sS'sips'
p1336
I33
sS'Vaping101'
p1337
I9
sS'HeroesofNewerth'
p1338
I5
sS'analog'
p1339
I39
sS'rawdenim'
p1340
I61
sS'cosplay'
p1341
I536
sS'AmericanHorrorStory'
p1342
I243
sS'foodhacks'
p1343
I506
sS'Anarchy101'
p1344
I46
sS'RWBY'
p1345
I69
sS'steelers'
p1346
I55
sS'AsianLadyboners'
p1347
I15
sS'iosgaming'
p1348
I68
sS'glitch_art'
p1349
I344
sS'flightsim'
p1350
I33
sS'PixelArt'
p1351
I118
sS'AskTechnology'
p1352
I27
sS'javascript'
p1353
I122
sS'celebnsfw'
p1354
I323
sS'NASCAR'
p1355
I194
sS'fakeid'
p1356
I2
sS'newhampshire'
p1357
I13
sS'Unexpected'
p1358
I840
sS'saskatoon'
p1359
I4
sS'Sherlock'
p1360
I459
sS'baltimore'
p1361
I13
sS'drunk'
p1362
I679
sS'xxfitness'
p1363
I228
sS'community'
p1364
I613
sS'BBWGW'
p1365
I57
sS'linux'
p1366
I563
sS'femalefashionadvice'
p1367
I300
sS'java'
p1368
I73
sS'PotterPlayRP'
p1369
I7
sS'bostonceltics'
p1370
I44
sS'Guitar'
p1371
I470
sS'southafrica'
p1372
I2
sS'California'
p1373
I251
sS'ireland'
p1374
I214
sS'boston'
p1375
I321
sS'web_design'
p1376
I466
sS'orioles'
p1377
I58
sS'EA_NHL'
p1378
I55
sS'gay'
p1379
I25
sS'mturk'
p1380
I12
sS'germanshepherds'
p1381
I11
sS'MapPorn'
p1382
I780
sS'thelastofus'
p1383
I132
sS'forza'
p1384
I66
sS'buildapcforme'
p1385
I205
sS'sandiego'
p1386
I66
sS'Chromecast'
p1387
I420
sS'Flipping'
p1388
I139
sS'metacanada'
p1389
I27
sS'ultrahardcore'
p1390
I10
sS'MtF'
p1391
I14
sS'OnOff'
p1392
I264
sS'C25K'
p1393
I82
sS'stopdrinking'
p1394
I58
sS'rit'
p1395
I2
sS'Filmmakers'
p1396
I285
sS'RandomActsOfBlowJob'
p1397
I75
sS'southpark'
p1398
I704
sS'funny'
p1399
I410
sS'astrophotography'
p1400
I142
sS'deadpool'
p1401
I106
sS'migraine'
p1402
I5
sS'selfimprovement'
p1403
I84
sS'stlouisblues'
p1404
I48
sS'chelseafc'
p1405
I30
sS'SaltLakeCity'
p1406
I5
sS'windows8'
p1407
I157
sS'fifthworldproblems'
p1408
I265
sS'Anarchism'
p1409
I315
sS'knitting'
p1410
I128
sS'borussiadortmund'
p1411
I21
sS'AnimalsBeingJerks'
p1412
I801
sS'KDRAMA'
p1413
I7
sS'torontoraptors'
p1414
I36
sS'catpictures'
p1415
I178
sS'lacrosse'
p1416
I1
sS'OutreachHPG'
p1417
I10
sS'infertility'
p1418
I12
sS'ArtistLounge'
p1419
I9
sS'anime'
p1420
I469
sS'RedditDads'
p1421
I8
sS'Iceland'
p1422
I3
sS'chemistry'
p1423
I219
sS'exjw'
p1424
I9
sS'breastfeeding'
p1425
I46
sS'Albany'
p1426
I1
sS'Piracy'
p1427
I258
sS'CCW'
p1428
I297
sS'Porsche'
p1429
I44
sS'OFWGKTA'
p1430
I33
sS'Switzerland'
p1431
I4
sS'SkyDiving'
p1432
I5
sS'Magicdeckbuilding'
p1433
I14
sS'design_critiques'
p1434
I56
sS'startups'
p1435
I245
sS'gaybrosgonemild'
p1436
I25
sS'carporn'
p1437
I592
sS'TalesFromRetail'
p1438
I722
sS'TrueReddit'
p1439
I857
sS'CasualPokemonTrades'
p1440
I30
sS'quityourbullshit'
p1441
I874
sS'ProtectAndServe'
p1442
I579
sS'rangers'
p1443
I54
sS'hiphopheads'
p1444
I504
sS'PlayStationPlus'
p1445
I173
sS'exmormon'
p1446
I146
sS'NSFW_GIF'
p1447
I478
sS'HomeNetworking'
p1448
I71
sS'Harley'
p1449
I19
sS'glasgow'
p1450
I8
sS'clothdiaps'
p1451
I20
sS'BipolarReddit'
p1452
I14
sS'jacksonville'
p1453
I4
sS'RedPillWomen'
p1454
I26
sS'ConfusedBoners'
p1455
I323
sS'strife'
p1456
I11
sS'UBC'
p1457
I3
sS'csshelp'
p1458
I28
sS'MTGLegacy'
p1459
I9
sS'google'
p1460
I551
sS'gardening'
p1461
I573
sS'unitedkingdom'
p1462
I576
sS'watercooling'
p1463
I29
sS'circlebroke2'
p1464
I78
sS'interestingasfuck'
p1465
I864
sS'FeMRADebates'
p1466
I51
sS'Fibromyalgia'
p1467
I3
sS'SFGiants'
p1468
I69
sS'Warmachine'
p1469
I13
sS'AMA'
p1470
I543
sS'DarkNetMarkets'
p1471
I143
sS'religion'
p1472
I114
sS'Gunsforsale'
p1473
I69
sS'Enhancement'
p1474
I527
sS'DeadBedrooms'
p1475
I132
sS'Economics'
p1476
I651
sS'Hawaii'
p1477
I4
sS'rccars'
p1478
I24
sS'Flyers'
p1479
I35
sS'lewronggeneration'
p1480
I724
sS'roblox'
p1481
I3
sS'Unity3D'
p1482
I65
sS'Romania'
p1483
I1
sS'calvinandhobbes'
p1484
I449
sS'netflix'
p1485
I643
sS'bayarea'
p1486
I185
sS'Pmsforsale'
p1487
I5
sS'ShitAmericansSay'
p1488
I265
sS'intj'
p1489
I96
sS'selfharm'
p1490
I10
sS'subaru'
p1491
I355
sS'RandomKindness'
p1492
I164
sS'tifu'
p1493
I549
sS'france'
p1494
I32
sS'SimCity'
p1495
I131
sS'loseit'
p1496
I543
sS'CrazyIdeas'
p1497
I888
sS'TinyHouses'
p1498
I373
sS'SquaredCircle'
p1499
I346
sS'linux4noobs'
p1500
I163
sS'mylittleandysonic1'
p1501
I9
sS'sousvide'
p1502
I20
sS'asstastic'
p1503
I147
sS'iphone'
p1504
I594
sS'BeardedDragons'
p1505
I6
sS'Suomi'
p1506
I3
sS'lockpicking'
p1507
I115
sS'teslamotors'
p1508
I255
sS'Cigarettes'
p1509
I10
sS'gatech'
p1510
I5
sS'dirtypenpals'
p1511
I71
sS'sailormoon'
p1512
I46
sS'Blacksmith'
p1513
I47
sS'NoFap'
p1514
I254
sS'Austin'
p1515
I261
sS'ProgrammerHumor'
p1516
I609
sS'bettafish'
p1517
I22
sS'gonewild'
p1518
I347
sS'pathofexile'
p1519
I135
sS'infj'
p1520
I12
sS'discexchange'
p1521
I1
sS'forhire'
p1522
I181
sS'askdrugs'
p1523
I41
sS'conlangs'
p1524
I27
sS'civ'
p1525
I569
sS'lookatmydog'
p1526
I77
sS'RealEstate'
p1527
I211
sS'infp'
p1528
I21
sS'TrueAskReddit'
p1529
I627
sS'engineering'
p1530
I440
sS'ExploreFiction'
p1531
I2
sS'CanadianForces'
p1532
I17
sS'Seahawks'
p1533
I294
sS'dirtykikpals'
p1534
I46
sS'Colts'
p1535
I58
sS'workgonewild'
p1536
I81
sS'tabletopgamedesign'
p1537
I21
sS'Baking'
p1538
I267
sS'socialanxiety'
p1539
I59
sS'londonontario'
p1540
I7
sS'ModernMagic'
p1541
I10
sS'orangecounty'
p1542
I9
sS'askcarsales'
p1543
I60
sS'youtube'
p1544
I298
sS'microsoft'
p1545
I120
sS'urbanexploration'
p1546
I477
sS'crossdressing'
p1547
I23
sS'inthenews'
p1548
I317
sS'BuyItForLife'
p1549
I784
sS'syriancivilwar'
p1550
I157
sS'Drifting'
p1551
I46
sS'JoeRogan'
p1552
I262
sS'AnimeFigures'
p1553
I27
sS'picrequests'
p1554
I296
sS'archlinux'
p1555
I85
sS'GYBB'
p1556
I8
sS'holdmybeer'
p1557
I803
sS'FreeKarma'
p1558
I73
sS'premed'
p1559
I7
sS'dwarffortress'
p1560
I291
sS'PanicHistory'
p1561
I160
sS'BasicIncome'
p1562
I411
sS'ukulele'
p1563
I8
sS'UpliftingNews'
p1564
I653
sS'3amjokes'
p1565
I220
sS'photoshopbattles'
p1566
I656
sS'Edmonton'
p1567
I11
sS'techsupportgore'
p1568
I823
sS'Surface'
p1569
I96
sS'CrappyDesign'
p1570
I872
sS'Patriots'
p1571
I214
sS'Cyberpunk'
p1572
I706
sS'Libertarian'
p1573
I728
sS'Seattle'
p1574
I400
sS'Anarcho_Capitalism'
p1575
I288
sS'aggies'
p1576
I11
sS'Whatisthis'
p1577
I154
sS'Paleo'
p1578
I341
sS'EatCheapAndHealthy'
p1579
I674
sS'gentlemanboners'
p1580
I704
sS'counterstrike'
p1581
I65
sS'blackpeoplegifs'
p1582
I557
sS'redditgetsdrawn'
p1583
I392
sS'neopets'
p1584
I20
sS'Naruto'
p1585
I268
sS'Norway'
p1586
I13
sS'depression'
p1587
I431
sS'no_sob_story'
p1588
I311
sS'chicago'
p1589
I383
sS'falcons'
p1590
I51
sS'Warthunder'
p1591
I227
sS'DebateReligion'
p1592
I293
sS'mindcrack'
p1593
I140
sS'AfterEffects'
p1594
I21
sS'AskNetsec'
p1595
I58
sS'MotoG'
p1596
I34
sS'AnimalCrossing'
p1597
I215
sS'languagelearning'
p1598
I232
sS'MotoX'
p1599
I68
sS'pantsu'
p1600
I17
sS'Equestrian'
p1601
I3
sS'Ingress'
p1602
I55
sS'tipofmypenis'
p1603
I101
sS'survivor'
p1604
I20
sS'Cynicalbrit'
p1605
I411
sS'ShotBow'
p1606
I7
sS'alaska'
p1607
I1
sS'mtgfinance'
p1608
I10
sS'firefox'
p1609
I216
sS'apple'
p1610
I613
sS'Assistance'
p1611
I204
sS'confession'
p1612
I635
sS'KingOfTheHill'
p1613
I193
sS'Firearms'
p1614
I346
sS'festivals'
p1615
I39
sS'singing'
p1616
I18
sS'FifaCareers'
p1617
I22
sS'graphic_design'
p1618
I286
sS'eldertrees'
p1619
I344
sS'AustralianMakeup'
p1620
I20
sS'eagles'
p1621
I107
sS'tipofmytongue'
p1622
I632
sS'rpg_gamers'
p1623
I115
sS'opiates'
p1624
I54
sS'parrots'
p1625
I25
sS'LifeProTips'
p1626
I702
sS'asoiaf'
p1627
I514
sS'penis'
p1628
I65
sS'AskMen'
p1629
I661
sS'beermoney'
p1630
I304
sS'findareddit'
p1631
I565
sS'Birmingham'
p1632
I2
sS'gundeals'
p1633
I78
sS'ferrets'
p1634
I8
sS'solotravel'
p1635
I109
sS'ShitPoliticsSays'
p1636
I61
sS'learnprogramming'
p1637
I598
sS'TwoBestFriendsPlay'
p1638
I57
sS'polandball'
p1639
I664
sS'Ask_Politics'
p1640
I162
sS'asktrp'
p1641
I48
sS'netsec'
p1642
I319
sS'Xcom'
p1643
I131
sS'needadvice'
p1644
I285
sS'CableManagement'
p1645
I79
sS'Gore'
p1646
I315
sS'PickAnAndroidForMe'
p1647
I47
sS'PJRP_Community'
p1648
I6
sS'GiftofGames'
p1649
I276
sS'kickstarter'
p1650
I103
sS'highdeas'
p1651
I105
sS'Nissan'
p1652
I37
sS'philosophy'
p1653
I445
sS'Mommit'
p1654
I97
sS'classic4chan'
p1655
I539
sS'paintball'
p1656
I13
sS'nexus4'
p1657
I119
sS'CHIBears'
p1658
I146
sS'dating_advice'
p1659
I193
sS'listentothis'
p1660
I506
sS'shroomers'
p1661
I22
sS'software'
p1662
I166
sS'cableporn'
p1663
I383
sS'bartenders'
p1664
I14
sS'houston'
p1665
I121
sS'Gunpla'
p1666
I26
sS'electronic_cigarette'
p1667
I395
sS'actuallesbians'
p1668
I134
sS'Supernatural'
p1669
I177
sS'spotify'
p1670
I96
sS'BabyBumps'
p1671
I127
sS'beards'
p1672
I630
sS'gaybros'
p1673
I264
sS'pornfree'
p1674
I17
sS'fantasybaseball'
p1675
I65
sS'nostalgia'
p1676
I761
sS'pugs'
p1677
I17
sS'Rainmeter'
p1678
I233
sS'Maplestory'
p1679
I9
sS'BigBoobsGW'
p1680
I87
sS'MensRights'
p1681
I733
sS'YMS'
p1682
I47
sS'LosAngeles'
p1683
I456
sS'smallbusiness'
p1684
I146
sS'Miami'
p1685
I6
sS'DebateAnAtheist'
p1686
I143
sS'reddevils'
p1687
I86
sS'motorcycles'
p1688
I537
sS'LiverpoolFC'
p1689
I65
sS'tightdresses'
p1690
I106
sS'nfl'
p1691
I511
sS'PropagandaPosters'
p1692
I522
sS'mashups'
p1693
I153
sS'SubredditDrama'
p1694
I876
sS'minimalism'
p1695
I737
sS'eu4'
p1696
I117
sS'lfg'
p1697
I19
sS'MakeNewFriendsHere'
p1698
I14
sS'DoctorWhumour'
p1699
I91
sS'TrollXChromosomes'
p1700
I667
sS'serbia'
p1701
I3
sS'Madden'
p1702
I94
sS'TEFL'
p1703
I26
sS'books'
p1704
I533
sS'popping'
p1705
I521
sS'entertainment'
p1706
I615
sS'PKA'
p1707
I56
sS'China'
p1708
I101
sS'RoomPorn'
p1709
I739
sS'Hotwife'
p1710
I80
sS'memes'
p1711
I290
sS'math'
p1712
I468
sS'wallpaper'
p1713
I445
sS'Brooklyn'
p1714
I11
sS'whatcarshouldIbuy'
p1715
I57
sS'AppalachianTrail'
p1716
I13
sS'conservatives'
p1717
I43
sS'GamePhysics'
p1718
I685
sS'pokemontrades'
p1719
I46
sS'Buffalo'
p1720
I5
sS'RedHotChiliPeppers'
p1721
I15
sS'Firefighting'
p1722
I15
sS'Borderlands'
p1723
I322
sS'recipes'
p1724
I503
sS'florida'
p1725
I46
sS'Planetside'
p1726
I236
sS'49ers'
p1727
I156
sS'resumes'
p1728
I39
sS'gunpolitics'
p1729
I91
sS'Bombing'
p1730
I17
sS'dragonage'
p1731
I258
sS'AsiansGoneWild'
p1732
I99
sS'tappedout'
p1733
I31
sS'CrossStitch'
p1734
I53
sS'privacy'
p1735
I420
sS'classicalmusic'
p1736
I207
sS'Awesomenauts'
p1737
I10
sS'Frat'
p1738
I14
sS'Disneyland'
p1739
I17
sS'Indiemakeupandmore'
p1740
I68
sS'Boobies'
p1741
I230
sS'Gundam'
p1742
I44
sS'gtaglitches'
p1743
I48
sS'Terraria'
p1744
I255
sS'breakingmom'
p1745
I68
sS'surfing'
p1746
I24
sS'skyrim'
p1747
I652
sS'Twitch'
p1748
I159
sS'SRSGaming'
p1749
I42
sS'ipad'
p1750
I260
sS'thatHappened'
p1751
I796
sS'sweden'
p1752
I172
sS'changemyview'
p1753
I785
sS'ChronicPain'
p1754
I26
sS'bisexual'
p1755
I105
sS'urbanplanning'
p1756
I67
sS'mflb'
p1757
I44
sS'teenagers'
p1758
I552
sS'ecigclassifieds'
p1759
I26
sS'sysadmin'
p1760
I527
sS'explainlikeIAmA'
p1761
I568
sS'homelab'
p1762
I115
sS'redsox'
p1763
I79
sS'Nootropics'
p1764
I228
sS'IAmA'
p1765
I468
sS'bonnaroo'
p1766
I26
sS'Reformed'
p1767
I9
sS'slowcooking'
p1768
I633
sS'UnresolvedMysteries'
p1769
I328
sS'nonononoyes'
p1770
I871
sS'FutureWhatIf'
p1771
I273
sS'firefly'
p1772
I567
sS'badphilosophy'
p1773
I132
sS'aww'
p1774
I481
sS'sewing'
p1775
I159
sS'Games'
p1776
I660
sS'hearthstone'
p1777
I310
sS'Trucking'
p1778
I1
sS'comiccodes'
p1779
I4
sS'secretsanta'
p1780
I471
sS'lotr'
p1781
I508
sS'HailCorporate'
p1782
I596
sS'painting'
p1783
I17
sS'wow'
p1784
I379
sS'IDAP'
p1785
I69
sS'RandomActsOfGaming'
p1786
I543
sS'redheads'
p1787
I83
sS'Smite'
p1788
I70
sS'photocritique'
p1789
I128
sS'xbox360'
p1790
I347
sS'PoliticalDiscussion'
p1791
I579
sS'teslore'
p1792
I81
sS'manchester'
p1793
I10
sS'RandomActsofMakeup'
p1794
I121
sS'TheBluePill'
p1795
I402
sS'MDMA'
p1796
I42
sS'learnmath'
p1797
I69
sS'hugeboobs'
p1798
I77
sS'blunderyears'
p1799
I713
sS'bourbon'
p1800
I99
sS'Welding'
p1801
I87
sS'buildapcsales'
p1802
I494
sS'shutupandtakemymoney'
p1803
I806
sS'Tulpas'
p1804
I9
sS'photography'
p1805
I553
sS'JusticePorn'
p1806
I830
sS'smashbros'
p1807
I418
sS'Fitness'
p1808
I499
sS'greenday'
p1809
I6
sS'powerlifting'
p1810
I22
sS'hometheater'
p1811
I220
sS'FIFA'
p1812
I167
sS'StarWars'
p1813
I699
sS'RATS'
p1814
I45
sS'Justrolledintotheshop'
p1815
I739
sS'StandUpComedy'
p1816
I383
sS'roosterteeth'
p1817
I347
sS'skateboarding'
p1818
I248
sS'CODZombies'
p1819
I6
sS'againstmensrights'
p1820
I72
sS'TrueAnime'
p1821
I20
sS'truegaming'
p1822
I742
sS'GameTrade'
p1823
I19
sS'AskCulinary'
p1824
I518
sS'MonsterHunter'
p1825
I105
sS'Republican'
p1826
I70
sS'medicalschool'
p1827
I12
sS'CollegeBasketball'
p1828
I362
sS'nashville'
p1829
I5
sS'battlefield3'
p1830
I239
sS'tonightsdinner'
p1831
I95
sS'facepalm'
p1832
I794
sS'acturnips'
p1833
I14
sS'NotTimAndEric'
p1834
I462
sS'MaleFashionMarket'
p1835
I16
sS'Roku'
p1836
I51
sS'tf2trade'
p1837
I56
sS'pinkfloyd'
p1838
I72
sS'uhccourtroom'
p1839
I6
sS'keto'
p1840
I522
sS'Motocross'
p1841
I10
sS'norge'
p1842
I3
sS'nosleep'
p1843
I306
sS'Stretched'
p1844
I15
sS'Design'
p1845
I513
sS'Quebec'
p1846
I12
sS'buildapc'
p1847
I519
sS'ucf'
p1848
I5
sS'incest'
p1849
I75
sS'Music'
p1850
I476
sS'startrek'
p1851
I689
sS'rpg'
p1852
I451
sS'DirtySnapchat'
p1853
I39
sS'BeautyBoxes'
p1854
I65
sS'Homebrewing'
p1855
I411
sS'TheWire'
p1856
I90
sS'gopro'
p1857
I215
sS'HomeImprovement'
p1858
I315
sS'Thailand'
p1859
I17
sS'WTF'
p1860
I508
sS'verizon'
p1861
I33
sS'Wellington'
p1862
I4
sS'smoking'
p1863
I96
sS'ravens'
p1864
I61
sS'FullmetalAlchemist'
p1865
I36
sS'minerapocalypse'
p1866
I5
sS'pkmntcg'
p1867
I14
sS'Neverwinter'
p1868
I8
sS'podcasts'
p1869
I16
sS'softwaregore'
p1870
I495
sS'Needafriend'
p1871
I38
sS'Vivillon'
p1872
I9
sS'hoggit'
p1873
I21
sS'hardware'
p1874
I474
sS'Briggs'
p1875
I3
sS'shorthairedhotties'
p1876
I252
sS'childfree'
p1877
I654
sS'tattoo'
p1878
I59
sS'education'
p1879
I88
sS'productivity'
p1880
I120
sS'transpassing'
p1881
I47
sS'katawashoujo'
p1882
I55
sS'Whatcouldgowrong'
p1883
I875
sS'notinteresting'
p1884
I701
sS'birthcontrol'
p1885
I49
sS'girlsinyogapants'
p1886
I253
sS'wargame'
p1887
I39
sS'leangains'
p1888
I48
sS'Teachers'
p1889
I53
sS'MTB'
p1890
I115
sS'yoga'
p1891
I126
sS'gratefuldead'
p1892
I32
sS'diabetes'
p1893
I2
sS'BurningMan'
p1894
I14
sS'indonesia'
p1895
I6
sS'HumanPorn'
p1896
I704
sS'240sx'
p1897
I28
sS'Fantasy'
p1898
I438
sS'Sprint'
p1899
I15
sS'audio'
p1900
I28
sS'retrogaming'
p1901
I63
sS'drawing'
p1902
I307
sS'EmmaWatson'
p1903
I286
sS'GifSound'
p1904
I309
sS'FancyFollicles'
p1905
I402
sS'TagPro'
p1906
I32
sS'AskSocialScience'
p1907
I311
sS'ArtisanVideos'
p1908
I582
sS'gaybears'
p1909
I15
sS'masseffect'
p1910
I476
sS'futurama'
p1911
I670
sS'flashlight'
p1912
I53
sS'minnesotavikings'
p1913
I75
sS'audioengineering'
p1914
I270
sS'ReefTank'
p1915
I8
sS'Diablo'
p1916
I334
sS'androidthemes'
p1917
I145
sS'aoe2'
p1918
I9
sS'blackberry'
p1919
I7
sS'bigboobproblems'
p1920
I156
sS'cumsluts'
p1921
I124
sS'howto'
p1922
I666
sS'MosinNagant'
p1923
I41
sS'cringepics'
p1924
I733
sS'LinuxActionShow'
p1925
I33
sS'beertrade'
p1926
I12
sS'thewalkingdead'
p1927
I617
sS'dubai'
p1928
I5
sS'lost'
p1929
I74
sS'animegifs'
p1930
I42
sS'Paranormal'
p1931
I258
sS'GLRP_EastBlue'
p1932
I6
sS'4chan'
p1933
I751
sS'NHLHUT'
p1934
I25
sS'LeagueOfMemes'
p1935
I10
sS'MechanicalKeyboards'
p1936
I563
sS'NYGiants'
p1937
I75
sS'xboxone'
p1938
I433
sS'GolfGTI'
p1939
I15
sS'tumblr'
p1940
I624
sS'burstingout'
p1941
I79
sS'mathrock'
p1942
I21
sS'halifax'
p1943
I8
sS'batonrouge'
p1944
I2
sS'Eugene'
p1945
I2
sS'reloading'
p1946
I41
sS'Coffee'
p1947
I555
sS'heroesofthestorm'
p1948
I119
sS'canadaguns'
p1949
I45
sS'SkincareAddiction'
p1950
I417
sS'OSU'
p1951
I7
sS'KansasCityChiefs'
p1952
I52
sS'ACMilan'
p1953
I13
sS'HogwartsRP'
p1954
I6
sS'Hardcore'
p1955
I20
sS'trap'
p1956
I133
sS'starbound'
p1957
I381
sS'biology'
p1958
I211
sS'CookieClicker'
p1959
I35
sS'delusionalartists'
p1960
I748
sS'StLouisRams'
p1961
I52
sS'rotmgtradingpost'
p1962
I1
sS'worldbuilding'
p1963
I443
sS'retrogameswap'
p1964
I12
sS'sportsbook'
p1965
I40
sS'DrugNerds'
p1966
I82
sS'SolForge'
p1967
I9
sS'GameDeals'
p1968
I602
sS'battlestations'
p1969
I661
sS'androidcirclejerk'
p1970
I95
sS'paradoxplaza'
p1971
I225
sS'CrohnsDisease'
p1972
I1
sS'boltedontits'
p1973
I66
sS'pussy'
p1974
I81
sS'Animesuggest'
p1975
I181
sS'weather'
p1976
I55
sS'Sneakers'
p1977
I219
sS'Calgary'
p1978
I16
sS'cs50'
p1979
I2
sS'Damnthatsinteresting'
p1980
I794
sS'networking'
p1981
I236
sS'rct'
p1982
I12
sS'MorbidReality'
p1983
I799
sS'introvert'
p1984
I398
sS'Portal'
p1985
I165
sS'howardstern'
p1986
I34
sS'MINI'
p1987
I11
sS'tasker'
p1988
I64
sS'gaymers'
p1989
I87
sS'treesgonewild'
p1990
I95
sS'Detroit'
p1991
I18
sS'indiegameswap'
p1992
I29
sS'HipHopImages'
p1993
I166
sS'buffalobills'
p1994
I61
sS'Metalcore'
p1995
I41
sS'opieandanthony'
p1996
I39
sS'memphis'
p1997
I1
sS'whatsthisbird'
p1998
I16
sS'MachineLearning'
p1999
I44
sS'geocaching'
p2000
I10
sS'randomsuperpowers'
p2001
I8
sS'PercyJacksonRP'
p2002
I7
sS'Civcraft'
p2003
I22
sS'buffy'
p2004
I68
sS'SSBPM'
p2005
I63
sS'airsoft'
p2006
I114
sS'bestofworldstar'
p2007
I376
sS'autism'
p2008
I6
sS'DAE'
p2009
I183
sS'AskUK'
p2010
I112
sS'DestinyTheGame'
p2011
I309
sS'circlebroke'
p2012
I489
sS'ImaginaryLandscapes'
p2013
I334
sS'TheWayWeWere'
p2014
I445
sS'DippingTobacco'
p2015
I16
sS'badtattoos'
p2016
I420
sS'GlobalOffensiveTrade'
p2017
I49
sS'phish'
p2018
I28
sS'raspberry_pi'
p2019
I369
sS'quilting'
p2020
I21
sS'SuicideWatch'
p2021
I265
sS'minecraftsuggestions'
p2022
I55
sS'Warhammer'
p2023
I111
sS'bigdickproblems'
p2024
I290
sS'nintendo'
p2025
I445
sS'allthingszerg'
p2026
I8
sS'TeraOnline'
p2027
I20
sS'Starcitizen_trades'
p2028
I6
sS'oddlysatisfying'
p2029
I817
sS'CannabisExtracts'
p2030
I67
sS'GirlGamers'
p2031
I379
sS'slashdiablo'
p2032
I1
sS'Whiskyporn'
p2033
I10
sS'atheism'
p2034
I637
sS'visualnovels'
p2035
I32
sS'coys'
p2036
I30
sS'Spanish'
p2037
I18
sS'MassiveCock'
p2038
I69
sS'DWMA'
p2039
I7
sS'speedrun'
p2040
I128
sS'oklahoma'
p2041
I2
sS'GWNerdy'
p2042
I91
s.