(dp1
S'StarWarsEU'
p2
F-1.0571354054207909
sS'Poetry'
p3
F-0.86269373121486703
sS'uglyduckling'
p4
F-0.91065893178949953
sS'everymanshouldknow'
p5
F-1.3273954315634633
sS'relationships'
p6
F-0.87006586923054297
sS'paris'
p7
F-1.137526772646138
sS'Honda'
p8
F-0.99276774895236786
sS'unixporn'
p9
F-1.0927213883667113
sS'HistoryPorn'
p10
F-1.1959350915289253
sS'detroitlions'
p11
F-1.1145936516389607
sS'2007scape'
p12
F-0.81639911436141999
sS'teaching'
p13
F-0.83713780104656443
sS'mwo'
p14
F-1.260131656724663
sS'fountainpens'
p15
F-1.2481575884217886
sS'pornID'
p16
F-0.71653148053592863
sS'geology'
p17
F-1.0389650577720082
sS'skyrimmods'
p18
F-1.0382232996618255
sS'moviescirclejerk'
p19
F-1.2960002123131944
sS'PandR'
p20
F-1.03489300983082
sS'synthesizers'
p21
F-1.2501987699981347
sS'Stargate'
p22
F-0.98883719031027173
sS'Scrubs'
p23
F-0.88980961140549297
sS'Military'
p24
F-1.1424823806192004
sS'magicskyfairy'
p25
F-1.0862688260463038
sS'Steam'
p26
F-1.1876153982297426
sS'AlienBlue'
p27
F-0.92365492283683714
sS'Pokemongiveaway'
p28
F-1.0222646090990786
sS'gonewildstories'
p29
F-0.96504128646358778
sS'NewsOfTheWeird'
p30
F-1.0242449053970804
sS'SteamGameSwap'
p31
F-1.1286801192177771
sS'starcitizen'
p32
F-1.0679353318939953
sS'polyamory'
p33
F-1.3687715433342511
sS'spiders'
p34
F-0.88080076823489417
sS'BackYardChickens'
p35
F-1.2294037174029482
sS'totalwar'
p36
F-1.0115445395167875
sS'entp'
p37
F-0.69314718055994495
sS'electricians'
p38
F-1.0180184550098923
sS'AskAcademia'
p39
F-1.346493832189736
sS'MechanicAdvice'
p40
F-1.1595660844814217
sS'OneY'
p41
F-1.1105501279000123
sS'kratom'
p42
F-1.0179447418761005
sS'4x4'
p43
F-1.3108679567405286
sS'razer'
p44
F-0.70992506411325684
sS'LSD'
p45
F-1.2535638690544024
sS'deadmau5'
p46
F-0.95940802619209942
sS'socialskills'
p47
F-1.2365058935132893
sS'bipolar'
p48
F-1.1851990100149057
sS'rutgers'
p49
F-0.6931471805599454
sS'gamedev'
p50
F-1.1422718993379926
sS'chiliadmystery'
p51
F-0.87813567639796897
sS'disney'
p52
F-1.1247072907881801
sS'TeamRedditTeams'
p53
F-0.85779493842726229
sS'Beatmatch'
p54
F-0.98336878981891429
sS'TMNT'
p55
F-1.0415924103338354
sS'iOSProgramming'
p56
F-1.1813239349993474
sS'malelivingspace'
p57
F-1.1065742314816944
sS'lgbt'
p58
F-1.1590725845783423
sS'Ohio'
p59
F-0.90589143956784335
sS'braswap'
p60
F-0.77418774471649265
sS'WarshipPorn'
p61
F-1.1930110053007565
sS'OnePiece'
p62
F-1.1631173768504603
sS'piercing'
p63
F-1.6184531836504381
sS'Hair'
p64
F-1.0611202937285515
sS'learnart'
p65
F-1.2075583487989996
sS'Audi'
p66
F-1.1342941763046288
sS'QuotesPorn'
p67
F-1.4208151353953351
sS'Health'
p68
F-1.0598729659494284
sS'Browns'
p69
F-1.2070521461083832
sS'ContagiousLaughter'
p70
F-1.0862140791313504
sS'cocaine'
p71
F-0.98430021269081036
sS'ffxiv'
p72
F-0.9154217955847237
sS'sanantonio'
p73
F-0.93701412526783323
sS'FiftyFifty'
p74
F-1.1419351749498858
sS'barstoolsports'
p75
F-0.83186577849088161
sS'portugal'
p76
F-inf
sS'army'
p77
F-1.2146426699719601
sS'Drugs'
p78
F-1.0907818078627667
sS'TeenMFA'
p79
F-1.0255547774799418
sS'coins'
p80
F-1.4538715741520178
sS'firstimpression'
p81
F-1.1738305259827166
sS'trailerparkboys'
p82
F-1.2317751612774241
sS'admincraft'
p83
F-1.594863684633316
sS'arma'
p84
F-1.1533647078529716
sS'kohi'
p85
F-0.69314718055994495
sS'swtor'
p86
F-1.0522921396967715
sS'CallOfDuty'
p87
F-1.128484861045862
sS'ftlgame'
p88
F-1.1334940206218631
sS'berlin'
p89
F-1.1495306645778514
sS'TheGirlSurvivalGuide'
p90
F-1.4515516791952017
sS'NeutralPolitics'
p91
F-1.0918622134294989
sS'ghettoglamourshots'
p92
F-1.0252267111458959
sS'tampa'
p93
F-0.8281616155718603
sS'EDC'
p94
F-1.2789745692386987
sS'hardwareswap'
p95
F-1.2703108984585505
sS'EDH'
p96
F-1.3868203884691708
sS'EDM'
p97
F-1.3141296270043772
sS'movies'
p98
F-0.90271492306386492
sS'standupshots'
p99
F-1.2034710296023921
sS'Bravenewbies'
p100
F-0.84942969540606816
sS'punk'
p101
F-1.1851146043789411
sS'india'
p102
F-1.0470699286692913
sS'DecidingToBeBetter'
p103
F-1.0926540380435208
sS'gadgets'
p104
F-1.0471697552080883
sS'kpics'
p105
F-0.75901371551615937
sS'UofT'
p106
F-0.69314718055994529
sS'Tgirls'
p107
F-1.0648079170766835
sS'ploungeafterdark'
p108
F-0.87276288474682262
sS'AnnArbor'
p109
F-0.77809304854877004
sS'SRSsucks'
p110
F-1.0928572811215584
sS'HouseOfCards'
p111
F-1.047718548621317
sS'travel'
p112
F-1.1244799667543806
sS'RealGirls'
p113
F-1.1143487498112661
sS'gats'
p114
F-1.2137533499168405
sS'911truth'
p115
F-0.79406842036479341
sS'ploompax'
p116
F-0.70034568637606753
sS'wallpapers'
p117
F-1.1844247956052234
sS'gaming'
p118
F-0.95573457450542953
sS'poker'
p119
F-1.2391870711888091
sS'MapPorn'
p120
F-1.6972139178772938
sS'Hammocks'
p121
F-1.1797065594086589
sS'askscience'
p122
F-1.0942679806238784
sS'nerdcubed'
p123
F-0.93644418999843548
sS'dogpictures'
p124
F-1.0686884464139244
sS'italy'
p125
F-1.7601957618805302
sS'law'
p126
F-1.1059386922489232
sS'Cuckold'
p127
F-0.91703232317300598
sS'CFB'
p128
F-1.104860100748823
sS'FortWorth'
p129
F-0.77805579343130682
sS'ultimate'
p130
F0
sS'vfx'
p131
F-0.88255592618134981
sS'pantyselling'
p132
F-0.6979456715485568
sS'wine'
p133
F-1.1219035024794608
sS'CityPorn'
p134
F-1.1506220922282884
sS'zen'
p135
F-1.1039483372247192
sS'randomactsofamazon'
p136
F-0.8672661020121466
sS'russian'
p137
F-1.4924634948976077
sS'london'
p138
F-0.97243802147582947
sS'stencils'
p139
F-1.1896743236827163
sS'japan'
p140
F-1.1169102426525948
sS'vita'
p141
F-1.5168915390641313
sS'panthers'
p142
F-1.075499747761401
sS'GlobalOffensive'
p143
F-0.98365737398359521
sS'BDSMGW'
p144
F-1.0016976984904686
sS'badlinguistics'
p145
F-1.3051204167916346
sS'cyanogenmod'
p146
F-1.035561301323519
sS'Dogtraining'
p147
F-1.8002220969162375
sS'writing'
p148
F-1.43163212825917
sS'Screenwriting'
p149
F-1.2845442207469313
sS'Rift'
p150
F-1.0754697878538986
sS'LeagueofLegendsMeta'
p151
F-1.1032131803932868
sS'Judaism'
p152
F-1.1630353798484672
sS'hockeyplayers'
p153
F-0.75323910758695711
sS'BDSMcommunity'
p154
F-1.7051168670549814
sS'DJs'
p155
F-1.7333828194840031
sS'Volvo'
p156
F-0.85915919617046743
sS'Braveryjerk'
p157
F-1.0201693290312255
sS'Liberal'
p158
F-1.4429654931033582
sS'dvdcollection'
p159
F-1.2716597481596774
sS'shittyadviceanimals'
p160
F-1.0005194468139771
sS'mead'
p161
F-1.1690132603021417
sS'arrow'
p162
F-1.0235865315501229
sS'MCFC'
p163
F-0.93432640949033008
sS'Destiny'
p164
F-1.3637865480586231
sS'Rateme'
p165
F-1.3589436003533537
sS'literature'
p166
F-1.6201557531071753
sS'dubstep'
p167
F-1.2654422982559925
sS'ChivalryGame'
p168
F-0.94891806290406544
sS'navy'
p169
F-1.4823797950589634
sS'USMC'
p170
F-1.2307760340601097
sS'Feminism'
p171
F-1.5238488796271756
sS'askgaybros'
p172
F-1.1332537095967168
sS'Blowjobs'
p173
F-0.87732496684001671
sS'WoT'
p174
F-0.84546150035556
sS'shittyfoodporn'
p175
F-1.2012058647138266
sS'Muse'
p176
F-1.272372600917413
sS'medicine'
p177
F-1.1319551808050825
sS'gonewildcurvy'
p178
F-1.8749600255813128
sS'AFL'
p179
F-1.1126375950651299
sS'bestof'
p180
F-1.278642625541357
sS'Metal'
p181
F-1.0678829915023886
sS'LadyBoners'
p182
F-1.1587011653566641
sS'knifeclub'
p183
F-1.2443871498312422
sS'Morrowind'
p184
F-1.0546644410946038
sS'dayz'
p185
F-1.0462232972002834
sS'CanadaPolitics'
p186
F-1.5135470498755925
sS'GoneWildCD'
p187
F-1.1290633202976754
sS'rocksmith'
p188
F-1.3370278034036227
sS'dogecoin'
p189
F-1.0161908446083556
sS'LawSchool'
p190
F-1.186447939524125
sS'ShinyPokemon'
p191
F-1.2611880291711604
sS'steroids'
p192
F-0.92797571728786221
sS'Luthier'
p193
F-1.1054778067931212
sS'nhl'
p194
F-1.4955091236195601
sS'Trophies'
p195
F-0.82406055331347083
sS'BitcoinMining'
p196
F-1.0686912948570528
sS'rant'
p197
F-1.0635910506571769
sS'Buddhism'
p198
F-1.2458111371469256
sS'thick'
p199
F-1.1174275671973612
sS'TheLastAirbender'
p200
F-1.1300408223989979
sS'ECE'
p201
F-1.4520324161528104
sS'lego'
p202
F-1.1494213765550514
sS'ANormalDayInRussia'
p203
F-1.2360362250359866
sS'seduction'
p204
F-1.5005942690275447
sS'TheFacebookDelusion'
p205
F-1.0038113465943734
sS'Volkswagen'
p206
F-1.2409991188130363
sS'PenmanshipPorn'
p207
F-1.1740182440319131
sS'shittyadvice'
p208
F-0.99167179243981085
sS'dogs'
p209
F-1.1832707615241018
sS'asktransgender'
p210
F-1.516858232059592
sS'ObscureMedia'
p211
F-1.1694827908559455
sS'iOSthemes'
p212
F-1.4018536069138574
sS'makinghiphop'
p213
F-1.2591252883061568
sS'collapse'
p214
F-1.7605308941491371
sS'Genealogy'
p215
F-0.89296867938410873
sS'Spiderman'
p216
F-1.1328128807355222
sS'mildlyinfuriating'
p217
F-1.2670920154185481
sS'dresdenfiles'
p218
F-1.1713278849295605
sS'SEO'
p219
F-0.84921785871371802
sS'weightlifting'
p220
F-0.81423687377109344
sS'Awwducational'
p221
F-1.2431080081476527
sS'BBW'
p222
F-0.87831891082749447
sS'Charleston'
p223
F-1.0909029498761935
sS'northernireland'
p224
F-0.83323809250284642
sS'BBQ'
p225
F-1.30475979524424
sS'Cubers'
p226
F-1.9277974177284301
sS'Chargers'
p227
F-1.3325913691476154
sS'worldpolitics'
p228
F-1.3077965861184619
sS'VictoriaBC'
p229
F-0.91563579002419315
sS'AmateurArchives'
p230
F-0.88719935881810175
sS'newzealand'
p231
F-1.0757898009318638
sS'nononono'
p232
F-1.7641800670678851
sS'MMORPG'
p233
F-1.224801440025701
sS'hacking'
p234
F-1.1659987880306124
sS'KerbalSpaceProgram'
p235
F-1.1737989720367734
sS'TaylorSwift'
p236
F-0.78473807718877309
sS'gallifrey'
p237
F-1.107893544146294
sS'NewSkaters'
p238
F-1.3753387383940059
sS'crappymusic'
p239
F-1.6987500953496291
sS'ginger'
p240
F-1.070750426840771
sS'leafs'
p241
F-1.3883015731511676
sS'hentai'
p242
F-1.4332867052034852
sS'GalaxyNote3'
p243
F-0.84142252131698902
sS'macgaming'
p244
F-1.1280874755610437
sS'LongDistance'
p245
F-0.97758653956731223
sS'ableton'
p246
F-1.3355859689138958
sS'chess'
p247
F-1.1659221656040222
sS'TexasRangers'
p248
F-1.2206250092941253
sS'MuayThai'
p249
F-1.6387375866627323
sS'translator'
p250
F-1.3940027172627301
sS'germany'
p251
F-1.2072916109415628
sS'EnoughLibertarianSpam'
p252
F-1.2006782041792281
sS'Gaming4Gamers'
p253
F-1.2493498864321149
sS'Minecraft'
p254
F-1.1627415843686464
sS'Scrolls'
p255
F0
sS'Velo'
p256
F-0.81329494842389261
sS'Texans'
p257
F-1.0895881615951617
sS'medical'
p258
F-1.6811634266633266
sS'androiddev'
p259
F-1.5275280595705176
sS'alternativeart'
p260
F-1.1020077765420426
sS'Borderlands2'
p261
F-1.0063112522391293
sS'WildStar'
p262
F-1.041103524336032
sS'mtgcube'
p263
F-0.93693918018519584
sS'Heavymind'
p264
F-1.2853214592892668
sS'GWCouples'
p265
F-1.04677229114857
sS'Hiphopcirclejerk'
p266
F-1.4473237477038463
sS'graffhelp'
p267
F-1.2658701176367302
sS'crossfit'
p268
F-1.1712700981215565
sS'Stance'
p269
F-1.4230451515842333
sS'minnesota'
p270
F-1.7293432372529021
sS'shittybattlestations'
p271
F-1.261592557652353
sS'Torontobluejays'
p272
F-1.6629611795197454
sS'GrandTheftAutoV'
p273
F-1.222738595074027
sS'sneakermarket'
p274
F-1.058399931074151
sS'usenet'
p275
F-0.94689565799516995
sS'PublicFreakout'
p276
F-1.2207817743337745
sS'Anxiety'
p277
F-1.1722122199265383
sS'de'
p278
F-1.5106099918071485
sS'geek'
p279
F-1.4219486469356877
sS'realdubstep'
p280
F-1.191287088647468
sS'wedding'
p281
F-1.0068826435346221
sS'Swimming'
p282
F-1.0957454826095803
sS'AskGames'
p283
F-1.1059230425672828
sS'SkyrimPorn'
p284
F-1.1673448969868196
sS'HuntsvilleAlabama'
p285
F0
sS'hardstyle'
p286
F-0.98817224193783038
sS'Monstercat'
p287
F-1.4654869559417858
sS'architecture'
p288
F-1.0298254999499923
sS'ems'
p289
F-1.4951791006831339
sS'playstation'
p290
F-1.1738531679414734
sS'EngineeringStudents'
p291
F-1.0495567044494711
sS'Christianity'
p292
F-1.1367648666560974
sS'RotMG'
p293
F-inf
sS'AskScienceDiscussion'
p294
F-1.1175557452849825
sS'DMT'
p295
F-1.1602406014070197
sS'changemyview'
p296
F-1.3320051611623676
sS'PS3'
p297
F-1.2666937377881844
sS'Android'
p298
F-1.2452631908443745
sS'taiwan'
p299
F-0.99536406800462474
sS'PS4'
p300
F-1.1217141825198809
sS'firstworldanarchists'
p301
F-1.3369587012710049
sS'Dodgers'
p302
F-1.2158185669692587
sS'classiccars'
p303
F-1.6984150440273931
sS'trapmuzik'
p304
F-1.3781273232025968
sS'poppunkers'
p305
F-1.8858226716191389
sS'Harmontown'
p306
F-1.5709773210777382
sS'wikipedia'
p307
F-1.3404165560939827
sS'pcmasterrace'
p308
F-1.1355166448552714
sS'greenday'
p309
F-2.0681540768419318
sS'spaceengineers'
p310
F-1.2808604786518529
sS'AskFeminists'
p311
F-1.152710532843813
sS'Finland'
p312
F-1.6079173618168461
sS'casualiama'
p313
F-1.2572219752949358
sS'stunfisk'
p314
F-1.1109476478377058
sS'mazda'
p315
F-1.0009442288953823
sS'GameDealsMeta'
p316
F-1.0295841819062355
sS'answers'
p317
F-1.6402685508506956
sS'grandrapids'
p318
F-0.87908572753315406
sS'news'
p319
F-1.0246260482271339
sS'chicagobulls'
p320
F-1.2116103079396479
sS'scuba'
p321
F-1.3906700115910038
sS'WouldYouRather'
p322
F-1.0362168016104238
sS'guitarpedals'
p323
F-1.4115410875300154
sS'ukpolitics'
p324
F-1.1657617576990535
sS'Cartalk'
p325
F-1.7802529487594478
sS'AppHookup'
p326
F-1.1243220756791392
sS'StockMarket'
p327
F-0.92376928540153824
sS'ShingekiNoKyojin'
p328
F-1.4848067125374769
sS'exmuslim'
p329
F-1.6859882376765483
sS'ainbow'
p330
F-1.676471416222113
sS'Blink182'
p331
F-1.1946692738227651
sS'chrome'
p332
F-1.2053379138968898
sS'Gunners'
p333
F-1.26045189645468
sS'beer'
p334
F-1.2964936402319811
sS'ak47'
p335
F-0.91822837211244046
sS'goodyearwelt'
p336
F-1.2407496437056291
sS'investing'
p337
F-1.2429845629003378
sS'canucks'
p338
F-1.4459057436438125
sS'fatlogic'
p339
F-1.2177694780921779
sS'NUFC'
p340
F-0.69314718055994473
sS'CarAV'
p341
F-1.4172178474686992
sS'Aquariums'
p342
F-1.6643650118179201
sS'oddlysatisfying'
p343
F-1.8463215450842672
sS'TopGear'
p344
F-1.5994485008840202
sS'r4r'
p345
F-1.1728187834150026
sS'aviation'
p346
F-1.268989314262539
sS'darksouls'
p347
F-1.2019654159597417
sS'glutenfree'
p348
F-0.91925738400601276
sS'Winnipeg'
p349
F-1.3253066469962365
sS'DotA2'
p350
F-1.0439082754752782
sS'Cleveland'
p351
F-1.3414954801143746
sS'leaves'
p352
F-1.215545992276716
sS'windowsphone'
p353
F-1.0487609027755393
sS'mexico'
p354
F-1.7505632514801652
sS'sushi'
p355
F-0.83245080039185182
sS'FanTheories'
p356
F-1.3122940262725855
sS'Libraries'
p357
F-1.1023285398066034
sS'gamecollecting'
p358
F-1.2654446547109561
sS'PhotoshopRequest'
p359
F-0.77707331518280176
sS'ShitRedditSays'
p360
F-1.1589261175529897
sS'drunkvapes'
p361
F-0.74565733844095372
sS'YGOBinders'
p362
F-0.69314718055994518
sS'IndieGaming'
p363
F-1.7883912585824335
sS'Python'
p364
F-1.2565289599297405
sS'pitbulls'
p365
F-1.1740555023973549
sS'GoneMild'
p366
F-1.1452654467579473
sS'bicycletouring'
p367
F-1.2162717968499552
sS'talesfromtechsupport'
p368
F-1.381480070833959
sS'diablo3'
p369
F-1.1956399452186792
sS'PostHardcore'
p370
F-1.2207110349323644
sS'playrust'
p371
F-1.1875398305276494
sS'TwinCities'
p372
F-0.99248578865679449
sS'thesims'
p373
F-1.2951389082149003
sS'NewsOfTheStupid'
p374
F-1.2026795220022013
sS'fireemblem'
p375
F-1.3098660241428317
sS'preppers'
p376
F-1.3845904862682463
sS'bikewrench'
p377
F-1.4458821815331278
sS'Portland'
p378
F-0.97713297037364466
sS'AnimeSketch'
p379
F-1.3074840010635596
sS'Sonsofanarchy'
p380
F-1.0753731607891597
sS'kpop'
p381
F-2.037651267909645
sS'Helicopters'
p382
F-1.4320042749805881
sS'Cinema4D'
p383
F-0.9590306240840385
sS'Bitcoin'
p384
F-1.1438517595219526
sS'rickandmorty'
p385
F-1.1569477805313859
sS'quotes'
p386
F-1.1271125173127423
sS'perfectloops'
p387
F-1.2733890664867067
sS'Pets'
p388
F-1.2731831098736892
sS'InternetIsBeautiful'
p389
F-1.2029640812897782
sS'ShitRConservativeSays'
p390
F-1.1767676776601275
sS'furry'
p391
F-1.572221955104969
sS'pharmacy'
p392
F-1.3031781598324743
sS'Connecticut'
p393
F-1.3300212622921945
sS'animation'
p394
F-1.650460065666457
sS'woahdude'
p395
F-1.287410181729733
sS'esports'
p396
F-1.8465825562965295
sS'ketogains'
p397
F-1.0576788806719866
sS'DenverBroncos'
p398
F-1.4753886756006862
sS'footballmanagergames'
p399
F-1.4779913768316075
sS'twinks'
p400
F-1.091455464452606
sS'caps'
p401
F-1.3870517948324175
sS'toosoon'
p402
F-1.2298773166905956
sS'amateurradio'
p403
F-1.4838815426962126
sS'gifs'
p404
F-1.021883516368101
sS'Art'
p405
F-1.0498106966347942
sS'fitnesscirclejerk'
p406
F-1.0611482061694388
sS'orlando'
p407
F-1.2009804367750263
sS'xbox'
p408
F-1.2089884178896853
sS'Megaten'
p409
F-1.3191620233280363
sS'zombies'
p410
F-1.1627196271171982
sS'ArcherFX'
p411
F-1.3311819573592878
sS'gaymersgonewild'
p412
F-1.217205608326501
sS'getdisciplined'
p413
F-1.7257189348983788
sS'whatisthisthing'
p414
F-1.4079949311908937
sS'korea'
p415
F-1.9384176485523297
sS'NetflixBestOf'
p416
F-1.405365575634848
sS'NewYorkMets'
p417
F-1.2525642054192487
sS'malaysia'
p418
F-1.2341539511910304
sS'MarkMyWords'
p419
F-1.2410751695520572
sS'radiohead'
p420
F-1.3720267129916759
sS'Djent'
p421
F-1.0825318058893025
sS'humor'
p422
F-1.3483710052069835
sS'mountandblade'
p423
F-1.2886194623296259
sS'AskNYC'
p424
F-1.3380009332915774
sS'ExpectationVsReality'
p425
F-1.3284255562489768
sS'edmproduction'
p426
F-1.8891629779048431
sS'Cubs'
p427
F-1.302595652555683
sS'lifehacks'
p428
F-1.4250188180756549
sS'letsplay'
p429
F-1.2969894267467867
sS'SCP'
p430
F-1.3367839719297292
sS'NorthCarolina'
p431
F-2.1313240264232989
sS'marketing'
p432
F-1.1273090252597679
sS'Random_Acts_Of_Pizza'
p433
F-1.1636554289714454
sS'PlantedTank'
p434
F-1.1251695011871568
sS'Frugal'
p435
F-1.4402236530386787
sS'promos'
p436
F-1.2826676073454522
sS'shittyaskscience'
p437
F-1.3242182222124921
sS'htpc'
p438
F-1.0935923289893648
sS'newtothenavy'
p439
F-1.3549733367929793
sS'wildhockey'
p440
F-1.4580685651324095
sS'BlackMetal'
p441
F-1.4584744585857936
sS'sixwordstories'
p442
F-1.005747923667025
sS'AnimalsBeingBros'
p443
F-1.320671789175262
sS'AskPhysics'
p444
F-1.0689246287825267
sS'Dallas'
p445
F-1.2725901034511704
sS'TinyTits'
p446
F-1.1224544280957227
sS'ft86'
p447
F-0.91473260936067669
sS'miamidolphins'
p448
F-1.189196258198387
sS'ADHD'
p449
F-1.1355257207344094
sS'Korean'
p450
F-1.5040739804006935
sS'PS2Cobalt'
p451
F-0.69314718055994518
sS'Argentinacirclejerk'
p452
F0
sS'gis'
p453
F-1.488614163963609
sS'GunsAreCool'
p454
F-1.5580332977406171
sS'Bad_Cop_No_Donut'
p455
F-1.4680115943143361
sS'flying'
p456
F-1.3288881416487675
sS'nova'
p457
F-1.0777749575350746
sS'gif'
p458
F-1.2304266335803318
sS'Ubuntu'
p459
F-1.3951355913235286
sS'Standup'
p460
F-1.2464947261505541
sS'Calligraphy'
p461
F-1.6284343636965315
sS'happy'
p462
F-1.3075536577517575
sS'Stacked'
p463
F-0.99340434912813791
sS'bdsm'
p464
F-1.1775271463019874
sS'ChineseLanguage'
p465
F-1.3823932070541953
sS'batman'
p466
F-1.2724076258880377
sS'occupywallstreet'
p467
F-1.2560528465058018
sS'Dentistry'
p468
F-1.0904193402385909
sS'snackexchange'
p469
F-1.1539796161643343
sS'bengals'
p470
F-1.1520560686712784
sS'rule34'
p471
F-1.3570068715240859
sS'lgg2'
p472
F-0.93134897801333816
sS'webcomics'
p473
F-1.1720841306053815
sS'BostonBruins'
p474
F-1.5018996642005984
sS'mindcrackcirclejerk'
p475
F-0.89042241014420365
sS'whiskey'
p476
F-1.2708634293851615
sS'BritishTV'
p477
F-1.3614523779018883
sS'TryingForABaby'
p478
F-0.99927467743306631
sS'SanJoseSharks'
p479
F-1.5237069239922962
sS'golang'
p480
F-0.97098125280845538
sS'webdev'
p481
F-1.2785667689487257
sS'ToolBand'
p482
F-1.2791806371202137
sS'eatsandwiches'
p483
F-1.1962875468674703
sS'excel'
p484
F-1.0812658840443605
sS'snakes'
p485
F-1.4042364171045618
sS'dawngate'
p486
F-1.5537609944093409
sS'saplings'
p487
F-1.3219853042763603
sS'nottheonion'
p488
F-1.2802756420748675
sS'Trucks'
p489
F-1.6605690394851971
sS'ClopClop'
p490
F-1.4013534986670655
sS'football'
p491
F-1.3884523137298352
sS'GTAV'
p492
F-1.4109886640839706
sS'microgrowery'
p493
F-1.2986411191814202
sS'Accounting'
p494
F-1.1673366247431687
sS'fcbayern'
p495
F-1.1015458848950046
sS'comicbooks'
p496
F-1.3104291000811896
sS'allthingsprotoss'
p497
F-0.79775443419778924
sS'AirForce'
p498
F-1.4123055251052383
sS'guitarlessons'
p499
F-1.3445618342381618
sS'TF2fashionadvice'
p500
F-0.96773715074819822
sS'asheville'
p501
F-1.2002481743425806
sS'peloton'
p502
F-1.7734186441448032
sS'terriblefacebookmemes'
p503
F-1.2513056222256864
sS'PrettyGirls'
p504
F-1.2085265026318162
sS'gainit'
p505
F-1.1951811972022623
sS'OttawaSenators'
p506
F-1.2933816055427072
sS'climateskeptics'
p507
F-1.0072930745177322
sS'cincinnati'
p508
F-1.6782016113167164
sS'ABraThatFits'
p509
F-1.2923458872691729
sS'Shitty_Car_Mods'
p510
F-1.2567755156864653
sS'spelunky'
p511
F-1.0705928657235708
sS'milf'
p512
F-1.3701900759855068
sS'wiiu'
p513
F-1.2762545141561032
sS'skiing'
p514
F-1.3545348888426383
sS'freelance'
p515
F-1.43948054750319
sS'editors'
p516
F-1.2512822813864264
sS'Showerthoughts'
p517
F-1.3361141566717656
sS'duolingo'
p518
F-1.3017898611752363
sS'environment'
p519
F-1.4071593985529791
sS'reptiles'
p520
F-1.7730680993723489
sS'Redskins'
p521
F-1.2999366709022873
sS'Atlanta'
p522
F-1.0933711763085343
sS'NewOrleans'
p523
F-0.93566441597282957
sS'vegan'
p524
F-1.1899827289947122
sS'Jokes'
p525
F-1.1043598123990295
sS'vegas'
p526
F-2.0654641047213604
sS'WhiteRights'
p527
F-1.2068472702742099
sS'anonymous'
p528
F-1.1912789025580626
sS'litecoin'
p529
F-1.2987486947318883
sS'prisonarchitect'
p530
F-1.280545592340018
sS'Celebs'
p531
F-1.3121304010184796
sS'australia'
p532
F-1.1371937954056213
sS'predaddit'
p533
F-0.93938103223539426
sS'fantasywriters'
p534
F-1.2329951423665049
sS'dbz'
p535
F-1.6865830649356006
sS'techsupport'
p536
F-1.3509930318269214
sS'baconreader'
p537
F-1.3497139634725435
sS'pcgaming'
p538
F-1.4150030715157342
sS'Cumberbitches'
p539
F-1.2265975734556236
sS'DCcomics'
p540
F-1.2746083957508985
sS'fatpeoplestories'
p541
F-1.2850655366730388
sS'Swingers'
p542
F-1.2700480768485716
sS'marchingband'
p543
F-0.74180508531255329
sS'Sissies'
p544
F-1.3715116390514228
sS'electronics'
p545
F-1.2072576878893164
sS'boardgames'
p546
F-1.2375401075900871
sS'InteriorDesign'
p547
F-1.2966044049858585
sS'Kayaking'
p548
F-1.5554393386957217
sS'Ford'
p549
F-1.1233791467133432
sS'Nexus5'
p550
F-1.2193711869736417
sS'StonerPhilosophy'
p551
F-1.3992197526091714
sS'Nexus7'
p552
F-1.2846577745957113
sS'worldnews'
p553
F-1.1498913202720651
sS'marvelheroes'
p554
F-1.6465236921518676
sS'vexillology'
p555
F-1.3979976974928263
sS'ExposurePorn'
p556
F-1.1170342762069927
sS'OnceUponATime'
p557
F-1.4960539129900408
sS'transtimelines'
p558
F-1.5964894771138418
sS'baseball'
p559
F-1.4064243439081867
sS'OkCupid'
p560
F-1.1098758762982959
sS'Meditation'
p561
F-1.5733565825558253
sS'ThriftStoreHauls'
p562
F-1.4056759814025614
sS'Breadit'
p563
F-1.2396983204613301
sS'lakers'
p564
F-1.3404256211617649
sS'progmetal'
p565
F-1.5626269351026458
sS'javahelp'
p566
F-1.4218003654224867
sS'evangelion'
p567
F-1.4381935322993482
sS'Maine'
p568
F-0.95615379062753525
sS'montreal'
p569
F-1.3331657353337159
sS'girlsinyogapants'
p570
F-1.7456352937626303
sS'whatsthisbug'
p571
F-1.2351478203381419
sS'yiff'
p572
F-2.0117216138776497
sS'hiking'
p573
F-1.385450952700185
sS'Catholicism'
p574
F-1.5798617781428859
sS'AmIFreeToGo'
p575
F-1.3146700349240783
sS'AntiJokes'
p576
F-1.1267843653288976
sS'IdiotsFightingThings'
p577
F-1.4231261451629935
sS'FinalFantasy'
p578
F-1.3638421953350051
sS'chromeos'
p579
F-1.2302692389303411
sS'Multicopter'
p580
F-1.3686411424399436
sS'gonewildaudio'
p581
F-1.0824927460589309
sS'HIMYM'
p582
F-1.2252238747084654
sS'AskHistorians'
p583
F-1.4203309757520195
sS'OutOfTheLoop'
p584
F-1.5739423955389693
sS'sports'
p585
F-1.4461174858346917
sS'Techno'
p586
F-1.2761144665543658
sS'ifyoulikeblank'
p587
F-1.3277448828154705
sS'misleadingthumbnails'
p588
F-1.3648629929078746
sS'Pareidolia'
p589
F-1.694231581681497
sS'Eve'
p590
F-1.2669263868975253
sS'oregon'
p591
F-1.6658331902920098
sS'cordcutters'
p592
F-1.5813118551526282
sS'ladybonersgw'
p593
F-1.6510824378938072
sS'UFOs'
p594
F-1.1964508761923582
sS'baduk'
p595
F-1.4935198442086031
sS'piano'
p596
F-1.3000352763772234
sS'gameswap'
p597
F-1.6361519289726911
sS'judo'
p598
F-0.73018584394320318
sS'trackers'
p599
F-1.2173343106259731
sS'PolishGauntlet'
p600
F-0.81381328489306393
sS'alcoholism'
p601
F-1.2297203636933118
sS'Glitch_in_the_Matrix'
p602
F-1.4357780392454265
sS'WaltDisneyWorld'
p603
F-1.8033799177876813
sS'MMA'
p604
F-1.2256889318127788
sS'gamernews'
p605
F-1.4505245858078792
sS'nursing'
p606
F-1.4303342154841872
sS'audiophile'
p607
F-1.422114375845978
sS'awesome'
p608
F-1.2079902809672483
sS'Pathfinder_RPG'
p609
F-1.295904440040089
sS'Kappa'
p610
F-1.250599683119497
sS'supremeclothing'
p611
F-1.2049904390460056
sS'counting'
p612
F-1.1373418106502324
sS'PersonalFinanceCanada'
p613
F-1.9231121283508201
sS'Pizza'
p614
F-1.254279626055129
sS'asmr'
p615
F-1.1155183657240624
sS'PowerMetal'
p616
F-1.3660610756435785
sS'MURICA'
p617
F-1.4832545946678959
sS'TheNarutoWorld'
p618
F-0.69314718055994518
sS'NBA2k'
p619
F-1.6456905999912483
sS'vancouver'
p620
F-1.4287140852284304
sS'bikecommuting'
p621
F-1.4731504178706616
sS'RedditLaqueristas'
p622
F-1.3887258620057619
sS'spaceporn'
p623
F-1.4279455380248107
sS'nyc'
p624
F-1.348286563209979
sS'economy'
p625
F-1.3801808979900976
sS'GameSale'
p626
F-1.5881008379576826
sS'triathlon'
p627
F-1.4999597868983277
sS'mac'
p628
F-1.3689150817771543
sS'GradSchool'
p629
F-1.3288605927235362
sS'Sidehugs'
p630
F-1.6283034751473058
sS'BitcoinMarkets'
p631
F-1.376815414973148
sS'oculus'
p632
F-1.2970010321751699
sS'Toonami'
p633
F-1.2313965818046679
sS'drumcorps'
p634
F-1.3106854314231384
sS'futurebeats'
p635
F-1.5320105539727269
sS'eFreebies'
p636
F-1.2722628281646271
sS'nl_Kripparrian'
p637
F-1.2497687757078442
sS'tall'
p638
F-1.2303151442970224
sS'ImGoingToHellForThis'
p639
F-1.3831429679813159
sS'manga'
p640
F-1.50186012868578
sS'shield'
p641
F-1.2983620375191354
sS'Hunting'
p642
F-1.4434160077830063
sS'Guildwars2'
p643
F-1.1977285842338636
sS'washingtondc'
p644
F-1.290485034036486
sS'PurplePillDebate'
p645
F-1.2613024186040271
sS'dataisbeautiful'
p646
F-1.3947705061815761
sS'LucidDreaming'
p647
F-1.6293163545086022
sS'arduino'
p648
F-1.3689023654208547
sS'MAA'
p649
F0
sS'MMFB'
p650
F-1.223205619259375
sS'AndroidQuestions'
p651
F-1.4271052048096307
sS'applehelp'
p652
F-1.2150286336566118
sS'Bioshock'
p653
F-1.2730803408483116
sS'WorldofTanks'
p654
F-1.3340364775047355
sS'SoccerBetting'
p655
F-1.4239324237019944
sS'texas'
p656
F-1.3727704674285688
sS'MilitaryPorn'
p657
F-1.4798167686939907
sS'electronicmusic'
p658
F-1.3914624380804774
sS'finance'
p659
F-1.6753723447840319
sS'Scotland'
p660
F-1.2792302903513066
sS'halo'
p661
F-1.2639470408852684
sS'occult'
p662
F-1.6114789618226948
sS'creepyPMs'
p663
F-1.393361121330825
sS'asianamerican'
p664
F-1.8558781147520667
sS'penpals'
p665
F-1.5254196433677965
sS'crypto'
p666
F-1.8320678985304775
sS'Watches'
p667
F-1.3094293043330589
sS'AdviceAnimals'
p668
F-1.080039802255734
sS'haskell'
p669
F-1.0164462366642057
sS'aspergers'
p670
F-1.4272412789586417
sS'mildlyinteresting'
p671
F-1.2059827460283241
sS'TrueAtheism'
p672
F-1.4217681257139247
sS'badhistory'
p673
F-1.4998738995901837
sS'Archery'
p674
F-1.2400859456956475
sS'indianapolis'
p675
F0
sS'CryptoCurrency'
p676
F-1.4201656598484003
sS'malegrooming'
p677
F-1.3394738606423466
sS'canada'
p678
F-1.3842801297055525
sS'SNSD'
p679
F-1.393927943170546
sS'htcone'
p680
F-1.27455955861529
sS'space'
p681
F-1.4034859903357386
sS'Michigan'
p682
F-1.6081946009910459
sS'ACTrade'
p683
F-1.1301776295029211
sS'Dreadlocks'
p684
F-1.8607120893453684
sS'malefashionadvice'
p685
F-1.3495650500056842
sS'penguins'
p686
F-1.446266016270437
sS'MCPE'
p687
F-1.7109702167756491
sS'AutoDetailing'
p688
F-1.231795832162768
sS'Bondage'
p689
F-1.1915498317116056
sS'StLouis'
p690
F-1.5942496764171643
sS'cars'
p691
F-1.4231542335441132
sS'kansascity'
p692
F-1.6315858591248751
sS'ontario'
p693
F-1.7414652376731108
sS'vinyl'
p694
F-1.4238847420477851
sS'freemasonry'
p695
F0
sS'longrange'
p696
F-1.0283172628463917
sS'youtubehaiku'
p697
F-1.3739005345585564
sS'simracing'
p698
F-1.5172519227829495
sS'headphones'
p699
F-1.4186519381638529
sS'programming'
p700
F-1.444198609532755
sS'howtonotgiveafuck'
p701
F-1.4197351219117227
sS'raleigh'
p702
F-1.3683094350066081
sS'MakeupAddicts'
p703
F-1.1556552543454259
sS'whatstheword'
p704
F-1.28165675155517
sS'Dachshund'
p705
F-1.1223261336233161
sS'xbmc'
p706
F-1.2780531415429044
sS'Adelaide'
p707
F-1.1509822272030434
sS'Brazil'
p708
F-2.8271441327165676
sS'spotted'
p709
F-1.4668599956508688
sS'tennis'
p710
F-1.7160670355200853
sS'pokemon'
p711
F-1.3383221483780954
sS'JRPG'
p712
F-1.653827835747677
sS'granturismo'
p713
F-1.4154894065153703
sS'modelmakers'
p714
F-1.6262153070257797
sS'europe'
p715
F-1.6255124628978477
sS'MeanJokes'
p716
F-1.0956606508453861
sS'explainlikeimfive'
p717
F-1.1856856400412816
sS'nutrition'
p718
F-1.3792817919997207
sS'Scholar'
p719
F-1.3787869403084172
sS'HVAC'
p720
F-1.0437319847534283
sS'3DS'
p721
F-1.4362271287028623
sS'pittsburgh'
p722
F-1.6504645665642845
sS'MLPCCG'
p723
F-1.0772177118536415
sS'nsfw_gifs'
p724
F-1.3590155988434676
sS'indieheads'
p725
F-1.5737233555158854
sS'VapePorn'
p726
F-1.070039285666593
sS'learnpython'
p727
F-1.4098710526436564
sS'Battlefield'
p728
F-1.3524997367620628
sS'television'
p729
F-1.2617144128535394
sS'Colorado'
p730
F-1.6287144703973389
sS'sailing'
p731
F-1.4956600202551802
sS'TheRedPill'
p732
F-1.2986695632735827
sS'knives'
p733
F-1.5524362774556373
sS'russia'
p734
F-1.3408591146414226
sS'formula1'
p735
F-1.1475522179127537
sS'BPD'
p736
F-1.2332356892668093
sS'FoodPorn'
p737
F-1.3866230653735263
sS'wifesharing'
p738
F-1.2025356307463619
sS'conspiracy'
p739
F-1.4972905765757183
sS'AnythingGoesNews'
p740
F-1.3670853516803101
sS'superman'
p741
F-1.3208010220088906
sS'Warframe'
p742
F-1.3531953195918067
sS'warriors'
p743
F-1.3805682005829558
sS'shortscarystories'
p744
F-1.0414001855667805
sS'DaftPunk'
p745
F-1.2327088872886245
sS'hookah'
p746
F-1.6635622152663088
sS'britishproblems'
p747
F-1.3519574132335723
sS'madisonwi'
p748
F-0.76036734930643246
sS'Futurology'
p749
F-1.4368844078090959
sS'MLS'
p750
F-1.6937112477921028
sS'INTP'
p751
F-1.2826319599537244
sS'crochet'
p752
F-1.3302356443222365
sS'dayzlfg'
p753
F-1.3862943611198908
sS'SVExchange'
p754
F-1.2523847204920417
sS'flyfishing'
p755
F-1.3511985922171181
sS'Amsterdam'
p756
F-1.7333727408456874
sS'malefashion'
p757
F-1.6698419428027549
sS'talesfromcallcenters'
p758
F-1.0132006868902976
sS'fffffffuuuuuuuuuuuu'
p759
F-1.3773993900233243
sS'PleX'
p760
F-1.4291498769945798
sS'selfpublish'
p761
F-1.4111605770565718
sS'sgsflair'
p762
F-1.3459369401494272
sS'spacex'
p763
F-1.2919131108727457
sS'PuzzleAndDragons'
p764
F-1.2855599920572907
sS'TheoryOfReddit'
p765
F-1.5680876653007552
sS'Sacramento'
p766
F-0.82622665114542748
sS'short'
p767
F-1.185873459466567
sS'booksuggestions'
p768
F-1.2986435991546443
sS'VinylCollectors'
p769
F-1.587299589722746
sS'whowouldwin'
p770
F-1.475134968906028
sS'hockey'
p771
F-1.4439307286446299
sS'AsianHotties'
p772
F-1.2113586385602653
sS'CoDCompetitive'
p773
F-1.4562443455085676
sS'MetalMemes'
p774
F-1.46630141040366
sS'thinkpad'
p775
F-1.11793682806325
sS'beatles'
p776
F-1.5752280876684877
sS'arresteddevelopment'
p777
F-1.2636119284146234
sS'Random_Acts_Of_Amazon'
p778
F-1.4496140203718513
sS'mormon'
p779
F-0.80622593278074173
sS'xxketo'
p780
F-1.2479769800987186
sS'KerbalAcademy'
p781
F-1.5064304961250339
sS'lostgeneration'
p782
F-1.4665264056747045
sS'AllThingsTerran'
p783
F-1.1447993528881217
sS'elderscrollsonline'
p784
F-1.3085643611272069
sS'Denmark'
p785
F-1.4285501234411553
sS'homestead'
p786
F-1.6445066395909773
sS'Netrunner'
p787
F-1.4007443380858695
sS'HongKong'
p788
F-1.5658969388807833
sS'WeAreTheMusicMakers'
p789
F-1.4342038344106918
sS'pornvids'
p790
F-0.98065246074880896
sS'nsfw'
p791
F-1.3771958745923225
sS'truetf2'
p792
F-1.3356412086904801
sS'asatru'
p793
F-2.8304469735827236
sS'AskWomen'
p794
F-1.3677841038731859
sS'TheSimpsons'
p795
F-1.4336021564741817
sS'Entrepreneur'
p796
F-1.3641689853499077
sS'cocktails'
p797
F-1.342909156186328
sS'osugame'
p798
F-1.4448047240718391
sS'college'
p799
F-1.336887583932941
sS'entwives'
p800
F-1.6173189049883527
sS'pebble'
p801
F-1.3791310463622266
sS'KarmaCourt'
p802
F-1.1489929696572112
sS'MLPLounge'
p803
F-1.1703484631818357
sS'camping'
p804
F-1.5382537912841858
sS'behindthegifs'
p805
F-1.347041158470156
sS'breakingbad'
p806
F-1.4717923810575844
sS'CompanyOfHeroes'
p807
F-1.25230638265012
sS'outside'
p808
F-1.58369598642195
sS'longisland'
p809
F-1.1038428743481461
sS'jobs'
p810
F-1.4147208288802799
sS'cscareerquestions'
p811
F-1.3699888843294667
sS'Diablo3Monks'
p812
F-1.0497657058798999
sS'giftcardexchange'
p813
F-1.4857241293654675
sS'gamingsuggestions'
p814
F-1.452517727387872
sS'RedditDayOf'
p815
F-1.4117868265534197
sS'fitmeals'
p816
F-1.4281015778079276
sS'3dsFCswap'
p817
F-1.0894937608973967
sS'relationship_advice'
p818
F-1.2281838422044649
sS'BustyPetite'
p819
F-1.4380315078983292
sS'WWE'
p820
F-1.355584302628615
sS'itookapicture'
p821
F-1.4111686793298812
sS'GunPorn'
p822
F-1.5285417223206528
sS'tulsa'
p823
F0
sS'GetMotivated'
p824
F-1.3102835297246811
sS'pakistan'
p825
F-1.480216844144854
sS'bikesgonewild'
p826
F-1.3444501374158726
sS'cancer'
p827
F-1.3862943611198908
sS'Divorce'
p828
F-1.1434135333674926
sS'Delaware'
p829
F-0.6931471805599454
sS'reactiongifs'
p830
F-1.4361645747343772
sS'Wordpress'
p831
F-1.3420611439136287
sS'Cardinals'
p832
F-1.4788653668871623
sS'EarthPorn'
p833
F-0.98687357049836777
sS'Bonsai'
p834
F-1.1009682636704632
sS'Heroclix'
p835
F0
sS'cycling'
p836
F-1.6489771233220121
sS'thelastofusfactions'
p837
F-0.97548576891442285
sS'RandomActsOfPizza'
p838
F-1.2832216423480369
sS'snes'
p839
F-1.4220252562630156
sS'confessions'
p840
F-1.2238326546760092
sS'HunterXHunter'
p841
F-1.1809538852663537
sS'MakeupAddiction'
p842
F-1.3795693632526049
sS'androidapps'
p843
F-1.4400761281749883
sS'marvelstudios'
p844
F-1.3992902808335757
sS'somethingimade'
p845
F-1.5418886805095715
sS'emulation'
p846
F-1.5303365999621619
sS'bmx'
p847
F-1.9049979607125642
sS'Scotch'
p848
F-1.5410575892052849
sS'ABDL'
p849
F-1.9061888292777005
sS'GiveMeTheVirus'
p850
F-1.0387424363922884
sS'KingkillerChronicle'
p851
F-1.2675223547721421
sS'Shave_Bazaar'
p852
F-0.96056689639826365
sS'sex'
p853
F-1.5967326579388939
sS'blackladies'
p854
F-1.5094436356524412
sS'Perfectfit'
p855
F-1.3460097647492342
sS'offbeat'
p856
F-1.654387923750102
sS'Musicthemetime'
p857
F-1.1716181815381912
sS'titanfall'
p858
F-1.3761675444169876
sS'LGBTeens'
p859
F-1.4753137204343809
sS'latterdaysaints'
p860
F-1.5643072517896719
sS'ICanDrawThat'
p861
F-1.2803483405349425
sS'GNV'
p862
F-0.9147248637838854
sS'Cooking'
p863
F-1.5457543997543066
sS'IASIP'
p864
F-1.3860668829916358
sS'DIY'
p865
F-1.4120066485394762
sS'assassinscreed'
p866
F-1.3937009125802886
sS'technology'
p867
F-1.4287822380884396
sS'cheatatmathhomework'
p868
F-1.0483633409749689
sS'Israel'
p869
F-1.3855390384196031
sS'Jazz'
p870
F-1.6264638579937905
sS'pokemonzetaomicron'
p871
F-1.3909705444998837
sS'touhou'
p872
F-1.2751029271083705
sS'daddit'
p873
F-1.3958840994256621
sS'watchpeopledie'
p874
F-1.4503604167021535
sS'tolkienfans'
p875
F-1.3822956606574479
sS'singapore'
p876
F-1.8704997402184835
sS'Toyota'
p877
F-1.2077163140516358
sS'DebateAChristian'
p878
F-1.2779648719746257
sS'linux_gaming'
p879
F-1.5710620731642866
sS'climbing'
p880
F-1.3609428473636083
sS'Physics'
p881
F-1.4904615496650875
sS'PipeTobacco'
p882
F-1.3857269942654202
sS'traps'
p883
F-1.5436442875615315
sS'TrueFilm'
p884
F-1.4512653605983203
sS'dfsports'
p885
F-1.0372590001240047
sS'TimAndEric'
p886
F-1.3120438342215524
sS'gtavcustoms'
p887
F-1.548707165012376
sS'Graffiti'
p888
F-1.6294572130985454
sS'AskEngineers'
p889
F-1.4441737197382061
sS'starbucks'
p890
F-0.98245862566243458
sS'awwwtf'
p891
F-1.4309734682978439
sS'Barca'
p892
F-1.1109908779080389
sS'brisbane'
p893
F-1.1830967075489278
sS'Boxing'
p894
F-1.7734347424798398
sS'rupaulsdragrace'
p895
F-1.5052179908688763
sS'mycology'
p896
F-1.8378697544837235
sS'dadjokes'
p897
F-1.4750733006926557
sS'woodworking'
p898
F-1.4792042540820676
sS'whitepeoplegifs'
p899
F-1.4875958441490287
sS'Greyhounds'
p900
F-1.1836779085375424
sS'Miata'
p901
F-1.3094336746730968
sS'Attackontitangame'
p902
F-1.2109957860664138
sS'MillerPlanetside'
p903
F-1.0931232156130781
sS'UIUC'
p904
F-1.1213640570599237
sS'Advice'
p905
F-1.2607561270526579
sS'linuxadmin'
p906
F-1.1306108344105934
sS'LearnJapanese'
p907
F-1.9562062153585367
sS'fairytail'
p908
F-1.2587289381247957
sS'perth'
p909
F-1.2406426193013567
sS'offmychest'
p910
F-1.4219330554993626
sS'robotics'
p911
F-1.3890544057253105
sS'RandomActsOfPolish'
p912
F-1.4746738963278085
sS'Dexter'
p913
F-0.87539502231176947
sS'dota2loungebets'
p914
F-1.4804027473107058
sS'altgonewild'
p915
F-1.1988589128049352
sS'Dualsport'
p916
F-1.3259511592797666
sS'Shadowrun'
p917
F-1.3326188668692089
sS'SmiteLFM'
p918
F0
sS'grammar'
p919
F-1.1994829608681274
sS'bodyweightfitness'
p920
F-1.4343468472495635
sS'oblivion'
p921
F-1.4408869690508674
sS'compsci'
p922
F-1.5715280177162478
sS'montageparodies'
p923
F-1.5012631106151808
sS'incremental_games'
p924
F-1.3589268703241051
sS'HPMOR'
p925
F-1.5651075777017587
sS'ShouldIbuythisgame'
p926
F-1.5232610555673949
sS'freebies'
p927
F-1.7113363770362851
sS'cowboys'
p928
F-1.5471782743538132
sS'Berserk'
p929
F-1.4851717492923933
sS'gameofthrones'
p930
F-1.5597166264944899
sS'phoenix'
p931
F0
sS'Wicca'
p932
F-1.7323318095297084
sS'3Dprinting'
p933
F-1.695934022581123
sS'glassheads'
p934
F-1.5176940738827671
sS'metalgearsolid'
p935
F-1.4652394477753958
sS'transformers'
p936
F-1.4622731805260096
sS'business'
p937
F-1.4463717475146085
sS'FloridaMan'
p938
F-1.6379342135907748
sS'skrillex'
p939
F-1.3242999961319759
sS'Cynicalbrit'
p940
F-1.4432436209798567
sS'JonTron'
p941
F-1.4402920686115017
sS'drums'
p942
F-1.6777254930178622
sS'whatsthisplant'
p943
F-1.405483700137383
sS'custommagic'
p944
F-1.6695202051058939
sS'MvC3'
p945
F-1.1038104759221445
sS'GoneWildPlus'
p946
F-1.2372429378444085
sS'dontstarve'
p947
F-1.3953723603699468
sS'wheredidthesodago'
p948
F-1.5972905230648191
sS'Images'
p949
F-1.5046542709884418
sS'NSFWFunny'
p950
F-1.4510995089934617
sS'amiugly'
p951
F-1.5300097353261535
sS'puppy101'
p952
F-1.0797257377724037
sS'linuxquestions'
p953
F-1.4039033697005809
sS'bjj'
p954
F-1.5838102442215296
sS'snapchat'
p955
F-1.4869536751843913
sS'marijuanaenthusiasts'
p956
F-1.3746671101751753
sS'Warhammer40k'
p957
F-1.5672241877327027
sS'homestuck'
p958
F-1.418485558289778
sS'mcservers'
p959
F-1.4107296656483723
sS'DnD'
p960
F-1.409645690447709
sS'DnB'
p961
F-1.5835989093182929
sS'philadelphia'
p962
F-1.5497476191425825
sS'cats'
p963
F-1.4144183221657052
sS'emacs'
p964
F-1.2930737749255021
sS'raisedbynarcissists'
p965
F-1.4577098358365115
sS'tf2'
p966
F-1.4555420208736738
sS'cablefail'
p967
F-1.5019169080973072
sS'spicy'
p968
F-1.5970081933671603
sS'gamegrumps'
p969
F-1.4483651779509747
sS'ketorecipes'
p970
F-1.3791736135082608
sS'beerporn'
p971
F-1.511368630612691
sS'bindingofisaac'
p972
F-1.4087838048835311
sS'itmejp'
p973
F-1.8213459462928991
sS'rugbyunion'
p974
F-1.8207000112402558
sS'shittyaskreddit'
p975
F-0.90194137573387501
sS'Marvel'
p976
F-1.710198655119779
sS'videography'
p977
F-1.5480076007616244
sS'rage'
p978
F-1.6013850735917963
sS'comics'
p979
F-1.5852664350088013
sS'House'
p980
F-1.4221812990760101
sS'xmen'
p981
F-1.4260418359412008
sS'asexuality'
p982
F-1.2051355788872278
sS'rust'
p983
F-1.1848140535840201
sS'fullmoviesonyoutube'
p984
F-1.6146416512841943
sS'rva'
p985
F-1.3862943611198904
sS'videos'
p986
F-1.2165047951827788
sS'SketchDaily'
p987
F-1.5672060393564826
sS'arabs'
p988
F-1.363379046026854
sS'FL_Studio'
p989
F-1.4124170496457122
sS'ottawa'
p990
F-1.5406900616684223
sS'politics'
p991
F-1.4849251060532698
sS'Veterans'
p992
F-1.6205662325734791
sS'ForeverAlone'
p993
F-1.3302697855433685
sS'24hoursupport'
p994
F-1.0999980788709482
sS'bicycling'
p995
F-1.5553784466343501
sS'Survival'
p996
F-1.6606913726672428
sS'shittyama'
p997
F-1.3442684809287666
sS'zelda'
p998
F-1.4950400013837966
sS'OrthodoxChristianity'
p999
F-1.062507748493551
sS'Cinemagraphs'
p1000
F-1.1139210347411241
sS'ScotchSwap'
p1001
F-0.93847806127140099
sS'Frugal_Jerk'
p1002
F-1.3861278597577709
sS'GalaxyS3'
p1003
F-1.1647665247276273
sS'ColoradoAvalanche'
p1004
F-1.6339351939100328
sS'stocks'
p1005
F-1.6981976617665007
sS'alcohol'
p1006
F-1.4141094006443926
sS'Thetruthishere'
p1007
F-1.3012211766056041
sS'cosplaygirls'
p1008
F-1.4975211931402557
sS'AdoptMyVillager'
p1009
F-1.2084975231243873
sS'feedthebeast'
p1010
F-1.4658878830413888
sS'Kikpals'
p1011
F-1.1642115548804728
sS'curvy'
p1012
F-1.4519699361638816
sS'cpp'
p1013
F-1.6183588937794124
sS'AsianBeauty'
p1014
F-1.4758549806957673
sS'livesound'
p1015
F-1.4694461576094344
sS'learndota2'
p1016
F-1.6688074209357442
sS'AndroidGaming'
p1017
F-1.5251433417800406
sS'shrooms'
p1018
F-1.5330685041953838
sS'KitchenConfidential'
p1019
F-1.3363593799636782
sS'goldenretrievers'
p1020
F-1.20705750806709
sS'SampleSize'
p1021
F-1.2903158651237181
sS'Transmogrification'
p1022
F-1.0241457859204406
sS'askphilosophy'
p1023
F-1.444128491938395
sS'financialindependence'
p1024
F-1.5029427444522971
sS'Miniswap'
p1025
F-0.6931471805599454
sS'Cricket'
p1026
F-2.0697825957183351
sS'SourceFed'
p1027
F-0.78412148286752537
sS'Habs'
p1028
F-1.6936116574420454
sS'acting'
p1029
F-1.5336610214445963
sS'swoleacceptance'
p1030
F-1.4110163580820778
sS'MaddenUltimateTeam'
p1031
F-1.1000555488650332
sS'ImaginaryMonsters'
p1032
F-1.4942575250225021
sS'webhosting'
p1033
F-1.4581586864605844
sS'nyjets'
p1034
F-1.4215493920651925
sS'InfertilityBabies'
p1035
F-0.79976202779722505
sS'PerfectTiming'
p1036
F-1.2938892355969891
sS'YouShouldKnow'
p1037
F-1.7205841366441881
sS'Jeep'
p1038
F-1.5888542715638492
sS'horror'
p1039
F-1.4556775623375655
sS'progrockmusic'
p1040
F-1.5423854650054791
sS'bleach'
p1041
F-1.425153459839736
sS'IWantToLearn'
p1042
F-1.2865511149140998
sS'Pegging'
p1043
F-1.4524902164983811
sS'DarkSouls2'
p1044
F-1.3852965836401863
sS'yugioh'
p1045
F-1.9926133947834022
sS'anal'
p1046
F-1.1934248275792632
sS'LetsTalkMusic'
p1047
F-1.7586146054363718
sS'tea'
p1048
F-1.5494077470468097
sS'Denver'
p1049
F-1.5744992992685267
sS'POLITIC'
p1050
F-1.2074656887658906
sS'rapbattles'
p1051
F-1.2051887062873541
sS'AmISexy'
p1052
F-1.4550386846272723
sS'nba'
p1053
F-1.4091223949248199
sS'fantasyfootball'
p1054
F-1.4340161973307222
sS'cigars'
p1055
F-1.563734732834444
sS'forwardsfromgrandma'
p1056
F-1.6001540996150165
sS'frugalmalefashion'
p1057
F-1.5487443457066306
sS'skeptic'
p1058
F-1.3555405317137703
sS'AskPhotography'
p1059
F-0.9806916022807407
sS'Anticonsumption'
p1060
F-1.5568747937513185
sS'powerrangers'
p1061
F-1.5674503060838529
sS'GuessTheMovie'
p1062
F-1.2945477031479919
sS'guns'
p1063
F-1.591559278601042
sS'tattoos'
p1064
F-1.4721059496408078
sS'iran'
p1065
F-1.4029915201807488
sS'hcfactions'
p1066
F-1.5584190980033252
sS'needamod'
p1067
F-1.1316218297819978
sS'LetsNotMeet'
p1068
F-0.99901559990619848
sS'legaladvice'
p1069
F-1.382723084931972
sS'AskElectronics'
p1070
F-1.2722853773903919
sS'Ebay'
p1071
F-1.5954754744313258
sS'Supplements'
p1072
F-1.479594714149187
sS'berkeley'
p1073
F-0.75074025028033864
sS'doctorwho'
p1074
F-1.2300914295131298
sS'Braves'
p1075
F-1.4386415505750656
sS'WritingPrompts'
p1076
F-1.0367123259192219
sS'sanfrancisco'
p1077
F-1.4580886162818567
sS'vegetarian'
p1078
F-1.4658790028672088
sS'creepy'
p1079
F-1.3172036176007191
sS'pics'
p1080
F-1.2233846897344396
sS'cripplingalcoholism'
p1081
F-1.4299418450471402
sS'advertising'
p1082
F-1.6153320980605286
sS'IWantOut'
p1083
F-1.636030226066568
sS'HalfLife'
p1084
F-1.4751889596502625
sS'shanghai'
p1085
F-1.1406386227757923
sS'Yogscast'
p1086
F-1.371028274582903
sS'todayilearned'
p1087
F-1.3140330418688606
sS'jailbreak'
p1088
F-1.3308506092210814
sS'vim'
p1089
F-1.4807791307293541
sS'Louisville'
p1090
F-0.91130644003664774
sS'ronandfez'
p1091
F-0.75036931722916345
sS'Eminem'
p1092
F-1.5794615829201288
sS'Columbus'
p1093
F-1.3895067093170397
sS'WebGames'
p1094
F-1.36310487795686
sS'musictheory'
p1095
F-1.8152696929675627
sS'battlefield_4'
p1096
F-1.4260086661990288
sS'pkmntcgtrades'
p1097
F-1.3201440176672199
sS'Philippines'
p1098
F-2.3869682521867133
sS'galaxys4'
p1099
F-1.2397146339004084
sS'namenerds'
p1100
F-1.2982064657893919
sS'KillLaKill'
p1101
F-1.6975654312069768
sS'showerbeer'
p1102
F-1.4326916351546153
sS'science'
p1103
F-1.5211861729990002
sS'firstworldproblems'
p1104
F-1.6396369938303534
sS'Mustang'
p1105
F-1.2208753368950918
sS'history'
p1106
F-1.4819780761903463
sS'Denton'
p1107
F-1.3862943611198908
sS'gamemaker'
p1108
F-0.91355792850764872
sS'AskScienceFiction'
p1109
F-1.6269631959705224
sS'Glocks'
p1110
F-1.2682257875393823
sS'Infographics'
p1111
F-1.409930131464554
sS'Throwers'
p1112
F0
sS'CampingandHiking'
p1113
F-1.661242423037991
sS'hardbodies'
p1114
F-1.5299619686378074
sS'techsupportmacgyver'
p1115
F-1.7431700477107919
sS'backpacking'
p1116
F-1.6018197954669517
sS'Hotchickswithtattoos'
p1117
F-1.5092055269679152
sS'scifi'
p1118
F-1.705094351998012
sS'starcraft'
p1119
F-1.4323952122309231
sS'Dreams'
p1120
F-1.4651047210778558
sS'awwnime'
p1121
F-1.7945964710532949
sS'Chattanooga'
p1122
F-1.9426423020928536
sS'blackops2'
p1123
F-1.632172107831052
sS'discgolf'
p1124
F-1.9050781425631331
sS'budgetfood'
p1125
F-1.5585684572629006
sS'oaklandraiders'
p1126
F-1.4465902965655082
sS'comicbookmovies'
p1127
F-1.5265688700617961
sS'uwaterloo'
p1128
F-1.2528306477844184
sS'MachinePorn'
p1129
F-1.6773278967204241
sS'GaybrosGoneWild'
p1130
F-1.4683288316333254
sS'Shitstatistssay'
p1131
F-1.4565429849760543
sS'crafts'
p1132
F-1.6352316425874864
sS'streetwear'
p1133
F-1.754444006452399
sS'DataHoarder'
p1134
F-1.407000508830432
sS'Nerf'
p1135
F-2.3611361581017003
sS'photoshop'
p1136
F-1.6135834608121669
sS'help'
p1137
F-1.2765553481812084
sS'softwareswap'
p1138
F-1.4673281839035424
sS'DoesAnybodyElse'
p1139
F-1.5582172256057456
sS'pettyrevenge'
p1140
F-1.6193810210571282
sS'malehairadvice'
p1141
F-1.4544446497272379
sS'SF4'
p1142
F-1.7348879564887025
sS'DeepIntoYouTube'
p1143
F-1.609587513199485
sS'csharp'
p1144
F-1.270530196936102
sS'DIY_eJuice'
p1145
F-1.0950381858550184
sS'milwaukee'
p1146
F-0.87717448633292139
sS'islam'
p1147
F-1.5153408296565258
sS'YGOSales'
p1148
F-1.3743455330976961
sS'summonerschool'
p1149
F-1.4295899467171296
sS'computers'
p1150
F-1.2403788792918693
sS'BigBoobsGW'
p1151
F-1.426174943564404
sS'Documentaries'
p1152
F-1.3946352248066871
sS'StonerEngineering'
p1153
F-1.5488385248297618
sS'gamedesign'
p1154
F-1.5528770722737408
sS'TrueChristian'
p1155
F-1.515642430321029
sS'argentina'
p1156
F-3.6646253211445998
sS'soccer'
p1157
F-1.4323134311515746
sS'askseddit'
p1158
F-1.33290739079691
sS'TheRedLion'
p1159
F-1.2001832632609197
sS'Frisson'
p1160
F-1.6108122799990836
sS'Charlotte'
p1161
F-1.5707330369045576
sS'food'
p1162
F-1.418493697596805
sS'90daysgoal'
p1163
F-1.0867017502879595
sS'shittydarksouls'
p1164
F-1.4447317094465191
sS'gmod'
p1165
F-1.5998432655062809
sS'NoStupidQuestions'
p1166
F-1.6698353601698441
sS'VideoEditing'
p1167
F-1.6684608950371402
sS'makeupexchange'
p1168
F-1.313358636045967
sS'WatchItForThePlot'
p1169
F-1.5865688707564303
sS'seinfeld'
p1170
F-1.5227942477135494
sS'radiocontrol'
p1171
F-1.663720937282104
sS'battlefield3'
p1172
F-1.2629827740867006
sS'gamemusic'
p1173
F-1.6633095074466189
sS'energy'
p1174
F-1.5777947707172384
sS'Saints'
p1175
F-1.2958515270733764
sS'MST3K'
p1176
F-1.5116970262892202
sS'Dota2Trade'
p1177
F-1.2585290790304315
sS'TwoXChromosomes'
p1178
F-1.4081237388513825
sS'DunderMifflin'
p1179
F-1.4154702536792936
sS'psychology'
p1180
F-1.5982715504034273
sS'demonssouls'
p1181
F-1.659445637117281
sS'LearnUselessTalents'
p1182
F-1.6090351176462159
sS'leagueoflegends'
p1183
F-1.3175368675207322
sS'randomsexiness'
p1184
F-1.4146222773765746
sS'Astronomy'
p1185
F-1.5381777763628772
sS'ftm'
p1186
F-1.1768397464665046
sS'CatsStandingUp'
p1187
F-1.1929990975660765
sS'ass'
p1188
F-1.56357039288587
sS'wisconsin'
p1189
F-2.3344045841706955
sS'hackintosh'
p1190
F-1.5281256476135745
sS'longboarding'
p1191
F-1.1152786366454333
sS'Tucson'
p1192
F0
sS'Roadcam'
p1193
F-1.5235112932504125
sS'TributeMe'
p1194
F-1.1804898988084132
sS'PoliticalHumor'
p1195
F-1.5220557248235913
sS'TalesFromThePizzaGuy'
p1196
F-1.5574765892876608
sS'running'
p1197
F-1.4494531692657961
sS'ar15'
p1198
F-1.6308193024583186
sS'belgium'
p1199
F-1.7882507810139319
sS'snowboarding'
p1200
F-1.5340158801813359
sS'NYKnicks'
p1201
F-1.6474358020943121
sS'Turkey'
p1202
F-1.5413067915448091
sS'hawks'
p1203
F-1.3317419130903771
sS'gamingpc'
p1204
F-1.5343508671145516
sS'churning'
p1205
F-1.5381960912675514
sS'sydney'
p1206
F-1.5878236245093948
sS'misc'
p1207
F-1.4663801097695535
sS'patientgamers'
p1208
F-1.7309312859787083
sS'feet'
p1209
F-1.2935032932389365
sS'conspiratard'
p1210
F-1.7232379464548675
sS'GreenBayPackers'
p1211
F-1.7460726094013168
sS'cade'
p1212
F-1.8737262354675468
sS'gtaonline'
p1213
F-1.5299239213332045
sS'Tribes'
p1214
F-inf
sS'freedonuts'
p1215
F-1.3862943611198908
sS'projectcar'
p1216
F-1.5848242155156629
sS'OldSchoolCool'
p1217
F-1.4317132972207478
sS'OpiatesRecovery'
p1218
F-1.4141700935242691
sS'onetruegod'
p1219
F-1.3856426584481358
sS'rails'
p1220
F-1.35731201024725
sS'Autos'
p1221
F-1.6464936640264645
sS'shittyreactiongifs'
p1222
F-1.4552984859026559
sS'Everton'
p1223
F-1.2102486974356497
sS'aves'
p1224
F-1.8172735386569094
sS'SuggestALaptop'
p1225
F-1.4881446853195976
sS'GTA'
p1226
F-1.6007446184034455
sS'TrollYChromosome'
p1227
F-1.5822928483452596
sS'Metroid'
p1228
F-1.6028872994818344
sS'DaystromInstitute'
p1229
F-1.504830647893777
sS'GODZILLA'
p1230
F-1.5897329400954074
sS'mylittlepony'
p1231
F-1.5610580961650173
sS'DumpsterDiving'
p1232
F-1.5888420192549817
sS'madmen'
p1233
F-1.4474021304353988
sS'Plumbing'
p1234
F-1.3806333494238816
sS'dogemarket'
p1235
F-1.4605890103799171
sS'vintageaudio'
p1236
F-1.8608506449224789
sS'SelfDrivingCars'
p1237
F-1.4757771052369879
sS'sto'
p1238
F-1.7726071436370476
sS'Coilporn'
p1239
F-1.4733065368889373
sS'kindle'
p1240
F-1.5854468734072449
sS'CombatFootage'
p1241
F-1.2666104485850056
sS'XWingTMG'
p1242
F-1.836953189825363
sS'COents'
p1243
F-1.7372531151910788
sS'TalesFromYourServer'
p1244
F-1.5164057138851135
sS'HighQualityGifs'
p1245
F-1.5746149840405508
sS'Aleague'
p1246
F-1.941648261771769
sS'trance'
p1247
F-1.5289760695838663
sS'self'
p1248
F-1.7173987143246148
sS'HomeworkHelp'
p1249
F-1.6206965915065066
sS'StarcraftCirclejerk'
p1250
F-1.4372952843866635
sS'CivcraftExchange'
p1251
F-0.72252157025351516
sS'vmware'
p1252
F-1.0347822879278912
sS'BeardPorn'
p1253
F-1.6172446568224088
sS'paydaytheheist'
p1254
F-1.5200273135358877
sS'MovieSuggestions'
p1255
F-1.3925736214326774
sS'Fibromyalgia'
p1256
F-0.81034487010555889
sS'ActionFigures'
p1257
F-1.6438923314136058
sS'KingdomHearts'
p1258
F-1.7345802273919939
sS'realmadrid'
p1259
F-1.2420222093086948
sS'personalfinance'
p1260
F-0.95607693908610525
sS'progresspics'
p1261
F-1.5037118447295637
sS'statistics'
p1262
F-1.6125230599454476
sS'beyondthebump'
p1263
F-1.2552386155232353
sS'RBA'
p1264
F-1.6469498738394766
sS'windows'
p1265
F-1.7500874509081772
sS'jakeandamir'
p1266
F-1.1771673951994943
sS'newjersey'
p1267
F-1.4648132602578672
sS'Silverbugs'
p1268
F-2.1129064059783085
sS'TumblrInAction'
p1269
F-1.6344170670043532
sS'Fishing'
p1270
F-1.5996386106483236
sS'vaporents'
p1271
F-1.4777500878479071
sS'golf'
p1272
F-1.5811604364722305
sS'Psychonaut'
p1273
F-1.7080164385370509
sS'adventuretime'
p1274
F-1.5253700327458635
sS'runescape'
p1275
F-1.3629913000789449
sS'guineapigs'
p1276
F-1.0214487037025495
sS'stalker'
p1277
F-1.7753657257484996
sS'bodybuilding'
p1278
F-1.4863973156985297
sS'Foodforthought'
p1279
F-1.7464175410612963
sS'blender'
p1280
F-1.6651755774089292
sS'Amateur'
p1281
F-1.6781445070628562
sS'Bass'
p1282
F-1.7678718633901136
sS'printSF'
p1283
F-1.5561135654648508
sS'French'
p1284
F-1.8841881609805804
sS'harrypotter'
p1285
F-1.5460816770803687
sS'wicked_edge'
p1286
F-1.6244186730234658
sS'Trove'
p1287
F-1.5154562894070942
sS'DetroitRedWings'
p1288
F-1.8175109566787517
sS'boulder'
p1289
F-1.5750801761266491
sS'toronto'
p1290
F-1.4195871052248252
sS'ArtisanVideos'
p1291
F-1.7533188086200671
sS'Magic'
p1292
F-1.5850343137476108
sS'CrusaderKings'
p1293
F-1.4520666144633241
sS'FixedGearBicycle'
p1294
F-1.8065547883874293
sS'Conservative'
p1295
F-1.5092689061308224
sS'PrettyGirlsUglyFaces'
p1296
F-1.4815167605135819
sS'overclocking'
p1297
F-1.447202893971081
sS'AbandonedPorn'
p1298
F-1.7061788605917663
sS'spikes'
p1299
F-1.4856491095191553
sS'Rabbits'
p1300
F-1.4342528916390398
sS'tmobile'
p1301
F-1.7712360812647185
sS'progressive'
p1302
F-1.671804398562271
sS'postrock'
p1303
F-1.6677848845802909
sS'progun'
p1304
F-1.6948636975868263
sS'Marijuana'
p1305
F-1.6611731012230155
sS'Minneapolis'
p1306
F-1.3654893451685755
sS'croatia'
p1307
F-0.6931471805599454
sS'ClashOfClans'
p1308
F-1.3111669501561032
sS'corgi'
p1309
F-1.379163483389938
sS'PHP'
p1310
F-1.4014838375985668
sS'cringe'
p1311
F-1.6087384352934837
sS'airsoftmarket'
p1312
F-1.4793892063396412
sS'bakchodi'
p1313
F-1.3862943611198904
sS'Rochester'
p1314
F-1.2202552479502722
sS'CalgaryFlames'
p1315
F-1.4632709828768846
sS'devils'
p1316
F-1.5373273836978611
sS'InsideGaming'
p1317
F-1.3627805494160969
sS'SanJose'
p1318
F-1.076616954446695
sS'see'
p1319
F-1.513553412628684
sS'friendsafari'
p1320
F-1.5743478950325636
sS'sips'
p1321
F-1.3758259157929917
sS'Vaping101'
p1322
F-1.4496153141268753
sS'HeroesofNewerth'
p1323
F-1.1588879627134068
sS'analog'
p1324
F-1.5701129811905128
sS'rawdenim'
p1325
F-1.3204842571415809
sS'cosplay'
p1326
F-1.6055256342239863
sS'AmericanHorrorStory'
p1327
F-1.5138346618320009
sS'foodhacks'
p1328
F-1.5480377388822744
sS'Anarchy101'
p1329
F-1.3980837552731611
sS'RWBY'
p1330
F-1.6650561713592831
sS'steelers'
p1331
F-1.4779241414233826
sS'AsianLadyboners'
p1332
F-2.1759535022622791
sS'iosgaming'
p1333
F-1.6260712614276094
sS'latin'
p1334
F-1.5395259550283862
sS'flightsim'
p1335
F-1.649598233420533
sS'PixelArt'
p1336
F-1.6448015385140744
sS'AskTechnology'
p1337
F-1.0737153397621109
sS'javascript'
p1338
F-1.5425570857476352
sS'celebnsfw'
p1339
F-1.5225538873752757
sS'NASCAR'
p1340
F-1.7722425624644673
sS'fakeid'
p1341
F-inf
sS'newhampshire'
p1342
F-2.0646511277974522
sS'Unexpected'
p1343
F-1.6829457599523696
sS'saskatoon'
p1344
F-1.2612839743508042
sS'Sherlock'
p1345
F-1.5419623772976534
sS'baltimore'
p1346
F-1.5002621105867622
sS'drunk'
p1347
F-1.645854258192557
sS'xxfitness'
p1348
F-1.6707902500172613
sS'community'
p1349
F-1.5683196478464119
sS'BBWGW'
p1350
F-1.2703382281042921
sS'linux'
p1351
F-1.7216930011365266
sS'femalefashionadvice'
p1352
F-1.7123358224820295
sS'java'
p1353
F-1.4921276277886659
sS'PotterPlayRP'
p1354
F-0.94662629094895223
sS'bostonceltics'
p1355
F-1.4566274321527857
sS'Guitar'
p1356
F-1.5357256085168496
sS'southafrica'
p1357
F-1.3862943611198912
sS'California'
p1358
F-1.6707648563492663
sS'ireland'
p1359
F-1.3838638826423191
sS'boston'
p1360
F-0.99047826101348591
sS'web_design'
p1361
F-1.5932391683316851
sS'orioles'
p1362
F-1.5967494841415859
sS'EA_NHL'
p1363
F-1.8991896215736594
sS'gay'
p1364
F-1.4495488537265842
sS'mturk'
p1365
F-0.98196661007364328
sS'germanshepherds'
p1366
F-1.2829199899980144
sS'curlyhair'
p1367
F-1.048535996618492
sS'thelastofus'
p1368
F-1.5752201497020986
sS'forza'
p1369
F-1.8626243879303122
sS'buildapcforme'
p1370
F-1.4274445929007635
sS'sandiego'
p1371
F-1.6072781659671831
sS'Chromecast'
p1372
F-1.5908339832639937
sS'Flipping'
p1373
F-1.7257900161077391
sS'metacanada'
p1374
F-1.9566079323787859
sS'ultrahardcore'
p1375
F-1.4519588847287785
sS'MtF'
p1376
F-1.3199615062456562
sS'OnOff'
p1377
F-1.609298712537953
sS'C25K'
p1378
F-1.4098898666897242
sS'stopdrinking'
p1379
F-0.98968683875866725
sS'rit'
p1380
F-1.3196540956528948
sS'Filmmakers'
p1381
F-1.5988683753203672
sS'RandomActsOfBlowJob'
p1382
F-1.396232580000687
sS'southpark'
p1383
F-1.6740575884253985
sS'funny'
p1384
F-1.3036711461234667
sS'astrophotography'
p1385
F-1.4437022682341816
sS'deadpool'
p1386
F-0.96516906358921251
sS'migraine'
p1387
F-1.5002548136480596
sS'selfimprovement'
p1388
F-1.4839090750342834
sS'stlouisblues'
p1389
F-1.7772661800595628
sS'chelseafc'
p1390
F-1.4647716929682477
sS'SaltLakeCity'
p1391
F-1.9545627158140819
sS'windows8'
p1392
F-1.59719583894623
sS'fifthworldproblems'
p1393
F-1.4919421762520528
sS'Anarchism'
p1394
F-1.2233003613677349
sS'knitting'
p1395
F-1.6001341395815292
sS'borussiadortmund'
p1396
F-1.4953952817384502
sS'AnimalsBeingJerks'
p1397
F-1.6891235736145109
sS'KDRAMA'
p1398
F-1.5167560817376711
sS'torontoraptors'
p1399
F-2.0115209475980738
sS'BMW'
p1400
F-1.624123800668162
sS'catpictures'
p1401
F-1.5166191019443946
sS'lacrosse'
p1402
F0
sS'OutreachHPG'
p1403
F-1.402421736859266
sS'infertility'
p1404
F-1.4224533194796216
sS'ArtistLounge'
p1405
F-1.0577948574708529
sS'anime'
p1406
F-1.2813003039413013
sS'RedditDads'
p1407
F-1.2010033695312241
sS'Iceland'
p1408
F-0.69314718055994495
sS'chemistry'
p1409
F-1.4467686097474157
sS'exjw'
p1410
F-1.2913652156495923
sS'breastfeeding'
p1411
F-1.3706872896882052
sS'Albany'
p1412
F0
sS'Piracy'
p1413
F-1.5690774982153135
sS'CCW'
p1414
F-1.7574584710493539
sS'Porsche'
p1415
F-1.4228963796689986
sS'OFWGKTA'
p1416
F-1.7051454599483595
sS'SkyDiving'
p1417
F-0.80259332776558123
sS'Magicdeckbuilding'
p1418
F-1.5304547374452617
sS'losangeleskings'
p1419
F-1.7748665019211232
sS'startups'
p1420
F-1.6077836270649808
sS'gaybrosgonemild'
p1421
F-1.4921357744970312
sS'carporn'
p1422
F-1.6830191065826279
sS'TalesFromRetail'
p1423
F-1.653043658944787
sS'TrueReddit'
p1424
F-1.8223107665112863
sS'Parenting'
p1425
F-1.1810421486450657
sS'CasualPokemonTrades'
p1426
F-1.4989241485721978
sS'quityourbullshit'
p1427
F-1.7865440888736774
sS'ProtectAndServe'
p1428
F-1.2780812526577723
sS'rangers'
p1429
F-1.9069489351846585
sS'Fallout'
p1430
F-1.2448262862100172
sS'PlayStationPlus'
p1431
F-1.784365896630665
sS'exmormon'
p1432
F-1.4898184507724395
sS'NSFW_GIF'
p1433
F-1.5757324735862532
sS'HomeNetworking'
p1434
F-1.4203764871636886
sS'Harley'
p1435
F-1.5396433110180272
sS'glasgow'
p1436
F-1.3025096701756316
sS'BipolarReddit'
p1437
F-1.602328848494327
sS'jacksonville'
p1438
F-1.840134784740123
sS'RedPillWomen'
p1439
F-1.4392220462180294
sS'ConfusedBoners'
p1440
F-1.6215942184450158
sS'strife'
p1441
F-1.4633876937351866
sS'UBC'
p1442
F-1.3862943611198904
sS'csshelp'
p1443
F-1.5687752876427452
sS'MTGLegacy'
p1444
F-1.2464748734136082
sS'google'
p1445
F-1.6655031550473298
sS'gardening'
p1446
F-1.7216536086853589
sS'unitedkingdom'
p1447
F-1.6148229914193672
sS'watercooling'
p1448
F-0.93390834184205351
sS'circlebroke2'
p1449
F-1.4634077710273523
sS'interestingasfuck'
p1450
F-1.7385857427389233
sS'FeMRADebates'
p1451
F-1.3510034970014071
sS'SFGiants'
p1452
F-1.7552862334066508
sS'Warmachine'
p1453
F-1.7169100016787924
sS'AMA'
p1454
F-1.4802535521091924
sS'DarkNetMarkets'
p1455
F-1.6231064406232374
sS'religion'
p1456
F-1.3817550126628428
sS'Gunsforsale'
p1457
F-1.4964293714247834
sS'Enhancement'
p1458
F-1.6662557393541695
sS'DeadBedrooms'
p1459
F-1.5136959643198491
sS'nexus4'
p1460
F-1.5651305026222371
sS'Economics'
p1461
F-1.7658781063545188
sS'Hawaii'
p1462
F-2.1629813358355618
sS'rccars'
p1463
F-1.7691097321078204
sS'Flyers'
p1464
F-1.700125245177655
sS'lewronggeneration'
p1465
F-1.7682916957986183
sS'roblox'
p1466
F-1.8309493854736609
sS'Unity3D'
p1467
F-1.6364745713793698
sS'Romania'
p1468
F0
sS'calvinandhobbes'
p1469
F-1.5014615642495892
sS'netflix'
p1470
F-1.6774394696246153
sS'melbourne'
p1471
F-1.7251985894890756
sS'Pmsforsale'
p1472
F-1.4789611902224407
sS'ShitAmericansSay'
p1473
F-1.6450388960762874
sS'intj'
p1474
F-1.4377628767613695
sS'selfharm'
p1475
F-1.7233631838549617
sS'subaru'
p1476
F-1.633878075877333
sS'RandomKindness'
p1477
F-1.6194845502211708
sS'weddingplanning'
p1478
F-1.637683429491708
sS'tifu'
p1479
F-1.4393303777086111
sS'france'
p1480
F-1.5913413857035528
sS'SimCity'
p1481
F-1.344227312025609
sS'loseit'
p1482
F-1.5818927125622011
sS'CrazyIdeas'
p1483
F-1.8230827692001821
sS'TinyHouses'
p1484
F-1.6887222031353231
sS'SquaredCircle'
p1485
F-1.4668161902951775
sS'linux4noobs'
p1486
F-1.6593888632802125
sS'mylittleandysonic1'
p1487
F-1.7980742978150963
sS'sousvide'
p1488
F-1.2322835458534034
sS'asstastic'
p1489
F-1.595396789501546
sS'iphone'
p1490
F-1.6250353591682174
sS'BeardedDragons'
p1491
F-0.89862473167854784
sS'Suomi'
p1492
F-1.3862943611198908
sS'lockpicking'
p1493
F-1.6573266019540833
sS'teslamotors'
p1494
F-1.6168126244250134
sS'Cigarettes'
p1495
F-2.2233606413308209
sS'gatech'
p1496
F-1.6144470115553777
sS'dirtypenpals'
p1497
F-1.4585648613964124
sS'sailormoon'
p1498
F-1.8056605373292336
sS'Switzerland'
p1499
F-1.5865066705795372
sS'NoFap'
p1500
F-1.3516019001704507
sS'Austin'
p1501
F-1.3567933980606721
sS'ProgrammerHumor'
p1502
F-1.7440723304146282
sS'bettafish'
p1503
F-1.6742137428481039
sS'gonewild'
p1504
F-1.5534274287145786
sS'pathofexile'
p1505
F-1.4662237332110983
sS'infj'
p1506
F-1.5079767834196824
sS'discexchange'
p1507
F0
sS'forhire'
p1508
F-1.6333006774286005
sS'askdrugs'
p1509
F-1.4966401396919626
sS'conlangs'
p1510
F-1.7757038391093345
sS'civ'
p1511
F-1.6041759848333994
sS'lookatmydog'
p1512
F-1.6812578527779971
sS'RealEstate'
p1513
F-1.6485044433258684
sS'infp'
p1514
F-1.6928426689561742
sS'TrueAskReddit'
p1515
F-1.7635932497017066
sS'engineering'
p1516
F-1.6506150560559574
sS'ExploreFiction'
p1517
F-0.6931471805599454
sS'CanadianForces'
p1518
F-1.8700989184939387
sS'Seahawks'
p1519
F-1.6197828662699418
sS'dirtykikpals'
p1520
F-1.5816794788635038
sS'Colts'
p1521
F-1.440188223167203
sS'workgonewild'
p1522
F-1.3577346644372392
sS'tabletopgamedesign'
p1523
F-1.9165719459853343
sS'Baking'
p1524
F-1.6504991084590914
sS'socialanxiety'
p1525
F-1.6189766322644559
sS'londonontario'
p1526
F-1.3862943611198904
sS'ModernMagic'
p1527
F-1.452110081609961
sS'orangecounty'
p1528
F-1.3060927152690578
sS'askcarsales'
p1529
F-1.6602176743661587
sS'youtube'
p1530
F-1.4209164855122287
sS'microsoft'
p1531
F-1.5010714439476027
sS'urbanexploration'
p1532
F-1.6178815503232764
sS'crossdressing'
p1533
F-1.6719510651377743
sS'inthenews'
p1534
F-1.6114815687036099
sS'BuyItForLife'
p1535
F-1.9018464337899275
sS'syriancivilwar'
p1536
F-1.5881044658207282
sS'Drifting'
p1537
F-1.4818465404487626
sS'JoeRogan'
p1538
F-1.6892807334788147
sS'AnimeFigures'
p1539
F-1.5328233108472078
sS'picrequests'
p1540
F-1.385016911747277
sS'archlinux'
p1541
F-1.5497722691764335
sS'GYBB'
p1542
F-1.3862943611198899
sS'holdmybeer'
p1543
F-1.7577875526976818
sS'FreeKarma'
p1544
F-1.7068645749008029
sS'premed'
p1545
F-1.3538680909953833
sS'dwarffortress'
p1546
F-1.6664790584709213
sS'PanicHistory'
p1547
F-1.5269884241400895
sS'BasicIncome'
p1548
F-1.7487253344855853
sS'ukulele'
p1549
F-1.1493674628828094
sS'UpliftingNews'
p1550
F-1.5821367872604677
sS'3amjokes'
p1551
F-1.4144333719683786
sS'photoshopbattles'
p1552
F-1.3715923758238908
sS'Edmonton'
p1553
F-1.4809915984029709
sS'techsupportgore'
p1554
F-1.8635331590979707
sS'Surface'
p1555
F-1.5312304915169563
sS'CrappyDesign'
p1556
F-1.8150606658884723
sS'Patriots'
p1557
F-1.8278891851915269
sS'Cyberpunk'
p1558
F-1.8471180755397585
sS'Libertarian'
p1559
F-1.7927611122682876
sS'Seattle'
p1560
F-1.443408920337788
sS'Anarcho_Capitalism'
p1561
F-1.7453998051072857
sS'Whatisthis'
p1562
F-1.3509440386707299
sS'Paleo'
p1563
F-1.6717980252132358
sS'EatCheapAndHealthy'
p1564
F-1.793514160179793
sS'gentlemanboners'
p1565
F-1.6913570108970557
sS'counterstrike'
p1566
F-1.4826596406014279
sS'blackpeoplegifs'
p1567
F-1.7325541540333145
sS'redditgetsdrawn'
p1568
F-1.5213022188243883
sS'neopets'
p1569
F-1.4803127713155801
sS'Naruto'
p1570
F-1.5912719821947903
sS'Norway'
p1571
F-2.0438922477658785
sS'depression'
p1572
F-1.5206536299369269
sS'no_sob_story'
p1573
F-1.5067160626155465
sS'chicago'
p1574
F-1.4674249442282363
sS'falcons'
p1575
F-1.4483858839671995
sS'Warthunder'
p1576
F-1.5784043891927855
sS'DebateReligion'
p1577
F-1.6797288986518515
sS'mindcrack'
p1578
F-1.6737028541595977
sS'AfterEffects'
p1579
F-1.6599561409303347
sS'AskNetsec'
p1580
F-1.3117750851488288
sS'MotoG'
p1581
F-1.3744358547634961
sS'AnimalCrossing'
p1582
F-1.8652813218614179
sS'languagelearning'
p1583
F-1.7745285182525805
sS'MotoX'
p1584
F-1.4835438093869318
sS'pantsu'
p1585
F-1.4348414397708629
sS'Equestrian'
p1586
F-1.6210253841603453
sS'Ingress'
p1587
F-1.4605859433669242
sS'tipofmypenis'
p1588
F-1.529567289102375
sS'survivor'
p1589
F-1.592674836180249
sS'DWMA'
p1590
F-1.0630205583693786
sS'ShotBow'
p1591
F-1.6107446098557541
sS'alaska'
p1592
F0
sS'mtgfinance'
p1593
F-1.0170758977074585
sS'design_critiques'
p1594
F-1.6260037966124044
sS'apple'
p1595
F-1.6685099706494437
sS'Assistance'
p1596
F-1.5951505892462947
sS'confession'
p1597
F-1.6744656529593911
sS'KingOfTheHill'
p1598
F-1.5191067410960297
sS'Firearms'
p1599
F-1.880640442159466
sS'festivals'
p1600
F-1.8759712084304534
sS'singing'
p1601
F-1.5949753844661796
sS'FifaCareers'
p1602
F-1.4599720296051397
sS'graphic_design'
p1603
F-1.6542368094425557
sS'eldertrees'
p1604
F-1.7622232890321596
sS'stopsmoking'
p1605
F-1.4871204704643537
sS'eagles'
p1606
F-1.7758424204251289
sS'tipofmytongue'
p1607
F-1.6014416662299764
sS'rpg_gamers'
p1608
F-1.2490449695370587
sS'opiates'
p1609
F-1.8512178669948307
sS'parrots'
p1610
F-1.6496174182777976
sS'LifeProTips'
p1611
F-1.6355767855386496
sS'asoiaf'
p1612
F-1.5364459358381142
sS'penis'
p1613
F-1.705044684000296
sS'AskMen'
p1614
F-1.649953799445866
sS'beermoney'
p1615
F-1.6285295767659642
sS'findareddit'
p1616
F-1.7587050807665481
sS'Birmingham'
p1617
F-inf
sS'gundeals'
p1618
F-1.6081982323613842
sS'ferrets'
p1619
F-1.50998673832874
sS'solotravel'
p1620
F-1.7649979936677651
sS'ShitPoliticsSays'
p1621
F-1.542153423957858
sS'learnprogramming'
p1622
F-1.737233782971094
sS'TwoBestFriendsPlay'
p1623
F-1.7380051867645117
sS'triangle'
p1624
F-0.73326031308748774
sS'Ask_Politics'
p1625
F-1.5472439840283654
sS'asktrp'
p1626
F-1.6509666985703637
sS'netsec'
p1627
F-1.7787456187376502
sS'Xcom'
p1628
F-1.6531558021942754
sS'needadvice'
p1629
F-1.5159948190837351
sS'CableManagement'
p1630
F-1.6151152833811357
sS'playmindcrack'
p1631
F-1.2639434425988343
sS'PickAnAndroidForMe'
p1632
F-1.5269215141523826
sS'polandball'
p1633
F-1.7329107502161101
sS'GiftofGames'
p1634
F-1.777619210086324
sS'kickstarter'
p1635
F-1.5207860632401684
sS'highdeas'
p1636
F-1.626880978584023
sS'Nissan'
p1637
F-1.3843703176163666
sS'philosophy'
p1638
F-1.6023262112677878
sS'Mommit'
p1639
F-1.6969909998788308
sS'classic4chan'
p1640
F-1.4663826577059691
sS'paintball'
p1641
F-1.5210120506950617
sS'trees'
p1642
F-1.0967758159444436
sS'CHIBears'
p1643
F-1.9181078873288788
sS'dating_advice'
p1644
F-1.4747581396464948
sS'listentothis'
p1645
F-1.5346957603558087
sS'software'
p1646
F-1.6862859481624524
sS'cableporn'
p1647
F-1.7388941708497869
sS'bartenders'
p1648
F-1.4674101738052165
sS'houston'
p1649
F-1.4732263585187813
sS'Gunpla'
p1650
F-1.7325910243578679
sS'electronic_cigarette'
p1651
F-1.5674162836480043
sS'actuallesbians'
p1652
F-1.6366899661043366
sS'Supernatural'
p1653
F-1.5311371228610557
sS'linguistics'
p1654
F-1.8598491175742939
sS'BabyBumps'
p1655
F-1.8159532774591423
sS'clothdiaps'
p1656
F-1.288479279056963
sS'gaybros'
p1657
F-1.6469264935288894
sS'pornfree'
p1658
F-1.6607599831083681
sS'fantasybaseball'
p1659
F-1.6829496826543839
sS'nostalgia'
p1660
F-1.7997302167324554
sS'pugs'
p1661
F-1.3970597847036015
sS'HITsWorthTurkingFor'
p1662
F-1.5392969674540558
sS'ruby'
p1663
F-1.2437695323648428
sS'Gore'
p1664
F-1.5020282180834617
sS'MensRights'
p1665
F-1.7566235142050663
sS'YMS'
p1666
F-1.5830873947781368
sS'LosAngeles'
p1667
F-1.5797993883953678
sS'smallbusiness'
p1668
F-1.6741498455913657
sS'Miami'
p1669
F-1.4329851263475568
sS'beards'
p1670
F-1.6776952308758597
sS'DebateAnAtheist'
p1671
F-1.5835766066239554
sS'reddevils'
p1672
F-1.7687137550714374
sS'motorcycles'
p1673
F-1.5382106656080978
sS'LiverpoolFC'
p1674
F-1.8178037163322123
sS'tightdresses'
p1675
F-1.5122546996278601
sS'nfl'
p1676
F-1.6663175164614374
sS'PropagandaPosters'
p1677
F-1.811470814252309
sS'mashups'
p1678
F-1.4223840154680367
sS'trap'
p1679
F-1.8999431558002833
sS'minimalism'
p1680
F-1.8404126215197048
sS'eu4'
p1681
F-1.4504185921375568
sS'PJRP_Community'
p1682
F-0.95154884008966745
sS'lfg'
p1683
F-1.3504678546603963
sS'MakeNewFriendsHere'
p1684
F-1.4468541809626008
sS'DoctorWhumour'
p1685
F-1.585781282848306
sS'TrollXChromosomes'
p1686
F-1.4713353325492413
sS'serbia'
p1687
F-1.9763771172337363
sS'Madden'
p1688
F-1.8796595326310079
sS'TEFL'
p1689
F-2.1398967007436274
sS'books'
p1690
F-1.505357727621
sS'popping'
p1691
F-1.6240255730370272
sS'entertainment'
p1692
F-1.7271460809319548
sS'PKA'
p1693
F-1.6108234399979908
sS'China'
p1694
F-2.0208555960437136
sS'RoomPorn'
p1695
F-1.7979468552348221
sS'Hotwife'
p1696
F-1.4870903377776639
sS'memes'
p1697
F-1.4787920958639535
sS'math'
p1698
F-1.7194782730396128
sS'wallpaper'
p1699
F-1.5580068636302364
sS'Brooklyn'
p1700
F-1.4852316775260543
sS'whatcarshouldIbuy'
p1701
F-1.6931475106920115
sS'AppalachianTrail'
p1702
F-1.4230789271981388
sS'conservatives'
p1703
F-1.4542460653910383
sS'GamePhysics'
p1704
F-1.8209031254083428
sS'pokemontrades'
p1705
F-1.8019409915856581
sS'Buffalo'
p1706
F-1.8679609375859916
sS'RedHotChiliPeppers'
p1707
F-1.8193238799060647
sS'Firefighting'
p1708
F-1.5735498411206319
sS'Borderlands'
p1709
F-1.5882816528092194
sS'recipes'
p1710
F-1.7294082051331001
sS'florida'
p1711
F-2.1822741377240593
sS'Rainmeter'
p1712
F-1.6237993897738621
sS'Planetside'
p1713
F-1.602000485450719
sS'49ers'
p1714
F-1.8801820130630755
sS'resumes'
p1715
F-1.5806134102729654
sS'gunpolitics'
p1716
F-1.7581727418495054
sS'Bombing'
p1717
F-2.3778232077680732
sS'dragonage'
p1718
F-1.5352860942353068
sS'AsiansGoneWild'
p1719
F-1.5349123535479396
sS'tappedout'
p1720
F-1.1667261929102803
sS'CrossStitch'
p1721
F-1.5180876434839572
sS'privacy'
p1722
F-1.8649995144453166
sS'redditblack'
p1723
F-1.4775189349617226
sS'classicalmusic'
p1724
F-1.6996729412403742
sS'Awesomenauts'
p1725
F-1.4858722833791
sS'Frat'
p1726
F-2.242288917628271
sS'Disneyland'
p1727
F-2.4074908042354037
sS'Indiemakeupandmore'
p1728
F-1.5230484901869139
sS'Boobies'
p1729
F-1.7067644441988286
sS'firefox'
p1730
F-1.7681867148994614
sS'Gundam'
p1731
F-1.3941732380856053
sS'gtaglitches'
p1732
F-1.319430060207194
sS'Terraria'
p1733
F-1.6812456351000273
sS'breakingmom'
p1734
F-1.6768874835867549
sS'surfing'
p1735
F-2.0027417581949671
sS'skyrim'
p1736
F-1.7081828043025729
sS'Twitch'
p1737
F-1.2117561134099528
sS'SRSGaming'
p1738
F-1.4414835560049704
sS'ipad'
p1739
F-1.6369537866781929
sS'thatHappened'
p1740
F-1.7722068259333792
sS'sweden'
p1741
F-1.4122083661861513
sS'torrents'
p1742
F-1.7127092892665496
sS'ChronicPain'
p1743
F-2.6315972845895406
sS'bisexual'
p1744
F-2.0517226890087166
sS'urbanplanning'
p1745
F-1.811691905567903
sS'mflb'
p1746
F-1.6694320705396786
sS'teenagers'
p1747
F-1.1770101145080183
sS'ecigclassifieds'
p1748
F-1.4377319041237611
sS'sysadmin'
p1749
F-1.7363409173610114
sS'explainlikeIAmA'
p1750
F-1.5272793762364252
sS'homelab'
p1751
F-1.7464380688438563
sS'redsox'
p1752
F-1.8932770746361864
sS'Nootropics'
p1753
F-1.8414888806476339
sS'IAmA'
p1754
F-1.4291351260259013
sS'bonnaroo'
p1755
F-2.1104108534628203
sS'Reformed'
p1756
F-1.3862943611198901
sS'slowcooking'
p1757
F-1.8299710996217575
sS'UnresolvedMysteries'
p1758
F-1.5499234075888157
sS'nonononoyes'
p1759
F-1.8655767003911752
sS'FutureWhatIf'
p1760
F-1.6790834860353279
sS'firefly'
p1761
F-1.2851265974647283
sS'treesgonewild'
p1762
F-1.7801439165464283
sS'badphilosophy'
p1763
F-1.7119260719535054
sS'aww'
p1764
F-1.0179230725308939
sS'sewing'
p1765
F-1.3900211514090168
sS'Games'
p1766
F-1.7225364873871118
sS'hearthstone'
p1767
F-1.5416383486558232
sS'Trucking'
p1768
F0
sS'glitch_art'
p1769
F-1.6944613892216251
sS'comiccodes'
p1770
F-0.91000075910457756
sS'secretsanta'
p1771
F-1.6588994959683863
sS'shroomers'
p1772
F-1.3939100426603435
sS'HailCorporate'
p1773
F-1.7834708078732859
sS'painting'
p1774
F-1.4346740237993716
sS'wow'
p1775
F-1.5192816165537995
sS'IDAP'
p1776
F-1.6921499537162581
sS'weightroom'
p1777
F-1.785112031058941
sS'RandomActsOfGaming'
p1778
F-1.8292038001689637
sS'redheads'
p1779
F-1.4539125142462455
sS'Smite'
p1780
F-1.4753454975709723
sS'photocritique'
p1781
F-1.5902741997521792
sS'xbox360'
p1782
F-1.6818348503075677
sS'PoliticalDiscussion'
p1783
F-1.844683776874656
sS'teslore'
p1784
F-1.2691296957317908
sS'manchester'
p1785
F-1.561281901491069
sS'RandomActsofMakeup'
p1786
F-1.7886321421024238
sS'TheBluePill'
p1787
F-1.7974575135688298
sS'MDMA'
p1788
F-1.474569465809815
sS'learnmath'
p1789
F-1.8458681281301406
sS'hugeboobs'
p1790
F-1.3966789572830756
sS'blunderyears'
p1791
F-1.5461865963183623
sS'bourbon'
p1792
F-1.877253294091477
sS'Welding'
p1793
F-1.41945936925933
sS'buildapcsales'
p1794
F-1.7547788197183944
sS'shutupandtakemymoney'
p1795
F-1.8987187205955092
sS'Tulpas'
p1796
F-2.4196571055425351
sS'photography'
p1797
F-1.705868720537647
sS'JusticePorn'
p1798
F-1.8177558882193701
sS'smashbros'
p1799
F-1.6333268055873136
sS'Fitness'
p1800
F-1.5617826349190009
sS'magicTCG'
p1801
F-1.1578036695431404
sS'powerlifting'
p1802
F-1.4418147610875243
sS'hometheater'
p1803
F-1.8562555509577159
sS'FIFA'
p1804
F-1.8383975945702726
sS'StarWars'
p1805
F-1.4231178938289073
sS'RATS'
p1806
F-1.8719870136841132
sS'Justrolledintotheshop'
p1807
F-1.885407605432242
sS'StandUpComedy'
p1808
F-1.087159380248333
sS'roosterteeth'
p1809
F-1.557504431265861
sS'skateboarding'
p1810
F-1.7056270351969287
sS'CODZombies'
p1811
F-1.4818125047824162
sS'againstmensrights'
p1812
F-1.5917814027102266
sS'TrueAnime'
p1813
F-1.3470865125440366
sS'truegaming'
p1814
F-1.885786366101426
sS'GameTrade'
p1815
F-1.3714353804582462
sS'Blacksmith'
p1816
F-1.6062330582633551
sS'AskCulinary'
p1817
F-1.8078008971431574
sS'MonsterHunter'
p1818
F-1.8245527293625701
sS'Republican'
p1819
F-1.6508691403896543
sS'medicalschool'
p1820
F-1.744725114056332
sS'CollegeBasketball'
p1821
F-1.8091602506754896
sS'nashville'
p1822
F-3.1830777235521457
sS'spotify'
p1823
F-1.2555885104185522
sS'tonightsdinner'
p1824
F-1.5951590689453417
sS'facepalm'
p1825
F-1.7734104644461475
sS'acturnips'
p1826
F-1.410039758402682
sS'NotTimAndEric'
p1827
F-1.6935806791293571
sS'MaleFashionMarket'
p1828
F-1.5093386919069935
sS'Roku'
p1829
F-1.5782524270005664
sS'tf2trade'
p1830
F-1.7961192326302307
sS'pinkfloyd'
p1831
F-1.9588551203900169
sS'lotr'
p1832
F-1.1390731589604641
sS'uhccourtroom'
p1833
F-1.7640740641538255
sS'keto'
p1834
F-1.6769073959016563
sS'Motocross'
p1835
F-1.7009446100639702
sS'norge'
p1836
F-1.3862943611198906
sS'nosleep'
p1837
F-1.4233012926644761
sS'Stretched'
p1838
F-1.9148350278885831
sS'Design'
p1839
F-1.7832304570785933
sS'Quebec'
p1840
F-1.695950136594629
sS'buildapc'
p1841
F-1.6404396523878537
sS'ucf'
p1842
F-1.4105737156808564
sS'incest'
p1843
F-1.5498950921215422
sS'Music'
p1844
F-1.4842447362694875
sS'startrek'
p1845
F-1.8325402203876537
sS'rpg'
p1846
F-1.7609325445065931
sS'oakland'
p1847
F-1.3713667533305165
sS'BeautyBoxes'
p1848
F-1.2383286573060319
sS'socialism'
p1849
F-1.1727331995986052
sS'Homebrewing'
p1850
F-1.6931252475969334
sS'TheWire'
p1851
F-1.6396080888895006
sS'gopro'
p1852
F-1.8207151984605146
sS'HomeImprovement'
p1853
F-1.8571461976371957
sS'Thailand'
p1854
F-1.8431752651801008
sS'WTF'
p1855
F-1.5067311689424763
sS'verizon'
p1856
F-1.611630805920778
sS'Wellington'
p1857
F-1.7170690875396337
sS'Maplestory'
p1858
F-1.8656891574477479
sS'smoking'
p1859
F-1.0847786211553507
sS'ravens'
p1860
F-1.6341199405148989
sS'FullmetalAlchemist'
p1861
F-1.7559809449138195
sS'minerapocalypse'
p1862
F-1.2177708599517272
sS'pkmntcg'
p1863
F-1.7356951608134663
sS'Neverwinter'
p1864
F-1.6576149831838507
sS'podcasts'
p1865
F-1.5374786074655185
sS'softwaregore'
p1866
F-1.9008702574771652
sS'Needafriend'
p1867
F-1.8156531426327944
sS'Vivillon'
p1868
F-1.4090905078609433
sS'hoggit'
p1869
F-1.6083113766478063
sS'hardware'
p1870
F-1.8888981800237543
sS'Briggs'
p1871
F-1.3862943611198904
sS'shorthairedhotties'
p1872
F-1.7329012668122479
sS'childfree'
p1873
F-1.4046893439179335
sS'tattoo'
p1874
F-1.5956431937636135
sS'education'
p1875
F-1.6910479979354576
sS'productivity'
p1876
F-1.7719585621764904
sS'transpassing'
p1877
F-2.0391621189187981
sS'katawashoujo'
p1878
F-1.7889257811400952
sS'Whatcouldgowrong'
p1879
F-1.8862193443473938
sS'notinteresting'
p1880
F-1.7585623365279517
sS'birthcontrol'
p1881
F-1.4876330441207539
sS'aggies'
p1882
F-1.6190680590901829
sS'wargame'
p1883
F-1.7675094902771755
sS'leangains'
p1884
F-1.6366489199123291
sS'Teachers'
p1885
F-1.9791712190672115
sS'MTB'
p1886
F-1.8533039947386727
sS'yoga'
p1887
F-1.6236781727026566
sS'gratefuldead'
p1888
F-1.9406316171566607
sS'diabetes'
p1889
F-1.3862943611198908
sS'BurningMan'
p1890
F-2.1738220809793796
sS'indonesia'
p1891
F-2.0012566945898
sS'HumanPorn'
p1892
F-1.8320121217873115
sS'240sx'
p1893
F-1.4455502471356365
sS'Fantasy'
p1894
F-1.6739432942247241
sS'Sprint'
p1895
F-1.4469081710581637
sS'audio'
p1896
F-1.8610767079149413
sS'retrogaming'
p1897
F-1.8384107232482743
sS'drawing'
p1898
F-1.6433610614284895
sS'EmmaWatson'
p1899
F-1.5583534292418708
sS'GifSound'
p1900
F-1.5835678381435594
sS'FancyFollicles'
p1901
F-1.8458042374221071
sS'TagPro'
p1902
F-1.4646615671380865
sS'AskSocialScience'
p1903
F-1.7787782308955844
sS'martialarts'
p1904
F-2.0494718569981436
sS'gaybears'
p1905
F-1.3671715635982478
sS'masseffect'
p1906
F-1.7211150391575964
sS'futurama'
p1907
F-1.7527159894305742
sS'AustralianMakeup'
p1908
F-1.8022315673056766
sS'DirtySnapchat'
p1909
F-1.1399611663256999
sS'flashlight'
p1910
F-1.716683239305941
sS'minnesotavikings'
p1911
F-1.8132863008382296
sS'audioengineering'
p1912
F-1.8963090249223074
sS'ReefTank'
p1913
F-1.5762240562348744
sS'Diablo'
p1914
F-1.6200127899302075
sS'androidthemes'
p1915
F-1.7437109430113766
sS'aoe2'
p1916
F-1.6779578486582305
sS'blackberry'
p1917
F-2.1670164058024843
sS'bigboobproblems'
p1918
F-1.8912765524330064
sS'cumsluts'
p1919
F-1.6722441657208957
sS'howto'
p1920
F-1.9129467113729222
sS'MosinNagant'
p1921
F-1.5427707506945341
sS'cringepics'
p1922
F-1.734517205779051
sS'LinuxActionShow'
p1923
F-1.4116942502185705
sS'beertrade'
p1924
F-1.0526051230683402
sS'thewalkingdead'
p1925
F-1.7108617472006484
sS'dubai'
p1926
F-1.3862943611198899
sS'lost'
p1927
F-1.5946910348604315
sS'animegifs'
p1928
F-1.8232975036903438
sS'Paranormal'
p1929
F-1.5679469100552312
sS'GLRP_EastBlue'
p1930
F-1.3372186820129004
sS'4chan'
p1931
F-1.7797965227590691
sS'NHLHUT'
p1932
F-1.5209780878562094
sS'LeagueOfMemes'
p1933
F-1.9285018634657447
sS'MechanicalKeyboards'
p1934
F-1.8366657300530989
sS'NYGiants'
p1935
F-1.9028969939136213
sS'xboxone'
p1936
F-1.6572102677353371
sS'GolfGTI'
p1937
F-1.1973520889089775
sS'tumblr'
p1938
F-1.7067968551235513
sS'burstingout'
p1939
F-1.4460531568921766
sS'mathrock'
p1940
F-1.5923446064293985
sS'halifax'
p1941
F-1.5450818033000264
sS'batonrouge'
p1942
F-1.3862943611198908
sS'Eugene'
p1943
F-1.3862943611198908
sS'reloading'
p1944
F-1.5227873135773558
sS'Coffee'
p1945
F-1.8052129375901478
sS'heroesofthestorm'
p1946
F-1.7172026851259377
sS'canadaguns'
p1947
F-2.171587861374471
sS'SkincareAddiction'
p1948
F-1.7717502660201276
sS'OSU'
p1949
F-1.4570102756118346
sS'KansasCityChiefs'
p1950
F-1.5761302551822278
sS'ACMilan'
p1951
F-1.5310772179428995
sS'HogwartsRP'
p1952
F-1.4598289986159043
sS'Hardcore'
p1953
F-1.8812063638344001
sS'SubredditDrama'
p1954
F-1.8811184991635539
sS'starbound'
p1955
F-1.7579297962450449
sS'biology'
p1956
F-1.6401348624635581
sS'CookieClicker'
p1957
F-1.5888012236054385
sS'delusionalartists'
p1958
F-1.8781983300123075
sS'StLouisRams'
p1959
F-1.573974696316331
sS'rotmgtradingpost'
p1960
F0
sS'bayarea'
p1961
F-1.8005450970534005
sS'worldbuilding'
p1962
F-1.8461428206846202
sS'retrogameswap'
p1963
F-1.6098019792542879
sS'sportsbook'
p1964
F-1.9782824410078959
sS'DrugNerds'
p1965
F-2.1724102296085546
sS'SolForge'
p1966
F-1.6434475413108254
sS'GameDeals'
p1967
F-1.7864971131279326
sS'battlestations'
p1968
F-1.8470114135132505
sS'androidcirclejerk'
p1969
F-1.9161553694519498
sS'paradoxplaza'
p1970
F-1.7077609210009692
sS'CrohnsDisease'
p1971
F0
sS'boltedontits'
p1972
F-1.4193867381238068
sS'pussy'
p1973
F-1.4986401342027751
sS'hiphopheads'
p1974
F-1.5615716155463106
sS'Animesuggest'
p1975
F-1.831250197195228
sS'weather'
p1976
F-1.6970995199733054
sS'Sneakers'
p1977
F-1.8516727078829263
sS'Calgary'
p1978
F-1.7543202157595676
sS'cs50'
p1979
F-1.3862943611198908
sS'Damnthatsinteresting'
p1980
F-1.8458920637547607
sS'networking'
p1981
F-1.7739047179733198
sS'typography'
p1982
F-1.4882552488637111
sS'rct'
p1983
F-1.7614434472678364
sS'MorbidReality'
p1984
F-1.8636584832568239
sS'introvert'
p1985
F-1.7571296277033603
sS'Portal'
p1986
F-1.7434700589927692
sS'howardstern'
p1987
F-1.8913539941891138
sS'MINI'
p1988
F-1.3862943611198912
sS'tasker'
p1989
F-1.6882037563705996
sS'gaymers'
p1990
F-2.0471316577927512
sS'peacecorps'
p1991
F0
sS'Detroit'
p1992
F-1.7942844732901175
sS'indiegameswap'
p1993
F-1.607427788731544
sS'HipHopImages'
p1994
F-1.8627685030209058
sS'buffalobills'
p1995
F-1.7540206969417147
sS'Metalcore'
p1996
F-1.8662268736282273
sS'opieandanthony'
p1997
F-1.72974508922235
sS'memphis'
p1998
F0
sS'whatsthisbird'
p1999
F-1.6597522260387971
sS'MachineLearning'
p2000
F-1.7758576238830415
sS'geocaching'
p2001
F-1.8293311397078171
sS'randomsuperpowers'
p2002
F-1.697743447770083
sS'PercyJacksonRP'
p2003
F-1.5586838563989311
sS'Civcraft'
p2004
F-2.6340412459229974
sS'buffy'
p2005
F-1.8371002174468036
sS'SSBPM'
p2006
F-1.6253907544457333
sS'airsoft'
p2007
F-1.7053530037342388
sS'bestofworldstar'
p2008
F-1.6957569194063016
sS'autism'
p2009
F-1.8936694978717665
sS'DAE'
p2010
F-1.5519475417950996
sS'AskUK'
p2011
F-1.6841481257446063
sS'DestinyTheGame'
p2012
F-1.5458646702431462
sS'circlebroke'
p2013
F-1.8352970079524979
sS'ImaginaryLandscapes'
p2014
F-1.669309827029454
sS'TheWayWeWere'
p2015
F-1.77280767919643
sS'DippingTobacco'
p2016
F-2.1335542932193277
sS'badtattoos'
p2017
F-1.7111107691876253
sS'GlobalOffensiveTrade'
p2018
F-1.6792526121640359
sS'phish'
p2019
F-2.1231759091269033
sS'raspberry_pi'
p2020
F-1.8998137611368682
sS'quilting'
p2021
F-1.5637547881600637
sS'SuicideWatch'
p2022
F-1.5546871760924761
sS'minecraftsuggestions'
p2023
F-1.6820145107762845
sS'Warhammer'
p2024
F-1.8986257567434106
sS'bigdickproblems'
p2025
F-1.7157939187514453
sS'nintendo'
p2026
F-1.7918501453912539
sS'allthingszerg'
p2027
F-1.4903461990244877
sS'TeraOnline'
p2028
F-1.9432244348719085
sS'Starcitizen_trades'
p2029
F-1.5539112438100049
sS'roguelikes'
p2030
F-1.530829448292029
sS'CannabisExtracts'
p2031
F-2.0297400595771764
sS'GirlGamers'
p2032
F-1.8842946448856059
sS'slashdiablo'
p2033
F0
sS'Whiskyporn'
p2034
F-1.6519094358490272
sS'atheism'
p2035
F-1.6758558794110172
sS'visualnovels'
p2036
F-1.7056810737137063
sS'coys'
p2037
F-1.7266022450131402
sS'Spanish'
p2038
F-1.7856704036484659
sS'MassiveCock'
p2039
F-1.9195688997466438
sS'speedrun'
p2040
F-1.8175044252579697
sS'oklahoma'
p2041
F-inf
sS'GWNerdy'
p2042
F-1.6023293710546058
s.