(dp1
S'awwwtf'
p2
F0.013562136728500001
sS'Heavymind'
p3
F0.0084962468035999997
sS'DoesAnybodyElse'
p4
F0.0095517065715699997
sS'pettyrevenge'
p5
F0.0123773228559
sS'PublicFreakout'
p6
F0.0078903055087799993
sS'skyrim'
p7
F0.0070572788445799998
sS'LucidDreaming'
p8
F0.0079655793941499995
sS'rickandmorty'
p9
F0.0079941528482000007
sS'quotes'
p10
F0.0096818810511799993
sS'SampleSize'
p11
F0.0070319869651000004
sS'perfectloops'
p12
F0.016180066158500001
sS'everymanshouldknow'
p13
F0.010048993312600001
sS'InternetIsBeautiful'
p14
F0.00914907427441
sS'RandomActsOfGaming'
p15
F0.0078142695356700001
sS'breakingbad'
p16
F0.0079327631967000007
sS'TalesFromRetail'
p17
F0.0084171322160100006
sS'TheoryOfReddit'
p18
F0.0090566037735800003
sS'WouldYouRather'
p19
F0.0132895559725
sS'quityourbullshit'
p20
F0.0151972065709
sS'LearnUselessTalents'
p21
F0.0188049209139
sS'Showerthoughts'
p22
F0.0075340901103500002
sS'shittybattlestations'
p23
F0.0081365350267899993
sS'whowouldwin'
p24
F0.011173340020599999
sS'woahdude'
p25
F0.0098504545692499994
sS'ImaginaryMonsters'
p26
F0.0084483244156599996
sS'adventuretime'
p27
F0.0072810411537099998
sS'nononono'
p28
F0.013144492409199999
sS'Frisson'
p29
F0.0105256276151
sS'arresteddevelopment'
p30
F0.0075295534974800004
sS'shutupandtakemymoney'
p31
F0.0081214858955300003
sS'misc'
p32
F0.0097882995674899997
sS'whitepeoplegifs'
p33
F0.012886816447599999
sS'AbandonedPorn'
p34
F0.0076439491355899999
sS'patientgamers'
p35
F0.0085243223929400008
sS'nottheonion'
p36
F0.0071266738806999999
sS'NoStupidQuestions'
p37
F0.0172151898734
sS'cringepics'
p38
F0.0075681468086499998
sS'toosoon'
p39
F0.0145131497933
sS'magicskyfairy'
p40
F0.0072940503432500003
sS'PrettyGirlsUglyFaces'
p41
F0.0096827738841800005
sS'Braveryjerk'
p42
F0.0084043560606099996
sS'photoshopbattles'
p43
F0.0111780228703
sS'IWantToLearn'
p44
F0.0075205978156699998
sS'firstimpression'
p45
F0.00750817722272
sS'creepyPMs'
p46
F0.0095285857572699993
sS'IdiotsFightingThings'
p47
F0.014427523275199999
sS'WatchItForThePlot'
p48
F0.0087683404454299996
sS'techsupportgore'
p49
F0.0093176003360400002
sS'freebies'
p50
F0.0085459893473199995
sS'PropagandaPosters'
p51
F0.0083857442347999994
sS'vexillology'
p52
F0.0079976303317499994
sS'NewsOfTheWeird'
p53
F0.0072235355923299998
sS'shittyadviceanimals'
p54
F0.0119047619048
sS'futurama'
p55
F0.011730205278599999
sS'dadjokes'
p56
F0.031855955678699997
sS'montageparodies'
p57
F0.0091958222953000008
sS'minimalism'
p58
F0.0075384291429800004
sS'DeepIntoYouTube'
p59
F0.0179458239278
sS'ArcherFX'
p60
F0.0076774481153100002
sS'cringe'
p61
F0.0075989250301199997
sS'whatisthisthing'
p62
F0.0095083863504900005
sS'glitch_art'
p63
F0.0106798110495
sS'DoctorWhumour'
p64
F0.0074036252233899997
sS'TheSimpsons'
p65
F0.0077621489391700004
sS'ShouldIbuythisgame'
p66
F0.0072767249502699999
sS'SubredditDrama'
p67
F0.0092763298336900005
sS'tumblr'
p68
F0.012224494433099999
sS'see'
p69
F0.0072207712398199998
sS'MarkMyWords'
p70
F0.0175306517531
sS'changemyview'
p71
F0.0080904862243100003
sS'KarmaCourt'
p72
F0.0086308356218099992
sS'Cinemagraphs'
p73
F0.0111001700833
sS'firstworldanarchists'
p74
F0.0171589688507
sS'offbeat'
p75
F0.0086117388383299999
sS'no_sob_story'
p76
F0.0109074553019
sS'humor'
p77
F0.010041529783699999
sS'Glitch_in_the_Matrix'
p78
F0.010636324284199999
sS'shittyfoodporn'
p79
F0.011707539786100001
sS'wikipedia'
p80
F0.0077905389125399998
sS'ExpectationVsReality'
p81
F0.012558983666100001
sS'socialskills'
p82
F0.0076162215628100003
sS'firstworldproblems'
p83
F0.011117186076200001
sS'outside'
p84
F0.017510944340200001
sS'facepalm'
p85
F0.010242481756600001
sS'lifehacks'
p86
F0.0096678983941099993
sS'SCP'
p87
F0.0074464428915099997
sS'CatsStandingUp'
p88
F0.0097393015248400001
sS'Enhancement'
p89
F0.00829406220547
sS'blackpeoplegifs'
p90
F0.0116066459973
sS'bestof'
p91
F0.00742279378074
sS'ProgrammerHumor'
p92
F0.0092332806203099995
sS'linguistics'
p93
F0.0070434782608699998
sS'casualiama'
p94
F0.010988613117500001
sS'FloridaMan'
p95
F0.014023732470299999
sS'delusionalartists'
p96
F0.013734812467
sS'answers'
p97
F0.011269614835899999
sS'JonTron'
p98
F0.0083809523809499995
sS'NotTimAndEric'
p99
F0.013343384847300001
sS'shittyaskscience'
p100
F0.0179153965453
sS'GamePhysics'
p101
F0.0142640747286
sS'wallpaper'
p102
F0.0086341583751299994
sS'lewronggeneration'
p103
F0.0134780325573
sS'WritingPrompts'
p104
F0.0070829370768299999
sS'RedditDayOf'
p105
F0.0089786756453400004
sS'4chan'
p106
F0.0090987722273999996
sS'howtonotgiveafuck'
p107
F0.00744005036342
sS'sixwordstories'
p108
F0.019589106545600001
sS'AnimalsBeingBros'
p109
F0.0133833322558
sS'classic4chan'
p110
F0.016806722689099999
sS'whatstheword'
p111
F0.012463647694199999
sS'ANormalDayInRussia'
p112
F0.0126426570081
sS'androidcirclejerk'
p113
F0.0076172658024899996
sS'HalfLife'
p114
F0.0071193866374599998
sS'QuotesPorn'
p115
F0.0088184969069499998
sS'drunk'
p116
F0.0091430928402000001
sS'reactiongifs'
p117
F0.0080775750229600003
sS'AntiJokes'
p118
F0.039992041384800003
sS'findareddit'
p119
F0.015644979315500001
sS'rant'
p120
F0.0092824279602899996
sS'conspiratard'
p121
F0.0096801585055200003
sS'marijuanaenthusiasts'
p122
F0.00902077151335
sS'introvert'
p123
F0.0071842599395899997
sS'holdmybeer'
p124
F0.012531635235500001
sS'ContagiousLaughter'
p125
F0.013111683446499999
sS'nostalgia'
p126
F0.0087643986549300005
sS'Damnthatsinteresting'
p127
F0.012621150118500001
sS'FiftyFifty'
p128
F0.013410472432500001
sS'CrazyIdeas'
p129
F0.0209236807952
sS'OutOfTheLoop'
p130
F0.017333817983600001
sS'Whatcouldgowrong'
p131
F0.0125520657436
sS'onetruegod'
p132
F0.011755131566999999
sS'gif'
p133
F0.0078374630734899999
sS'wheredidthesodago'
p134
F0.017527604046000001
sS'PenmanshipPorn'
p135
F0.011743098842399999
sS'ifyoulikeblank'
p136
F0.010480557375099999
sS'misleadingthumbnails'
p137
F0.022643645626900001
sS'shittyadvice'
p138
F0.0147146890239
sS'MeanJokes'
p139
F0.027675857008100001
sS'FreeKarma'
p140
F0.0076315316933000003
sS'fifthworldproblems'
p141
F0.014189041693999999
sS'Pareidolia'
p142
F0.020897728799900001
sS'happy'
p143
F0.00869304556355
sS'TrollYChromosome'
p144
F0.0085395608225899994
sS'explainlikeIAmA'
p145
F0.018986323411100001
sS'alternativeart'
p146
F0.0089800443458999991
sS'Unexpected'
p147
F0.0149943853623
sS'shortscarystories'
p148
F0.0107792314655
sS'WebGames'
p149
F0.0083643892339499998
sS'mildlyinfuriating'
p150
F0.0129676347526
sS'oddlysatisfying'
p151
F0.013985636373499999
sS'youtubehaiku'
p152
F0.013845232749600001
sS'Awwducational'
p153
F0.013332421714799999
sS'Shitty_Car_Mods'
p154
F0.0083593479014900003
sS'shittyaskreddit'
p155
F0.0154427285857
sS'IASIP'
p156
F0.0070292267850500002
sS'ghettoglamourshots'
p157
F0.0092224055916900003
sS'blunderyears'
p158
F0.0121793090673
sS'webcomics'
p159
F0.0084058841188800002
sS'calvinandhobbes'
p160
F0.0099121815494300006
sS'showerbeer'
p161
F0.0071803369235000003
sS'rage'
p162
F0.010711498900500001
sS'comics'
p163
F0.0101362795424
sS'interestingasfuck'
p164
F0.0117261743144
sS'Perfectfit'
p165
F0.016873967121900001
sS'PerfectTiming'
p166
F0.013713080168800001
sS'behindthegifs'
p167
F0.020859832103800002
sS'standupshots'
p168
F0.013078356081099999
sS'ICanDrawThat'
p169
F0.00847035376183
sS'fullmoviesonyoutube'
p170
F0.0093590748725999994
sS'TalesFromThePizzaGuy'
p171
F0.00876826722338
sS'AskScienceFiction'
p172
F0.010893005253
sS'NewsOfTheStupid'
p173
F0.010196737044100001
sS'crappymusic'
p174
F0.0088733216579100008
sS'awesome'
p175
F0.0093619619415900007
sS'teenagers'
p176
F0.0073548772139199999
sS'TrueAskReddit'
p177
F0.0098136173449999992
sS'FanTheories'
p178
F0.011822782709700001
sS'tipofmytongue'
p179
F0.0090609086512499996
sS'polandball'
p180
F0.0095116907905199999
sS'YouShouldKnow'
p181
F0.0110004817729
sS'counting'
p182
F0.010964536577
sS'Portal'
p183
F0.0070251937984499996
sS'TalesFromYourServer'
p184
F0.0073393187972100003
sS'watchpeopledie'
p185
F0.0072169006692000002
sS'techsupportmacgyver'
p186
F0.0096950613191900004
sS'MURICA'
p187
F0.0083599648001499993
sS'eatsandwiches'
p188
F0.00731493221496
sS'HighQualityGifs'
p189
F0.013189629183
sS'softwaregore'
p190
F0.016890080429
sS'self'
p191
F0.0093263945737299993
sS'shittyama'
p192
F0.015951128457500002
sS'circlebroke'
p193
F0.00759149752277
sS'ImaginaryLandscapes'
p194
F0.0087556654305700008
sS'badtattoos'
p195
F0.0073291158771800003
sS'spaceporn'
p196
F0.0090249513360500001
sS'itookapicture'
p197
F0.0075836193821300002
sS'nonononoyes'
p198
F0.0160410987628
sS'Frugal_Jerk'
p199
F0.013143997183399999
sS'FutureWhatIf'
p200
F0.0090239848017099993
sS'wallpapers'
p201
F0.0084084660144500001
sS'talesfromtechsupport'
p202
F0.0082450483648099995
sS'notinteresting'
p203
F0.023323060533400001
sS'forwardsfromgrandma'
p204
F0.0165655240282
sS'AnimalsBeingJerks'
p205
F0.0103411474626
sS'highdeas'
p206
F0.0101391181325
sS'CrappyDesign'
p207
F0.015457063711900001
sS'shittyreactiongifs'
p208
F0.0175342963569
sS'Gaming4Gamers'
p209
F0.0075716181406599997
sS'DunderMifflin'
p210
F0.0077705827937100003
sS'DAE'
p211
F0.0087033160735899995
sS'Jokes'
p212
F0.0120988738348
sS'ConfusedBoners'
p213
F0.0103337125521
sS'HumanPorn'
p214
F0.0082748576724500002
sS'terriblefacebookmemes'
p215
F0.016105282532700001
sS'TumblrInAction'
p216
F0.0085648955547799992
sS'thatHappened'
p217
F0.0132908473439
sS'tall'
p218
F0.0070741513562999998
sS'HailCorporate'
p219
F0.0091375859368200002
sS'ImGoingToHellForThis'
p220
F0.0090223878505999999
sS'GifSound'
p221
F0.0096208665906499999
s.