(dp1
S'Pokemongiveaway'
p2
F0.0093937450484799997
sS'3DS'
p3
F0.019301669919800001
sS'CasualPokemonTrades'
p4
F0.0083032007499699995
sS'acturnips'
p5
F0.0088324165181699991
sS'ACTrade'
p6
F0.0121012870733
sS'AnimalCrossing'
p7
F0.019739253364099998
sS'friendsafari'
p8
F0.0104164565219
sS'wiiu'
p9
F0.0071221092615400003
sS'nintendo'
p10
F0.0084944446332100004
sS'pokemontrades'
p11
F0.0089979004898899997
s.