(dp1
S'loseit'
p2
F0.00766813877354
sS'C25K'
p3
F0.0142794052701
sS'fitmeals'
p4
F0.0099636619388100006
sS'xxfitness'
p5
F0.015261627906999999
sS'xxketo'
p6
F0.0086884567645800007
sS'bodyweightfitness'
p7
F0.00701388888889
s.