(dp1
S'climateskeptics'
p2
F0.015645371577600001
sS'lostgeneration'
p3
F0.0070660974532600002
sS'energy'
p4
F0.0079739625711999999
sS'AmIFreeToGo'
p5
F0.012566641279499999
sS'inthenews'
p6
F0.0082483503299299998
sS'POLITIC'
p7
F0.015421521590100001
sS'conspiratard'
p8
F0.0198076237976
sS'conspiracy'
p9
F0.015950367934900001
sS'AnythingGoesNews'
p10
F0.0193179108037
sS'skeptic'
p11
F0.0093419746598899997
sS'Bad_Cop_No_Donut'
p12
F0.0104177683765
sS'environment'
p13
F0.0079172289698599997
sS'economy'
p14
F0.0097023515869099995
sS'Anarchism'
p15
F0.0085782912043899998
sS'collapse'
p16
F0.021007586072700001
sS'occupywallstreet'
p17
F0.017531044558099999
sS'WhiteRights'
p18
F0.0095759233926100001
sS'anonymous'
p19
F0.012409200968499999
sS'conservatives'
p20
F0.00881834215168
sS'PoliticalHumor'
p21
F0.00719534598898
sS'UFOs'
p22
F0.017555099948700002
sS'GunsAreCool'
p23
F0.0083501295709800007
sS'Liberal'
p24
F0.0107127240927
sS'progressive'
p25
F0.0096170358921499992
sS'worldpolitics'
p26
F0.0127693116132
sS'Marijuana'
p27
F0.0089699074074100008
sS'PanicHistory'
p28
F0.0129449838188
sS'Shitstatistssay'
p29
F0.00750144258511
sS'Libertarian'
p30
F0.0086160023422099993
sS'HailCorporate'
p31
F0.0074878322725600004
sS'Anarcho_Capitalism'
p32
F0.0081802015411999995
s.