(dp1
S'breastfeeding'
p2
F0.016709748892200001
sS'FancyFollicles'
p3
F0.034553018083000001
sS'Awwducational'
p4
F0.0088590925415999999
sS'pettyrevenge'
p5
F0.0086860739575100009
sS'actuallesbians'
p6
F0.0101102941176
sS'BuyItForLife'
p7
F0.0079455164585699994
sS'SampleSize'
p8
F0.0093047109678399999
sS'Pets'
p9
F0.0133130467859
sS'RandomActsofMakeup'
p10
F0.027702761564600002
sS'relationships'
p11
F0.0082366375039900006
sS'TalesFromRetail'
p12
F0.011455269898500001
sS'BabyBumps'
p13
F0.017586979081300001
sS'TheBluePill'
p14
F0.0096285167986899997
sS'harrypotter'
p15
F0.010829524996500001
sS'booksuggestions'
p16
F0.0073367937712099998
sS'offmychest'
p17
F0.0081478511659199993
sS'Anxiety'
p18
F0.010814737097
sS'YouShouldKnow'
p19
F0.0070839447452300001
sS'childfree'
p20
F0.0137796514189
sS'BDSMcommunity'
p21
F0.0097316636851500007
sS'xxketo'
p22
F0.0223309397933
sS'wedding'
p23
F0.015096217651000001
sS'makeupexchange'
p24
F0.025978616241100001
sS'clothdiaps'
p25
F0.0095999999999999992
sS'Rabbits'
p26
F0.0081953778069199998
sS'creepyPMs'
p27
F0.0130131388697
sS'freebies'
p28
F0.0092804006776199995
sS'polyamory'
p29
F0.0081436943450799992
sS'Paleo'
p30
F0.0096567122522999999
sS'gardening'
p31
F0.0100042325599
sS'AskWomen'
p32
F0.018228358672000001
sS'Cumberbitches'
p33
F0.0092916484477499998
sS'lgbt'
p34
F0.0079319571865400004
sS'TrollXChromosomes'
p35
F0.019855058076
sS'sex'
p36
F0.0082943020751099997
sS'TwoXChromosomes'
p37
F0.014844128946799999
sS'entwives'
p38
F0.0104233141885
sS'Baking'
p39
F0.0164122137405
sS'LongDistance'
p40
F0.0080351537978700007
sS'Feminism'
p41
F0.0087197780420100006
sS'SkincareAddiction'
p42
F0.036092896174899997
sS'InteriorDesign'
p43
F0.010343428880499999
sS'ExpectationVsReality'
p44
F0.0090926311801499994
sS'AskCulinary'
p45
F0.0097300690521000006
sS'disney'
p46
F0.0080904355535900002
sS'tattoos'
p47
F0.0076322151405599998
sS'jobs'
p48
F0.0072012602205399996
sS'LetsNotMeet'
p49
F0.0072576987046999997
sS'transtimelines'
p50
F0.0076399790685499997
sS'Frugal'
p51
F0.011426230897400001
sS'LadyBoners'
p52
F0.016127217492399998
sS'keto'
p53
F0.0106946476315
sS'ThriftStoreHauls'
p54
F0.0091412225607900004
sS'Breadit'
p55
F0.0073179656055599998
sS'PolishGauntlet'
p56
F0.0073235685752299998
sS'vegetarian'
p57
F0.00905590416429
sS'piercing'
p58
F0.0147973895887
sS'Hair'
p59
F0.018600823045299999
sS'MakeupAddicts'
p60
F0.029437765205100001
sS'weddingplanning'
p61
F0.022155146393000001
sS'ChronicPain'
p62
F0.0077018914939399998
sS'xxfitness'
p63
F0.037122969837600002
sS'Assistance'
p64
F0.0077188468510599999
sS'confession'
p65
F0.0070786243771999999
sS'ADHD'
p66
F0.0080360341915299994
sS'femalefashionadvice'
p67
F0.050944242770299998
sS'BeautyBoxes'
p68
F0.020893731880400002
sS'glutenfree'
p69
F0.0096359743040700004
sS'CrossStitch'
p70
F0.0105648110524
sS'loseit'
p71
F0.0154373927959
sS'EatCheapAndHealthy'
p72
F0.0178626782393
sS'cats'
p73
F0.010888785481599999
sS'PenmanshipPorn'
p74
F0.0077782209812500003
sS'catpictures'
p75
F0.0091851352490100006
sS'Indiemakeupandmore'
p76
F0.025688793018900001
sS'tea'
p77
F0.011006903738399999
sS'raisedbynarcissists'
p78
F0.0152222798824
sS'dogs'
p79
F0.011231762379200001
sS'asktransgender'
p80
F0.0081100369817699997
sS'happy'
p81
F0.0085931905474900001
sS'nutrition'
p82
F0.0077880536819399998
sS'TrollYChromosome'
p83
F0.011421121251600001
sS'MakeupAddiction'
p84
F0.028789197984600001
sS'ketorecipes'
p85
F0.012529415505899999
sS'snackexchange'
p86
F0.0090010589481099995
sS'breakingmom'
p87
F0.016642754662800002
sS'somethingimade'
p88
F0.0084525664636199999
sS'namenerds'
p89
F0.010640608034699999
sS'sailormoon'
p90
F0.0084176877996799994
sS'curlyhair'
p91
F0.033076165462900001
sS'TheGirlSurvivalGuide'
p92
F0.052190761922599999
sS'AskMen'
p93
F0.0075031077961299998
sS'blunderyears'
p94
F0.0076342317263500001
sS'Random_Acts_Of_Amazon'
p95
F0.010097112354500001
sS'braswap'
p96
F0.112796208531
sS'recipes'
p97
F0.011982729345599999
sS'fitmeals'
p98
F0.011133962130300001
sS'TryingForABaby'
p99
F0.00986984815618
sS'C25K'
p100
F0.0127687085825
sS'fatlogic'
p101
F0.0090051799707800001
sS'bisexual'
p102
F0.0095469255663400004
sS'Cooking'
p103
F0.0102107728337
sS'bigboobproblems'
p104
F0.111391893258
sS'RandomActsOfPolish'
p105
F0.012912482066
sS'Dogtraining'
p106
F0.010766167686700001
sS'TalesFromYourServer'
p107
F0.0103092783505
sS'yoga'
p108
F0.010387958448200001
sS'Parenting'
p109
F0.0131268933019
sS'transpassing'
p110
F0.0080092551392699999
sS'popping'
p111
F0.0082589471927900001
sS'slowcooking'
p112
F0.0135187896535
sS'RedditLaqueristas'
p113
F0.030605487228000001
sS'knitting'
p114
F0.024695751192100001
sS'birthcontrol'
p115
F0.025113683340200001
sS'sewing'
p116
F0.028143618689200001
sS'budgetfood'
p117
F0.012330851149
sS'Mommit'
p118
F0.0168248490078
sS'progresspics'
p119
F0.010758068551399999
sS'crochet'
p120
F0.0194020575848
sS'dogpictures'
p121
F0.0071321321321299999
sS'beyondthebump'
p122
F0.015858815875100001
sS'thesims'
p123
F0.010013605442200001
sS'GirlGamers'
p124
F0.014656895403099999
sS'secretsanta'
p125
F0.0106063109202
sS'crafts'
p126
F0.0166848588804
sS'AsianBeauty'
p127
F0.018844696969699998
sS'fatpeoplestories'
p128
F0.0096918185153500001
s.