(dp1
S'stocks'
p2
F0.0080757449178500001
sS'jobs'
p3
F0.010676800579100001
sS'frugalmalefashion'
p4
F0.0077802160221199998
sS'business'
p5
F0.0152599912608
sS'Entrepreneur'
p6
F0.011472437822199999
sS'investing'
p7
F0.0195238095238
sS'legaladvice'
p8
F0.0073740270380999997
sS'churning'
p9
F0.00802074050069
sS'Economics'
p10
F0.0140762692038
sS'excel'
p11
F0.020755336617399998
sS'personalfinance'
p12
F0.011743435920600001
sS'finance'
p13
F0.0266730012217
sS'Frugal'
p14
F0.0091358436076900001
sS'college'
p15
F0.0078059325087100001
sS'RealEstate'
p16
F0.012060951932699999
sS'golf'
p17
F0.0072565245066800003
sS'startups'
p18
F0.0074214432338499999
sS'smallbusiness'
p19
F0.012807697113600001
sS'PersonalFinanceCanada'
p20
F0.0075187969924800004
sS'financialindependence'
p21
F0.0107860320884
sS'economy'
p22
F0.0092490118577099999
s.