(dp1
S'ShinyPokemon'
p2
F0.016424873777700001
sS'adventuretime'
p3
F0.0073867103446099997
sS'wiiu'
p4
F0.0125509101488
sS'pokemon'
p5
F0.012709442320699999
sS'CasualPokemonTrades'
p6
F0.016677567037300001
sS'zelda'
p7
F0.0109520400859
sS'RedditLaqueristas'
p8
F0.0079347290088300007
sS'MonsterHunter'
p9
F0.0079328955068600007
sS'3DS'
p10
F0.0270523283725
sS'gamegrumps'
p11
F0.0090938303341899993
sS'acturnips'
p12
F0.21213208901700001
sS'mylittlepony'
p13
F0.0072647325909299997
sS'smashbros'
p14
F0.0110949310034
sS'AdoptMyVillager'
p15
F0.31596391088199999
sS'AnimalCrossing'
p16
F0.19861903332299999
sS'nintendo'
p17
F0.0172989377845
sS'pokemontrades'
p18
F0.015347041156499999
sS'thesims'
p19
F0.012354765785200001
sS'gameswap'
p20
F0.0071571494535900004
sS'Pokemongiveaway'
p21
F0.015885445799299999
sS'GirlGamers'
p22
F0.0070987476193199997
sS'3dsFCswap'
p23
F0.0121012870733
sS'fireemblem'
p24
F0.0095101094861300001
sS'SVExchange'
p25
F0.014794322828999999
sS'neopets'
p26
F0.0118645464283
s.