(dp1
S'Pokemongiveaway'
p2
F0.0093915085110500007
sS'ShinyPokemon'
p3
F0.0075271814887100004
sS'3DS'
p4
F0.0175503372225
sS'CasualPokemonTrades'
p5
F0.0088020609703700001
sS'3dsFCswap'
p6
F0.0088324165181699991
sS'nintendo'
p7
F0.010662631523399999
sS'ACTrade'
p8
F0.21213208901700001
sS'AnimalCrossing'
p9
F0.108549874267
sS'smashbros'
p10
F0.0077850645229499997
sS'SVExchange'
p11
F0.0087627517656299996
sS'wiiu'
p12
F0.0091431857389300004
sS'AdoptMyVillager'
p13
F0.149324505681
sS'pokemontrades'
p14
F0.0081848820414099997
sS'pokemon'
p15
F0.0072978907206100001
s.