(dp1
S'FancyFollicles'
p2
F0.0189676616915
sS'Awwducational'
p3
F0.0084438529668200007
sS'DoesAnybodyElse'
p4
F0.0094931929491499992
sS'pettyrevenge'
p5
F0.0085191817244599996
sS'ABraThatFits'
p6
F0.0101102941176
sS'adventuretime'
p7
F0.0075727718033900002
sS'SampleSize'
p8
F0.00762503999147
sS'Pets'
p9
F0.0083130285222899995
sS'entwives'
p10
F0.0080667402095999999
sS'RandomActsofMakeup'
p11
F0.0071437075842400001
sS'relationships'
p12
F0.0086603452859499996
sS'TalesFromRetail'
p13
F0.0098729413754500006
sS'TheBluePill'
p14
F0.014370158988999999
sS'quityourbullshit'
p15
F0.00732285160457
sS'nostalgia'
p16
F0.0082420716404300008
sS'writing'
p17
F0.0072854057710800002
sS'badtattoos'
p18
F0.0074771945566
sS'MensRights'
p19
F0.0078153211245799992
sS'offmychest'
p20
F0.0126532900992
sS'Anxiety'
p21
F0.012212306247099999
sS'YouShouldKnow'
p22
F0.0076707412806999997
sS'childfree'
p23
F0.013873052071500001
sS'BDSMcommunity'
p24
F0.014453001371499999
sS'vegan'
p25
F0.0092696386996600003
sS'xxketo'
p26
F0.0070752089136499998
sS'NoStupidQuestions'
p27
F0.0095565945640400003
sS'cringepics'
p28
F0.0072285460460299999
sS'PrettyGirlsUglyFaces'
p29
F0.0072330718299699996
sS'creepyPMs'
p30
F0.0156360472073
sS'freebies'
p31
F0.00712140446481
sS'CrappyDesign'
p32
F0.0074271654901199996
sS'SubredditDrama'
p33
F0.0093666825906000006
sS'aspergers'
p34
F0.0078340167696900002
sS'gardening'
p35
F0.0070302719013800004
sS'whatisthisthing'
p36
F0.0074782298216699997
sS'AskWomen'
p37
F0.017528324316500001
sS'TrollXChromosomes'
p38
F0.023079398648300001
sS'redditgetsdrawn'
p39
F0.0075420044017400004
sS'sex'
p40
F0.011218162174999999
sS'tumblr'
p41
F0.0099179793404000002
sS'changemyview'
p42
F0.0094020373988300005
sS'TwoXChromosomes'
p43
F0.016449419519599998
sS'fatpeoplestories'
p44
F0.0096609406844699996
sS'Baking'
p45
F0.0074968961894799997
sS'LongDistance'
p46
F0.0070851165002400003
sS'Feminism'
p47
F0.016551174036599999
sS'forwardsfromgrandma'
p48
F0.0079467606185199997
sS'femalefashionadvice'
p49
F0.0154185022026
sS'cosplay'
p50
F0.0073438595319999999
sS'shittyfoodporn'
p51
F0.0083729529846800002
sS'bipolar'
p52
F0.0072365711596200002
sS'ftm'
p53
F0.014375230372300001
sS'AskFeminists'
p54
F0.0087748677071500004
sS'tattoos'
p55
F0.0111758281762
sS'facepalm'
p56
F0.00856352378025
sS'DeadBedrooms'
p57
F0.0070511573623799999
sS'casualiama'
p58
F0.0109763142692
sS'LetsNotMeet'
p59
F0.0081111468037300006
sS'transtimelines'
p60
F0.020692041522499999
sS'delusionalartists'
p61
F0.0075904459387
sS'OkCupid'
p62
F0.0115644545187
sS'lgbt'
p63
F0.060434448444599997
sS'LadyBoners'
p64
F0.011746231155800001
sS'ainbow'
p65
F0.053059430956799998
sS'keto'
p66
F0.0071764469901300001
sS'Frugal'
p67
F0.0085301578539200007
sS'vegetarian'
p68
F0.0082134449385300005
sS'piercing'
p69
F0.0123713597548
sS'relationship_advice'
p70
F0.0079205625531299992
sS'polyamory'
p71
F0.018973647711500001
sS'amiugly'
p72
F0.00777800283573
sS'TrueReddit'
p73
F0.0073890617324399999
sS'xxfitness'
p74
F0.0169689421655
sS'confession'
p75
F0.012059025757699999
sS'ADHD'
p76
F0.0073884626314299996
sS'harrypotter'
p77
F0.012825504989
sS'doctorwho'
p78
F0.0077563222105499997
sS'TheLastAirbender'
p79
F0.0073040122849200003
sS'loseit'
p80
F0.0108358027777
sS'OutOfTheLoop'
p81
F0.00703870317226
sS'EatCheapAndHealthy'
p82
F0.0090003214400500003
sS'MorbidReality'
p83
F0.0091545503500300007
sS'cats'
p84
F0.011195617034999999
sS'PenmanshipPorn'
p85
F0.0085595986941600002
sS'catpictures'
p86
F0.0075431669514999999
sS'bdsm'
p87
F0.0081995611502499993
sS'raisedbynarcissists'
p88
F0.015677491601300001
sS'dogs'
p89
F0.0086082764665400009
sS'asktransgender'
p90
F0.037254606617499998
sS'happy'
p91
F0.0084140495059200002
sS'fatlogic'
p92
F0.00884686497999
sS'TrollYChromosome'
p93
F0.012849115848600001
sS'gaymers'
p94
F0.010751732717300001
sS'MakeupAddiction'
p95
F0.0152152757687
sS'SkincareAddiction'
p96
F0.011848229817999999
sS'mildlyinfuriating'
p97
F0.0073962659896
sS'somethingimade'
p98
F0.0076879162702200004
sS'curlyhair'
p99
F0.0089453592387899999
sS'TheGirlSurvivalGuide'
p100
F0.0158708125116
sS'AskMen'
p101
F0.0073852295409199999
sS'blunderyears'
p102
F0.0107658002927
sS'Random_Acts_Of_Amazon'
p103
F0.0078393418824100006
sS'rage'
p104
F0.0077146780838499998
sS'thatHappened'
p105
F0.0082308265348799998
sS'popping'
p106
F0.0096508461724100006
sS'offbeat'
p107
F0.00724437871306
sS'standupshots'
p108
F0.0070911420313999997
sS'LGBTeens'
p109
F0.014682103356799999
sS'asexuality'
p110
F0.0072117153580099997
sS'MtF'
p111
F0.0168206052414
sS'bisexual'
p112
F0.040806671003599998
sS'Cooking'
p113
F0.0074740600012500004
sS'buffy'
p114
F0.0097742910423799997
sS'blackladies'
p115
F0.0080974561089199992
sS'bigboobproblems'
p116
F0.0103441790483
sS'ShitRedditSays'
p117
F0.0108180506903
sS'shorthairedhotties'
p118
F0.012174112782799999
sS'self'
p119
F0.0093727294744499999
sS'transpassing'
p120
F0.024031876478600001
sS'depression'
p121
F0.010712887496899999
sS'RedditLaqueristas'
p122
F0.012949856949300001
sS'knitting'
p123
F0.00727629270307
sS'SuicideWatch'
p124
F0.0078322313346000007
sS'sewing'
p125
F0.0076251519504900002
sS'progresspics'
p126
F0.0103204900568
sS'crochet'
p127
F0.0077028328181200003
sS'thesims'
p128
F0.0086037993014700005
sS'oddlysatisfying'
p129
F0.0071225749139399996
sS'GirlGamers'
p130
F0.024831334332799999
sS'HumanPorn'
p131
F0.0086059295304999998
sS'TumblrInAction'
p132
F0.0095953373767999998
sS'secretsanta'
p133
F0.00719282410019
sS'tall'
p134
F0.0072528787198999998
sS'AmericanHorrorStory'
p135
F0.0084927628875400007
s.