(dp1
S'ShotBow'
p2
F0.0132815692685
sS'mcservers'
p3
F0.033035984275799998
sS'Civcraft'
p4
F0.0153238546603
sS'sysadmin'
p5
F0.0077268933580999996
sS'webhosting'
p6
F0.00807487612406
sS'homelab'
p7
F0.0096972873804199999
sS'linux'
p8
F0.0077234277307799996
sS'SimCity'
p9
F0.0071662820357099996
sS'techsupportmacgyver'
p10
F0.0097934645592899997
sS'java'
p11
F0.0086178684411499992
sS'TheoryOfReddit'
p12
F0.0078363660512699995
sS'unixporn'
p13
F0.0078241430700400003
sS'mindcrack'
p14
F0.0148624767774
sS'playmindcrack'
p15
F0.014764248293399999
sS'letsplay'
p16
F0.0071448985424400003
sS'spaceengineers'
p17
F0.0080541826835100003
sS'MCPE'
p18
F0.0091774891774900006
sS'talesfromtechsupport'
p19
F0.0087894142792000005
sS'starbound'
p20
F0.0070159725332100001
sS'cablefail'
p21
F0.0075865339023200003
sS'hcfactions'
p22
F0.0098004900244999995
sS'netsec'
p23
F0.0086853866261900007
sS'linux_gaming'
p24
F0.0080279232111699992
sS'gmod'
p25
F0.0080335950337800006
sS'Minecraft'
p26
F0.019892479053300001
sS'ProgrammerHumor'
p27
F0.0099803756658300002
sS'techsupportgore'
p28
F0.0091668030774299993
sS'prisonarchitect'
p29
F0.00792104921439
sS'feedthebeast'
p30
F0.0241134751773
sS'mindcrackcirclejerk'
p31
F0.0112540192926
sS'youtube'
p32
F0.0078273049353200005
sS'softwaregore'
p33
F0.011368421052600001
sS'ultrahardcore'
p34
F0.0093773760243299996
sS'minecraftsuggestions'
p35
F0.033453887884300003
sS'csshelp'
p36
F0.0078524470416400007
s.