(dp1
S'Pokemongiveaway'
p2
F0.011761571254599999
sS'ShinyPokemon'
p3
F0.013700452247899999
sS'3DS'
p4
F0.0157945502773
sS'CasualPokemonTrades'
p5
F0.011485659915700001
sS'smashbros'
p6
F0.0070395048649300003
sS'nintendo'
p7
F0.010548667717
sS'acturnips'
p8
F0.149324505681
sS'ACTrade'
p9
F0.31596391088199999
sS'AnimalCrossing'
p10
F0.14099077796199999
sS'zelda'
p11
F0.0071196465734399998
sS'SVExchange'
p12
F0.013313332083299999
sS'wiiu'
p13
F0.0074398495185199996
sS'neopets'
p14
F0.010787298825600001
sS'pokemontrades'
p15
F0.0116619055621
sS'pokemon'
p16
F0.0086706753999799997
sS'thesims'
p17
F0.0103238426429
s.