(dp1
S'LiverpoolFC'
p2
F0.00746932242575
sS'Cricket'
p3
F0.085905786840399997
sS'australia'
p4
F0.047230697019500001
sS'NBA2k'
p5
F0.00866375273181
sS'brisbane'
p6
F0.0131084239407
sS'TheSimpsons'
p7
F0.0080696125613699994
sS'tennis'
p8
F0.013634226610199999
sS'footballmanagergames'
p9
F0.0074606741572999999
sS'peloton'
p10
F0.00711800063271
sS'melbourne'
p11
F0.064268275168699998
sS'Aleague'
p12
F0.057843675636100003
sS'formula1'
p13
F0.010339324127400001
sS'perth'
p14
F0.033734939759
sS'sydney'
p15
F0.0149758454106
sS'rugbyunion'
p16
F0.0138876363964
sS'Adelaide'
p17
F0.036665072533100002
s.