(dp1
S'photoshop'
p2
F0.025824244703500001
sS'videography'
p3
F0.046511627907000003
sS'design_critiques'
p4
F0.011448320553
sS'glitch_art'
p5
F0.00830235439901
sS'Cinema4D'
p6
F0.091664629674899994
sS'freelance'
p7
F0.012743015847099999
sS'Filmmakers'
p8
F0.0388736890105
sS'editors'
p9
F0.073374096720400003
sS'typography'
p10
F0.0156786620875
sS'graphic_design'
p11
F0.025746134484
sS'Screenwriting'
p12
F0.011870388193799999
sS'gopro'
p13
F0.0107430617726
sS'animation'
p14
F0.0413524057217
sS'Design'
p15
F0.020190424741699999
sS'advertising'
p16
F0.0088809946713999995
sS'vfx'
p17
F0.082306246083099999
sS'web_design'
p18
F0.0077260897852999997
sS'blender'
p19
F0.016655290102400001
sS'photography'
p20
F0.0078772462460000008
sS'Cinemagraphs'
p21
F0.0074587666771700001
sS'VideoEditing'
p22
F0.058170867015400002
s.