(dp1
S'PoliticalDiscussion'
p2
F0.010259333143299999
sS'circlebroke2'
p3
F0.0390512697652
sS'badhistory'
p4
F0.043707534732800001
sS'TrueReddit'
p5
F0.0087200485289700008
sS'bisexual'
p6
F0.0080243161094199992
sS'askphilosophy'
p7
F0.0088495575221199992
sS'TrueAskReddit'
p8
F0.0078854346052799999
sS'Conservative'
p9
F0.0073800738007400004
sS'PurplePillDebate'
p10
F0.035084318666400001
sS'blackladies'
p11
F0.026968716289100001
sS'MarkMyWords'
p12
F0.0089754211543799992
sS'changemyview'
p13
F0.010866623644299999
sS'TwoXChromosomes'
p14
F0.0071258907363400004
sS'TrollXChromosomes'
p15
F0.0097368929820599998
sS'OneY'
p16
F0.0246468289751
sS'Foodforthought'
p17
F0.0107039058623
sS'ShitRedditSays'
p18
F0.081132075471699996
sS'ainbow'
p19
F0.0186925539605
sS'Feminism'
p20
F0.038511994002999997
sS'SRSsucks'
p21
F0.031372549019600002
sS'forwardsfromgrandma'
p22
F0.013876040703099999
sS'no_sob_story'
p23
F0.0087059170724499996
sS'psychology'
p24
F0.00719364282727
sS'ShitRConservativeSays'
p25
F0.023874862788099999
sS'badlinguistics'
p26
F0.026741293532299999
sS'skeptic'
p27
F0.010562808081900001
sS'quityourbullshit'
p28
F0.0088697524219599998
sS'circlebroke'
p29
F0.0447686619366
sS'AskSocialScience'
p30
F0.012048192771100001
sS'GirlGamers'
p31
F0.021792161327000001
sS'TumblrInAction'
p32
F0.0072841619233399999
sS'ShitAmericansSay'
p33
F0.017366136034700001
sS'Anarchy101'
p34
F0.0185929648241
sS'asktransgender'
p35
F0.0087984358336300004
sS'AskFeminists'
p36
F0.047723132969
sS'MensRights'
p37
F0.027477648520800001
sS'TrollYChromosome'
p38
F0.0107676969093
sS'Anarchism'
p39
F0.019311586952200002
sS'BasicIncome'
p40
F0.011154694778100001
sS'linguistics'
p41
F0.0072657335185399999
sS'occupywallstreet'
p42
F0.010380622837400001
sS'delusionalartists'
p43
F0.0073970411835300003
sS'explainlikeIAmA'
p44
F0.0073790129372300001
sS'lgbt'
p45
F0.0119710301071
sS'badphilosophy'
p46
F0.032348541510800001
sS'EnoughLibertarianSpam'
p47
F0.053609958506199998
sS'lostgeneration'
p48
F0.0109592414727
sS'progressive'
p49
F0.015695067264600002
sS'PoliticalHumor'
p50
F0.0078620339842800004
sS'magicskyfairy'
p51
F0.012005795901499999
sS'NeutralPolitics'
p52
F0.0088333333333299995
sS'SRSGaming'
p53
F0.071895424836599997
sS'lewronggeneration'
p54
F0.0136074116966
sS'GunsAreCool'
p55
F0.020104712041900001
sS'TheoryOfReddit'
p56
F0.0142173423423
sS'Liberal'
p57
F0.0096040438079199996
sS'creepyPMs'
p58
F0.0157574440339
sS'RedditDayOf'
p59
F0.0084745762711900003
sS'rage'
p60
F0.0072960095294799998
sS'worldpolitics'
p61
F0.0075165950800499997
sS'inthenews'
p62
F0.0070939639079
sS'TheBluePill'
p63
F0.085638188895700004
sS'FeMRADebates'
p64
F0.074126870990700006
sS'conspiratard'
p65
F0.022961513372499999
sS'PropagandaPosters'
p66
F0.012859031366400001
sS'PanicHistory'
p67
F0.023197634751
sS'shittyadviceanimals'
p68
F0.0071581961345699996
sS'socialism'
p69
F0.022889596420300001
sS'SubredditDrama'
p70
F0.0190094638514
sS'ukpolitics'
p71
F0.0073096639453200003
sS'Anarcho_Capitalism'
p72
F0.010956379275000001
sS'polyamory'
p73
F0.00745106761566
s.