(dp1
S'crossdressing'
p2
F0.011586206896600001
sS'inthenews'
p3
F0.0095674863603999998
sS'SampleSize'
p4
F0.011630380824099999
sS'askphilosophy'
p5
F0.0076884386002700001
sS'NeutralPolitics'
p6
F0.0092183237701100006
sS'duolingo'
p7
F0.0070169283396200001
sS'HistoryPorn'
p8
F0.010310132085600001
sS'ImaginaryMonsters'
p9
F0.0085918491484200006
sS'PerfectTiming'
p10
F0.0078364565587699993
sS'YouShouldKnow'
p11
F0.011700017575100001
sS'UpliftingNews'
p12
F0.0094696507456100004
sS'PandR'
p13
F0.0071373342056699996
sS'magicskyfairy'
p14
F0.0087534275469300007
sS'GunsAreCool'
p15
F0.0082374062731000001
sS'IWantToLearn'
p16
F0.0080023964395799993
sS'CrappyDesign'
p17
F0.0124031007752
sS'askgaybros'
p18
F0.045375323036200003
sS'Cyberpunk'
p19
F0.011288560578499999
sS'Libertarian'
p20
F0.0125222412462
sS'Anarcho_Capitalism'
p21
F0.011049339819299999
sS'polyamory'
p22
F0.020051986631999998
sS'EatCheapAndHealthy'
p23
F0.0088221987633799997
sS'tea'
p24
F0.0095202067965400004
sS'POLITIC'
p25
F0.0086788001348199993
sS'fatpeoplestories'
p26
F0.010309899915599999
sS'OneY'
p27
F0.017528328611899999
sS'depression'
p28
F0.0084287039900999994
sS'forwardsfromgrandma'
p29
F0.020293776575200002
sS'skeptic'
p30
F0.017709151182100001
sS'boardgames'
p31
F0.0076612386203399998
sS'socialskills'
p32
F0.0075690899489500004
sS'DebateReligion'
p33
F0.013243261320299999
sS'Anticonsumption'
p34
F0.0071242899778600002
sS'vexillology'
p35
F0.0128060263653
sS'Economics'
p36
F0.0103719599428
sS'LetsNotMeet'
p37
F0.0070831283816999999
sS'transtimelines'
p38
F0.034987212276199997
sS'AnimalCrossing'
p39
F0.0078053259871400001
sS'lgbt'
p40
F0.127520635252
sS'doctorwho'
p41
F0.0115322724835
sS'sanfrancisco'
p42
F0.0073499623820800003
sS'vegetarian'
p43
F0.0099337748344400009
sS'IWantOut'
p44
F0.0081572355321499999
sS'QuotesPorn'
p45
F0.0096549540994000007
sS'firefox'
p46
F0.0076986754966900002
sS'TrueReddit'
p47
F0.017156024000199999
sS'Assistance'
p48
F0.0074469899380400001
sS'confession'
p49
F0.0131317390519
sS'IdiotsFightingThings'
p50
F0.0070052539404600002
sS'Health'
p51
F0.0078388047137999996
sS'gamernews'
p52
F0.00739596498619
sS'environment'
p53
F0.010368461132900001
sS'eldertrees'
p54
F0.0079994286122399994
sS'AskHistorians'
p55
F0.011708111685199999
sS'OutOfTheLoop'
p56
F0.013585035034
sS'ifyoulikeblank'
p57
F0.0072868217054299998
sS'bdsm'
p58
F0.0085698561207599999
sS'WebGames'
p59
F0.0070572113737600002
sS'Pareidolia'
p60
F0.0096318249173599994
sS'tipofmytongue'
p61
F0.0077507682177299997
sS'ladybonersgw'
p62
F0.010370169980600001
sS'TheGirlSurvivalGuide'
p63
F0.0097342037770999992
sS'penis'
p64
F0.0070328694107200003
sS'AskMen'
p65
F0.0076517092129699997
sS'techsupportgore'
p66
F0.0095892321640299993
sS'science'
p67
F0.0089175995760999993
sS'firstworldproblems'
p68
F0.00997139354311
sS'findareddit'
p69
F0.010085092972
sS'standupshots'
p70
F0.012320399805700001
sS'history'
p71
F0.0080970692908500005
sS'AskScienceFiction'
p72
F0.0114249598911
sS'NewsOfTheStupid'
p73
F0.0082926379802799998
sS'Pathfinder_RPG'
p74
F0.0070201830261999998
sS'polandball'
p75
F0.011008470324399999
sS'SRSsucks'
p76
F0.0164423163791
sS'techsupportmacgyver'
p77
F0.0076738609112699998
sS'MURICA'
p78
F0.0070393284218399996
sS'scifi'
p79
F0.013153404684300001
sS'RedditLaqueristas'
p80
F0.0087854361017999996
sS'spaceporn'
p81
F0.0073389787015700004
sS'nyc'
p82
F0.0073475920267700003
sS'wheredidthesodago'
p83
F0.0129788129648
sS'BasicIncome'
p84
F0.011979329783900001
sS'mylittlepony'
p85
F0.013010340307799999
sS'askscience'
p86
F0.0083805945887399994
sS'philosophy'
p87
F0.0082341057271399995
sS'budgetfood'
p88
F0.0075187969924800004
sS'vegan'
p89
F0.010657193605699999
sS'law'
p90
F0.0096822778455100001
sS'GaybrosGoneWild'
p91
F0.019895998191300002
sS'tall'
p92
F0.0083615819209000002
sS'DoesAnybodyElse'
p93
F0.0084200454491100002
sS'pettyrevenge'
p94
F0.0110299829113
sS'CityPorn'
p95
F0.0085314467044699995
sS'PurplePillDebate'
p96
F0.0083559851001700006
sS'actuallesbians'
p97
F0.053059430956799998
sS'DeepIntoYouTube'
p98
F0.0087331959572200003
sS'dataisbeautiful'
p99
F0.010269648418900001
sS'MLPLounge'
p100
F0.012725682017000001
sS'linguistics'
p101
F0.015773552290399999
sS'gaybros'
p102
F0.062012380498899997
sS'badlinguistics'
p103
F0.014540090612199999
sS'nostalgia'
p104
F0.0081714360724600005
sS'Documentaries'
p105
F0.0074971736845199999
sS'writing'
p106
F0.010555967383200001
sS'texas'
p107
F0.0074416733708799997
sS'MensRights'
p108
F0.016948652080200001
sS'Frisson'
p109
F0.0095457353023799991
sS'Judaism'
p110
F0.00936312227681
sS'childfree'
p111
F0.0131941648341
sS'BDSMcommunity'
p112
F0.0155815247635
sS'DebateAnAtheist'
p113
F0.0083836351441999996
sS'NoStupidQuestions'
p114
F0.0121755379719
sS'Liberal'
p115
F0.014164844567
sS'creepyPMs'
p116
F0.0164031190779
sS'freebies'
p117
F0.00816798583252
sS'PropagandaPosters'
p118
F0.0148698884758
sS'SubredditDrama'
p119
F0.024557513810100001
sS'minimalism'
p120
F0.0085424452749600002
sS'aspergers'
p121
F0.0111927546138
sS'TrueAtheism'
p122
F0.017637877211200002
sS'badhistory'
p123
F0.0214275965607
sS'ADHD'
p124
F0.0083433253397299997
sS'Anarchism'
p125
F0.0143315362042
sS'TwoXChromosomes'
p126
F0.0118392070485
sS'Feminism'
p127
F0.0258429891941
sS'canada'
p128
F0.00911657926583
sS'psychology'
p129
F0.014381067961200001
sS'space'
p130
F0.0071788115266400001
sS'shittyfoodporn'
p131
F0.0085385286070799992
sS'LearnUselessTalents'
p132
F0.0085595623986999998
sS'RoomPorn'
p133
F0.0081119979065799996
sS'ftm'
p134
F0.026771653543300002
sS'math'
p135
F0.0091443246818899999
sS'conspiratard'
p136
F0.021423912498099999
sS'bestof'
p137
F0.0113835725678
sS'LadyBoners'
p138
F0.0126665932371
sS'GamePhysics'
p139
F0.0077510976204700002
sS'youtubehaiku'
p140
F0.00724415875931
sS'PoliticalHumor'
p141
F0.011943887775599999
sS'recipes'
p142
F0.0076461981403700002
sS'TalesFromThePizzaGuy'
p143
F0.0070242128749700003
sS'programming'
p144
F0.0082549654287399996
sS'howtonotgiveafuck'
p145
F0.0070052539404600002
sS'whatstheword'
p146
F0.0084655214925599999
sS'misc'
p147
F0.0094799326659
sS'patientgamers'
p148
F0.0079167609138200007
sS'rant'
p149
F0.010626849609899999
sS'Buddhism'
p150
F0.0079204156634100006
sS'TheLastAirbender'
p151
F0.0096116294206999991
sS'privacy'
p152
F0.0070242656449600004
sS'classicalmusic'
p153
F0.0078537486800400007
sS'TheFacebookDelusion'
p154
F0.011853162317600001
sS'PenmanshipPorn'
p155
F0.0086240498928099995
sS'alternativeart'
p156
F0.0079784927586500007
sS'asktransgender'
p157
F0.061179898033499998
sS'ObscureMedia'
p158
F0.0071081182192299997
sS'TrollYChromosome'
p159
F0.0133013963918
sS'DaystromInstitute'
p160
F0.00954920853407
sS'mildlyinfuriating'
p161
F0.0095531996574400001
sS'Awwducational'
p162
F0.0142105263158
sS'sex'
p163
F0.0083865448657200001
sS'SRSGaming'
p164
F0.013006885998500001
sS'toronto'
p165
F0.0072108843537399998
sS'worldpolitics'
p166
F0.0140585572956
sS'nononono'
p167
F0.00961745805839
sS'gallifrey'
p168
F0.0120874268683
sS'quityourbullshit'
p169
F0.013010884451800001
sS'bisexual'
p170
F0.0621723460026
sS'conspiracy'
p171
F0.0090886931086099996
sS'AnythingGoesNews'
p172
F0.0083056478405300008
sS'gaymers'
p173
F0.0754436991749
sS'HighQualityGifs'
p174
F0.0071284380519800001
sS'self'
p175
F0.0148480946771
sS'slowcooking'
p176
F0.0083491461100599993
sS'UnresolvedMysteries'
p177
F0.0073442804683699998
sS'nonononoyes'
p178
F0.0081365666879399997
sS'startrek'
p179
F0.0124444097683
sS'FutureWhatIf'
p180
F0.0077732053040700001
sS'firefly'
p181
F0.00905316572483
sS'Futurology'
p182
F0.0084163898117399997
sS'EnoughLibertarianSpam'
p183
F0.0197964847364
sS'Gaming4Gamers'
p184
F0.0080355392957500004
sS'TumblrInAction'
p185
F0.0174083191315
sS'HailCorporate'
p186
F0.011173184357499999
sS'adventuretime'
p187
F0.0084145117964999992
sS'PanicHistory'
p188
F0.010685172945600001
sS'fffffffuuuuuuuuuuuu'
p189
F0.0087001274384899997
sS'PoliticalDiscussion'
p190
F0.0151278600269
sS'Foodforthought'
p191
F0.015663555412499999
sS'languagelearning'
p192
F0.010011701989299999
sS'TheoryOfReddit'
p193
F0.015817373461000001
sS'TheBluePill'
p194
F0.026823529411799999
sS'harrypotter'
p195
F0.0108781807746
sS'whowouldwin'
p196
F0.0071359991696299998
sS'blunderyears'
p197
F0.0099424168358299998
sS'Anxiety'
p198
F0.0109255007521
sS'TalesFromYourServer'
p199
F0.0095751772619799991
sS'shutupandtakemymoney'
p200
F0.0082807740163899999
sS'JusticePorn'
p201
F0.0081153461195099998
sS'geek'
p202
F0.0115842302958
sS'gaybears'
p203
F0.016666666666700001
sS'lostgeneration'
p204
F0.0128910548656
sS'AbandonedPorn'
p205
F0.0088635020681500001
sS'progressive'
p206
F0.016192261803299999
sS'masseffect'
p207
F0.0082307880368300002
sS'thatHappened'
p208
F0.011716962740500001
sS'cringe'
p209
F0.0077915643929999997
sS'AskWomen'
p210
F0.0099142380181700008
sS'Christianity'
p211
F0.0114864313128
sS'changemyview'
p212
F0.019339396840600001
sS'againstmensrights'
p213
F0.0186925539605
sS'firstworldanarchists'
p214
F0.0092680489632800001
sS'badphilosophy'
p215
F0.0126117179742
sS'truegaming'
p216
F0.0098639455782299993
sS'AmericanHorrorStory'
p217
F0.0092512286788099998
sS'wikipedia'
p218
F0.0115451738488
sS'outside'
p219
F0.011450544755399999
sS'AskCulinary'
p220
F0.0083044630120199994
sS'foodhacks'
p221
F0.0078974012824799995
sS'AskFeminists'
p222
F0.015582391897199999
sS'europe'
p223
F0.0108011049724
sS'casualiama'
p224
F0.0123666637759
sS'facepalm'
p225
F0.0103604949141
sS'NotTimAndEric'
p226
F0.00801919555471
sS'bigboobproblems'
p227
F0.0071033938437300003
sS'answers'
p228
F0.0099177552007699999
sS'Unexpected'
p229
F0.0093225017745900002
sS'RedditDayOf'
p230
F0.013804933834300001
sS'Design'
p231
F0.0071361600166700003
sS'Sherlock'
p232
F0.0089258390288699998
sS'ukpolitics'
p233
F0.0101764356043
sS'community'
p234
F0.0074670257367599998
sS'MMFB'
p235
F0.0084799278304000004
sS'rpg'
p236
F0.010982568592200001
sS'linux'
p237
F0.0088482611115999997
sS'femalefashionadvice'
p238
F0.00814038321238
sS'fatlogic'
p239
F0.0108247287249
sS'gay'
p240
F0.061518216958599999
sS'MakeupAddiction'
p241
F0.0075531427460699997
sS'somethingimade'
p242
F0.0080756806645100009
sS'MapPorn'
p243
F0.012090254299599999
sS'offbeat'
p244
F0.0160045727351
sS'softwaregore'
p245
F0.0101002761227
sS'socialism'
p246
F0.019387001477099999
sS'LGBTeens'
p247
F0.034140866149100002
sS'MtF'
p248
F0.0358097895594
sS'Cooking'
p249
F0.0089971320196100008
sS'FanTheories'
p250
F0.0094898724681199993
sS'australia'
p251
F0.0077710141173400003
sS'ShitRedditSays'
p252
F0.019311845505200001
sS'shorthairedhotties'
p253
F0.0070526234209099996
sS'southpark'
p254
F0.0073873512501699996
sS'Israel'
p255
F0.0073512694202299998
sS'transpassing'
p256
F0.037037037037000002
sS'Whatcouldgowrong'
p257
F0.0083285317688999994
sS'fifthworldproblems'
p258
F0.0093122597180700008
sS'talesfromtechsupport'
p259
F0.0106963545077
sS'literature'
p260
F0.0076089462762299999
sS'notinteresting'
p261
F0.0072587824419599999
sS'AnimalsBeingJerks'
p262
F0.0097689146398999994
sS'DebateAChristian'
p263
F0.0079315219098499996
sS'Physics'
p264
F0.0074716404886600004
sS'thesims'
p265
F0.0083108358477600001
sS'HumanPorn'
p266
F0.0108181973467
sS'Fantasy'
p267
F0.0085948055847500007
sS'FancyFollicles'
p268
F0.0105686760701
sS'awwwtf'
p269
F0.011077844311399999
sS'circlebroke'
p270
F0.0212607991361
sS'PublicFreakout'
p271
F0.0092449260405900006
sS'yiff'
p272
F0.0079158219905400007
sS'rupaulsdragrace'
p273
F0.018692964380299999
sS'Conservative'
p274
F0.0127840909091
sS'dadjokes'
p275
F0.0073997187437200001
sS'futurama'
p276
F0.0081334060341699994
sS'perfectloops'
p277
F0.0084171006418800008
sS'Pets'
p278
F0.0071533382244999997
sS'InternetIsBeautiful'
p279
F0.0080711089971300005
sS'gaybrosgonemild'
p280
F0.0235018726592
sS'TalesFromRetail'
p281
F0.0129150425022
sS'ShitRConservativeSays'
p282
F0.0100925147183
sS'furry'
p283
F0.018436963499300001
sS'ProtectAndServe'
p284
F0.0087540412832599994
sS'woahdude'
p285
F0.0071191954287300003
sS'offmychest'
p286
F0.0112417491749
sS'exmormon'
p287
F0.0090251726200200003
sS'britishproblems'
p288
F0.0092986603624900001
sS'twinks'
p289
F0.014741244119199999
sS'cringepics'
p290
F0.0075884329095600002
sS'grammar'
p291
F0.0070067264574000003
sS'compsci'
p292
F0.0074511021421899996
sS'Enhancement'
p293
F0.0097769630308599999
sS'ArcherFX'
p294
F0.0087792826576100005
sS'gaymersgonewild'
p295
F0.017115156311799998
sS'gardening'
p296
F0.0071189122000800001
sS'whatisthisthing'
p297
F0.0098892924342499997
sS'NetflixBestOf'
p298
F0.0085965190710499996
sS'circlebroke2'
p299
F0.010199506836999999
sS'tumblr'
p300
F0.012122943793600001
sS'interestingasfuck'
p301
F0.0085859897422600005
sS'MarkMyWords'
p302
F0.0088398720323300001
sS'FeMRADebates'
p303
F0.0143377081725
sS'humor'
p304
F0.011340427819
sS'SkincareAddiction'
p305
F0.0071848122508900002
sS'ExpectationVsReality'
p306
F0.0095623390952600008
sS'religion'
p307
F0.0100261945624
sS'lifehacks'
p308
F0.0086676029140700002
sS'SCP'
p309
F0.0098161699089800002
sS'FloridaMan'
p310
F0.0124986980523
sS'delusionalartists'
p311
F0.012481456852
sS'OkCupid'
p312
F0.0089862658359800007
sS'Frugal'
p313
F0.0089560593338899996
sS'promos'
p314
F0.0084883917027399995
sS'shittyaskscience'
p315
F0.0078462531658100004
sS'lewronggeneration'
p316
F0.0137364806189
sS'worldbuilding'
p317
F0.011207828412099999
sS'bayarea'
p318
F0.0078491882463400005
sS'sixwordstories'
p319
F0.0084815321477400007
sS'AnimalsBeingBros'
p320
F0.0089830320505699997
sS'ShitAmericansSay'
p321
F0.0112122047606
sS'Scotland'
p322
F0.00739487372313
sS'TrollXChromosomes'
p323
F0.0152134126413
sS'homestuck'
p324
F0.0078032230703999998
sS'unitedkingdom'
p325
F0.0100240683435
sS'Damnthatsinteresting'
p326
F0.0085629044131899992
sS'DnD'
p327
F0.0078492935635800006
sS'loseit'
p328
F0.0078115913936799997
sS'CrazyIdeas'
p329
F0.0108427080608
sS'Bad_Cop_No_Donut'
p330
F0.013417140094299999
sS'MorbidReality'
p331
F0.0124222176299
sS'cats'
p332
F0.0081870699488500003
sS'introvert'
p333
F0.0096487055785800004
sS'Ubuntu'
p334
F0.0072388157036699999
sS'raisedbynarcissists'
p335
F0.012695179904999999
sS'happy'
p336
F0.0113909631692
sS'explainlikeIAmA'
p337
F0.0123308671599
sS'misleadingthumbnails'
p338
F0.0086160793867700002
sS'occupywallstreet'
p339
F0.0091797453360999998
sS'ProgrammerHumor'
p340
F0.0095039826212899997
sS'Marvel'
p341
F0.0071002833599299996
sS'webcomics'
p342
F0.011480411046900001
sS'rage'
p343
F0.013206195720300001
sS'comics'
p344
F0.0122336904558
sS'behindthegifs'
p345
F0.010558811686300001
sS'conlangs'
p346
F0.0078498293515399994
sS'civ'
p347
F0.0071796099078599998
sS'asexuality'
p348
F0.0186747665654
sS'fullmoviesonyoutube'
p349
F0.00859361367999
sS'buffy'
p350
F0.0097592119664399995
sS'TrueAskReddit'
p351
F0.011850618153900001
sS'blackladies'
p352
F0.010278372591
sS'politics'
p353
F0.0098061478152799992
sS'AskSocialScience'
p354
F0.013389596689099999
sS'zelda'
p355
F0.0073291657684799996
sS'TheWayWeWere'
p356
F0.0074331020812699999
sS'popping'
p357
F0.0076819351938900004
sS'nottheonion'
p358
F0.010893952236100001
sS'Baking'
p359
F0.0078340167696900002
sS'SuicideWatch'
p360
F0.0079308093994799999
sS'bigdickproblems'
p361
F0.0084227601697000002
sS'comicbooks'
p362
F0.0084961092583799996
sS'oddlysatisfying'
p363
F0.0082225572152899995
sS'GirlGamers'
p364
F0.0238717339667
sS'entertainment'
p365
F0.0099858785555800005
sS'atheism'
p366
F0.0097370855669399996
sS'MassiveCock'
p367
F0.0086696332668399993
s.