(dp1
S'Destiny'
p2
F0.020639417239999999
sS'MechanicalKeyboards'
p3
F0.0082251546686699997
sS'heroesofthestorm'
p4
F0.011391778108
sS'StarcraftCirclejerk'
p5
F0.036623817608500003
sS'allthingszerg'
p6
F0.124240642759
sS'esports'
p7
F0.011806596701599999
sS'allthingsprotoss'
p8
F0.136927685066
sS'starcraft'
p9
F0.059602310484100002
s.