(dp1
S'Destiny'
p2
F0.0183062955797
sS'heroesofthestorm'
p3
F0.0102066984664
sS'StarcraftCirclejerk'
p4
F0.031676838128500001
sS'allthingszerg'
p5
F0.12273236282199999
sS'AllThingsTerran'
p6
F0.136927685066
sS'esports'
p7
F0.0160834601174
sS'starcraft'
p8
F0.0462052138179
s.