(dp1
S'Destiny'
p2
F0.023671974073599999
sS'MechanicalKeyboards'
p3
F0.0076589595375699997
sS'heroesofthestorm'
p4
F0.0118185475759
sS'StarcraftCirclejerk'
p5
F0.033558792923999999
sS'AllThingsTerran'
p6
F0.124240642759
sS'esports'
p7
F0.013116057233700001
sS'allthingsprotoss'
p8
F0.12273236282199999
sS'starcraft'
p9
F0.052205036431000003
s.