(dp1
S'IDAP'
p2
F0.019600105235500001
sS'awwwtf'
p3
F0.0153388936823
sS'Heavymind'
p4
F0.020969968933400002
sS'shield'
p5
F0.0097678369195899999
sS'DoesAnybodyElse'
p6
F0.0080406915508500001
sS'pettyrevenge'
p7
F0.0082023007283400003
sS'CityPorn'
p8
F0.0093767236624400004
sS'skyrim'
p9
F0.0087864447165500008
sS'fffffffuuuuuuuuuuuu'
p10
F0.0088108051071000004
sS'uglyduckling'
p11
F0.0097357440890100001
sS'rickandmorty'
p12
F0.0140377146601
sS'quotes'
p13
F0.0083996068269099992
sS'dbz'
p14
F0.0131283810529
sS'perfectloops'
p15
F0.018764369947299998
sS'everymanshouldknow'
p16
F0.010192977365099999
sS'InternetIsBeautiful'
p17
F0.0078418584428100006
sS'MLPLounge'
p18
F0.0073891625615799999
sS'TalesFromRetail'
p19
F0.0071367756798700003
sS'beards'
p20
F0.0078512259223500001
sS'AnimalsBeingJerks'
p21
F0.013901378896899999
sS'TheoryOfReddit'
p22
F0.0090049527240000007
sS'TheBluePill'
p23
F0.0075831702544000004
sS'WouldYouRather'
p24
F0.010127803231299999
sS'quityourbullshit'
p25
F0.013274336283199999
sS'rpg'
p26
F0.0132003002075
sS'LearnUselessTalents'
p27
F0.0137182392938
sS'holdmybeer'
p28
F0.0097625548109499995
sS'superman'
p29
F0.0111762300668
sS'HistoryPorn'
p30
F0.0109059663347
sS'Fantasy'
p31
F0.010247543541500001
sS'Bioshock'
p32
F0.011217574199600001
sS'woahdude'
p33
F0.0099198879306599992
sS'Fallout'
p34
F0.0090402000384699997
sS'ImaginaryMonsters'
p35
F0.043671205244599998
sS'Marvel'
p36
F0.016663641314199999
sS'PublicFreakout'
p37
F0.0087357675696900002
sS'MensRights'
p38
F0.0072209086842600001
sS'nononono'
p39
F0.013451362445
sS'MilitaryPorn'
p40
F0.00820340826686
sS'Frisson'
p41
F0.013388952432200001
sS'arresteddevelopment'
p42
F0.0094053633890399998
sS'shutupandtakemymoney'
p43
F0.014140717382700001
sS'misc'
p44
F0.011575178997599999
sS'horror'
p45
F0.0091518569756300003
sS'JusticePorn'
p46
F0.0076824583866800002
sS'howto'
p47
F0.0088704485299399994
sS'AbandonedPorn'
p48
F0.0102422547488
sS'PandR'
p49
F0.0095800619462700007
sS'patientgamers'
p50
F0.0127621737539
sS'geek'
p51
F0.0132874186928
sS'NoStupidQuestions'
p52
F0.0084169737009299993
sS'3amjokes'
p53
F0.0089800443458999991
sS'toosoon'
p54
F0.011165577342000001
sS'KingOfTheHill'
p55
F0.0095169256716099992
sS'nonononoyes'
p56
F0.0121408908026
sS'PrettyGirlsUglyFaces'
p57
F0.0091795754446400007
sS'photoshopbattles'
p58
F0.0093567092630100004
sS'IWantToLearn'
p59
F0.0081086361860099997
sS'Sherlock'
p60
F0.0095785440612999994
sS'Art'
p61
F0.0092908798714299995
sS'creepyPMs'
p62
F0.0082214027133999997
sS'IdiotsFightingThings'
p63
F0.013698630137
sS'WatchItForThePlot'
p64
F0.0127327327327
sS'techsupportgore'
p65
F0.0091472868217099997
sS'freebies'
p66
F0.0093752525660700005
sS'PropagandaPosters'
p67
F0.014944704592999999
sS'vexillology'
p68
F0.011247130834
sS'NewsOfTheWeird'
p69
F0.0090165071438499996
sS'comics'
p70
F0.019800138202300002
sS'futurama'
p71
F0.0152257520679
sS'dadjokes'
p72
F0.0093617653614700008
sS'SubredditDrama'
p73
F0.0096441636182200002
sS'zombies'
p74
F0.0101322825781
sS'minimalism'
p75
F0.0082704833733299992
sS'DeepIntoYouTube'
p76
F0.0125688705234
sS'eatsandwiches'
p77
F0.0094512195121999997
sS'mashups'
p78
F0.0093049753133299992
sS'thatHappened'
p79
F0.0092417161382700001
sS'StarWars'
p80
F0.012061809827300001
sS'gamemusic'
p81
F0.012039514303400001
sS'TrueAtheism'
p82
F0.0086060606060599995
sS'whatisthisthing'
p83
F0.0086775991975600007
sS'glitch_art'
p84
F0.0127572898799
sS'starbound'
p85
F0.0078806248542800002
sS'NetflixBestOf'
p86
F0.010850843954500001
sS'gentlemanboners'
p87
F0.010487804878000001
sS'TheSimpsons'
p88
F0.0108162676666
sS'redditgetsdrawn'
p89
F0.0077623576061000002
sS'MST3K'
p90
F0.0071133873950799996
sS'tumblr'
p91
F0.0137614678899
sS'DCcomics'
p92
F0.0154496007407
sS'see'
p93
F0.0079258143774300002
sS'MarkMyWords'
p94
F0.011830357142900001
sS'xmen'
p95
F0.0144803043318
sS'fatpeoplestories'
p96
F0.0072091645269599996
sS'OneY'
p97
F0.0073995771670200003
sS'CrappyDesign'
p98
F0.0121130927461
sS'Foodforthought'
p99
F0.010217596972599999
sS'Cinemagraphs'
p100
F0.017455427984700001
sS'firstworldanarchists'
p101
F0.011987041036699999
sS'offbeat'
p102
F0.013573114672600001
sS'no_sob_story'
p103
F0.0092766557069000003
sS'gameofthrones'
p104
F0.0078204375343699992
sS'humor'
p105
F0.0122230710466
sS'psychology'
p106
F0.0070052539404600002
sS'findareddit'
p107
F0.011341717460099999
sS'skeptic'
p108
F0.0087957701240299994
sS'lotr'
p109
F0.0106936581461
sS'shittyfoodporn'
p110
F0.0091930541368700006
sS'PixelArt'
p111
F0.0123126960158
sS'wikipedia'
p112
F0.0114014647137
sS'ExpectationVsReality'
p113
F0.015738589522599999
sS'breakingbad'
p114
F0.0080262568999000007
sS'firstworldproblems'
p115
F0.0100556070436
sS'outside'
p116
F0.0130313826932
sS'GuessTheMovie'
p117
F0.0072583990045600004
sS'RoomPorn'
p118
F0.0105568619603
sS'foodhacks'
p119
F0.0097487183797000006
sS'lifehacks'
p120
F0.010848126232699999
sS'memes'
p121
F0.0072469735650199998
sS'JRPG'
p122
F0.0072384729796699998
sS'SCP'
p123
F0.0104667949952
sS'disney'
p124
F0.010901628831600001
sS'metalgearsolid'
p125
F0.0070937078811100004
sS'tattoos'
p126
F0.0079790026246700004
sS'blackpeoplegifs'
p127
F0.0142304844945
sS'bestof'
p128
F0.0075969816568200003
sS'Cyberpunk'
p129
F0.018555048699300001
sS'TMNT'
p130
F0.010775556500800001
sS'tipofmytongue'
p131
F0.0074260253627299998
sS'FloridaMan'
p132
F0.0109506913006
sS'delusionalartists'
p133
F0.014914601876400001
sS'answers'
p134
F0.0113736425007
sS'drawing'
p135
F0.014430854850200001
sS'nostalgia'
p136
F0.0137455791738
sS'lgbt'
p137
F0.0073394495412799996
sS'adventuretime'
p138
F0.0190885144156
sS'JonTron'
p139
F0.0081099792305400001
sS'LadyBoners'
p140
F0.0079689415611
sS'corgi'
p141
F0.0080515297906599993
sS'shittyaskscience'
p142
F0.0078923430895200004
sS'doctorwho'
p143
F0.010042459806300001
sS'gamingsuggestions'
p144
F0.0090598426448399993
sS'worldbuilding'
p145
F0.015793791877500001
sS'ArcherFX'
p146
F0.012177177939
sS'PoliticalHumor'
p147
F0.00872908656344
sS'ThriftStoreHauls'
p148
F0.0092883785562799994
sS'RedditDayOf'
p149
F0.011183299605899999
sS'netflix'
p150
F0.0077775410185400001
sS'4chan'
p151
F0.0083997609732399999
sS'badhistory'
p152
F0.0091274493384699996
sS'itookapicture'
p153
F0.0089325591781999995
sS'sixwordstories'
p154
F0.010927604619400001
sS'AnimalsBeingBros'
p155
F0.015620845519799999
sS'classic4chan'
p156
F0.012859439185599999
sS'learnart'
p157
F0.011856642414399999
sS'whatstheword'
p158
F0.0077577847214700003
sS'evangelion'
p159
F0.0085355444458000002
sS'OutOfTheLoop'
p160
F0.011508397712000001
sS'whatsthisbug'
p161
F0.0072343632253200002
sS'QuotesPorn'
p162
F0.0160963985432
sS'TrueReddit'
p163
F0.0092280863225700002
sS'badtattoos'
p164
F0.0075594811808700002
sS'nintendo'
p165
F0.0071880819366899997
sS'reactiongifs'
p166
F0.010441774720600001
sS'AntiJokes'
p167
F0.00811785929044
sS'community'
p168
F0.010678074578099999
sS'printSF'
p169
F0.00786637931034
sS'NotTimAndEric'
p170
F0.0106902161283
sS'rant'
p171
F0.0072367326567999999
sS'FinalFantasy'
p172
F0.0085017835909600003
sS'startrek'
p173
F0.011016019311
sS'cosplay'
p174
F0.018591042088700001
sS'TrollXChromosomes'
p175
F0.0095481670929199996
sS'AskScienceFiction'
p176
F0.019957803501200001
sS'ContagiousLaughter'
p177
F0.010213833472699999
sS'writing'
p178
F0.0080543425521600008
sS'ainbow'
p179
F0.0079784927586500007
sS'TheLastAirbender'
p180
F0.012841650604899999
sS'Damnthatsinteresting'
p181
F0.015465049866000001
sS'DnD'
p182
F0.0095408080480299997
sS'FiftyFifty'
p183
F0.0099068381346099996
sS'CrazyIdeas'
p184
F0.014942016057100001
sS'AskHistorians'
p185
F0.0077154582763300002
sS'lego'
p186
F0.012073747756600001
sS'harrypotter'
p187
F0.0093923143018000005
sS'ANormalDayInRussia'
p188
F0.011146943353900001
sS'Whatcouldgowrong'
p189
F0.0115991471215
sS'onetruegod'
p190
F0.0089736399327000008
sS'TheFacebookDelusion'
p191
F0.0091178211959700006
sS'urbanexploration'
p192
F0.0084141839100200008
sS'MorbidReality'
p193
F0.0084743687085200008
sS'gif'
p194
F0.0141667702249
sS'wheredidthesodago'
p195
F0.015092864125100001
sS'PenmanshipPorn'
p196
F0.0101675660324
sS'ifyoulikeblank'
p197
F0.0089486820478499995
sS'misleadingthumbnails'
p198
F0.016413593636999999
sS'WebGames'
p199
F0.0090792291220600004
sS'whowouldwin'
p200
F0.0151875106058
sS'fifthworldproblems'
p201
F0.0107930015905
sS'lewronggeneration'
p202
F0.010340848570900001
sS'Pareidolia'
p203
F0.0156485929993
sS'happy'
p204
F0.0095039406583199999
sS'ArtisanVideos'
p205
F0.010036945812799999
sS'fatlogic'
p206
F0.0078516964766599997
sS'TrollYChromosome'
p207
F0.013561144632299999
sS'explainlikeIAmA'
p208
F0.014216050913300001
sS'DaystromInstitute'
p209
F0.0083476272155499995
sS'GODZILLA'
p210
F0.0130831643002
sS'Unexpected'
p211
F0.013357891942100001
sS'Spiderman'
p212
F0.0128329558935
sS'batman'
p213
F0.017642556448500001
sS'gamegrumps'
p214
F0.0097482592394199999
sS'mildlyinfuriating'
p215
F0.0102169954008
sS'marvelstudios'
p216
F0.0118759278069
sS'dresdenfiles'
p217
F0.0073827980804699999
sS'youtubehaiku'
p218
F0.0115556565886
sS'rule34'
p219
F0.0080878105141499994
sS'Awwducational'
p220
F0.015200562983800001
sS'DoctorWhumour'
p221
F0.0082033351264099996
sS'graphic_design'
p222
F0.0080916623511099999
sS'polandball'
p223
F0.0083333333333300008
sS'NeutralPolitics'
p224
F0.0072202166065000002
sS'ghettoglamourshots'
p225
F0.0081653225806499995
sS'blunderyears'
p226
F0.012215252558600001
sS'KillLaKill'
p227
F0.0107786496508
sS'webcomics'
p228
F0.0217391304348
sS'calvinandhobbes'
p229
F0.012361274023299999
sS'rage'
p230
F0.010981403232399999
sS'worldpolitics'
p231
F0.0075563351774400002
sS'IASIP'
p232
F0.0094375475044300005
sS'interestingasfuck'
p233
F0.011753450867800001
sS'Perfectfit'
p234
F0.010918202971200001
sS'PerfectTiming'
p235
F0.0153672979983
sS'behindthegifs'
p236
F0.018063247243899998
sS'standupshots'
p237
F0.0151978034727
sS'introvert'
p238
F0.0074236544626300003
sS'ObscureMedia'
p239
F0.0106848609681
sS'ICanDrawThat'
p240
F0.0113626581734
sS'fullmoviesonyoutube'
p241
F0.013798986401700001
sS'gallifrey'
p242
F0.0087661912861400001
sS'ShingekiNoKyojin'
p243
F0.0084770750405400008
sS'gamernews'
p244
F0.0131793922231
sS'NewsOfTheStupid'
p245
F0.0096867530507000008
sS'Portal'
p246
F0.0089183335456699993
sS'FoodPorn'
p247
F0.0082929379336600002
sS'awesome'
p248
F0.014594652178500001
sS'Infographics'
p249
F0.0093534792887200006
sS'TrueAskReddit'
p250
F0.0095633769695100002
sS'FanTheories'
p251
F0.021410632954499999
sS'oddlysatisfying'
p252
F0.011353980220899999
sS'gamecollecting'
p253
F0.0070688353579000003
sS'Metroid'
p254
F0.0078729650387000007
sS'Pathfinder_RPG'
p255
F0.0078178891699199997
sS'YouShouldKnow'
p256
F0.0100797189569
sS'FullmetalAlchemist'
p257
F0.0095729013254800006
sS'shorthairedhotties'
p258
F0.0096182747219700007
sS'southpark'
p259
F0.0099061328980099995
sS'SRSsucks'
p260
F0.0078606844842200006
sS'asmr'
p261
F0.0070743341015099999
sS'techsupportmacgyver'
p262
F0.0073479152426499999
sS'MURICA'
p263
F0.0083193120209400003
sS'deadpool'
p264
F0.013814561294300001
sS'HighQualityGifs'
p265
F0.0182612767286
sS'IndieGaming'
p266
F0.0095850596747299992
sS'eFreebies'
p267
F0.0071033938437300003
sS'softwaregore'
p268
F0.0082614283091599992
sS'self'
p269
F0.0080935783068500008
sS'circlebroke'
p270
F0.0077557755775600002
sS'zelda'
p271
F0.011760441419299999
sS'ImaginaryLandscapes'
p272
F0.026767180159500002
sS'masseffect'
p273
F0.0096678693681200006
sS'TheWayWeWere'
p274
F0.0116633965555
sS'animation'
p275
F0.011616545434800001
sS'scifi'
p276
F0.015917475064899999
sS'rpg_gamers'
p277
F0.0088259203344600006
sS'spaceporn'
p278
F0.011316872428
sS'Design'
p279
F0.0091585223431099993
sS'conspiratard'
p280
F0.0091419313776500005
sS'Pizza'
p281
F0.0073666459572200001
sS'animegifs'
p282
F0.0095502156500299994
sS'FutureWhatIf'
p283
F0.0075851778164599997
sS'wallpapers'
p284
F0.015685635088899998
sS'firefly'
p285
F0.014611745059800001
sS'awwnime'
p286
F0.0075117370891999999
sS'mylittlepony'
p287
F0.0095045273044300008
sS'notinteresting'
p288
F0.0084861861633300003
sS'facepalm'
p289
F0.0093450255836499997
sS'forwardsfromgrandma'
p290
F0.011111728429399999
sS'ActionFigures'
p291
F0.0071896469084500002
sS'wallpaper'
p292
F0.016700924974300001
sS'KingdomHearts'
p293
F0.0078505415880000002
sS'Images'
p294
F0.0090081172045100005
sS'Games'
p295
F0.0074601990444599997
sS'shittyreactiongifs'
p296
F0.013887585624499999
sS'Gaming4Gamers'
p297
F0.0126244234037
sS'comicbookmovies'
p298
F0.014834205933700001
sS'comicbooks'
p299
F0.019529439035700001
sS'GamePhysics'
p300
F0.015285964116799999
sS'whitepeoplegifs'
p301
F0.0150250417362
sS'truegaming'
p302
F0.0125677139762
sS'somethingimade'
p303
F0.012734082397
sS'MapPorn'
p304
F0.0087600556930699999
sS'MachinePorn'
p305
F0.00783938814532
sS'GirlGamers'
p306
F0.0093003593320699993
sS'cosplaygirls'
p307
F0.0154916001102
sS'ConfusedBoners'
p308
F0.012730681930300001
sS'TrueFilm'
p309
F0.0083255458329799994
sS'entertainment'
p310
F0.010393905391800001
sS'SketchDaily'
p311
F0.0089709762532999993
sS'HumanPorn'
p312
F0.016860863605200001
sS'NSFWFunny'
p313
F0.0074633342011600004
sS'terriblefacebookmemes'
p314
F0.010920140537499999
sS'PrettyGirls'
p315
F0.0091743119266099998
sS'TumblrInAction'
p316
F0.0092378452823299994
sS'Graffiti'
p317
F0.0097572044474700005
sS'cringepics'
p318
F0.0071283300779299997
sS'crafts'
p319
F0.00769157724812
sS'HailCorporate'
p320
F0.0086447546150400009
sS'ImGoingToHellForThis'
p321
F0.0073270891345300002
sS'manga'
p322
F0.0070474150081799997
sS'EmmaWatson'
p323
F0.0073967339097000002
sS'GifSound'
p324
F0.010714809922199999
s.