(dp1
S'FancyFollicles'
p2
F0.018816711293700002
sS'awwwtf'
p3
F0.0090937019969299995
sS'curlyhair'
p4
F0.0079420107154099997
sS'DoesAnybodyElse'
p5
F0.0101299865531
sS'pettyrevenge'
p6
F0.0092800819835499992
sS'PublicFreakout'
p7
F0.0090634441087599996
sS'asoiaf'
p8
F0.0115541778216
sS'QuotesPorn'
p9
F0.0076912171262500002
sS'rupaulsdragrace'
p10
F0.030755982038499999
sS'rickandmorty'
p11
F0.0109538687741
sS'actuallesbians'
p12
F0.0084927628875400007
sS'futurama'
p13
F0.0099782731149899995
sS'whitepeoplegifs'
p14
F0.0075928823972599997
sS'Pets'
p15
F0.0077970683023199996
sS'gaybrosgonemild'
p16
F0.0080081537565500002
sS'RandomActsofMakeup'
p17
F0.0092955315052099998
sS'shield'
p18
F0.0132083081266
sS'relationships'
p19
F0.0070131374004100003
sS'TalesFromRetail'
p20
F0.0097353476439999993
sS'BabyBumps'
p21
F0.0072221968277200004
sS'gaybros'
p22
F0.0153694393178
sS'TheBluePill'
p23
F0.0077008310249299999
sS'buffy'
p24
F0.012817727568999999
sS'quityourbullshit'
p25
F0.013029422329600001
sS'nostalgia'
p26
F0.015334460275299999
sS'writing'
p27
F0.0083401471790699993
sS'HistoryPorn'
p28
F0.0074023570663299997
sS'booksuggestions'
p29
F0.0079053072386999993
sS'Bioshock'
p30
F0.010745178101300001
sS'GrandTheftAutoV'
p31
F0.00724576805141
sS'Fallout'
p32
F0.00722759550751
sS'4chan'
p33
F0.0071037442652100002
sS'adventuretime'
p34
F0.0143486544415
sS'offmychest'
p35
F0.0101944520327
sS'Anxiety'
p36
F0.0088285349595799995
sS'arresteddevelopment'
p37
F0.0142834043012
sS'childfree'
p38
F0.010178910658099999
sS'food'
p39
F0.0073415197718699997
sS'horror'
p40
F0.031144746143300001
sS'UnresolvedMysteries'
p41
F0.0107128380335
sS'PandR'
p42
F0.018472906403900001
sS'NoStupidQuestions'
p43
F0.0084527451296099992
sS'cringepics'
p44
F0.0118729227254
sS'beards'
p45
F0.00775474908645
sS'thewalkingdead'
p46
F0.031096890310999999
sS'AbandonedPorn'
p47
F0.0077572780639800004
sS'makeupexchange'
p48
F0.00771812080537
sS'creepyPMs'
p49
F0.014203170808099999
sS'lost'
p50
F0.011346089291699999
sS'WatchItForThePlot'
p51
F0.00768171928422
sS'Celebs'
p52
F0.0089172707398500004
sS'freebies'
p53
F0.0120220733149
sS'CrappyDesign'
p54
F0.0082876236556599994
sS'askgaybros'
p55
F0.010146729669199999
sS'thatHappened'
p56
F0.0120261979147
sS'SubredditDrama'
p57
F0.0113202232355
sS'zombies'
p58
F0.0089350838803799997
sS'Supernatural'
p59
F0.019057815845799998
sS'ArcherFX'
p60
F0.015959962168999999
sS'cringe'
p61
F0.0110600590745
sS'StarWars'
p62
F0.0084405077649299994
sS'whatisthisthing'
p63
F0.0081352589518700006
sS'AskWomen'
p64
F0.0109752196274
sS'NetflixBestOf'
p65
F0.016090702049699999
sS'gentlemanboners'
p66
F0.0088203640447299999
sS'TheSimpsons'
p67
F0.0125155501941
sS'TalesFromYourServer'
p68
F0.00870909559392
sS'redditgetsdrawn'
p69
F0.0081332845523899994
sS'sex'
p70
F0.0072180338881799996
sS'tumblr'
p71
F0.0125698834363
sS'DCcomics'
p72
F0.0090630529541200003
sS'interestingasfuck'
p73
F0.0091677654541199999
sS'books'
p74
F0.0074667025427099997
sS'xmen'
p75
F0.0088008013737800005
sS'changemyview'
p76
F0.00726522558077
sS'TwoXChromosomes'
p77
F0.0087133617313299994
sS'fatpeoplestories'
p78
F0.0084989756934799997
sS'depression'
p79
F0.0075918337479899999
sS'firstworldanarchists'
p80
F0.0081694402420600006
sS'offbeat'
p81
F0.0089180327868900004
sS'femalefashionadvice'
p82
F0.0120038856508
sS'DunderMifflin'
p83
F0.0129302325581
sS'movies'
p84
F0.0086712202683700002
sS'AMA'
p85
F0.0077093646864699996
sS'shittyfoodporn'
p86
F0.0115695141914
sS'ExpectationVsReality'
p87
F0.011162693651900001
sS'breakingbad'
p88
F0.017882836587899999
sS'firstworldproblems'
p89
F0.0080265606187700008
sS'sailormoon'
p90
F0.0077531521654000003
sS'foodhacks'
p91
F0.0077357425183500004
sS'lifehacks'
p92
F0.0086041473228100004
sS'LifeProTips'
p93
F0.0070303329031299999
sS'tappedout'
p94
F0.0074204787113699997
sS'disney'
p95
F0.016138898037900001
sS'Paranormal'
p96
F0.014067828722999999
sS'tattoos'
p97
F0.011213373403499999
sS'blackpeoplegifs'
p98
F0.0089439475584700001
sS'bestof'
p99
F0.0076653504918799999
sS'arrow'
p100
F0.013464046787599999
sS'casualiama'
p101
F0.0088068743003900003
sS'OnceUponATime'
p102
F0.0248885586924
sS'LetsNotMeet'
p103
F0.010804269847399999
sS'loseit'
p104
F0.0095052490301700005
sS'AnimalCrossing'
p105
F0.0089905643582000004
sS'delusionalartists'
p106
F0.0104569928358
sS'lgbt'
p107
F0.0121885716647
sS'bigboobproblems'
p108
F0.0084039498564300007
sS'LadyBoners'
p109
F0.022291499061399999
sS'doctorwho'
p110
F0.0133358574704
sS'lewronggeneration'
p111
F0.0096028243601100002
sS'youtubehaiku'
p112
F0.0072452549772400003
sS'gay'
p113
F0.0075781697764800001
sS'ThriftStoreHauls'
p114
F0.0089941923215300004
sS'survivor'
p115
F0.0086577390221100007
sS'Frugal'
p116
F0.0082254747792400006
sS'recipes'
p117
F0.0087722945162799996
sS'piercing'
p118
F0.0089607890305500003
sS'creepy'
p119
F0.011834048326200001
sS'Hair'
p120
F0.0088868998145899998
sS'nosleep'
p121
F0.0096802818037600002
sS'wheredidthesodago'
p122
F0.0094618193363999997
sS'AnimalsBeingBros'
p123
F0.0079255192170000002
sS'MakeupAddicts'
p124
F0.0095257261689100006
sS'amiugly'
p125
F0.00767762371253
sS'Dexter'
p126
F0.0170907948476
sS'weddingplanning'
p127
F0.0080301378011300006
sS'drunk'
p128
F0.0102488168859
sS'xxfitness'
p129
F0.00871828774481
sS'confession'
p130
F0.0098071716669399997
sS'reactiongifs'
p131
F0.0099559519081500007
sS'cosplay'
p132
F0.0094346314818800001
sS'community'
p133
F0.016249326489500001
sS'KingOfTheHill'
p134
F0.0075859624246699996
sS'rant'
p135
F0.0072988602549000003
sS'skyrim'
p136
F0.0072379631165499997
sS'gaymers'
p137
F0.0120290622143
sS'TrollXChromosomes'
p138
F0.015979631046999999
sS'harrypotter'
p139
F0.017857142857100002
sS'BeautyBoxes'
p140
F0.0087420358571599997
sS'ainbow'
p141
F0.0092512286788099998
sS'TheLastAirbender'
p142
F0.0099466922652700004
sS'HIMYM'
p143
F0.014103343464999999
sS'FiftyFifty'
p144
F0.0090341159803999996
sS'CrazyIdeas'
p145
F0.0088062098501100004
sS'OldSchoolCool'
p146
F0.0086524395937300005
sS'OutOfTheLoop'
p147
F0.010361547592700001
sS'EatCheapAndHealthy'
p148
F0.0089082316140200006
sS'MorbidReality'
p149
F0.0151822736697
sS'cats'
p150
F0.0118162692847
sS'PenmanshipPorn'
p151
F0.0075515167029300001
sS'ifyoulikeblank'
p152
F0.0078718906032100005
sS'misleadingthumbnails'
p153
F0.0071909657163099997
sS'trailerparkboys'
p154
F0.0083163518202299998
sS'raisedbynarcissists'
p155
F0.0097120305851900006
sS'Pareidolia'
p156
F0.0081610712016799997
sS'dogs'
p157
F0.0088969737059700002
sS'keto'
p158
F0.0073686161831500001
sS'woahdude'
p159
F0.0081698530757600002
sS'fatlogic'
p160
F0.0097835899187500002
sS'TrollYChromosome'
p161
F0.0101466613496
sS'tipofmytongue'
p162
F0.010237824396199999
sS'Indiemakeupandmore'
p163
F0.0075575902913999999
sS'FloridaMan'
p164
F0.0077984132708299996
sS'MakeupAddiction'
p165
F0.018554252634700001
sS'shortscarystories'
p166
F0.0089387383283999998
sS'batman'
p167
F0.012459405445900001
sS'mildlyinfuriating'
p168
F0.010403378972100001
sS'marvelstudios'
p169
F0.0101102446894
sS'somethingimade'
p170
F0.0079381233462200006
sS'Unexpected'
p171
F0.0097349673991800004
sS'ladybonersgw'
p172
F0.0087233618801000005
sS'Awwducational'
p173
F0.0077604218485699998
sS'TheGirlSurvivalGuide'
p174
F0.0128622191082
sS'thelastofus'
p175
F0.00713864306785
sS'IASIP'
p176
F0.014919110447999999
sS'ghettoglamourshots'
p177
F0.0095644965886599997
sS'blunderyears'
p178
F0.0150996727165
sS'Marvel'
p179
F0.0119934200688
sS'Random_Acts_Of_Amazon'
p180
F0.0091355547341199998
sS'television'
p181
F0.012725315748600001
sS'rage'
p182
F0.012993293106
sS'comics'
p183
F0.0082801094890499992
sS'netflix'
p184
F0.012145748987899999
sS'popping'
p185
F0.011184041656
sS'PerfectTiming'
p186
F0.0072381385478200002
sS'behindthegifs'
p187
F0.0079443500256899998
sS'standupshots'
p188
F0.010201511335
sS'happy'
p189
F0.0078937543335600002
sS'Glitch_in_the_Matrix'
p190
F0.0083333333333300008
sS'fullmoviesonyoutube'
p191
F0.010165282843200001
sS'gallifrey'
p192
F0.0093085106383000004
sS'iphone'
p193
F0.0075536549298599997
sS'FoodPorn'
p194
F0.011039423519999999
sS'Cooking'
p195
F0.0085818307905700005
sS'teenagers'
p196
F0.0070206934136900004
sS'FanTheories'
p197
F0.0145233155335
sS'oddlysatisfying'
p198
F0.0089838454125199998
sS'LosAngeles'
p199
F0.0071512018975499999
sS'YouShouldKnow'
p200
F0.0091314603330300004
sS'assassinscreed'
p201
F0.0070587361147200003
sS'southpark'
p202
F0.015734480639200001
sS'shutupandtakemymoney'
p203
F0.0078983516483500001
sS'HouseOfCards'
p204
F0.0151625204285
sS'MURICA'
p205
F0.0071350728928899999
sS'HighQualityGifs'
p206
F0.0073631416070899999
sS'GaybrosGoneWild'
p207
F0.0072259644825499996
sS'self'
p208
F0.0078184110971000007
sS'pitbulls'
p209
F0.0072680632749000003
sS'zelda'
p210
F0.0080440304826399998
sS'Parenting'
p211
F0.0073383359081900003
sS'badtattoos'
p212
F0.0094978165938900006
sS'Gore'
p213
F0.0073914866848399999
sS'slowcooking'
p214
F0.0077968645763799999
sS'RedditLaqueristas'
p215
F0.016955310645499998
sS'nottheonion'
p216
F0.0075301083009099998
sS'Whatcouldgowrong'
p217
F0.00759068681118
sS'Sherlock'
p218
F0.012581422325300001
sS'firefly'
p219
F0.0076509205785099997
sS'JusticePorn'
p220
F0.0079255596043700006
sS'Baking'
p221
F0.0104264414555
sS'notinteresting'
p222
F0.0073527120914699999
sS'facepalm'
p223
F0.011564001023899999
sS'forwardsfromgrandma'
p224
F0.0097058823529399992
sS'AnimalsBeingJerks'
p225
F0.0092669305593899992
sS'gameofthrones'
p226
F0.016738342939700002
sS'progresspics'
p227
F0.0093087557603699998
sS'crochet'
p228
F0.0081012096326699996
sS'dogpictures'
p229
F0.00754288076049
sS'comicbooks'
p230
F0.0103702244008
sS'thesims'
p231
F0.014972965479000001
sS'madmen'
p232
F0.016462972264100002
sS'comicbookmovies'
p233
F0.0074987381930900002
sS'GirlGamers'
p234
F0.0081020255063799992
sS'RoomPorn'
p235
F0.0076259048503899999
sS'entertainment'
p236
F0.0099049128367700006
sS'HumanPorn'
p237
F0.0070161761839800003
sS'terriblefacebookmemes'
p238
F0.0075206358911600003
sS'TumblrInAction'
p239
F0.010148784323200001
sS'secretsanta'
p240
F0.0114265309766
sS'crafts'
p241
F0.0087724679467500004
sS'ImGoingToHellForThis'
p242
F0.0090274340202700001
sS'SkincareAddiction'
p243
F0.0134638022366
sS'Sonsofanarchy'
p244
F0.0238693467337
s.