(dp1
S'TalesFromThePizzaGuy'
p2
F0.0123609394314
sS'awwwtf'
p3
F0.0101691600665
sS'daddit'
p4
F0.0080017301038100008
sS'lostgeneration'
p5
F0.014736622073600001
sS'Hunting'
p6
F0.0093644949575800007
sS'pettyrevenge'
p7
F0.0130062788933
sS'PublicFreakout'
p8
F0.0262971578841
sS'ArtisanVideos'
p9
F0.0090636329541200003
sS'ShitPoliticsSays'
p10
F0.0094179694857799996
sS'Bitcoin'
p11
F0.0070938511326899996
sS'inthenews'
p12
F0.017396838867100001
sS'Conservative'
p13
F0.0150562341275
sS'quotes'
p14
F0.0071252397917199997
sS'BuyItForLife'
p15
F0.011201509256000001
sS'woodworking'
p16
F0.0075545171339600004
sS'DeepIntoYouTube'
p17
F0.0078269944341400003
sS'everymanshouldknow'
p18
F0.012774861422099999
sS'Foodforthought'
p19
F0.0112309074573
sS'financialindependence'
p20
F0.0081658291457300004
sS'TalesFromRetail'
p21
F0.0091675926861300005
sS'UFOs'
p22
F0.0091494725049000008
sS'syriancivilwar'
p23
F0.0085316569375800001
sS'TheoryOfReddit'
p24
F0.0079907353792699996
sS'quityourbullshit'
p25
F0.012426900584799999
sS'JoeRogan'
p26
F0.010388739946399999
sS'Anticonsumption'
p27
F0.0106840571666
sS'ProtectAndServe'
p28
F0.0395040719582
sS'HistoryPorn'
p29
F0.0090012384996500001
sS'Piracy'
p30
F0.0077462577200900001
sS'badtattoos'
p31
F0.0072281328677000004
sS'Psychonaut'
p32
F0.0073944746841899996
sS'holdmybeer'
p33
F0.012918379330599999
sS'CCW'
p34
F0.024977984148599999
sS'texas'
p35
F0.0104024556617
sS'Gore'
p36
F0.0079096912916599999
sS'MensRights'
p37
F0.016054598635
sS'nononono'
p38
F0.016120932101200001
sS'MilitaryPorn'
p39
F0.0078390024754699996
sS'Frisson'
p40
F0.0081732733960000001
sS'YouShouldKnow'
p41
F0.0114998909963
sS'childfree'
p42
F0.0098813553526900001
sS'SelfDrivingCars'
p43
F0.00957636747281
sS'JusticePorn'
p44
F0.018004137242299999
sS'UpliftingNews'
p45
F0.0075465723784900003
sS'AbandonedPorn'
p46
F0.0096735187424400008
sS'geek'
p47
F0.0098992584301100008
sS'spaceporn'
p48
F0.0074713699552900002
sS'DebateAnAtheist'
p49
F0.0096965548710900001
sS'WhiteRights'
p50
F0.0072689511941800003
sS'anonymous'
p51
F0.011889250814299999
sS'toosoon'
p52
F0.0130365955862
sS'Military'
p53
F0.011292449719700001
sS'amateurradio'
p54
F0.0071923281832700003
sS'nonononoyes'
p55
F0.0116407390267
sS'homestead'
p56
F0.012517547964399999
sS'GunsAreCool'
p57
F0.013040712468200001
sS'IWantToLearn'
p58
F0.0074652691946400004
sS'Republican'
p59
F0.0087611435597899998
sS'Liberal'
p60
F0.0143534190928
sS'motorcycles'
p61
F0.0077664702731699998
sS'progressive'
p62
F0.014850910778500001
sS'KitchenConfidential'
p63
F0.0078702599570700006
sS'WatchItForThePlot'
p64
F0.0075251850952800002
sS'progun'
p65
F0.030708092485500001
sS'freebies'
p66
F0.0084863321093399998
sS'PropagandaPosters'
p67
F0.0077149527966699997
sS'CrappyDesign'
p68
F0.0078945158310200006
sS'NewsOfTheWeird'
p69
F0.0110998990918
sS'privacy'
p70
F0.019339317109300001
sS'Enhancement'
p71
F0.0086371397007100007
sS'Cyberpunk'
p72
F0.0088083865765199998
sS'Libertarian'
p73
F0.027649769585300001
sS'whitepeoplegifs'
p74
F0.0087546900125100007
sS'cringe'
p75
F0.0094125625555400005
sS'Firearms'
p76
F0.021538726630500001
sS'TrueAtheism'
p77
F0.011984185816700001
sS'whatisthisthing'
p78
F0.0102954657641
sS'NetflixBestOf'
p79
F0.0079880035758600008
sS'energy'
p80
F0.0095811051693399998
sS'Denver'
p81
F0.0070298769771499998
sS'Marijuana'
p82
F0.01192679416
sS'POLITIC'
p83
F0.0190034762457
sS'interestingasfuck'
p84
F0.0086557870608000003
sS'AutoDetailing'
p85
F0.0074081294473100001
sS'MechanicAdvice'
p86
F0.0086498683715700003
sS'changemyview'
p87
F0.010496992207999999
sS'fatpeoplestories'
p88
F0.0077063610695899997
sS'OneY'
p89
F0.0086102352655799998
sS'4x4'
p90
F0.0075507314771099997
sS'popping'
p91
F0.0077395750269700003
sS'firstworldanarchists'
p92
F0.0085618294136799999
sS'offbeat'
p93
F0.0138423475619
sS'humor'
p94
F0.010140153717
sS'psychology'
p95
F0.0088667014380399995
sS'camping'
p96
F0.0080451900034199993
sS'space'
p97
F0.0071903937766500002
sS'skeptic'
p98
F0.015723428917000001
sS'Justrolledintotheshop'
p99
F0.012025980656300001
sS'bestofworldstar'
p100
F0.020375045077500001
sS'wikipedia'
p101
F0.0101928140661
sS'DebateReligion'
p102
F0.0092733097285399996
sS'firstworldproblems'
p103
F0.0077203818079700001
sS'LearnUselessTalents'
p104
F0.00922631610686
sS'Gunsforsale'
p105
F0.0121870446417
sS'RoomPorn'
p106
F0.0089570365872199999
sS'foodhacks'
p107
F0.0081475128644899995
sS'lifehacks'
p108
F0.0100318659271
sS'Astronomy'
p109
F0.0077205172746600001
sS'guns'
p110
F0.0139802631579
sS'SubredditDrama'
p111
F0.0098125970935800007
sS'blackpeoplegifs'
p112
F0.0075125208681099996
sS'StandUpComedy'
p113
F0.0095009767359300005
sS'business'
p114
F0.0077353961056299998
sS'StLouis'
p115
F0.0079965232507599997
sS'FloridaMan'
p116
F0.016880275085999999
sS'legaladvice'
p117
F0.0135336743393
sS'delusionalartists'
p118
F0.0108285679523
sS'answers'
p119
F0.010989832535899999
sS'budgetfood'
p120
F0.00708143651998
sS'Frugal'
p121
F0.0090181094177799997
sS'minimalism'
p122
F0.0071416204986100001
sS'NotTimAndEric'
p123
F0.0085975705947300002
sS'conservatives'
p124
F0.0086071987480399997
sS'Roadcam'
p125
F0.022908647075399999
sS'Unexpected'
p126
F0.00753885409418
sS'PoliticalHumor'
p127
F0.014824363519200001
sS'ThriftStoreHauls'
p128
F0.0071407319250199998
sS'RedditDayOf'
p129
F0.0074187213615499997
sS'netflix'
p130
F0.0077234674588199997
sS'WarshipPorn'
p131
F0.0079249916285299999
sS'Anarcho_Capitalism'
p132
F0.024412215115799999
sS'TinyHouses'
p133
F0.0102132772604
sS'florida'
p134
F0.0083355740790499993
sS'cripplingalcoholism'
p135
F0.0070205297308799999
sS'howtonotgiveafuck'
p136
F0.0079096045197700002
sS'wheredidthesodago'
p137
F0.0081591024987299997
sS'AnimalsBeingBros'
p138
F0.0090023513604300005
sS'ar15'
p139
F0.0123382226057
sS'Images'
p140
F0.0093486434305500004
sS'GunPorn'
p141
F0.011710293249400001
sS'Cartalk'
p142
F0.0071073814009199997
sS'OutOfTheLoop'
p143
F0.0088940713812099993
sS'QuotesPorn'
p144
F0.00898825654923
sS'ShitAmericansSay'
p145
F0.0079855744461600001
sS'TrueReddit'
p146
F0.0135108674369
sS'confession'
p147
F0.0081082870002600008
sS'misc'
p148
F0.0090875598673700007
sS'findareddit'
p149
F0.0075282308657499998
sS'IdiotsFightingThings'
p150
F0.014643545279400001
sS'conspiratard'
p151
F0.011837455830400001
sS'Health'
p152
F0.0075026795283999999
sS'Documentaries'
p153
F0.0084709868699700003
sS'gardening'
p154
F0.0070524876047200003
sS'ContagiousLaughter'
p155
F0.0099460246224799993
sS'Multicopter'
p156
F0.00706713780919
sS'nostalgia'
p157
F0.0070564147563200001
sS'Damnthatsinteresting'
p158
F0.0085172109443999999
sS'environment'
p159
F0.0112835992526
sS'CrazyIdeas'
p160
F0.0097469001661799996
sS'eldertrees'
p161
F0.0141890012056
sS'army'
p162
F0.0070746049246599996
sS'Bad_Cop_No_Donut'
p163
F0.083633315252199997
sS'ANormalDayInRussia'
p164
F0.0116428571429
sS'TheFacebookDelusion'
p165
F0.0087912087912100003
sS'urbanexploration'
p166
F0.0095815752461300002
sS'MorbidReality'
p167
F0.0117708153021
sS'gif'
p168
F0.0075272864132500004
sS'California'
p169
F0.0092151584178899997
sS'Ask_Politics'
p170
F0.0105111023519
sS'shittyadvice'
p171
F0.0077338129496399999
sS'HomeImprovement'
p172
F0.0081646894626700005
sS'Pareidolia'
p173
F0.0077637598780000002
sS'ObscureMedia'
p174
F0.00796706944629
sS'CombatFootage'
p175
F0.0154280462185
sS'fatlogic'
p176
F0.0088606871320000002
sS'cablefail'
p177
F0.0091607166913599998
sS'collapse'
p178
F0.0184441656211
sS'wicked_edge'
p179
F0.0076605454742999998
sS'lockpicking'
p180
F0.0094565984474200004
sS'occupywallstreet'
p181
F0.018941584731100001
sS'teslamotors'
p182
F0.0084584478748099996
sS'mildlyinfuriating'
p183
F0.0073236302957299998
sS'cordcutters'
p184
F0.013017691998399999
sS'somethingimade'
p185
F0.0072843036745300002
sS'Awwducational'
p186
F0.00739581851799
sS'Shitty_Car_Mods'
p187
F0.010490380854199999
sS'aviation'
p188
F0.0074719800747199997
sS'NeutralPolitics'
p189
F0.012196756467000001
sS'ghettoglamourshots'
p190
F0.0097439618534299992
sS'BBQ'
p191
F0.0072128323823899996
sS'EDC'
p192
F0.0099346761023399992
sS'Colorado'
p193
F0.0082644628099199993
sS'rage'
p194
F0.014217210053300001
sS'worldpolitics'
p195
F0.017088520372999998
sS'TheRedPill'
p196
F0.0091407678245000006
sS'PerfectTiming'
p197
F0.0092615399773399998
sS'Entrepreneur'
p198
F0.0070609002647800002
sS'standupshots'
p199
F0.0078715731513399993
sS'socialism'
p200
F0.0119443604475
sS'knives'
p201
F0.0098165432893499993
sS'Flipping'
p202
F0.0072651273885400002
sS'cableporn'
p203
F0.0082275711159700005
sS'RealEstate'
p204
F0.0084014702573000002
sS'bestof'
p205
F0.0081029796399799993
sS'fullmoviesonyoutube'
p206
F0.0112564648616
sS'gundeals'
p207
F0.012129548580700001
sS'AskScienceFiction'
p208
F0.0074874256972999997
sS'NewsOfTheStupid'
p209
F0.0162261188171
sS'Economics'
p210
F0.0128380223983
sS'Glocks'
p211
F0.010712298274900001
sS'awesome'
p212
F0.0082716586852399996
sS'BasicIncome'
p213
F0.0154166666667
sS'TrueAskReddit'
p214
F0.0093585026395799995
sS'HumanPorn'
p215
F0.0078827271470100005
sS'sysadmin'
p216
F0.0074488382426000001
sS'NoStupidQuestions'
p217
F0.0078737637230700003
sS'PoliticalDiscussion'
p218
F0.016598586526600002
sS'conspiracy'
p219
F0.016968346792900001
sS'politics'
p220
F0.0098421360358600003
sS'AnythingGoesNews'
p221
F0.021745350500699999
sS'Veterans'
p222
F0.0081586946088599999
sS'SRSsucks'
p223
F0.0150867488056
sS'TalesFromYourServer'
p224
F0.010796221322500001
sS'watchpeopledie'
p225
F0.014510497438
sS'techsupportmacgyver'
p226
F0.010074463425300001
sS'MURICA'
p227
F0.0086547507055499996
sS'HighQualityGifs'
p228
F0.0070084258603000001
sS'preppers'
p229
F0.017041841536299999
sS'CampingandHiking'
p230
F0.0078038553374899997
sS'Survival'
p231
F0.015558107967000001
sS'netsec'
p232
F0.0098061925719999995
sS'TheWayWeWere'
p233
F0.0098511138475299992
sS'atheism'
p234
F0.00709646379601
sS'TumblrInAction'
p235
F0.0074173357450499997
sS'scifi'
p236
F0.0076560257023700002
sS'slowcooking'
p237
F0.0077480490524
sS'UnresolvedMysteries'
p238
F0.00789497028298
sS'nottheonion'
p239
F0.0081262072310500002
sS'nyc'
p240
F0.0078102519833900003
sS'911truth'
p241
F0.012566641279499999
sS'Frugal_Jerk'
p242
F0.0103850050659
sS'Whatcouldgowrong'
p243
F0.013717893528500001
sS'economy'
p244
F0.011225864391599999
sS'talesfromtechsupport'
p245
F0.0091736678289799992
sS'Anarchism'
p246
F0.016704367496099999
sS'facepalm'
p247
F0.0081857640321499996
sS'forwardsfromgrandma'
p248
F0.010420187000100001
sS'AnimalsBeingJerks'
p249
F0.0097208093138899995
sS'howto'
p250
F0.0112499086858
sS'Futurology'
p251
F0.0075200217184699996
sS'DebateAChristian'
p252
F0.0082472074329300003
sS'microgrowery'
p253
F0.0074456902592899997
sS'EnoughLibertarianSpam'
p254
F0.0112113402062
sS'law'
p255
F0.018880269184000001
sS'startrek'
p256
F0.0085015940488800002
sS'DumpsterDiving'
p257
F0.0081549439347599999
sS'MachinePorn'
p258
F0.0098212531919100003
sS'AirForce'
p259
F0.0078607523862999993
sS'entertainment'
p260
F0.0086805555555600003
sS'gunpolitics'
p261
F0.024355300859599999
sS'IWantOut'
p262
F0.0094339622641499993
sS'Silverbugs'
p263
F0.0086081313733300004
sS'investing'
p264
F0.00756848950005
sS'Shitstatistssay'
p265
F0.024319536157199999
sS'thatHappened'
p266
F0.0079058067516399998
sS'techsupportgore'
p267
F0.010150096014399999
sS'HailCorporate'
p268
F0.0144645340751
sS'ImGoingToHellForThis'
p269
F0.0074392998306000001
sS'self'
p270
F0.0079761904761899999
sS'shutupandtakemymoney'
p271
F0.0109939309521
s.