(dp1
S'FancyFollicles'
p2
F0.011443146175900001
sS'redheads'
p3
F0.0086147699606699997
sS'DoesAnybodyElse'
p4
F0.0127019280875
sS'GWCouples'
p5
F0.0119339727861
sS'malehairadvice'
p6
F0.0185408622909
sS'PublicFreakout'
p7
F0.0090600635287299992
sS'Shitty_Car_Mods'
p8
F0.0072872459236099996
sS'fffffffuuuuuuuuuuuu'
p9
F0.00754950221849
sS'uglyduckling'
p10
F0.023274185707299999
sS'milf'
p11
F0.013569893379400001
sS'dadjokes'
p12
F0.0090187379604199994
sS'nsfw'
p13
F0.0131623291518
sS'everymanshouldknow'
p14
F0.0094501718213099994
sS'bodybuilding'
p15
F0.0094310320485699994
sS'Fitness'
p16
F0.0089661120494499997
sS'breakingbad'
p17
F0.0076827090112799997
sS'relationships'
p18
F0.0107658982897
sS'TalesFromRetail'
p19
F0.0072125044945999996
sS'AskMen'
p20
F0.017870811362499999
sS'Amateur'
p21
F0.015330472930599999
sS'atheism'
p22
F0.0070005213830600004
sS'TheBluePill'
p23
F0.0075471698113200002
sS'WouldYouRather'
p24
F0.0086886239644399996
sS'quityourbullshit'
p25
F0.0110438963859
sS'Advice'
p26
F0.0098207540690900003
sS'nostalgia'
p27
F0.0087103521389099992
sS'MMFB'
p28
F0.0090188752174199995
sS'HistoryPorn'
p29
F0.0073351482153700001
sS'pettyrevenge'
p30
F0.0097362751247700007
sS'whowouldwin'
p31
F0.0077743121828599999
sS'woahdude'
p32
F0.0081556555734399998
sS'askseddit'
p33
F0.0094317096466099998
sS'BigBoobsGW'
p34
F0.0128099400737
sS'MensRights'
p35
F0.0099634155834
sS'nononono'
p36
F0.0084598698481600006
sS'offmychest'
p37
F0.014149962698900001
sS'YouShouldKnow'
p38
F0.0086269033246199993
sS'childfree'
p39
F0.0072298943947999997
sS'popping'
p40
F0.0085822057652999995
sS'cringepics'
p41
F0.0116557006271
sS'NSFW_GIF'
p42
F0.0125271074609
sS'altgonewild'
p43
F0.0119159611163
sS'Jokes'
p44
F0.0072315226056299999
sS'NoStupidQuestions'
p45
F0.010818207637300001
sS'Hotwife'
p46
F0.0098039215686299992
sS'toosoon'
p47
F0.0073896978917599998
sS'Military'
p48
F0.0071944696424700002
sS'beards'
p49
F0.010616621983899999
sS'PrettyGirlsUglyFaces'
p50
F0.014464094016599999
sS'tightdresses'
p51
F0.0120527784826
sS'IWantToLearn'
p52
F0.0083069620253200006
sS'gonewildstories'
p53
F0.0105026256564
sS'creepyPMs'
p54
F0.013651226157999999
sS'IdiotsFightingThings'
p55
F0.0073428375128800003
sS'penpals'
p56
F0.0074019245003699996
sS'Celebs'
p57
F0.013021121309300001
sS'freebies'
p58
F0.00731085116974
sS'redditgetsdrawn'
p59
F0.0086048769961199999
sS'CrappyDesign'
p60
F0.0075920156916999999
sS'WatchItForThePlot'
p61
F0.0123080774366
sS'SubredditDrama'
p62
F0.0092005130397599996
sS'cringe'
p63
F0.012103460900700001
sS'whatisthisthing'
p64
F0.0079012837098199999
sS'AskWomen'
p65
F0.015708393983500001
sS'NetflixBestOf'
p66
F0.0073753634494000001
sS'gentlemanboners'
p67
F0.014368403132400001
sS'Rateme'
p68
F0.0995792072971
sS'AmateurArchives'
p69
F0.0099466438310999994
sS'burstingout'
p70
F0.0089463220675899992
sS'interestingasfuck'
p71
F0.00893465586431
sS'malegrooming'
p72
F0.00710344017847
sS'TwoXChromosomes'
p73
F0.0071198745370599998
sS'fatpeoplestories'
p74
F0.010558229834299999
sS'tifu'
p75
F0.0091235151413800002
sS'depression'
p76
F0.0097322733592400002
sS'firstworldanarchists'
p77
F0.0083344565754599996
sS'offbeat'
p78
F0.0078038465411299999
sS'4chan'
p79
F0.0087816159006599993
sS'AMA'
p80
F0.0110174339078
sS'shittyfoodporn'
p81
F0.0084058124734800004
sS'ExpectationVsReality'
p82
F0.0078399307392600006
sS'socialskills'
p83
F0.013961411695
sS'malefashionadvice'
p84
F0.0109081403883
sS'firstworldproblems'
p85
F0.00947310192228
sS'RoomPorn'
p86
F0.0073730700441699999
sS'randomsexiness'
p87
F0.0120129663764
sS'lifehacks'
p88
F0.0086165533786499993
sS'AsiansGoneWild'
p89
F0.015799028506900001
sS'ass'
p90
F0.0141090546933
sS'tattoos'
p91
F0.0089594638889900005
sS'bestof'
p92
F0.0083181056799100008
sS'DeadBedrooms'
p93
F0.0086337993622800004
sS'casualiama'
p94
F0.0134640501798
sS'LetsNotMeet'
p95
F0.0070612920146900003
sS'celebnsfw'
p96
F0.010542988664999999
sS'loseit'
p97
F0.0096537175751300001
sS'OkCupid'
p98
F0.0130721710346
sS'delusionalartists'
p99
F0.0087256409191000008
sS'LadyBoners'
p100
F0.0094758381866799999
sS'shittyaskscience'
p101
F0.0072627321280899996
sS'Needafriend'
p102
F0.0080411356052700004
sS'lewronggeneration'
p103
F0.0080871541237799993
sS'tipofmypenis'
p104
F0.0093324012583
sS'TributeMe'
p105
F0.0079772850189300006
sS'Unexpected'
p106
F0.0099564864665500005
sS'SkincareAddiction'
p107
F0.0081082986674199994
sS'GoneWildPlus'
p108
F0.0127061595422
sS'relationship_advice'
p109
F0.0134013790954
sS'itookapicture'
p110
F0.0082220902241500003
sS'AnimalsBeingBros'
p111
F0.0070600772612200002
sS'OnOff'
p112
F0.015228950493
sS'GetMotivated'
p113
F0.0083944020979900003
sS'amiugly'
p114
F0.089140649014200005
sS'QuotesPorn'
p115
F0.0073536818777100001
sS'bigdickproblems'
p116
F0.0115128355869
sS'TrueReddit'
p117
F0.0071427105355000003
sS'drunk'
p118
F0.0090737554803300008
sS'TinyTits'
p119
F0.012032246420399999
sS'pussy'
p120
F0.00802803440586
sS'confession'
p121
F0.017509208348900001
sS'reactiongifs'
p122
F0.0090086885377100006
sS'feet'
p123
F0.0081710709318500007
sS'rant'
p124
F0.0084250788235900008
sS'incest'
p125
F0.0072184531885999999
sS'Showerthoughts'
p126
F0.0070387429111899999
sS'TrollXChromosomes'
p127
F0.0080662247646699995
sS'thick'
p128
F0.0109190172884
sS'gonewildcurvy'
p129
F0.018420094648700001
sS'gonewildaudio'
p130
F0.0080116533139099992
sS'FiftyFifty'
p131
F0.011640711027200001
sS'CrazyIdeas'
p132
F0.0090993214065400001
sS'OldSchoolCool'
p133
F0.0084417904353599992
sS'Drugs'
p134
F0.0081319060773499992
sS'Bad_Cop_No_Donut'
p135
F0.0089538011098600004
sS'OutOfTheLoop'
p136
F0.010182385643200001
sS'seduction'
p137
F0.0173017053751
sS'MorbidReality'
p138
F0.012063253953400001
sS'holdmybeer'
p139
F0.0074742676167899999
sS'firstimpression'
p140
F0.0348316303418
sS'Whatcouldgowrong'
p141
F0.0094169034591300004
sS'confessions'
p142
F0.0089193825042900004
sS'asstastic'
p143
F0.019159029152999999
sS'happy'
p144
F0.0072841815139299999
sS'Boobies'
p145
F0.011892402076500001
sS'fatlogic'
p146
F0.0116098342125
sS'TrollYChromosome'
p147
F0.00735871677209
sS'tipofmytongue'
p148
F0.0078095706029099998
sS'misleadingthumbnails'
p149
F0.0076070623591300004
sS'MakeupAddiction'
p150
F0.0078877145249099997
sS'dirtykikpals'
p151
F0.0074398455525699998
sS'treesgonewild'
p152
F0.010878661087899999
sS'mildlyinfuriating'
p153
F0.0092814495684799998
sS'RandomActsOfBlowJob'
p154
F0.0117202268431
sS'oddlysatisfying'
p155
F0.0079887965880500005
sS'Kikpals'
p156
F0.0084073082523099998
sS'nsfw_gifs'
p157
F0.0097978334368299998
sS'ginger'
p158
F0.010604583130200001
sS'LifeProTips'
p159
F0.0072893318861699998
sS'r4r'
p160
F0.0187237906995
sS'NoFap'
p161
F0.0071188071188099996
sS'ghettoglamourshots'
p162
F0.0076433121019099997
sS'blunderyears'
p163
F0.0140533323964
sS'gonewild'
p164
F0.014954323189700001
sS'showerbeer'
p165
F0.0082584269662900004
sS'rage'
p166
F0.012454719361799999
sS'thatHappened'
p167
F0.0106097405088
sS'sex'
p168
F0.013708599435600001
sS'TheRedPill'
p169
F0.011937889581499999
sS'PerfectTiming'
p170
F0.0081661891117500007
sS'findareddit'
p171
F0.0079618616995099992
sS'standupshots'
p172
F0.0076050181143099997
sS'dating_advice'
p173
F0.0145143574455
sS'dirtypenpals'
p174
F0.0120604069076
sS'BustyPetite'
p175
F0.0160299003322
sS'changemyview'
p176
F0.0091969296941900001
sS'watchpeopledie'
p177
F0.012131832580700001
sS'GWNerdy'
p178
F0.0136746143058
sS'FoodPorn'
p179
F0.0081323838808899998
sS'teenagers'
p180
F0.0093419856421800007
sS'wifesharing'
p181
F0.0121644997489
sS'conspiracy'
p182
F0.00878893628021
sS'creepy'
p183
F0.0073695481989999997
sS'bestofworldstar'
p184
F0.0078593808082400001
sS'shorthairedhotties'
p185
F0.015631355685999999
sS'hardbodies'
p186
F0.015725337513299999
sS'ForeverAlone'
p187
F0.0150799009678
sS'MURICA'
p188
F0.0082375937450099995
sS'cumsluts'
p189
F0.0090599168729300003
sS'self'
p190
F0.012211172857600001
sS'shittyama'
p191
F0.0076449352304100004
sS'RealGirls'
p192
F0.0204493969265
sS'GoneMild'
p193
F0.030393072417000001
sS'Hotchickswithtattoos'
p194
F0.0103051004458
sS'Gore'
p195
F0.0087353198097600004
sS'howtonotgiveafuck'
p196
F0.0113010602449
sS'nonononoyes'
p197
F0.0083848067301999993
sS'workgonewild'
p198
F0.011411411411400001
sS'JusticePorn'
p199
F0.010744710788199999
sS'notinteresting'
p200
F0.0081179933985500007
sS'facepalm'
p201
F0.010242017251300001
sS'DAE'
p202
F0.0080459053202799995
sS'AnimalsBeingJerks'
p203
F0.0077496710045300001
sS'SuicideWatch'
p204
F0.0095338680672499999
sS'girlsinyogapants'
p205
F0.0130279470477
sS'progresspics'
p206
F0.016921421847699999
sS'short'
p207
F0.0102095013278
sS'cosplaygirls'
p208
F0.0102622576967
sS'ConfusedBoners'
p209
F0.0086802581234699996
sS'HumanPorn'
p210
F0.0092588390142100008
sS'NSFWFunny'
p211
F0.0096664542171200005
sS'curvy'
p212
F0.0100453130971
sS'PrettyGirls'
p213
F0.017698254485300002
sS'TumblrInAction'
p214
F0.0086546213306800002
sS'tall'
p215
F0.011056186559
sS'ImGoingToHellForThis'
p216
F0.012232141713500001
sS'gainit'
p217
F0.0088961283047200006
sS'needadvice'
p218
F0.0087761013358699999
sS'ladybonersgw'
p219
F0.012499529385199999
s.