(dp1
S'photoshop'
p2
F0.0104413347686
sS'audiophile'
p3
F0.0093264248704699997
sS'photocritique'
p4
F0.054856878327299997
sS'CityPorn'
p5
F0.0077595763024999997
sS'Filmmakers'
p6
F0.014144788350099999
sS'HumanPorn'
p7
F0.0076617868381400004
sS'BuyItForLife'
p8
F0.0083765145907200005
sS'malefashion'
p9
F0.0070878650861499999
sS'skateboarding'
p10
F0.0083872095054999991
sS'CampingandHiking'
p11
F0.0076763245988699996
sS'Cinemagraphs'
p12
F0.0081255253572399995
sS'graphic_design'
p13
F0.00860776002608
sS'rawdenim'
p14
F0.0076452599388400003
sS'astrophotography'
p15
F0.010470085470099999
sS'bicycling'
p16
F0.0079186702906100005
sS'AskPhotography'
p17
F0.035658914728700003
sS'wicked_edge'
p18
F0.0072171056174899998
sS'Design'
p19
F0.0089688872394400009
sS'fountainpens'
p20
F0.0085076568911999998
sS'glitch_art'
p21
F0.011806759098799999
sS'ExposurePorn'
p22
F0.0193588937775
sS'photography'
p23
F0.049911709524299998
sS'Coffee'
p24
F0.0083290198108300004
sS'FixedGearBicycle'
p25
F0.0114898506319
sS'MachinePorn'
p26
F0.0071414784790599997
sS'vinyl'
p27
F0.012579415501900001
sS'vintageaudio'
p28
F0.0086852861035399999
sS'EDC'
p29
F0.0078679974822399995
sS'AbandonedPorn'
p30
F0.0074168333030399996
sS'videography'
p31
F0.0155367231638
sS'ThriftStoreHauls'
p32
F0.0084689594226399992
sS'TrueFilm'
p33
F0.010046367851599999
sS'typography'
p34
F0.0083123425692699995
sS'Watches'
p35
F0.0073816302857699998
sS'ArtisanVideos'
p36
F0.0076047978236700002
sS'itookapicture'
p37
F0.0251491547895
sS'bikewrench'
p38
F0.0081616789739599998
sS'minimalism'
p39
F0.0092205609892700002
sS'urbanexploration'
p40
F0.0106807919416
s.