(dp1
S'PoliticalDiscussion'
p2
F0.0143845735168
sS'ShitAmericansSay'
p3
F0.0071761055081499998
sS'badhistory'
p4
F0.0143996455472
sS'PanicHistory'
p5
F0.0092981403719300006
sS'zen'
p6
F0.0070638097480600001
sS'POLITIC'
p7
F0.0073577501635100004
sS'blackladies'
p8
F0.0077821011673200003
sS'askphilosophy'
p9
F0.015955473098300001
sS'Foodforthought'
p10
F0.0075234147090400003
sS'ShitRedditSays'
p11
F0.0092348284960399995
sS'Feminism'
p12
F0.0109744944619
sS'Ask_Politics'
p13
F0.0073690499900400004
sS'badphilosophy'
p14
F0.021182495344500001
sS'TheoryOfReddit'
p15
F0.0084717607973399996
sS'badlinguistics'
p16
F0.0089828269484800004
sS'Bad_Cop_No_Donut'
p17
F0.0071335589690199996
sS'AskSocialScience'
p18
F0.014431110436
sS'environment'
p19
F0.0079309129361999995
sS'Anticonsumption'
p20
F0.020179864005299999
sS'Shitstatistssay'
p21
F0.0191413727099
sS'againstmensrights'
p22
F0.0185929648241
sS'FeMRADebates'
p23
F0.0086360929124500007
sS'AskFeminists'
p24
F0.011388523872099999
sS'Anarchism'
p25
F0.115725905842
sS'BasicIncome'
p26
F0.018903050264899999
sS'collapse'
p27
F0.0123684696326
sS'occupywallstreet'
p28
F0.0215227956492
sS'Economics'
p29
F0.00780969018137
sS'philosophy'
p30
F0.0093763952969199999
sS'DumpsterDiving'
p31
F0.011792452830199999
sS'EnoughLibertarianSpam'
p32
F0.030434782608700001
sS'anonymous'
p33
F0.0090191657271700004
sS'NeutralPolitics'
p34
F0.0081984013117399994
sS'SRSGaming'
p35
F0.011111111111100001
sS'Liberal'
p36
F0.0072568940493499996
sS'progressive'
p37
F0.0124192747144
sS'worldpolitics'
p38
F0.0079570114705
sS'Anarcho_Capitalism'
p39
F0.035794713760799998
sS'privacy'
p40
F0.0082992542699099996
sS'punk'
p41
F0.010733044073999999
sS'Buddhism'
p42
F0.0079864230807600006
sS'PropagandaPosters'
p43
F0.015877437325899999
sS'socialism'
p44
F0.044792071511899997
sS'Libertarian'
p45
F0.0085739137638199993
sS'TheBluePill'
p46
F0.0077734000638899998
sS'lostgeneration'
p47
F0.0156451844409
s.