(dp1
S'AndroidGaming'
p2
F0.019112169506000001
sS'perfectloops'
p3
F0.0081980788340500002
sS'firefox'
p4
F0.0075946052114700003
sS'TheoryOfReddit'
p5
F0.0077593248026099999
sS'quityourbullshit'
p6
F0.0078481552569800005
sS'unixporn'
p7
F0.0094195519348299998
sS'AndroidQuestions'
p8
F0.0293267006016
sS'shittybattlestations'
p9
F0.015849430411099999
sS'archlinux'
p10
F0.0070651405963
sS'androidthemes'
p11
F0.039505898063700001
sS'Braveryjerk'
p12
F0.014530839387800001
sS'3amjokes'
p13
F0.0076172658024899996
sS'toosoon'
p14
F0.0081044100620999999
sS'magicskyfairy'
p15
F0.0115331079738
sS'overclocking'
p16
F0.0078482668410699997
sS'tmobile'
p17
F0.020911477869500001
sS'CrappyDesign'
p18
F0.010836003495500001
sS'shittyadviceanimals'
p19
F0.0070647219690100002
sS'montageparodies'
p20
F0.011350001621399999
sS'hackintosh'
p21
F0.0090799031477000001
sS'DeepIntoYouTube'
p22
F0.0070762101571800002
sS'google'
p23
F0.0245461518793
sS'pcgaming'
p24
F0.0083931365002100008
sS'MechanicalKeyboards'
p25
F0.0099674972914399994
sS'circlebroke2'
p26
F0.012276785714299999
sS'MotoG'
p27
F0.022005711406000002
sS'Android'
p28
F0.020545877678999999
sS'firstworldanarchists'
p29
F0.0085630860800700002
sS'forwardsfromgrandma'
p30
F0.0102617038072
sS'no_sob_story'
p31
F0.010632183908
sS'htcone'
p32
F0.0197113692362
sS'androiddev'
p33
F0.016801322071200001
sS'outside'
p34
F0.0079819356193900001
sS'Nexus5'
p35
F0.0303125844519
sS'MCPE'
p36
F0.0093006617778600004
sS'Nexus7'
p37
F0.0281040268456
sS'glitch_art'
p38
F0.0086978766948099997
sS'needamod'
p39
F0.0074303405572799996
sS'shittyaskscience'
p40
F0.0075330617711100003
sS'GamePhysics'
p41
F0.0083589340573
sS'MotoX'
p42
F0.020626083782099999
sS'lewronggeneration'
p43
F0.012946066020200001
sS'headphones'
p44
F0.0081838074398199994
sS'PickAnAndroidForMe'
p45
F0.030867221949999999
sS'wheredidthesodago'
p46
F0.0084728249638399995
sS'cyanogenmod'
p47
F0.0254598969831
sS'classic4chan'
p48
F0.0104338842975
sS'battlestations'
p49
F0.0080077316029299999
sS'gamingpc'
p50
F0.0092702169625200007
sS'apple'
p51
F0.0107177162501
sS'conspiratard'
p52
F0.00927926782763
sS'chromeos'
p53
F0.018551042810100001
sS'linux'
p54
F0.0075003363379500003
sS'chrome'
p55
F0.0149418926397
sS'OutOfTheLoop'
p56
F0.0088814549566499992
sS'linux4noobs'
p57
F0.0082830434268099992
sS'iphone'
p58
F0.0085319832173099998
sS'misleadingthumbnails'
p59
F0.0089624545821600007
sS'Ubuntu'
p60
F0.010038681156800001
sS'tasker'
p61
F0.0187663436394
sS'verizon'
p62
F0.0075150300601199999
sS'GalaxyS3'
p63
F0.011215296929600001
sS'shittyadvice'
p64
F0.0076297049847399998
sS'galaxys4'
p65
F0.010499111613599999
sS'mildlyinfuriating'
p66
F0.0076963111328400002
sS'shittyaskreddit'
p67
F0.0072910824453199996
sS'lgg2'
p68
F0.0145264381174
sS'ProgrammerHumor'
p69
F0.0093987090929699996
sS'hardwareswap'
p70
F0.0070061043285200002
sS'techsupportgore'
p71
F0.013709410205400001
sS'thatHappened'
p72
F0.00731924505354
sS'Chromecast'
p73
F0.016872693186500001
sS'Perfectfit'
p74
F0.0101691397738
sS'firstworldproblems'
p75
F0.0078693096922000001
sS'softwaregore'
p76
F0.0254652301665
sS'hardware'
p77
F0.011195231958799999
sS'GalaxyNote3'
p78
F0.0099630996310000001
sS'pebble'
p79
F0.0123656425378
sS'techsupportmacgyver'
p80
F0.0147817460317
sS'terriblefacebookmemes'
p81
F0.0114673792029
sS'shittyama'
p82
F0.0074416733708799997
sS'circlebroke'
p83
F0.010433462961200001
sS'CableManagement'
p84
F0.010367892976600001
sS'DaftPunk'
p85
F0.0082038941150700002
sS'Frugal_Jerk'
p86
F0.0110539067232
sS'androidapps'
p87
F0.026422080107699999
sS'talesfromtechsupport'
p88
F0.0082935532089300004
sS'notinteresting'
p89
F0.0100028348115
sS'linux_gaming'
p90
F0.0077252198716399999
sS'nexus4'
p91
F0.028789598596600002
sS'windows8'
p92
F0.010406218655999999
sS'windows'
p93
F0.0157134409056
sS'eFreebies'
p94
F0.0071047957371200001
sS'HailCorporate'
p95
F0.0086847337030399995
sS'microsoft'
p96
F0.0083251022999900007
s.