(dp1
S'ICanDrawThat'
p2
F0.0086040982678600008
sS'IDAP'
p3
F0.0075913007796500004
sS'ShingekiNoKyojin'
p4
F0.0090282948622499998
sS'Animesuggest'
p5
F0.013899559963700001
sS'TrueAnime'
p6
F0.0082031250000000003
sS'LearnJapanese'
p7
F0.00953349434346
sS'AnimeFigures'
p8
F0.019613337069200001
sS'touhou'
p9
F0.0091631032376299996
sS'animegifs'
p10
F0.030235783633800001
sS'katawashoujo'
p11
F0.0096847702240799999
sS'awwnime'
p12
F0.033035308380099999
sS'pantsu'
p13
F0.017343485617600001
sS'FullmetalAlchemist'
p14
F0.0085405676965599996
sS'KillLaKill'
p15
F0.016014641958400001
sS'SketchDaily'
p16
F0.0109335576114
sS'ArtistLounge'
p17
F0.0094446543256500003
sS'visualnovels'
p18
F0.0112664302107
sS'anime'
p19
F0.00964850048371
sS'learnart'
p20
F0.018094615216899999
sS'manga'
p21
F0.013356718834300001
sS'evangelion'
p22
F0.0109828741623
sS'drawing'
p23
F0.015345673153
s.