(dp1
S'Shitty_Car_Mods'
p2
F0.031631824862400001
sS'uglyduckling'
p3
F0.012164475361499999
sS'AndroidGaming'
p4
F0.012026873842199999
sS'milf'
p5
F0.0128475939697
sS'KitchenConfidential'
p6
F0.0091917693349700003
sS'goldenretrievers'
p7
F0.0071180069580500001
sS'SampleSize'
p8
F0.0075649637017400004
sS'everymanshouldknow'
p9
F0.033047133530099998
sS'wiiu'
p10
F0.011349207899500001
sS'shittyaskreddit'
p11
F0.0083727161091099993
sS'golf'
p12
F0.0080718894490700004
sS'relationships'
p13
F0.016753010832299998
sS'NeutralPolitics'
p14
F0.0070045799176399999
sS'atheism'
p15
F0.032639121817400002
sS'gonewild'
p16
F0.0151572613269
sS'JoeRogan'
p17
F0.0084826565839200008
sS'Showerthoughts'
p18
F0.028367909582
sS'MachinePorn'
p19
F0.0150706105529
sS'HistoryPorn'
p20
F0.051377318035299997
sS'picrequests'
p21
F0.00995948683322
sS'swoleacceptance'
p22
F0.0084194412552600004
sS'holdmybeer'
p23
F0.063174382178899993
sS'ImaginaryMonsters'
p24
F0.0178742419406
sS'Atlanta'
p25
F0.0081567464278600003
sS'DeepIntoYouTube'
p26
F0.0224103161303
sS'YouShouldKnow'
p27
F0.040883792163199997
sS'skyrimmods'
p28
F0.0092513226731300007
sS'horror'
p29
F0.0126173549683
sS'UpliftingNews'
p30
F0.033198719347999998
sS'PandR'
p31
F0.0171574018791
sS'Jokes'
p32
F0.026664912972899999
sS'inthenews'
p33
F0.010316664278500001
sS'Scrubs'
p34
F0.0072663966998399998
sS'3amjokes'
p35
F0.0103411474626
sS'Military'
p36
F0.020576618339199999
sS'Steam'
p37
F0.022099325540099999
sS'AlienBlue'
p38
F0.0122445384073
sS'photoshopbattles'
p39
F0.044129244496499999
sS'IWantToLearn'
p40
F0.015840345986499998
sS'Astronomy'
p41
F0.0178772940548
sS'Celebs'
p42
F0.035619478654400002
sS'beermoney'
p43
F0.0078899786313099997
sS'BuyItForLife'
p44
F0.0214466712739
sS'CrappyDesign'
p45
F0.051419770911499997
sS'NewsOfTheWeird'
p46
F0.0097320724980300005
sS'Patriots'
p47
F0.0089952378152700005
sS'math'
p48
F0.0103797777506
sS'techsupport'
p49
F0.016970865114500001
sS'Libertarian'
p50
F0.024168912848200001
sS'starcitizen'
p51
F0.0093897852723499996
sS'spiders'
p52
F0.013253304652500001
sS'Whatisthis'
p53
F0.0091532396297599999
sS'Paleo'
p54
F0.0093776894085499992
sS'pcgaming'
p55
F0.020744438635300001
sS'EatCheapAndHealthy'
p56
F0.021918670832400001
sS'totalwar'
p57
F0.0081999219055099992
sS'tea'
p58
F0.0095017976373899995
sS'blackpeoplegifs'
p59
F0.034246806215699997
sS'redditgetsdrawn'
p60
F0.016057504361200001
sS'polandball'
p61
F0.032046356102899999
sS'POLITIC'
p62
F0.0080179484350300003
sS'MechanicAdvice'
p63
F0.010393618260200001
sS'AmISexy'
p64
F0.0077496710045300001
sS'fatpeoplestories'
p65
F0.028642276251899999
sS'OneY'
p66
F0.0078592814371299998
sS'nba'
p67
F0.019094226940899999
sS'fantasyfootball'
p68
F0.0100157737406
sS'forwardsfromgrandma'
p69
F0.027607534439099999
sS'no_sob_story'
p70
F0.0138831408255
sS'Design'
p71
F0.0113434745935
sS'frugalmalefashion'
p72
F0.0104636188023
sS'movies'
p73
F0.0242083749182
sS'skeptic'
p74
F0.0222011285134
sS'Warthunder'
p75
F0.00850539980975
sS'boardgames'
p76
F0.0093242603040600003
sS'InteriorDesign'
p77
F0.0099126508980299996
sS'socialskills'
p78
F0.0128950428073
sS'DebateReligion'
p79
F0.0078094108343200004
sS'Nexus5'
p80
F0.0081758635314099996
sS'GuessTheMovie'
p81
F0.0071046682694000003
sS'Nexus7'
p82
F0.0072873945022500003
sS'worldnews'
p83
F0.0238893174388
sS'vexillology'
p84
F0.011729265478800001
sS'disney'
p85
F0.0117434239791
sS'tattoos'
p86
F0.026705037752200001
sS'Economics'
p87
F0.016392219292599999
sS'ExposurePorn'
p88
F0.0080437092123199997
sS'needamod'
p89
F0.0074348107176199999
sS'LetsNotMeet'
p90
F0.0126903553299
sS'titanfall'
p91
F0.0111137601555
sS'malelivingspace'
p92
F0.0098459638409600005
sS'answers'
p93
F0.018283215564500001
sS'netsec'
p94
F0.0080155221222000007
sS'lgbt'
p95
F0.013497234846400001
sS'baseball'
p96
F0.019152144511600001
sS'Random_Acts_Of_Pizza'
p97
F0.0072354948805500004
sS'gentlemanboners'
p98
F0.047932950372000002
sS'doctorwho'
p99
F0.022989280657999999
sS'WritingPrompts'
p100
F0.013889839206300001
sS'sanfrancisco'
p101
F0.0088158500998300002
sS'ThriftStoreHauls'
p102
F0.0158925750395
sS'environment'
p103
F0.014526943133799999
sS'WarshipPorn'
p104
F0.0100482315113
sS'vegetarian'
p105
F0.00736870310825
sS'personalfinance'
p106
F0.0139039948264
sS'creepy'
p107
F0.032078196902999997
sS'pics'
p108
F0.018177938094799999
sS'cripplingalcoholism'
p109
F0.00796898556967
sS'howtonotgiveafuck'
p110
F0.0153903260807
sS'thewalkingdead'
p111
F0.026648450222199999
sS'IWantOut'
p112
F0.0075733057155800004
sS'vinyl'
p113
F0.0096277584481199996
sS'whatsthisbug'
p114
F0.021601489757900001
sS'Dexter'
p115
F0.0088912317694600004
sS'apple'
p116
F0.018186684339299999
sS'TrueReddit'
p117
F0.032797040350999999
sS'todayilearned'
p118
F0.022884876624699999
sS'Assistance'
p119
F0.0074132587956499997
sS'AmIFreeToGo'
p120
F0.0097208093138899995
sS'jailbreak'
p121
F0.0080565987751499996
sS'AntiJokes'
p122
F0.010348138401899999
sS'KingOfTheHill'
p123
F0.0084499603908100001
sS'IdiotsFightingThings'
p124
F0.0596477181745
sS'FinalFantasy'
p125
F0.0088844450792699998
sS'Health'
p126
F0.0101620674551
sS'Firearms'
p127
F0.0096090125911200003
sS'AskScienceFiction'
p128
F0.017120404153799999
sS'ContagiousLaughter'
p129
F0.0308380345503
sS'graphic_design'
p130
F0.0078426712613600003
sS'HIMYM'
p131
F0.017067494181500002
sS'FiftyFifty'
p132
F0.042466799530600001
sS'eldertrees'
p133
F0.010222222222199999
sS'AskHistorians'
p134
F0.022683048868599998
sS'Drugs'
p135
F0.0155236296003
sS'OutOfTheLoop'
p136
F0.039258559856900001
sS'stopsmoking'
p137
F0.0084078431372499995
sS'sports'
p138
F0.024026944332400001
sS'wheredidthesodago'
p139
F0.062711336003300006
sS'ifyoulikeblank'
p140
F0.0107069479411
sS'misleadingthumbnails'
p141
F0.035595603272000002
sS'trailerparkboys'
p142
F0.0133118590586
sS'eagles'
p143
F0.0077050962337699997
sS'battlefield_4'
p144
F0.016176950955800001
sS'Pareidolia'
p145
F0.041141923934500002
sS'GrandTheftAutoV'
p146
F0.0232983097305
sS'tipofmytongue'
p147
F0.0197065807132
sS'QuotesPorn'
p148
F0.041161365774299997
sS'Eve'
p149
F0.0085068749868399997
sS'cordcutters'
p150
F0.017666360414799999
sS'parrots'
p151
F0.00727300862703
sS'LifeProTips'
p152
F0.0330679768259
sS'TheGirlSurvivalGuide'
p153
F0.0094601257241500002
sS'PoliticalHumor'
p154
F0.015379048308299999
sS'UFOs'
p155
F0.0098853573144800002
sS'ghettoglamourshots'
p156
F0.019671305786300001
sS'popping'
p157
F0.0254987212276
sS'EDC'
p158
F0.0145949166005
sS'dwarffortress'
p159
F0.0088869418280799993
sS'showerbeer'
p160
F0.0133955184627
sS'techsupportgore'
p161
F0.036569133409600003
sS'science'
p162
F0.033648606259700002
sS'firstworldproblems'
p163
F0.034287333522200002
sS'Entrepreneur'
p164
F0.0092418859036300007
sS'standupshots'
p165
F0.049850542518899997
sS'legaladvice'
p166
F0.014994625582199999
sS'Meditation'
p167
F0.0086713528462799994
sS'MMA'
p168
F0.017039746011300001
sS'history'
p169
F0.019292320206499999
sS'Aquariums'
p170
F0.015083043090299999
sS'TalesFromThePizzaGuy'
p171
F0.0104254307349
sS'gamernews'
p172
F0.017174469490499999
sS'NewsOfTheStupid'
p173
F0.0149672951135
sS'audiophile'
p174
F0.0083218152499400008
sS'awesome'
p175
F0.020051959457000001
sS'DecidingToBeBetter'
p176
F0.010249654596299999
sS'Glitch_in_the_Matrix'
p177
F0.0142823348513
sS'gadgets'
p178
F0.022158108828200001
sS'buildapcsales'
p179
F0.011395811395799999
sS'learnprogramming'
p180
F0.012528751655399999
sS'Infographics'
p181
F0.011307344389400001
sS'TalesFromYourServer'
p182
F0.0140600315956
sS'counting'
p183
F0.0077204388459999997
sS'CampingandHiking'
p184
F0.013144533453699999
sS'SRSsucks'
p185
F0.0101824513589
sS'HouseOfCards'
p186
F0.0145125639832
sS'asmr'
p187
F0.014780209272500001
sS'techsupportmacgyver'
p188
F0.018998681586200002
sS'MURICA'
p189
F0.0467898965142
sS'technology'
p190
F0.029976240219599999
sS'travel'
p191
F0.017454305944299999
sS'RealGirls'
p192
F0.029942042209499999
sS'Hotchickswithtattoos'
p193
F0.0106750169021
sS'Jeep'
p194
F0.0085159636163800005
sS'scifi'
p195
F0.0235592066059
sS'RedditLaqueristas'
p196
F0.017126520484399999
sS'spaceporn'
p197
F0.033452209024700003
sS'nyc'
p198
F0.019621749409000001
sS'Pizza'
p199
F0.0143081546237
sS'photography'
p200
F0.0135409006941
sS'wallpapers'
p201
F0.031186200575
sS'BasicIncome'
p202
F0.0096835059987900006
sS'gaming'
p203
F0.021663035198700002
sS'hardbodies'
p204
F0.018472946812399998
sS'askscience'
p205
F0.0251372107205
sS'philosophy'
p206
F0.0101486802539
sS'budgetfood'
p207
F0.0119013884953
sS'Images'
p208
F0.0143197242654
sS'vegan'
p209
F0.0086082367854699998
sS'dragonage'
p210
F0.0088799895529499996
sS'dogpictures'
p211
F0.0245065105416
sS'law'
p212
F0.0070631589722599999
sS'GameDeals'
p213
F0.020492378519500001
sS'short'
p214
F0.0078994614003600003
sS'oculus'
p215
F0.0155677461716
sS'dating_advice'
p216
F0.0078847943930400004
sS'CFB'
p217
F0.013991429604000001
sS'eFreebies'
p218
F0.0081658291457300004
sS'FanTheories'
p219
F0.0216394866351
sS'listentothis'
p220
F0.0139918472701
sS'crafts'
p221
F0.0096204120045999993
sS'tall'
p222
F0.0192530985877
sS'ImGoingToHellForThis'
p223
F0.049476311553800001
sS'needadvice'
p224
F0.0095698006536899995
sS'shield'
p225
F0.0091575658199999996
sS'Hunting'
p226
F0.0082014853083600004
sS'DoesAnybodyElse'
p227
F0.027070887204599998
sS'pettyrevenge'
p228
F0.042639196766199997
sS'malehairadvice'
p229
F0.00962956778269
sS'CityPorn'
p230
F0.0201851526337
sS'electronic_cigarette'
p231
F0.0132200306515
sS'washingtondc'
p232
F0.0077362313501599996
sS'thatHappened'
p233
F0.0460096563476
sS'london'
p234
F0.0084466714387999992
sS'dataisbeautiful'
p235
F0.036409320406799998
sS'japan'
p236
F0.0099289113448100003
sS'islam'
p237
F0.0076689567023500004
sS'GlobalOffensive'
p238
F0.010542244640599999
sS'BabyBumps'
p239
F0.0071992771576000003
sS'beards'
p240
F0.025118004045899998
sS'gaybros'
p241
F0.011681125759999999
sS'smashbros'
p242
F0.0149011388892
sS'nostalgia'
p243
F0.038379339047500002
sS'Documentaries'
p244
F0.021247398041800002
sS'writing'
p245
F0.012638295261699999
sS'AndroidQuestions'
p246
F0.0130292284548
sS'TinyTits'
p247
F0.0071801566579599999
sS'Bioshock'
p248
F0.0091790395825999994
sS'WTF'
p249
F0.024557287913199999
sS'soccer'
p250
F0.020024868823800002
sS'wallpaper'
p251
F0.015966923257900001
sS'texas'
p252
F0.010079909811299999
sS'Gore'
p253
F0.017145787264000002
sS'MensRights'
p254
F0.0282857437378
sS'MilitaryPorn'
p255
F0.026939518882999999
sS'Frisson'
p256
F0.0170136352569
sS'electronicmusic'
p257
F0.0121086276889
sS'childfree'
p258
F0.027814541262899999
sS'food'
p259
F0.031261503814800001
sS'whitepeoplegifs'
p260
F0.036065687361399999
sS'unitedkingdom'
p261
F0.018557562634100001
sS'NoStupidQuestions'
p262
F0.027122327230999999
sS'chicago'
p263
F0.0124750613434
sS'halo'
p264
F0.0126405513239
sS'Braveryjerk'
p265
F0.0087244742456600004
sS'tightdresses'
p266
F0.0093787515006000001
sS'creepyPMs'
p267
F0.034169494437500003
sS'WatchItForThePlot'
p268
F0.03139735817
sS'nfl'
p269
F0.018412702636199998
sS'freebies'
p270
F0.0245188442805
sS'Watches'
p271
F0.0079693034238500007
sS'mashups'
p272
F0.0073685308122800001
sS'AdviceAnimals'
p273
F0.020708199277499999
sS'SubredditDrama'
p274
F0.041161326805499998
sS'arrow'
p275
F0.0099873089444400005
sS'minimalism'
p276
F0.021935924651699999
sS'mildlyinteresting'
p277
F0.036309983840399997
sS'TrueAtheism'
p278
F0.016912213407700001
sS'snakes'
p279
F0.0087499077014000001
sS'energy'
p280
F0.0072793448589599996
sS'TrollXChromosomes'
p281
F0.047709743215699998
sS'Rateme'
p282
F0.0131395802015
sS'books'
p283
F0.020164823803900001
sS'dubstep'
p284
F0.0074787419321800004
sS'TwoXChromosomes'
p285
F0.020311474843700002
sS'Cinemagraphs'
p286
F0.022724888997700001
sS'canada'
p287
F0.0250195710036
sS'DunderMifflin'
p288
F0.0163268934455
sS'psychology'
p289
F0.0152830844043
sS'space'
p290
F0.034224775761599997
sS'shittyfoodporn'
p291
F0.039958385528400003
sS'malefashionadvice'
p292
F0.0201460174562
sS'LearnUselessTalents'
p293
F0.029892491915
sS'BMW'
p294
F0.0076049056150099999
sS'RoomPorn'
p295
F0.037739912245300003
sS'randomsexiness'
p296
F0.0092762984940100001
sS'medicine'
p297
F0.0079210972414900001
sS'memes'
p298
F0.0164849773996
sS'tf2'
p299
F0.014208073282
sS'DarkSouls2'
p300
F0.0095773414117800004
sS'CatsStandingUp'
p301
F0.016935716344800001
sS'ass'
p302
F0.014970746816599999
sS'bestof'
p303
F0.041676691528300003
sS'Cyberpunk'
p304
F0.017415910615800001
sS'cars'
p305
F0.018296548572099999
sS'Metal'
p306
F0.012937611960099999
sS'LadyBoners'
p307
F0.027172874880599999
sS'corgi'
p308
F0.018074722315699999
sS'Roadcam'
p309
F0.019662047755600001
sS'GamePhysics'
p310
F0.036648895658800001
sS'youtubehaiku'
p311
F0.0309853997895
sS'dayz'
p312
F0.0131535069843
sS'Borderlands'
p313
F0.0093373413849100004
sS'recipes'
p314
F0.0135004821601
sS'headphones'
p315
F0.0096852300242099999
sS'programming'
p316
F0.016696535244900002
sS'Planetside'
p317
F0.0081517598659099997
sS'49ers'
p318
F0.0079674168326500008
sS'dogecoin'
p319
F0.017942486009599998
sS'snowboarding'
p320
F0.0076054324517499999
sS'whatstheword'
p321
F0.0089217435635999993
sS'classicalmusic'
p322
F0.0070510297783000003
sS'seinfeld'
p323
F0.010280771412400001
sS'gamingpc'
p324
F0.0076203208556100003
sS'nhl'
p325
F0.0087579617834400002
sS'misc'
p326
F0.0118800678861
sS'patientgamers'
p327
F0.018470511989600001
sS'AsiansGoneWild'
p328
F0.0071908110343899996
sS'rant'
p329
F0.0099462900338200006
sS'Buddhism'
p330
F0.0077811002861600002
sS'GreenBayPackers'
p331
F0.0080817184918100006
sS'thick'
p332
F0.00778783414018
sS'pokemon'
p333
F0.0197018948704
sS'TheLastAirbender'
p334
F0.0183225424787
sS'longboarding'
p335
F0.0080049089337000008
sS'OldSchoolCool'
p336
F0.0365235131332
sS'lego'
p337
F0.020425049053200001
sS'ANormalDayInRussia'
p338
F0.041996502940700002
sS'seduction'
p339
F0.0117067810578
sS'onetruegod'
p340
F0.016992323796199998
sS'TheFacebookDelusion'
p341
F0.0114029805811
sS'Autos'
p342
F0.0185161406302
sS'Seattle'
p343
F0.012104199416099999
sS'PenmanshipPorn'
p344
F0.028284437868100001
sS'shittyreactiongifs'
p345
F0.028791193282099999
sS'alternativeart'
p346
F0.013901378896899999
sS'shittyadvice'
p347
F0.013321099670400001
sS'MeanJokes'
p348
F0.0079514922663599993
sS'explainlikeimfive'
p349
F0.023019969129799998
sS'dogs'
p350
F0.0210014238253
sS'ObscureMedia'
p351
F0.0075361427253200003
sS'CombatFootage'
p352
F0.020298185737399999
sS'GTA'
p353
F0.0090457729715000008
sS'TrollYChromosome'
p354
F0.0319649379109
sS'collapse'
p355
F0.0071969554240899998
sS'GODZILLA'
p356
F0.0073573840412300001
sS'3DS'
p357
F0.0102566781597
sS'mildlyinfuriating'
p358
F0.065391215915600001
sS'madmen'
p359
F0.0085315832649699996
sS'nsfw_gifs'
p360
F0.0160662860607
sS'Awwducational'
p361
F0.049062279971800002
sS'skyrim'
p362
F0.0299166385333
sS'sex'
p363
F0.021156070164699999
sS'toronto'
p364
F0.012974747588300001
sS'Battlefield'
p365
F0.0075151367633199996
sS'television'
p366
F0.0261465787262
sS'DCcomics'
p367
F0.011637408774500001
sS'worldpolitics'
p368
F0.0259805649262
sS'TheRedPill'
p369
F0.013863295478900001
sS'PerfectTiming'
p370
F0.064061394437500002
sS'sweden'
p371
F0.0101220752798
sS'knives'
p372
F0.0097858138103100005
sS'Supernatural'
p373
F0.010114913095000001
sS'AskMen'
p374
F0.0242289268812
sS'KerbalSpaceProgram'
p375
F0.018217281799799999
sS'torrents'
p376
F0.0087167070217899992
sS'Boobies'
p377
F0.012122726988700001
sS'gallifrey'
p378
F0.0099883369718000003
sS'formula1'
p379
F0.0138826975737
sS'FoodPorn'
p380
F0.039734532952499999
sS'boston'
p381
F0.0100365945539
sS'teenagers'
p382
F0.021682237921500001
sS'ginger'
p383
F0.0079806706691999997
sS'sysadmin'
p384
F0.0131700226886
sS'conspiracy'
p385
F0.035747046952399997
sS'Naruto'
p386
F0.0100545442597
sS'AnythingGoesNews'
p387
F0.0071562646644800004
sS'HighQualityGifs'
p388
F0.032452160189400003
sS'self'
p389
F0.026824496184700002
sS'IAmA'
p390
F0.0177977752057
sS'Parenting'
p391
F0.011948984645899999
sS'DaftPunk'
p392
F0.0080279594449600006
sS'depression'
p393
F0.012263967296099999
sS'britishproblems'
p394
F0.0202958376333
sS'UnresolvedMysteries'
p395
F0.0122927290534
sS'conspiratard'
p396
F0.024383263694099998
sS'FutureWhatIf'
p397
F0.0074254598073199996
sS'firefly'
p398
F0.0192492185808
sS'paydaytheheist'
p399
F0.0077943964609200004
sS'MovieSuggestions'
p400
F0.0075699965433799997
sS'aww'
p401
F0.030380064651800001
sS'teslamotors'
p402
F0.0092496325242899993
sS'Futurology'
p403
F0.031889116130199999
sS'sewing'
p404
F0.00724914154903
sS'Games'
p405
F0.026877844683800001
sS'mylittlepony'
p406
F0.0092857738608199993
sS'progresspics'
p407
F0.030593014107200001
sS'crochet'
p408
F0.0078820322506499996
sS'hearthstone'
p409
F0.0096495055863400001
sS'Minecraft'
p410
F0.021129710923700001
sS'chemistry'
p411
F0.0084358966287899993
sS'windows'
p412
F0.0098656126482199995
sS'newjersey'
p413
F0.0077256887369300002
sS'cableporn'
p414
F0.013146834336399999
sS'investing'
p415
F0.011674241282
sS'TumblrInAction'
p416
F0.041427177095800002
sS'secretsanta'
p417
F0.014881406969399999
sS'Fishing'
p418
F0.013358080935899999
sS'Borderlands2'
p419
F0.0078940901830699996
sS'GifSound'
p420
F0.012193584977
sS'vaporents'
p421
F0.0084950757357599993
sS'Heavymind'
p422
F0.0162962962963
sS'Psychonaut'
p423
F0.011402116402099999
sS'redheads'
p424
F0.0072827258202400004
sS'adventuretime'
p425
F0.0216633411538
sS'LucidDreaming'
p426
F0.010999713549099999
sS'fffffffuuuuuuuuuuuu'
p427
F0.041038187035500003
sS'PoliticalDiscussion'
p428
F0.0123996221068
sS'dbz'
p429
F0.0124643339841
sS'bodybuilding'
p430
F0.012597571552500001
sS'Foodforthought'
p431
F0.018370370370399999
sS'help'
p432
F0.0080354569040100004
sS'Amateur'
p433
F0.011565077258499999
sS'TheoryOfReddit'
p434
F0.012565794351
sS'TheBluePill'
p435
F0.0116282900155
sS'harrypotter'
p436
F0.0270773330198
sS'wicked_edge'
p437
F0.0130585316649
sS'booksuggestions'
p438
F0.0096468417079099995
sS'shittybattlestations'
p439
F0.0119484632549
sS'whowouldwin'
p440
F0.021985267798299998
sS'hockey'
p441
F0.019795105293099999
sS'gamedev'
p442
F0.0086579156551399999
sS'CCW'
p443
F0.0086040837292900001
sS'MetalMemes'
p444
F0.0080135274224400008
sS'ipad'
p445
F0.0083291425697800004
sS'Anxiety'
p446
F0.011079580505899999
sS'arresteddevelopment'
p447
F0.019718218201899999
sS'shutupandtakemymoney'
p448
F0.029726012906
sS'Random_Acts_Of_Amazon'
p449
F0.0097363212666800002
sS'CrusaderKings'
p450
F0.0075049731749999996
sS'JusticePorn'
p451
F0.0559735214375
sS'trees'
p452
F0.022633856476999999
sS'diablo3'
p453
F0.0083480948253099995
sS'geek'
p454
F0.0368817556502
sS'lostgeneration'
p455
F0.0077569029319699999
sS'Fitness'
p456
F0.018177381276699999
sS'elderscrollsonline'
p457
F0.0097786927431800005
sS'spicy'
p458
F0.00737017159271
sS'Conservative'
p459
F0.015374024782
sS'PrettyGirlsUglyFaces'
p460
F0.016992682240400001
sS'AbandonedPorn'
p461
F0.041226883175500002
sS'Rabbits'
p462
F0.010018964468499999
sS'motorcycles'
p463
F0.021251721597599998
sS'progressive'
p464
F0.0084033613445400005
sS'dadjokes'
p465
F0.0361678881959
sS'progun'
p466
F0.0073030583874000004
sS'Marijuana'
p467
F0.0077203668945000003
sS'guns'
p468
F0.022360710003200002
sS'WeAreTheMusicMakers'
p469
F0.011026761101
sS'privacy'
p470
F0.0092308740377400004
sS'futurama'
p471
F0.029188094977599999
sS'ClashOfClans'
p472
F0.0086975242195900006
sS'nsfw'
p473
F0.0306347119482
sS'cringe'
p474
F0.038577253473700002
sS'StarWars'
p475
F0.033229976355299999
sS'rpg'
p476
F0.010050865694999999
sS'RATS'
p477
F0.0076467214681699997
sS'AskWomen'
p478
F0.022769742598199999
sS'TheSimpsons'
p479
F0.0260552371027
sS'Christianity'
p480
F0.013585909195999999
sS'see'
p481
F0.014000848536300001
sS'glitch_art'
p482
F0.010725322668600001
sS'changemyview'
p483
F0.025705750560100001
sS'roosterteeth'
p484
F0.0112662529551
sS'skateboarding'
p485
F0.0098238482384799992
sS'PS3'
p486
F0.0120585254295
sS'Android'
p487
F0.024949665119
sS'KarmaCourt'
p488
F0.0087233290109600004
sS'PS4'
p489
F0.0139305445935
sS'firstworldanarchists'
p490
F0.058541394149699999
sS'nononono'
p491
F0.058935775815099997
sS'cosplay'
p492
F0.019123644683199999
sS'truegaming'
p493
F0.022609392209899999
sS'camping'
p494
F0.0087294211364800003
sS'lotr'
p495
F0.0191801748281
sS'AmericanHorrorStory'
p496
F0.0092669305593899992
sS'wikipedia'
p497
F0.016798880074699998
sS'breakingbad'
p498
F0.032211443278599997
sS'outside'
p499
F0.031845285209199999
sS'AskCulinary'
p500
F0.0125610807703
sS'foodhacks'
p501
F0.019847533331099999
sS'catpictures'
p502
F0.017356426618
sS'pcmasterrace'
p503
F0.0255615971879
sS'magicTCG'
p504
F0.0104796567204
sS'CollegeBasketball'
p505
F0.010411961333499999
sS'europe'
p506
F0.021539367759700001
sS'StandUpComedy'
p507
F0.010924539753199999
sS'jobs'
p508
F0.011706555671200001
sS'battlefield3'
p509
F0.0078338806787099993
sS'tonightsdinner'
p510
F0.0070057992449299999
sS'casualiama'
p511
F0.026238580585999999
sS'facepalm'
p512
F0.062041947605499997
sS'celebnsfw'
p513
F0.015934706568200001
sS'NASCAR'
p514
F0.0071109109044700004
sS'bigboobproblems'
p515
F0.0074850299401199999
sS'AnimalCrossing'
p516
F0.0082803277749099995
sS'news'
p517
F0.025082257589100002
sS'gamingsuggestions'
p518
F0.0089686098654700001
sS'Unexpected'
p519
F0.077799943003699995
sS'RedditDayOf'
p520
F0.0131339591065
sS'fitmeals'
p521
F0.010140562249
sS'relationship_advice'
p522
F0.0125405961606
sS'lookatmydog'
p523
F0.0109033059134
sS'nosleep'
p524
F0.0116265644483
sS'itookapicture'
p525
F0.027664787459300001
sS'Sherlock'
p526
F0.0134388489209
sS'GunPorn'
p527
F0.0104210379074
sS'Cartalk'
p528
F0.0072624772011299996
sS'GetMotivated'
p529
F0.032089882665500002
sS'buildapc'
p530
F0.013658179001700001
sS'drunk'
p531
F0.0307591765603
sS'xxfitness'
p532
F0.00780397293167
sS'reactiongifs'
p533
F0.060413896559999999
sS'community'
p534
F0.024925287721799999
sS'NotTimAndEric'
p535
F0.016971110247400001
sS'ShingekiNoKyojin'
p536
F0.0077070684828100004
sS'Music'
p537
F0.018484969771
sS'startrek'
p538
F0.019232663514599999
sS'EarthPorn'
p539
F0.031391641533800002
sS'linux'
p540
F0.0129593142532
sS'femalefashionadvice'
p541
F0.0095161993316899996
sS'3Dprinting'
p542
F0.0070512006098300004
sS'ainbow'
p543
F0.0097689146398999994
sS'StonerEngineering'
p544
F0.0099037828689599993
sS'chrome'
p545
F0.0102931085188
sS'Homebrewing'
p546
F0.0119014084507
sS'Guitar'
p547
F0.011633744784700001
sS'beer'
p548
F0.0163388804841
sS'California'
p549
F0.0075316185874700001
sS'ireland'
p550
F0.0094625708990799997
sS'ketorecipes'
p551
F0.0104712041885
sS'HomeImprovement'
p552
F0.00765033984577
sS'web_design'
p553
F0.0109177755032
sS'confessions'
p554
F0.0080721914766100009
sS'Diablo'
p555
F0.0106746499743
sS'fatlogic'
p556
F0.036014221197300002
sS'hiphopheads'
p557
F0.014970895668999999
sS'MakeupAddiction'
p558
F0.0199107608507
sS'androidapps'
p559
F0.0113813821762
sS'marvelstudios'
p560
F0.0085051546391799997
sS'somethingimade'
p561
F0.024681856911199999
sS'TopGear'
p562
F0.0252300385871
sS'MapPorn'
p563
F0.040564269798900002
sS'aviation'
p564
F0.013566098081000001
sS'darksouls'
p565
F0.0120867329379
sS'sandiego'
p566
F0.0072090955284600002
sS'Chromecast'
p567
F0.010410171605200001
sS'Perfectfit'
p568
F0.026769635683599999
sS'offbeat'
p569
F0.044110419397099997
sS'softwaregore'
p570
F0.016175961205400002
sS'socialism'
p571
F0.0103883801705
sS'DotA2'
p572
F0.0093831391363900004
sS'OnOff'
p573
F0.014311270125200001
sS'ICanDrawThat'
p574
F0.0090506838294399997
sS'windowsphone'
p575
F0.0074390243902399998
sS'Cooking'
p576
F0.024208792161600001
sS'IASIP'
p577
F0.0208395355761
sS'hardware'
p578
F0.010299334121599999
sS'gamecollecting'
p579
F0.0083656458950299994
sS'exmormon'
p580
F0.0081852961238499996
sS'DIY'
p581
F0.028582284164899999
sS'politics'
p582
F0.032303386509900001
sS'assassinscreed'
p583
F0.0093991186734300007
sS'ShitRedditSays'
p584
F0.0091877010846100008
sS'shorthairedhotties'
p585
F0.0127529210601
sS'southpark'
p586
F0.031950545717999997
sS'starcraft'
p587
F0.011731418359900001
sS'funny'
p588
F0.0166751555881
sS'astrophotography'
p589
F0.0098025030745899997
sS'deadpool'
p590
F0.0072601490041100001
sS'IndieGaming'
p591
F0.0091959374909099997
sS'pitbulls'
p592
F0.012140240711699999
sS'daddit'
p593
F0.0108540594182
sS'watchpeopledie'
p594
F0.030316742081399999
sS'Whatcouldgowrong'
p595
F0.076652826573000002
sS'fifthworldproblems'
p596
F0.0092218806710899996
sS'talesfromtechsupport'
p597
F0.030203918165699999
sS'notinteresting'
p598
F0.037110684640099999
sS'girlsinyogapants'
p599
F0.014596825609899999
sS'running'
p600
F0.013802557698399999
sS'playrust'
p601
F0.0079019001559200008
sS'Physics'
p602
F0.010369178510799999
sS'thesims'
p603
F0.0097508125677099999
sS'TrueFilm'
p604
F0.0072321279786699997
sS'HumanPorn'
p605
F0.035053796974899999
sS'Fantasy'
p606
F0.0120801837145
sS'anime'
p607
F0.0147727968332
sS'Graffiti'
p608
F0.0080636212317400004
sS'Portland'
p609
F0.010866011016900001
sS'AskEngineers'
p610
F0.00793479267653
sS'drawing'
p611
F0.010362232779100001
sS'EmmaWatson'
p612
F0.017032831399700001
sS'Sonsofanarchy'
p613
F0.0083683290929700005
sS'FancyFollicles'
p614
F0.0185269436862
sS'awwwtf'
p615
F0.038796970893299997
sS'DestinyTheGame'
p616
F0.0086217581259899999
sS'Terraria'
p617
F0.0078129391265200007
sS'Piracy'
p618
F0.0075998144646200003
sS'circlebroke'
p619
F0.013125186437300001
sS'PublicFreakout'
p620
F0.031195335277
sS'ArtisanVideos'
p621
F0.018729665562600001
sS'Bitcoin'
p622
F0.016586178536000001
sS'rickandmorty'
p623
F0.019252317408599999
sS'quotes'
p624
F0.0107768910716
sS'woodworking'
p625
F0.017962564642400002
sS'perfectloops'
p626
F0.035062254048099997
sS'Pets'
p627
F0.014497822147300001
sS'InternetIsBeautiful'
p628
F0.0309957524798
sS'carporn'
p629
F0.026123377881100002
sS'TalesFromRetail'
p630
F0.0319602522992
sS'WouldYouRather'
p631
F0.011945671739499999
sS'quityourbullshit'
p632
F0.052831374824700003
sS'Advice'
p633
F0.0093532736457799994
sS'audioengineering'
p634
F0.0082573183091899996
sS'ProtectAndServe'
p635
F0.017346473738199999
sS'woahdude'
p636
F0.055539765998799999
sS'Fallout'
p637
F0.024195191524000001
sS'mycology'
p638
F0.0084430188401
sS'Seahawks'
p639
F0.011363338144599999
sS'offmychest'
p640
F0.026090568264999999
sS'australia'
p641
F0.0228894117647
sS'slowcooking'
p642
F0.0201006422197
sS'cumsluts'
p643
F0.0078625599752399997
sS'DenverBroncos'
p644
F0.0077977776333700002
sS'linguistics'
p645
F0.00894900433788
sS'NSFW_GIF'
p646
F0.026427595500600001
sS'howto'
p647
F0.018834756403800001
sS'cringepics'
p648
F0.047296835061199999
sS'toosoon'
p649
F0.022323904603399999
sS'bodyweightfitness'
p650
F0.0107611254344
sS'RandomActsOfGaming'
p651
F0.011988396863500001
sS'gifs'
p652
F0.0312847746201
sS'Art'
p653
F0.023197720560499999
sS'ConfusedBoners'
p654
F0.016663113763899999
sS'Paranormal'
p655
F0.010663648278300001
sS'4chan'
p656
F0.0457023670935
sS'montageparodies'
p657
F0.0152180391378
sS'zombies'
p658
F0.011673151751
sS'ArcherFX'
p659
F0.0272212835573
sS'gonewildcurvy'
p660
F0.0079430084382599991
sS'getdisciplined'
p661
F0.010240876965199999
sS'google'
p662
F0.012546256399900001
sS'gardening'
p663
F0.0200507921151
sS'whatisthisthing'
p664
F0.039052615597400003
sS'MechanicalKeyboards'
p665
F0.0129903101595
sS'NetflixBestOf'
p666
F0.030788769796199999
sS'ShouldIbuythisgame'
p667
F0.011062187432099999
sS'tumblr'
p668
F0.0405276089487
sS'interestingasfuck'
p669
F0.063354122404200006
sS'MarkMyWords'
p670
F0.0094245849132999996
sS'PropagandaPosters'
p671
F0.0147194766408
sS'raspberry_pi'
p672
F0.0073613180264700002
sS'wow'
p673
F0.013883099810799999
sS'Coffee'
p674
F0.010821084642700001
sS'gameofthrones'
p675
F0.032626001192000001
sS'humor'
p676
F0.0259382394345
sS'AMA'
p677
F0.016206849018299999
sS'Justrolledintotheshop'
p678
F0.036263694316099999
sS'SkincareAddiction'
p679
F0.017229002153600001
sS'ExpectationVsReality'
p680
F0.034968210717500003
sS'nonononoyes'
p681
F0.072200437716599994
sS'lifehacks'
p682
F0.0503960175856
sS'SCP'
p683
F0.00745650372825
sS'Enhancement'
p684
F0.0173246236865
sS'starbound'
p685
F0.010799190693
sS'biology'
p686
F0.0100655585723
sS'ProgrammerHumor'
p687
F0.020081623827699999
sS'business'
p688
F0.013541174618199999
sS'FloridaMan'
p689
F0.037325640186799999
sS'delusionalartists'
p690
F0.030268468152299999
sS'OkCupid'
p691
F0.018610914489899998
sS'Frugal'
p692
F0.0307205011363
sS'promos'
p693
F0.024136432506100002
sS'SuggestALaptop'
p694
F0.0071154747786799999
sS'shittyaskscience'
p695
F0.037249601955000003
sS'whatsthisplant'
p696
F0.0092199282162700007
sS'lewronggeneration'
p697
F0.023905572986699999
sS'worldbuilding'
p698
F0.0097294010337499997
sS'calvinandhobbes'
p699
F0.020603257868600001
sS'netflix'
p700
F0.016472577522000001
sS'bayarea'
p701
F0.0080087368037900005
sS'masseffect'
p702
F0.015082232271400001
sS'sixwordstories'
p703
F0.0081814376498300003
sS'AnimalsBeingBros'
p704
F0.097113032131800003
sS'classic4chan'
p705
F0.023541982627899999
sS'Cynicalbrit'
p706
F0.0119464330074
sS'battlestations'
p707
F0.021710547413700002
sS'NSFWFunny'
p708
F0.017143633092299999
sS'amiugly'
p709
F0.0132008231692
sS'asoiaf'
p710
F0.019159113131300001
sS'ShitAmericansSay'
p711
F0.0085831998168899998
sS'Dallas'
p712
F0.0077482455304700004
sS'applehelp'
p713
F0.0078986199114699993
sS'Gaming4Gamers'
p714
F0.0096826954530600008
sS'Scotland'
p715
F0.0086747759283000003
sS'subaru'
p716
F0.0114125916408
sS'Sneakers'
p717
F0.0077087467562199996
sS'marijuanaenthusiasts'
p718
F0.0123197000421
sS'ADHD'
p719
F0.0091511786038099997
sS'confession'
p720
F0.021502466643100002
sS'tifu'
p721
F0.029861598509400001
sS'badhistory'
p722
F0.0131964809384
sS'Damnthatsinteresting'
p723
F0.050729779039099997
sS'DnD'
p724
F0.0126110633419
sS'loseit'
p725
F0.018472645983699999
sS'CrazyIdeas'
p726
F0.043780143023399998
sS'networking'
p727
F0.0072747787873399996
sS'TinyHouses'
p728
F0.010704979223900001
sS'Bad_Cop_No_Donut'
p729
F0.032589615081299997
sS'SquaredCircle'
p730
F0.012103374725099999
sS'gopro'
p731
F0.0077070121673699999
sS'MorbidReality'
p732
F0.042193354108999999
sS'gif'
p733
F0.039917226487499999
sS'cats'
p734
F0.054294635083600003
sS'introvert'
p735
F0.0119922501336
sS'raisedbynarcissists'
p736
F0.016344124646400001
sS'asstastic'
p737
F0.0087823620894699993
sS'happy'
p738
F0.0223885453954
sS'cablefail'
p739
F0.0084604983581199993
sS'explainlikeIAmA'
p740
F0.016429353778800001
sS'firstimpression'
p741
F0.0109724405659
sS'batman'
p742
F0.026376487245699999
sS'gamegrumps'
p743
F0.0103130755064
sS'WebGames'
p744
F0.0108688359611
sS'snackexchange'
p745
F0.0084408403980799993
sS'beerporn'
p746
F0.0077721060431400002
sS'rule34'
p747
F0.0114413243686
sS'xbox360'
p748
F0.0094137273593900006
sS'NoFap'
p749
F0.0085175614891399992
sS'Austin'
p750
F0.0097775543546600001
sS'blunderyears'
p751
F0.035770031217499998
sS'Marvel'
p752
F0.019552212545099999
sS'webcomics'
p753
F0.0130813428251
sS'rage'
p754
F0.050625681499599999
sS'comics'
p755
F0.050930986567900002
sS'behindthegifs'
p756
F0.057957707289899997
sS'civ'
p757
F0.017440523569499999
sS'findareddit'
p758
F0.0149037065712
sS'BustyPetite'
p759
F0.0184317221152
sS'fullmoviesonyoutube'
p760
F0.026844922634400002
sS'iphone'
p761
F0.017688812715200002
sS'videos'
p762
F0.020279392839100002
sS'keto'
p763
F0.017073835255699998
sS'TrueAskReddit'
p764
F0.0157738966403
sS'engineering'
p765
F0.010845018644000001
sS'webdev'
p766
F0.0098788821977099997
sS'xboxone'
p767
F0.012431823419500001
sS'Dogtraining'
p768
F0.010021133001599999
sS'bestofworldstar'
p769
F0.0157119587349
sS'DAE'
p770
F0.0071317138399800001
sS'ForeverAlone'
p771
F0.0121144376303
sS'eatsandwiches'
p772
F0.013362949163500001
sS'bicycling'
p773
F0.021202678987100002
sS'Survival'
p774
F0.00969109630527
sS'shittyama'
p775
F0.0099878526116899992
sS'AskSocialScience'
p776
F0.0082322357019099998
sS'zelda'
p777
F0.017245010178500001
sS'ImaginaryLandscapes'
p778
F0.0140685522181
sS'TheWayWeWere'
p779
F0.015694490388500001
sS'LosAngeles'
p780
F0.0146614493041
sS'badtattoos'
p781
F0.0210699588477
sS'Feminism'
p782
F0.0094815869522999995
sS'nottheonion'
p783
F0.042097741560300002
sS'Frugal_Jerk'
p784
F0.0141495041953
sS'Baking'
p785
F0.011733739257300001
sS'SuicideWatch'
p786
F0.0091505261552499995
sS'GTAV'
p787
F0.0111415427979
sS'bigdickproblems'
p788
F0.010295105029300001
sS'nintendo'
p789
F0.0105741190089
sS'comicbooks'
p790
F0.021268884480399999
sS'ftlgame'
p791
F0.0087372985567299999
sS'HailCorporate'
p792
F0.0179801598236
sS'oddlysatisfying'
p793
F0.065729450581000007
sS'GirlGamers'
p794
F0.011108016956
sS'cosplaygirls'
p795
F0.026259494652
sS'entertainment'
p796
F0.016860698514700002
sS'youtube'
p797
F0.0085197690196000004
sS'curvy'
p798
F0.0085262292836599998
sS'terriblefacebookmemes'
p799
F0.0155489406409
sS'PrettyGirls'
p800
F0.022907375918399999
sS'urbanexploration'
p801
F0.014391156347899999
sS'gainit'
p802
F0.0081552951987099997
s.