(dp1
S'ICanDrawThat'
p2
F0.0089788588686600009
sS'fullmoviesonyoutube'
p3
F0.0084294157542899994
sS'Heavymind'
p4
F0.0086738002594000004
sS'Design'
p5
F0.016231053825000001
sS'photoshop'
p6
F0.012728001603499999
sS'Cinema4D'
p7
F0.0235539176414
sS'TheSimpsons'
p8
F0.0071209159452699997
sS'Filmmakers'
p9
F0.0206686930091
sS'redditgetsdrawn'
p10
F0.0073737573243800002
sS'rickandmorty'
p11
F0.0100172241864
sS'futurama'
p12
F0.0078572514827399999
sS'perfectloops'
p13
F0.0093563137530799992
sS'IndieGaming'
p14
F0.011103151862500001
sS'gamernews'
p15
F0.0072334626271099997
sS'videography'
p16
F0.011134552273800001
sS'3Dprinting'
p17
F0.0072124053371799999
sS'Cinemagraphs'
p18
F0.0084092501751899997
sS'blender'
p19
F0.019366771841999999
sS'freelance'
p20
F0.0091959736547800007
sS'editors'
p21
F0.0128659577261
sS'ImaginaryLandscapes'
p22
F0.0099889012208700008
sS'writing'
p23
F0.0070674737742799998
sS'Screenwriting'
p24
F0.014255167498199999
sS'gamedev'
p25
F0.011111880365499999
sS'scifi'
p26
F0.0083045442466100003
sS'alternativeart'
p27
F0.011616545434800001
sS'ImaginaryMonsters'
p28
F0.0116300535352
sS'AfterEffects'
p29
F0.0413524057217
sS'web_design'
p30
F0.0070520797978700003
sS'graphic_design'
p31
F0.016773464003000001
sS'Pareidolia'
p32
F0.0072553761683800001
sS'adventuretime'
p33
F0.0107896027464
sS'disney'
p34
F0.0093688362919099998
sS'ObscureMedia'
p35
F0.0099045346062100002
sS'ArtisanVideos'
p36
F0.0071026931044699997
sS'glitch_art'
p37
F0.0119718309859
sS'gamedesign'
p38
F0.0071205496564600004
sS'design_critiques'
p39
F0.0084882058613300008
sS'PixelArt'
p40
F0.0161237607583
sS'gamegrumps'
p41
F0.0078844543678499995
sS'delusionalartists'
p42
F0.0095249090804099996
sS'NotTimAndEric'
p43
F0.0078955135773299996
sS'JonTron'
p44
F0.0071774794929199996
sS'comicbooks'
p45
F0.0083943661971800001
sS'VideoEditing'
p46
F0.011648429227
sS'webcomics'
p47
F0.0142871218839
sS'IWantToLearn'
p48
F0.0072999620781200002
sS'youtubehaiku'
p49
F0.0073399232811999999
sS'Art'
p50
F0.0095814338997099995
sS'Unity3D'
p51
F0.0100818612667
sS'IDAP'
p52
F0.015420106847999999
sS'comics'
p53
F0.011520797114600001
sS'TrueFilm'
p54
F0.0094629569718499996
sS'SketchDaily'
p55
F0.0105211646685
sS'typography'
p56
F0.011595547309799999
sS'DeepIntoYouTube'
p57
F0.0088422216081800002
sS'CrappyDesign'
p58
F0.0080094035317899992
sS'WeAreTheMusicMakers'
p59
F0.0073692711488000003
sS'behindthegifs'
p60
F0.0071006504791699997
sS'Graffiti'
p61
F0.0078406442042799999
sS'Cyberpunk'
p62
F0.0087125448872699997
sS'vfx'
p63
F0.036782951394000001
sS'learnart'
p64
F0.0175394637935
sS'drawing'
p65
F0.0178091607824
s.