(dp1
S'grandrapids'
p2
F0.0093930635838199994
sS'detroitlions'
p3
F0.0115599593496
sS'Michigan'
p4
F0.060513532269300001
sS'Detroit'
p5
F0.035342717258300002
sS'DetroitRedWings'
p6
F0.013578756789399999
s.