(dp1
S'awwwtf'
p2
F0.0122891770489
sS'Heavymind'
p3
F0.0091855480710299996
sS'MapPorn'
p4
F0.0079478680126600001
sS'DoesAnybodyElse'
p5
F0.012269020722700001
sS'pettyrevenge'
p6
F0.0115272834144
sS'PublicFreakout'
p7
F0.0081918173869000004
sS'skyrim'
p8
F0.0087246475339500008
sS'LucidDreaming'
p9
F0.0082116285478100008
sS'fffffffuuuuuuuuuuuu'
p10
F0.0091240410836699991
sS'uglyduckling'
p11
F0.0070928604759699998
sS'rickandmorty'
p12
F0.00787953073017
sS'quotes'
p13
F0.0108782594785
sS'SampleSize'
p14
F0.0077759263667400002
sS'perfectloops'
p15
F0.0180824505769
sS'everymanshouldknow'
p16
F0.0097859538711600001
sS'dataisbeautiful'
p17
F0.0080274737068000007
sS'InternetIsBeautiful'
p18
F0.010924626182499999
sS'RandomActsOfGaming'
p19
F0.0080924434075699998
sS'breakingbad'
p20
F0.010264519838999999
sS'TalesFromRetail'
p21
F0.0087842756612500003
sS'TheoryOfReddit'
p22
F0.0088988851945999998
sS'TheBluePill'
p23
F0.0072735287634999998
sS'WouldYouRather'
p24
F0.0156135998833
sS'quityourbullshit'
p25
F0.0167394468705
sS'LearnUselessTalents'
p26
F0.014149118443599999
sS'Showerthoughts'
p27
F0.0095119118066100006
sS'HistoryPorn'
p28
F0.00718565427834
sS'shittybattlestations'
p29
F0.0077955039884000004
sS'whowouldwin'
p30
F0.0121739130435
sS'woahdude'
p31
F0.0097338547795400004
sS'Fallout'
p32
F0.0076291489312200001
sS'ImaginaryMonsters'
p33
F0.0079248858644200004
sS'wallpaper'
p34
F0.00838798230898
sS'MensRights'
p35
F0.0071067544800100003
sS'AlienBlue'
p36
F0.0089502251992100001
sS'Frisson'
p37
F0.010278188084699999
sS'arresteddevelopment'
p38
F0.0078723553806099994
sS'shutupandtakemymoney'
p39
F0.0088300220750599998
sS'linguistics'
p40
F0.0080392314494700003
sS'misc'
p41
F0.0089294878374199995
sS'whitepeoplegifs'
p42
F0.011918764212300001
sS'JusticePorn'
p43
F0.0075528492329800002
sS'UpliftingNews'
p44
F0.0073659697261200001
sS'AbandonedPorn'
p45
F0.0075302245250399996
sS'PandR'
p46
F0.0072748721981899999
sS'patientgamers'
p47
F0.0085195462733100007
sS'Jokes'
p48
F0.0203590616685
sS'DebateAnAtheist'
p49
F0.0070253103647400002
sS'gmod'
p50
F0.0072030277133399998
sS'NoStupidQuestions'
p51
F0.0158973729438
sS'3amjokes'
p52
F0.039992041384800003
sS'toosoon'
p53
F0.017512421601399999
sS'magicskyfairy'
p54
F0.011120940224900001
sS'PrettyGirlsUglyFaces'
p55
F0.00736040609137
sS'Braveryjerk'
p56
F0.010556621881000001
sS'photoshopbattles'
p57
F0.0123197517323
sS'IWantToLearn'
p58
F0.0087614678899100001
sS'Sherlock'
p59
F0.0076889036397800002
sS'grammar'
p60
F0.0074341314092100002
sS'creepyPMs'
p61
F0.0098871887966799996
sS'IdiotsFightingThings'
p62
F0.012149750029099999
sS'WatchItForThePlot'
p63
F0.0073553810419199998
sS'techsupportgore'
p64
F0.0098816415323900002
sS'freebies'
p65
F0.0075380730083399999
sS'nononono'
p66
F0.012185516378600001
sS'vexillology'
p67
F0.0120866907474
sS'NewsOfTheWeird'
p68
F0.0085340191723200006
sS'shittyadviceanimals'
p69
F0.0129852189529
sS'futurama'
p70
F0.011724882260600001
sS'dadjokes'
p71
F0.027004644798899999
sS'montageparodies'
p72
F0.011298932384299999
sS'minimalism'
p73
F0.0079397229198699994
sS'DeepIntoYouTube'
p74
F0.0163180140174
sS'ArcherFX'
p75
F0.0079492760480699993
sS'cringe'
p76
F0.0085901391166700002
sS'talesfromtechsupport'
p77
F0.0082942661377599994
sS'mildlyinteresting'
p78
F0.0074618481754900002
sS'TrueAtheism'
p79
F0.0075023794860300001
sS'whatisthisthing'
p80
F0.0087999095125000006
sS'glitch_art'
p81
F0.0090628795664799994
sS'NetflixBestOf'
p82
F0.0076329567373900004
sS'TheSimpsons'
p83
F0.0082443573455900001
sS'polandball'
p84
F0.0092927047636699994
sS'tumblr'
p85
F0.010614233513100001
sS'interestingasfuck'
p86
F0.0118089193252
sS'StandUpComedy'
p87
F0.0079975153350399994
sS'changemyview'
p88
F0.010008014230100001
sS'fatpeoplestories'
p89
F0.0073779795686699998
sS'KarmaCourt'
p90
F0.0077870757787100002
sS'tifu'
p91
F0.0081151324303299997
sS'Cinemagraphs'
p92
F0.0097239390193699995
sS'notinteresting'
p93
F0.026951295948100001
sS'firstworldanarchists'
p94
F0.019718531743900002
sS'offbeat'
p95
F0.0084866468842699997
sS'no_sob_story'
p96
F0.0123130151623
sS'humor'
p97
F0.0136897767333
sS'truegaming'
p98
F0.0078404686529200008
sS'Glitch_in_the_Matrix'
p99
F0.0105134045909
sS'skeptic'
p100
F0.0073580452589199997
sS'shittyfoodporn'
p101
F0.010298531037800001
sS'wikipedia'
p102
F0.0077600358155500001
sS'ExpectationVsReality'
p103
F0.0122232785549
sS'socialskills'
p104
F0.0085098335854799992
sS'firstworldproblems'
p105
F0.012685914260699999
sS'outside'
p106
F0.019317657906900002
sS'GuessTheMovie'
p107
F0.0075564457392599997
sS'facepalm'
p108
F0.012547436415
sS'lifehacks'
p109
F0.0100313907466
sS'memes'
p110
F0.0079394524003900003
sS'SCP'
p111
F0.0091059602648999993
sS'CatsStandingUp'
p112
F0.0087191011236
sS'Enhancement'
p113
F0.0077814283243999999
sS'blackpeoplegifs'
p114
F0.0092940916131899996
sS'bestof'
p115
F0.0072393627747500003
sS'ProgrammerHumor'
p116
F0.0081166464155500006
sS'needamod'
p117
F0.0088568298027800006
sS'casualiama'
p118
F0.011647373107700001
sS'FloridaMan'
p119
F0.0128604611637
sS'delusionalartists'
p120
F0.0137359581804
sS'answers'
p121
F0.0124414715719
sS'promos'
p122
F0.0071740128558300002
sS'NotTimAndEric'
p123
F0.011093947479300001
sS'shittyaskscience'
p124
F0.021703275126299999
sS'doctorwho'
p125
F0.0074238022778599999
sS'lewronggeneration'
p126
F0.016393442623
sS'worldbuilding'
p127
F0.0081472728403500002
sS'WritingPrompts'
p128
F0.0095042888629999992
sS'PoliticalHumor'
p129
F0.0082961072112299993
sS'RedditDayOf'
p130
F0.0086479449507200004
sS'4chan'
p131
F0.010281860972299999
sS'creepy'
p132
F0.00759233535669
sS'howtonotgiveafuck'
p133
F0.0092985318107700003
sS'sixwordstories'
p134
F0.018560240317600001
sS'AnimalsBeingBros'
p135
F0.0101427269967
sS'classic4chan'
p136
F0.015925096030700001
sS'whatstheword'
p137
F0.0116224133044
sS'ANormalDayInRussia'
p138
F0.0106989557307
sS'HalfLife'
p139
F0.0090439276485800007
sS'QuotesPorn'
p140
F0.010377119716500001
sS'drunk'
p141
F0.0077114841283000002
sS'confession'
p142
F0.0073492462311600002
sS'reactiongifs'
p143
F0.0082415003660800002
sS'gamemusic'
p144
F0.0076555885796600002
sS'findareddit'
p145
F0.015091955636700001
sS'PropagandaPosters'
p146
F0.0102424932154
sS'rant'
p147
F0.010660660660700001
sS'conspiratard'
p148
F0.013700107874899999
sS'introvert'
p149
F0.0075022734161900003
sS'holdmybeer'
p150
F0.010789391085999999
sS'ContagiousLaughter'
p151
F0.010008294166400001
sS'nostalgia'
p152
F0.00816016043705
sS'badhistory'
p153
F0.0089574708317700005
sS'Damnthatsinteresting'
p154
F0.0118279569892
sS'FiftyFifty'
p155
F0.015346534653500001
sS'CrazyIdeas'
p156
F0.01908678041
sS'OutOfTheLoop'
p157
F0.0165577632573
sS'Whatcouldgowrong'
p158
F0.011695746254299999
sS'onetruegod'
p159
F0.012503125781400001
sS'TheFacebookDelusion'
p160
F0.0082703696140499997
sS'GamePhysics'
p161
F0.013692106203099999
sS'MorbidReality'
p162
F0.0090397893088500006
sS'gif'
p163
F0.0083290547093400006
sS'SubredditDrama'
p164
F0.0099921816898999993
sS'wheredidthesodago'
p165
F0.016751042287100001
sS'PenmanshipPorn'
p166
F0.0096016882089199999
sS'ifyoulikeblank'
p167
F0.0082677165354300003
sS'misleadingthumbnails'
p168
F0.0202595338983
sS'shittyadvice'
p169
F0.024536445012800001
sS'MeanJokes'
p170
F0.033618288348900002
sS'FreeKarma'
p171
F0.0084444076496400008
sS'fifthworldproblems'
p172
F0.0195961404556
sS'Pareidolia'
p173
F0.0159139514404
sS'happy'
p174
F0.0080402712717599998
sS'fatlogic'
p175
F0.0078093001665600001
sS'explainlikeIAmA'
p176
F0.0195315423183
sS'alternativeart'
p177
F0.00811785929044
sS'Unexpected'
p178
F0.016545614435100001
sS'shortscarystories'
p179
F0.010685391543299999
sS'batman'
p180
F0.0073540014419599996
sS'WebGames'
p181
F0.010152284264
sS'mildlyinfuriating'
p182
F0.014116789872300001
sS'oddlysatisfying'
p183
F0.0130136501874
sS'youtubehaiku'
p184
F0.010737191035500001
sS'Awwducational'
p185
F0.010179257362399999
sS'Shitty_Car_Mods'
p186
F0.00815819512523
sS'shittyaskreddit'
p187
F0.022582278481000001
sS'IASIP'
p188
F0.0076344775336599996
sS'ghettoglamourshots'
p189
F0.0071853100328199996
sS'blunderyears'
p190
F0.010989497939499999
sS'webcomics'
p191
F0.0096065873742000006
sS'calvinandhobbes'
p192
F0.0078557114228499994
sS'rage'
p193
F0.011245834876
sS'comics'
p194
F0.0107373670551
sS'AMA'
p195
F0.0078932805172899998
sS'Perfectfit'
p196
F0.0130546211757
sS'PerfectTiming'
p197
F0.013110846245499999
sS'behindthegifs'
p198
F0.017077890662800001
sS'standupshots'
p199
F0.012284561789499999
sS'MarkMyWords'
p200
F0.015101325019499999
sS'LifeProTips'
p201
F0.0074492747813699996
sS'ICanDrawThat'
p202
F0.0083891326098700005
sS'fullmoviesonyoutube'
p203
F0.0092228464419500007
sS'AskScienceFiction'
p204
F0.0093909028907200008
sS'NewsOfTheStupid'
p205
F0.0112129380054
sS'Portal'
p206
F0.0093620727193599994
sS'GTA'
p207
F0.0071530758226000003
sS'spaceporn'
p208
F0.0093875726419300008
sS'crappymusic'
p209
F0.0079806783576600003
sS'awesome'
p210
F0.0088109812650699997
sS'teenagers'
p211
F0.0080859739451999996
sS'TrueAskReddit'
p212
F0.0084319421809700007
sS'FanTheories'
p213
F0.012016927499199999
sS'tipofmytongue'
p214
F0.0085994051961199997
sS'Infographics'
p215
F0.0081205449787999998
sS'YouShouldKnow'
p216
F0.011121263542600001
sS'counting'
p217
F0.011895321173699999
sS'southpark'
p218
F0.00921870584911
sS'DAE'
p219
F0.0103896103896
sS'ForeverAlone'
p220
F0.0080019546759499995
sS'MURICA'
p221
F0.0098028092309799999
sS'HighQualityGifs'
p222
F0.0093215587328300004
sS'softwaregore'
p223
F0.0128068303095
sS'self'
p224
F0.0095891190530399996
sS'shittyama'
p225
F0.021484992101100001
sS'circlebroke'
p226
F0.011255217650600001
sS'zelda'
p227
F0.0076887941534700003
sS'Gore'
p228
F0.0086230495483199995
sS'britishproblems'
p229
F0.0071428571428599997
sS'nottheonion'
p230
F0.0090240725958899998
sS'watchpeopledie'
p231
F0.0090446342181599998
sS'nonononoyes'
p232
F0.0132258173353
sS'Frugal_Jerk'
p233
F0.0126702565727
sS'FutureWhatIf'
p234
F0.0082098304723299993
sS'wallpapers'
p235
F0.0098816071595000006
sS'firefly'
p236
F0.0072056127931200004
sS'GiftofGames'
p237
F0.0071777882946800001
sS'forwardsfromgrandma'
p238
F0.019182652210200001
sS'AnimalsBeingJerks'
p239
F0.010348138401899999
sS'highdeas'
p240
F0.0070832011840599998
sS'CrappyDesign'
p241
F0.015797575004699999
sS'techsupportmacgyver'
p242
F0.0091369778869800009
sS'Images'
p243
F0.0072406874291199999
sS'shittyreactiongifs'
p244
F0.016725204883799999
sS'DunderMifflin'
p245
F0.0076891710840600001
sS'Minecraft'
p246
F0.0078408103583500009
sS'ConfusedBoners'
p247
F0.0117595818815
sS'HumanPorn'
p248
F0.0089747584917400005
sS'NSFWFunny'
p249
F0.0083236094904700006
sS'terriblefacebookmemes'
p250
F0.019716155349700001
sS'TumblrInAction'
p251
F0.0096970781004500003
sS'thatHappened'
p252
F0.016769456075600001
sS'cringepics'
p253
F0.0085803743921100007
sS'HailCorporate'
p254
F0.011277589817900001
sS'ImGoingToHellForThis'
p255
F0.012486126526100001
sS'GifSound'
p256
F0.0085350403413999992
s.