(dp1
S'climateskeptics'
p2
F0.013641900121800001
sS'awwwtf'
p3
F0.0118762257572
sS'anonymous'
p4
F0.013927030207899999
sS'DoesAnybodyElse'
p5
F0.0083193791032099996
sS'Piracy'
p6
F0.0071579441445700004
sS'PublicFreakout'
p7
F0.0091743119266099998
sS'PanicHistory'
p8
F0.0097839380350600007
sS'ShitPoliticsSays'
p9
F0.0088847322889899997
sS'inthenews'
p10
F0.050000000000000003
sS'Conservative'
p11
F0.016661285114600001
sS'quotes'
p12
F0.0122718052738
sS'BuyItForLife'
p13
F0.0083333333333300008
sS'DeepIntoYouTube'
p14
F0.0070261941448399997
sS'everymanshouldknow'
p15
F0.0086636014743300006
sS'firefox'
p16
F0.0083692619832600006
sS'Foodforthought'
p17
F0.019611919611900001
sS'help'
p18
F0.0078759239064600008
sS'UFOs'
p19
F0.0124416796267
sS'syriancivilwar'
p20
F0.0101781170483
sS'ShitRConservativeSays'
p21
F0.011111111111100001
sS'TheBluePill'
p22
F0.0073824279985400003
sS'JoeRogan'
p23
F0.0075916948687500003
sS'minnesota'
p24
F0.0072337241207300002
sS'ProtectAndServe'
p25
F0.010380622837400001
sS'HistoryPorn'
p26
F0.0083921462178800001
sS'Psychonaut'
p27
F0.0086342655443900004
sS'holdmybeer'
p28
F0.0076755342346299998
sS'collapse'
p29
F0.030148558112400001
sS'texas'
p30
F0.010662177328799999
sS'MensRights'
p31
F0.0096218094347199998
sS'nononono'
p32
F0.0090445390965999996
sS'Frisson'
p33
F0.0072479683725000001
sS'YouShouldKnow'
p34
F0.0099386880931700006
sS'shutupandtakemymoney'
p35
F0.0097946783993300007
sS'SelfDrivingCars'
p36
F0.0101483216237
sS'JusticePorn'
p37
F0.0074650389729500003
sS'UpliftingNews'
p38
F0.0087457222011000004
sS'AbandonedPorn'
p39
F0.0071037836195100004
sS'geek'
p40
F0.0090289361084899995
sS'spaceporn'
p41
F0.0076520601700499997
sS'DebateAnAtheist'
p42
F0.0082655301562700005
sS'WhiteRights'
p43
F0.0146590184831
sS'lostgeneration'
p44
F0.017496477219400002
sS'toosoon'
p45
F0.0104798109524
sS'Military'
p46
F0.0070727420806700001
sS'homestead'
p47
F0.0119664938173
sS'GunsAreCool'
p48
F0.018940118614900001
sS'IWantToLearn'
p49
F0.00766143743159
sS'Astronomy'
p50
F0.0093206296603099998
sS'Liberal'
p51
F0.027574115396899999
sS'progressive'
p52
F0.030363830925600001
sS'IdiotsFightingThings'
p53
F0.0086136177194399994
sS'progun'
p54
F0.0138963842418
sS'conspiratard'
p55
F0.0165039370079
sS'PropagandaPosters'
p56
F0.0158966148216
sS'NewsOfTheWeird'
p57
F0.0252447192169
sS'Enhancement'
p58
F0.00738833538565
sS'Cyberpunk'
p59
F0.0079475461951100008
sS'Libertarian'
p60
F0.019013946179499999
sS'whitepeoplegifs'
p61
F0.0072734421073299997
sS'Anarcho_Capitalism'
p62
F0.0179381036862
sS'Firearms'
p63
F0.0094286781179999998
sS'TrueAtheism'
p64
F0.0117414248021
sS'badhistory'
p65
F0.0078777079621100005
sS'energy'
p66
F0.016480730223099999
sS'Marijuana'
p67
F0.0160526619702
sS'POLITIC'
p68
F0.0458839406208
sS'interestingasfuck'
p69
F0.0074269911119600003
sS'MarkMyWords'
p70
F0.010019518542599999
sS'wisconsin'
p71
F0.0073309395571499996
sS'changemyview'
p72
F0.0084147721427800005
sS'OneY'
p73
F0.0098583726742599992
sS'torrents'
p74
F0.00827410629044
sS'offbeat'
p75
F0.017869326488799998
sS'humor'
p76
F0.0135407263384
sS'psychology'
p77
F0.012723883621
sS'entertainment'
p78
F0.012751505831099999
sS'skeptic'
p79
F0.017896138482000001
sS'wikipedia'
p80
F0.0153486195601
sS'ExpectationVsReality'
p81
F0.0072362470191600003
sS'socialskills'
p82
F0.0071729047567699999
sS'DebateReligion'
p83
F0.0087695006000200002
sS'religion'
p84
F0.013245997088799999
sS'LearnUselessTalents'
p85
F0.0072533538737999999
sS'RoomPorn'
p86
F0.0076800000000000002
sS'foodhacks'
p87
F0.0087587116217700007
sS'lifehacks'
p88
F0.0071654322179100002
sS'islam'
p89
F0.0085760380402500006
sS'needadvice'
p90
F0.0075762793580799997
sS'europe'
p91
F0.0075323705179300001
sS'StandUpComedy'
p92
F0.0088919288645699993
sS'iran'
p93
F0.0071692374538299998
sS'business'
p94
F0.0104618322129
sS'FloridaMan'
p95
F0.0143952015995
sS'delusionalartists'
p96
F0.0079616803676600002
sS'answers'
p97
F0.013399382816299999
sS'Frugal'
p98
F0.0072413230253300003
sS'Republican'
p99
F0.0184535892231
sS'conservatives'
p100
F0.0138067061144
sS'Roadcam'
p101
F0.0072597137014300001
sS'ainbow'
p102
F0.0083056478405300008
sS'TheoryOfReddit'
p103
F0.013361555761299999
sS'PoliticalHumor'
p104
F0.0285189718482
sS'ThriftStoreHauls'
p105
F0.0073357517130200004
sS'RedditDayOf'
p106
F0.012736490664
sS'privacy'
p107
F0.014652014652000001
sS'florida'
p108
F0.0095387021110200001
sS'howtonotgiveafuck'
p109
F0.0074111610819000001
sS'AnimalsBeingBros'
p110
F0.0082245148257699997
sS'ukpolitics'
p111
F0.0076488799854299997
sS'Images'
p112
F0.0144944076695
sS'whatstheword'
p113
F0.0086466165413500006
sS'Documentaries'
p114
F0.0080948876672000004
sS'OutOfTheLoop'
p115
F0.0077189371257500002
sS'QuotesPorn'
p116
F0.0092417061611399995
sS'ShitAmericansSay'
p117
F0.0113331345064
sS'TrueReddit'
p118
F0.015957714573399999
sS'AmIFreeToGo'
p119
F0.021745350500699999
sS'misc'
p120
F0.021940447357200001
sS'rant'
p121
F0.0098130841121500008
sS'Buddhism'
p122
F0.0073269545728799996
sS'Health'
p123
F0.013503426749
sS'MMFB'
p124
F0.0072379849449899997
sS'confession'
p125
F0.0072935214354200003
sS'gardening'
p126
F0.0077425707124999998
sS'whatisthisthing'
p127
F0.0088770207852199995
sS'Damnthatsinteresting'
p128
F0.0079027636565300007
sS'environment'
p129
F0.0213249705998
sS'CrazyIdeas'
p130
F0.00921582876396
sS'eldertrees'
p131
F0.0112451441423
sS'AskHistorians'
p132
F0.0070580231866000003
sS'TinyHouses'
p133
F0.0088110640196299994
sS'Bad_Cop_No_Donut'
p134
F0.024322208084599999
sS'ANormalDayInRussia'
p135
F0.0093867815649800006
sS'Whatcouldgowrong'
p136
F0.0079687132439400007
sS'TheFacebookDelusion'
p137
F0.010358342665200001
sS'MorbidReality'
p138
F0.00883052477101
sS'gif'
p139
F0.0086641144469100009
sS'SubredditDrama'
p140
F0.0080349449976999995
sS'California'
p141
F0.0095116575803300008
sS'shittyadvice'
p142
F0.0088355008438399992
sS'confessions'
p143
F0.0073231185218599996
sS'ObscureMedia'
p144
F0.011275872721699999
sS'CombatFootage'
p145
F0.0070520876972500002
sS'DaystromInstitute'
p146
F0.0071036054148200002
sS'occupywallstreet'
p147
F0.031975244971600002
sS'cordcutters'
p148
F0.00982826948481
sS'somethingimade'
p149
F0.0075463068831500002
sS'Awwducational'
p150
F0.0082212831348399996
sS'NeutralPolitics'
p151
F0.0115013988188
sS'ghettoglamourshots'
p152
F0.0083478260869600009
sS'Colorado'
p153
F0.0073467081096399997
sS'rage'
p154
F0.0089724680432600006
sS'worldpolitics'
p155
F0.027518020650700002
sS'PerfectTiming'
p156
F0.0072005801906300003
sS'findareddit'
p157
F0.0088026664387700002
sS'firstworldproblems'
p158
F0.0085634135538199992
sS'socialism'
p159
F0.016136999835299998
sS'Ask_Politics'
p160
F0.0146542512593
sS'happy'
p161
F0.0086620926243599992
sS'russia'
p162
F0.0091242906420399995
sS'history'
p163
F0.0091925927893900007
sS'fullmoviesonyoutube'
p164
F0.0097232610321600008
sS'NewsOfTheStupid'
p165
F0.032406696360000001
sS'Economics'
p166
F0.015225509910899999
sS'Anticonsumption'
p167
F0.0161211529067
sS'awesome'
p168
F0.010572903860299999
sS'DecidingToBeBetter'
p169
F0.0073510556457800002
sS'TrueAskReddit'
p170
F0.0128631431572
sS'techsupportmacgyver'
p171
F0.0071071840184400003
sS'NoStupidQuestions'
p172
F0.0092153677859900009
sS'PoliticalDiscussion'
p173
F0.023426573426600001
sS'conspiracy'
p174
F0.016322439098200001
sS'Infographics'
p175
F0.0097225515769499993
sS'politics'
p176
F0.0081995300567800009
sS'education'
p177
F0.010304503878699999
sS'Veterans'
p178
F0.0078589227525399999
sS'SRSsucks'
p179
F0.0094773118897199995
sS'watchpeopledie'
p180
F0.0074154543736999999
sS'Israel'
p181
F0.0117109078742
sS'MURICA'
p182
F0.0070515751726799997
sS'eatsandwiches'
p183
F0.0077075791194699999
sS'bestofworldstar'
p184
F0.0074524416552300002
sS'Survival'
p185
F0.0084794981995600007
sS'AskSocialScience'
p186
F0.0090321005736599992
sS'TheWayWeWere'
p187
F0.010770400405499999
sS'scifi'
p188
F0.0086901003795300004
sS'nottheonion'
p189
F0.0074206250482600003
sS'nyc'
p190
F0.0070791144671400004
sS'911truth'
p191
F0.0193179108037
sS'Frugal_Jerk'
p192
F0.0079953481610700004
sS'FutureWhatIf'
p193
F0.014170644391400001
sS'economy'
p194
F0.021942769151800001
sS'BasicIncome'
p195
F0.014333993707
sS'Anarchism'
p196
F0.017205123303399999
sS'forwardsfromgrandma'
p197
F0.0105269453915
sS'AnimalsBeingJerks'
p198
F0.0071562646644800004
sS'howto'
p199
F0.0133006096113
sS'Futurology'
p200
F0.0072813863539399996
sS'NorthCarolina'
p201
F0.0085113484646200006
sS'DebateAChristian'
p202
F0.0078390078390100006
sS'gunpolitics'
p203
F0.0137269650244
sS'EnoughLibertarianSpam'
p204
F0.0126525751712
sS'law'
p205
F0.011389287913
sS'Physics'
p206
F0.0079207920792100008
sS'startrek'
p207
F0.0074637244448600001
sS'DAE'
p208
F0.0112557634934
sS'MachinePorn'
p209
F0.0078551167357600003
sS'HumanPorn'
p210
F0.0095493882423199998
sS'IWantOut'
p211
F0.0079051383399199992
sS'preppers'
p212
F0.0098765432098800003
sS'Shitstatistssay'
p213
F0.011607992388199999
sS'HailCorporate'
p214
F0.0142447222792
sS'urbanexploration'
p215
F0.0076240108087200003
sS'self'
p216
F0.0109023714198
s.