(dp1
S'Morrowind'
p2
F0.0090652400059400007
sS'mountandblade'
p3
F0.0094507449410700002
sS'totalwar'
p4
F0.0111003501453
sS'CrusaderKings'
p5
F0.0078025358241400004
sS'rct'
p6
F0.0089686098654700001
sS'CompanyOfHeroes'
p7
F0.0087308347529799993
sS'civ'
p8
F0.0074632876050399997
sS'paradoxplaza'
p9
F0.0077354770210799999
sS'SimCity'
p10
F0.00702546731903
s.