(dp1
S'FancyFollicles'
p2
F0.010219467247399999
sS'awwwtf'
p3
F0.0109175002689
sS'daddit'
p4
F0.0075852782764800003
sS'battlestations'
p5
F0.0094019670648499993
sS'MapPorn'
p6
F0.0086208336814000003
sS'Hunting'
p7
F0.010112144158
sS'DoesAnybodyElse'
p8
F0.0094249303236000007
sS'pettyrevenge'
p9
F0.010201084199
sS'PublicFreakout'
p10
F0.0087334712917800008
sS'electronic_cigarette'
p11
F0.0084592059398599997
sS'fffffffuuuuuuuuuuuu'
p12
F0.0082049055784699995
sS'mycology'
p13
F0.0109883652603
sS'dadjokes'
p14
F0.0084953532128399997
sS'BuyItForLife'
p15
F0.011596946926200001
sS'woodworking'
p16
F0.0146854593269
sS'whitepeoplegifs'
p17
F0.00718764337055
sS'everymanshouldknow'
p18
F0.0097459881815900005
sS'Pets'
p19
F0.0163459742201
sS'carporn'
p20
F0.010627958742199999
sS'TalesFromRetail'
p21
F0.0112347818823
sS'AnimalsBeingJerks'
p22
F0.015083043090299999
sS'arduino'
p23
F0.0077181684738900002
sS'quityourbullshit'
p24
F0.0092170076455800002
sS'drunk'
p25
F0.0094234581647299996
sS'nostalgia'
p26
F0.012341514154800001
sS'ProtectAndServe'
p27
F0.0080025229629000008
sS'harrypotter'
p28
F0.0079637577491700005
sS'HistoryPorn'
p29
F0.0110660410864
sS'ReefTank'
p30
F0.084070796460200006
sS'reptiles'
p31
F0.025562638220399999
sS'woahdude'
p32
F0.010898201633099999
sS'WTF'
p33
F0.0083648437849700007
sS'ImaginaryMonsters'
p34
F0.00705601389492
sS'oddlysatisfying'
p35
F0.0116550484181
sS'nononono'
p36
F0.011133424937500001
sS'MilitaryPorn'
p37
F0.0093138879681799996
sS'ArtisanVideos'
p38
F0.0091032107270299992
sS'YouShouldKnow'
p39
F0.010015066914799999
sS'childfree'
p40
F0.0106646099838
sS'Random_Acts_Of_Amazon'
p41
F0.0072671011299199999
sS'Jeep'
p42
F0.0083685694150799992
sS'photography'
p43
F0.0096907665505199993
sS'foodhacks'
p44
F0.0079756741937099997
sS'UpliftingNews'
p45
F0.0076464489372699996
sS'AbandonedPorn'
p46
F0.012764641381100001
sS'trees'
p47
F0.0074491489443799996
sS'geek'
p48
F0.00940820243856
sS'spaceporn'
p49
F0.0086220854922299996
sS'food'
p50
F0.0092695390324400006
sS'NoStupidQuestions'
p51
F0.0080991068274700005
sS'cringepics'
p52
F0.0096401684317999996
sS'Military'
p53
F0.0072021484375
sS'beards'
p54
F0.010127246490900001
sS'thewalkingdead'
p55
F0.0086506005180899993
sS'homestead'
p56
F0.0097310686482699991
sS'gifs'
p57
F0.0075704184803900001
sS'IWantToLearn'
p58
F0.0078266946191500007
sS'Art'
p59
F0.0076792938580400004
sS'creepyPMs'
p60
F0.0087321177376100002
sS'holdmybeer'
p61
F0.011411560406799999
sS'Celebs'
p62
F0.0072623594599000004
sS'techsupportgore'
p63
F0.0110130207564
sS'freebies'
p64
F0.0116147913301
sS'Watches'
p65
F0.0075701896222299999
sS'CrappyDesign'
p66
F0.0100622359515
sS'thatHappened'
p67
F0.0084777727884999994
sS'futurama'
p68
F0.0086267023971200001
sS'SubredditDrama'
p69
F0.0080722627614200002
sS'techsupport'
p70
F0.00762472627497
sS'Libertarian'
p71
F0.0071310869935800004
sS'corgi'
p72
F0.0072158749248299996
sS'cringe'
p73
F0.0083823545055200007
sS'spiders'
p74
F0.0121620903925
sS'firefly'
p75
F0.0073825206666400002
sS'mildlyinteresting'
p76
F0.0089507725221600002
sS'gardening'
p77
F0.025323344858500001
sS'BackYardChickens'
p78
F0.0086340640809399998
sS'AskWomen'
p79
F0.0077962949717500004
sS'NetflixBestOf'
p80
F0.0093449253800700002
sS'tea'
p81
F0.0098610913573200006
sS'redditgetsdrawn'
p82
F0.0075707615605799996
sS'sex'
p83
F0.0075357342021100003
sS'tumblr'
p84
F0.0071641391315999999
sS'interestingasfuck'
p85
F0.0131926914293
sS'AutoDetailing'
p86
F0.0089079688757700004
sS'MechanicAdvice'
p87
F0.0094126351268000001
sS'changemyview'
p88
F0.00724575323133
sS'fatpeoplestories'
p89
F0.0085250162443099992
sS'Android'
p90
F0.0074122270972699997
sS'drawing'
p91
F0.0077643683011200003
sS'popping'
p92
F0.010424749502400001
sS'firstworldanarchists'
p93
F0.0095006628369399999
sS'offbeat'
p94
F0.0103661553686
sS'Coffee'
p95
F0.0085458491589800005
sS'gameofthrones'
p96
F0.0079018506966100008
sS'humor'
p97
F0.0071022727272700001
sS'camping'
p98
F0.0081673306772900005
sS'space'
p99
F0.0094074108628400006
sS'skeptic'
p100
F0.0084208301035900001
sS'flyfishing'
p101
F0.0077434342130699996
sS'shittyfoodporn'
p102
F0.011433780440200001
sS'InteriorDesign'
p103
F0.0078299776286399995
sS'ExpectationVsReality'
p104
F0.010824119669199999
sS'breakingbad'
p105
F0.0075343123140400002
sS'malefashionadvice'
p106
F0.0072945549228299999
sS'firstworldproblems'
p107
F0.0088433086751799998
sS'LearnUselessTalents'
p108
F0.00856411077317
sS'AskCulinary'
p109
F0.0088089779172200004
sS'RoomPorn'
p110
F0.0118627765309
sS'cars'
p111
F0.0111027216254
sS'lifehacks'
p112
F0.014146930215100001
sS'Astronomy'
p113
F0.0101733232856
sS'guns'
p114
F0.011218366814499999
sS'Damnthatsinteresting'
p115
F0.010909912527
sS'tattoos'
p116
F0.0123730278798
sS'biology'
p117
F0.013692491535599999
sS'bestof'
p118
F0.0088646952642900002
sS'casualiama'
p119
F0.0081402530763499993
sS'FloridaMan'
p120
F0.0105009397728
sS'legaladvice'
p121
F0.0071459506279800003
sS'loseit'
p122
F0.0088411412469200003
sS'AnimalCrossing'
p123
F0.0073204086557800002
sS'PlantedTank'
p124
F0.197580071174
sS'whatisthisthing'
p125
F0.017181383210100001
sS'Frugal'
p126
F0.0132633287944
sS'promos'
p127
F0.0074530263209499998
sS'LadyBoners'
p128
F0.00754022988506
sS'shittyaskscience'
p129
F0.0081081081081099994
sS'doctorwho'
p130
F0.0073334529004999999
sS'whatsthisplant'
p131
F0.017772041302599999
sS'howto'
p132
F0.0093200018097100001
sS'TopGear'
p133
F0.0085384714525100006
sS'LifeProTips'
p134
F0.0091862340921299995
sS'ThriftStoreHauls'
p135
F0.010562086700999999
sS'SkincareAddiction'
p136
F0.0092380886394600008
sS'minimalism'
p137
F0.0076202571836800001
sS'recipes'
p138
F0.0098949842665999998
sS'4chan'
p139
F0.0074908685693099997
sS'personalfinance'
p140
F0.0073529411764700001
sS'creepy'
p141
F0.0078567725558200009
sS'lookatmydog'
p142
F0.0070275403608700002
sS'itookapicture'
p143
F0.011691610810100001
sS'wheredidthesodago'
p144
F0.0094543090968199992
sS'AnimalsBeingBros'
p145
F0.011020706874999999
sS'hometheater'
p146
F0.00747292969346
sS'OutOfTheLoop'
p147
F0.0089398764532100002
sS'whatsthisbug'
p148
F0.019189842369199999
sS'TrueReddit'
p149
F0.0089211660226999993
sS'StarWars'
p150
F0.0089284280506800005
sS'todayilearned'
p151
F0.0071614336155499999
sS'confession'
p152
F0.0073232584618599999
sS'reactiongifs'
p153
F0.0099702131044700007
sS'IdiotsFightingThings'
p154
F0.0098639031090000003
sS'subaru'
p155
F0.0092178301093400004
sS'Documentaries'
p156
F0.0076536112109199996
sS'EarthPorn'
p157
F0.0090360613457400006
sS'TrollXChromosomes'
p158
F0.010461944302899999
sS'RATS'
p159
F0.011419656786299999
sS'tifu'
p160
F0.0072602732606800004
sS'pokemon'
p161
F0.0073723862892300001
sS'snakes'
p162
F0.020619169291100001
sS'Bonsai'
p163
F0.0127610987978
sS'environment'
p164
F0.0088182632050100001
sS'FiftyFifty'
p165
F0.00829574210584
sS'CrazyIdeas'
p166
F0.0092198402901999994
sS'OldSchoolCool'
p167
F0.0074549868500900004
sS'lego'
p168
F0.0110542915761
sS'Bad_Cop_No_Donut'
p169
F0.00891555084184
sS'ANormalDayInRussia'
p170
F0.0081079877043700004
sS'EatCheapAndHealthy'
p171
F0.0107550621334
sS'Homebrewing'
p172
F0.0094328065662099992
sS'urbanexploration'
p173
F0.0075244924755100001
sS'MorbidReality'
p174
F0.0096712194323999995
sS'gif'
p175
F0.0092996461196600006
sS'beer'
p176
F0.0088504450294600006
sS'cats'
p177
F0.013390899585099999
sS'PenmanshipPorn'
p178
F0.0083414161008700007
sS'iphone'
p179
F0.0076344619612900002
sS'misleadingthumbnails'
p180
F0.0085164212910499998
sS'gentlemanboners'
p181
F0.0088705564056499996
sS'raisedbynarcissists'
p182
F0.0078624924674999992
sS'Pareidolia'
p183
F0.010498572369900001
sS'dogs'
p184
F0.016761504205799999
sS'keto'
p185
F0.0082244799225900007
sS'happy'
p186
F0.00724500426177
sS'CombatFootage'
p187
F0.0073659398939299996
sS'fatlogic'
p188
F0.00850367570806
sS'TrollYChromosome'
p189
F0.0082916082515500002
sS'BeardedDragons'
p190
F0.0086639620435900004
sS'MakeupAddiction'
p191
F0.0095435684647299998
sS'mildlyinfuriating'
p192
F0.0119935704571
sS'cordcutters'
p193
F0.0089896354790899996
sS'somethingimade'
p194
F0.0143551401869
sS'HomeImprovement'
p195
F0.0095611561508599993
sS'Unexpected'
p196
F0.010841650615800001
sS'parrots'
p197
F0.0105571101501
sS'Awwducational'
p198
F0.0163919701801
sS'Shitty_Car_Mods'
p199
F0.0138545274617
sS'aviation'
p200
F0.0093762444339900008
sS'Autos'
p201
F0.0103039846638
sS'blunderyears'
p202
F0.010077624948900001
sS'bettafish'
p203
F0.082234685701799995
sS'EDC'
p204
F0.010456742626
sS'photoshopbattles'
p205
F0.0086034120350000007
sS'rage'
p206
F0.010614904845699999
sS'comics'
p207
F0.0086404781497700003
sS'science'
p208
F0.010307413113400001
sS'Justrolledintotheshop'
p209
F0.015270335533400001
sS'PerfectTiming'
p210
F0.011034675419899999
sS'behindthegifs'
p211
F0.0076633892423400001
sS'standupshots'
p212
F0.0077501242944499997
sS'knives'
p213
F0.0098020372861799994
sS'skyrim'
p214
F0.0080444191841900006
sS'KerbalSpaceProgram'
p215
F0.0081582657329700003
sS'scuba'
p216
F0.011459446621500001
sS'Cartalk'
p217
F0.0079732894802400003
sS'fullmoviesonyoutube'
p218
F0.0074110847133099997
sS'FoodPorn'
p219
F0.0108593672023
sS'audiophile'
p220
F0.0073312001296100002
sS'Cooking'
p221
F0.0123558995799
sS'offmychest'
p222
F0.0083214913654000005
sS'gadgets'
p223
F0.0082271215376900006
sS'motorcycles'
p224
F0.0102110022607
sS'conspiracy'
p225
F0.0087243612236400005
sS'DIY'
p226
F0.014193440303800001
sS'politics'
p227
F0.00854176552969
sS'Dogtraining'
p228
F0.010632780083000001
sS'technology'
p229
F0.0082683496152800001
sS'southpark'
p230
F0.0078233905152099992
sS'Pizza'
p231
F0.0074699912420799998
sS'techsupportmacgyver'
p232
F0.0072029416209099997
sS'MURICA'
p233
F0.0099115044247799992
sS'Rabbits'
p234
F0.0096046459682799998
sS'bicycling'
p235
F0.0098662243381200006
sS'CampingandHiking'
p236
F0.0094003368454000005
sS'travel'
p237
F0.00725556357395
sS'pitbulls'
p238
F0.0085534053244899991
sS'RealGirls'
p239
F0.0071363438131900004
sS'3Dprinting'
p240
F0.0073828325779199998
sS'Parenting'
p241
F0.0090819450931500009
sS'badtattoos'
p242
F0.0099211150365399996
sS'scifi'
p243
F0.0089601446385400001
sS'slowcooking'
p244
F0.0115078306596
sS'RedditLaqueristas'
p245
F0.011782410805999999
sS'nottheonion'
p246
F0.0077881248957999997
sS'secretsanta'
p247
F0.0094941979901199992
sS'nonononoyes'
p248
F0.0109637101195
sS'startrek'
p249
F0.0075464396284800001
sS'Whatcouldgowrong'
p250
F0.0122049883267
sS'wallpapers'
p251
F0.0093879854306699994
sS'talesfromtechsupport'
p252
F0.0082277986241399998
sS'JusticePorn'
p253
F0.010622404537599999
sS'Baking'
p254
F0.0085763293310500005
sS'notinteresting'
p255
F0.0078989400319399994
sS'facepalm'
p256
F0.0112090020935
sS'forwardsfromgrandma'
p257
F0.0074783471326599999
sS'aww'
p258
F0.00878193072307
sS'askscience'
p259
F0.0095473512336700008
sS'Futurology'
p260
F0.0078861085040799993
sS'budgetfood'
p261
F0.0070522632845000004
sS'progresspics'
p262
F0.0084294199860200005
sS'crochet'
p263
F0.0080478947884999995
sS'dogpictures'
p264
F0.010532150776100001
sS'cosplay'
p265
F0.0076799895421400003
sS'delusionalartists'
p266
F0.00856487997105
sS'thesims'
p267
F0.0087875647668400007
sS'wicked_edge'
p268
F0.010284987658000001
sS'MachinePorn'
p269
F0.00795698924731
sS'dataisbeautiful'
p270
F0.0078490684120599997
sS'HumanPorn'
p271
F0.0095513494567100003
sS'cableporn'
p272
F0.0078164397377699993
sS'atheism'
p273
F0.0079021350961200002
sS'TumblrInAction'
p274
F0.0075670475609500003
sS'marijuanaenthusiasts'
p275
F0.0072866493763099997
sS'Fishing'
p276
F0.027302670740899999
sS'crafts'
p277
F0.0083592326653099992
sS'tall'
p278
F0.0078144969873999992
sS'ImGoingToHellForThis'
p279
F0.0089861226966000008
sS'self'
p280
F0.0080003809705200008
sS'shutupandtakemymoney'
p281
F0.011773388627299999
s.