(dp1
S'Turkey'
p2
F0.027646662171300001
sS'pakistan'
p3
F0.014705882352899999
sS'badhistory'
p4
F0.011511511511500001
sS'PoliticalDiscussion'
p5
F0.0076330380931800001
sS'polandball'
p6
F0.0097217451047700004
sS'iran'
p7
F0.047743966421800003
sS'islam'
p8
F0.046377351462100001
sS'linguistics'
p9
F0.0123808480333
sS'Israel'
p10
F0.054547729263100003
sS'languagelearning'
p11
F0.0098400984009799995
sS'syriancivilwar'
p12
F0.0476600631639
sS'AskHistorians'
p13
F0.0088198721841500002
sS'badlinguistics'
p14
F0.0084638171815499992
sS'europe'
p15
F0.0090640206087200005
sS'exmuslim'
p16
F0.037073652990600003
sS'france'
p17
F0.0072490938632699996
sS'DebateReligion'
p18
F0.0098173964264700007
sS'religion'
p19
F0.00894140188408
sS'Ask_Politics'
p20
F0.0092436974789900008
sS'vexillology'
p21
F0.0118502558578
sS'FutureWhatIf'
p22
F0.0071977752331100001
sS'CombatFootage'
p23
F0.013979839599700001
sS'Anarchism'
p24
F0.0073536818777100001
sS'Judaism'
p25
F0.025182916454
sS'translator'
p26
F0.0090229440577500007
sS'MapPorn'
p27
F0.0076649878604199998
sS'dubai'
p28
F0.020899149453200001
sS'worldpolitics'
p29
F0.014582609989600001
sS'HumanPorn'
p30
F0.0073460456392599998
sS'PropagandaPosters'
p31
F0.0111656441718
sS'IWantOut'
p32
F0.0075334821428600001
sS'socialism'
p33
F0.0100138121547
sS'russia'
p34
F0.0106740225474
s.