(dp1
S'ICanDrawThat'
p2
F0.0094395280235999995
sS'photoshop'
p3
F0.0075175943698000004
sS'IDAP'
p4
F0.034036759700499998
sS'SketchDaily'
p5
F0.047014574518099997
sS'redditgetsdrawn'
p6
F0.028518788623199998
sS'learnart'
p7
F0.0308096489133
sS'painting'
p8
F0.021292585170299999
sS'drawing'
p9
F0.0180246309436
sS'AnimeSketch'
p10
F0.0094446543256500003
s.