(dp1
S'introvert'
p2
F0.0084991931145800004
sS'actuallesbians'
p3
F0.0072117153580099997
sS'bisexual'
p4
F0.0099892008639300006
sS'transtimelines'
p5
F0.0076136610833200001
sS'lgbt'
p6
F0.0113714896023
sS'LGBTeens'
p7
F0.0118053033055
sS'ainbow'
p8
F0.0186747665654
sS'ftm'
p9
F0.013915947676
sS'aspergers'
p10
F0.010824578159799999
sS'asktransgender'
p11
F0.010060362173
s.