(dp1
S'kpop'
p2
F0.024441984873600001
sS'FancyFollicles'
p3
F0.0248990258969
sS'weddingplanning'
p4
F0.0075590101975299999
sS'AskWomen'
p5
F0.0077746673211899998
sS'ABraThatFits'
p6
F0.018844696969699998
sS'Baking'
p7
F0.0088827628455500005
sS'bigboobproblems'
p8
F0.0098619329388600005
sS'TrollXChromosomes'
p9
F0.00893438968344
sS'tea'
p10
F0.011450381679400001
sS'japan'
p11
F0.00837520938023
sS'Korean'
p12
F0.0094763893350499999
sS'femalefashionadvice'
p13
F0.032044943820199998
sS'BeautyBoxes'
p14
F0.056918687589199997
sS'RandomActsofMakeup'
p15
F0.044842007434900001
sS'SNSD'
p16
F0.0073159579332399997
sS'SkincareAddiction'
p17
F0.060806524694199997
sS'EatCheapAndHealthy'
p18
F0.0087263035722000004
sS'knitting'
p19
F0.0075599582898900003
sS'AustralianMakeup'
p20
F0.020423319717799999
sS'LearnJapanese'
p21
F0.0071615213394
sS'Indiemakeupandmore'
p22
F0.064794215795299995
sS'ketorecipes'
p23
F0.0087672075674799996
sS'raisedbynarcissists'
p24
F0.0070190082331100002
sS'xxfitness'
p25
F0.014996933712400001
sS'birthcontrol'
p26
F0.0089323692045900002
sS'AsianLadyboners'
p27
F0.0086140888208300001
sS'korea'
p28
F0.013297340531899999
sS'RandomActsOfPolish'
p29
F0.0128640343041
sS'RedditLaqueristas'
p30
F0.024998650180900001
sS'MakeupAddiction'
p31
F0.031753123929499999
sS'KDRAMA'
p32
F0.018521948508999998
sS'sewing'
p33
F0.0122705408854
sS'xxketo'
p34
F0.0111542675032
sS'GirlGamers'
p35
F0.010796319107299999
sS'LadyBoners'
p36
F0.0077583703273500001
sS'curlyhair'
p37
F0.018212092829599999
sS'TheGirlSurvivalGuide'
p38
F0.0278367885137
sS'makeupexchange'
p39
F0.060182956186800002
sS'braswap'
p40
F0.0095078299776300002
sS'asianamerican'
p41
F0.015813814709799999
sS'Hair'
p42
F0.0119450317125
sS'crafts'
p43
F0.0092674751059799998
sS'MakeupAddicts'
p44
F0.067487625256499997
sS'sailormoon'
p45
F0.013850837138499999
s.