(dp1
S'redheads'
p2
F0.017838085073900001
sS'GWCouples'
p3
F0.0500342231348
sS'milf'
p4
F0.039178283198799999
sS'BBW'
p5
F0.0102090422946
sS'nsfw'
p6
F0.0273722993132
sS'japan'
p7
F0.0072283272283300004
sS'BDSMGW'
p8
F0.023382559774999999
sS'Amateur'
p9
F0.047089188414100001
sS'hugeboobs'
p10
F0.0141505746228
sS'AsianHotties'
p11
F0.0626260995884
sS'BigBoobsGW'
p12
F0.0449648711944
sS'pornID'
p13
F0.0088811294974999993
sS'cumsluts'
p14
F0.029795158286799999
sS'JusticePorn'
p15
F0.0071758953350099996
sS'altgonewild'
p16
F0.049854296290499998
sS'PrettyGirlsUglyFaces'
p17
F0.0073138297872299999
sS'tightdresses'
p18
F0.0229500544578
sS'gonewildstories'
p19
F0.021462804751
sS'Pegging'
p20
F0.00953815261044
sS'tipofmypenis'
p21
F0.012701495436
sS'ConfusedBoners'
p22
F0.0084159087824099994
sS'Celebs'
p23
F0.015180607224299999
sS'WatchItForThePlot'
p24
F0.014226969797199999
sS'pornvids'
p25
F0.0110676651866
sS'Whatcouldgowrong'
p26
F0.0076490946481400004
sS'anal'
p27
F0.015721378065299999
sS'gentlemanboners'
p28
F0.0129634556316
sS'Rateme'
p29
F0.013829232564499999
sS'sex'
p30
F0.0088509597971700004
sS'burstingout'
p31
F0.015701668302299999
sS'interestingasfuck'
p32
F0.0070375863918999996
sS'AmISexy'
p33
F0.015799028506900001
sS'Blowjobs'
p34
F0.0173252727809
sS'randomsexiness'
p35
F0.017610550814600001
sS'Hotwife'
p36
F0.034942235452499998
sS'ass'
p37
F0.0326014319809
sS'Bondage'
p38
F0.0097013666272999996
sS'celebnsfw'
p39
F0.0202178194879
sS'TributeMe'
p40
F0.039948453608199999
sS'Unexpected'
p41
F0.0074100211714900003
sS'GoneWildCD'
p42
F0.0075646866672400004
sS'GWNerdy'
p43
F0.055837932036000001
sS'GoneWildPlus'
p44
F0.0378739811606
sS'watchpeopledie'
p45
F0.0081454330038099997
sS'NSFWFunny'
p46
F0.0154144996554
sS'amiugly'
p47
F0.0077300719176599999
sS'bigdickproblems'
p48
F0.0071690657634800002
sS'boltedontits'
p49
F0.013893510815300001
sS'TinyTits'
p50
F0.038373212830600002
sS'pussy'
p51
F0.034904985290600002
sS'BBWGW'
p52
F0.0196828432544
sS'incest'
p53
F0.0122084431022
sS'thick'
p54
F0.0236581196581
sS'DirtySnapchat'
p55
F0.0150588235294
sS'gonewildcurvy'
p56
F0.053992948079599999
sS'gonewildaudio'
p57
F0.023313792871100001
sS'FiftyFifty'
p58
F0.0084330729353300007
sS'bdsm'
p59
F0.0096040086296900005
sS'asstastic'
p60
F0.069811216298499998
sS'Boobies'
p61
F0.029497873280699999
sS'Stacked'
p62
F0.014984356989999999
sS'ladybonersgw'
p63
F0.0104026845638
sS'dirtykikpals'
p64
F0.0127478753541
sS'treesgonewild'
p65
F0.034085911156699997
sS'nsfw_gifs'
p66
F0.022722881323199998
sS'ginger'
p67
F0.027904200552100002
sS'r4r'
p68
F0.015023555095900001
sS'penis'
p69
F0.0095124851367400006
sS'gonewild'
p70
F0.038359825772100002
sS'AmateurArchives'
p71
F0.0231969288573
sS'BustyPetite'
p72
F0.036758723017300002
sS'feet'
p73
F0.0271716176264
sS'OnOff'
p74
F0.035306398133400002
sS'RandomActsOfBlowJob'
p75
F0.0224033893953
sS'wifesharing'
p76
F0.048765474317799998
sS'Tgirls'
p77
F0.010451306413300001
sS'hentai'
p78
F0.0107329842932
sS'shorthairedhotties'
p79
F0.0129789437349
sS'hardbodies'
p80
F0.0134279347954
sS'girlsinyogapants'
p81
F0.022905027933000002
sS'RealGirls'
p82
F0.038758666226500003
sS'GoneMild'
p83
F0.065882236123499999
sS'Hotchickswithtattoos'
p84
F0.018852173912999998
sS'workgonewild'
p85
F0.049095387751600002
sS'NSFW_GIF'
p86
F0.025228957153200001
sS'AnimalsBeingJerks'
p87
F0.0071908110343899996
sS'progresspics'
p88
F0.0080754019939800002
sS'traps'
p89
F0.0144304350995
sS'cosplaygirls'
p90
F0.015645508478999998
sS'Cuckold'
p91
F0.019160654720299999
sS'HumanPorn'
p92
F0.0071002850479399996
sS'curvy'
p93
F0.026620446072299998
sS'PrettyGirls'
p94
F0.0134749790327
sS'dirtypenpals'
p95
F0.0239680426099
sS'pantyselling'
p96
F0.0128216954156
sS'MassiveCock'
p97
F0.0094641519711299998
sS'ImGoingToHellForThis'
p98
F0.0095360449253699998
sS'EmmaWatson'
p99
F0.0080871541237799993
sS'rule34'
p100
F0.0131899443908
s.