(dp1
S'kpop'
p2
F0.0096093958537200007
sS'Boobies'
p3
F0.0368326871458
sS'wifesharing'
p4
F0.0104831792624
sS'boltedontits'
p5
F0.0227709190672
sS'TinyTits'
p6
F0.0309759076274
sS'gentlemanboners'
p7
F0.0145552855075
sS'pussy'
p8
F0.0188145597639
sS'ginger'
p9
F0.025623582766400001
sS'milf'
p10
F0.023487853247399999
sS'kpics'
p11
F0.020944958597200001
sS'incest'
p12
F0.0073112776457699997
sS'Tgirls'
p13
F0.0114609571788
sS'nsfw'
p14
F0.024909230938500001
sS'japan'
p15
F0.0106200317965
sS'thick'
p16
F0.0192097143426
sS'hentai'
p17
F0.020285714285700002
sS'shorthairedhotties'
p18
F0.0085209981740699998
sS'gonewildcurvy'
p19
F0.0096779869787099997
sS'hardbodies'
p20
F0.015533980582500001
sS'SNSD'
p21
F0.00943257184967
sS'Blowjobs'
p22
F0.024864376130200001
sS'redheads'
p23
F0.028758949880700001
sS'RealGirls'
p24
F0.023055796473
sS'GoneMild'
p25
F0.0127057115198
sS'Hotchickswithtattoos'
p26
F0.021743610882100001
sS'GWCouples'
p27
F0.0127911416571
sS'China'
p28
F0.0088721094856099997
sS'randomsexiness'
p29
F0.026186979931500001
sS'tightdresses'
p30
F0.0318705565089
sS'AsiansGoneWild'
p31
F0.0626260995884
sS'asstastic'
p32
F0.0184241747505
sS'BigBoobsGW'
p33
F0.0118981223276
sS'ass'
p34
F0.031175645171100001
sS'pornID'
p35
F0.0191689486844
sS'korea'
p36
F0.0083584410535500007
sS'Stacked'
p37
F0.022614079956899999
sS'cumsluts'
p38
F0.028657065575000001
sS'Bondage'
p39
F0.012874335292500001
sS'hugeboobs'
p40
F0.021569356638200001
sS'treesgonewild'
p41
F0.0078469310975000008
sS'NSFW_GIF'
p42
F0.024028169014100001
sS'celebnsfw'
p43
F0.018826135105199999
sS'girlsinyogapants'
p44
F0.0265641384131
sS'altgonewild'
p45
F0.010458284371299999
sS'nsfw_gifs'
p46
F0.0283416134374
sS'rule34'
p47
F0.016914312562399999
sS'Amateur'
p48
F0.029613276492100001
sS'pantsu'
p49
F0.0088845014807500001
sS'gonewild'
p50
F0.0088019421059399999
sS'tipofmypenis'
p51
F0.0158511043412
sS'gonewildstories'
p52
F0.0078811761139700003
sS'traps'
p53
F0.0077876494460899998
sS'asianamerican'
p54
F0.0081521739130399999
sS'cosplaygirls'
p55
F0.0188232013385
sS'ConfusedBoners'
p56
F0.010779518914100001
sS'Celebs'
p57
F0.014640778052800001
sS'AmateurArchives'
p58
F0.0209533787323
sS'NSFWFunny'
p59
F0.0183722375078
sS'curvy'
p60
F0.0274550224888
sS'WatchItForThePlot'
p61
F0.015912541755199999
sS'PrettyGirls'
p62
F0.0194839789938
sS'pornvids'
p63
F0.0192717412357
sS'watchpeopledie'
p64
F0.0082459442502499994
sS'workgonewild'
p65
F0.0088706474248600002
sS'burstingout'
p66
F0.027941176470600002
sS'anal'
p67
F0.0159833217512
sS'GWNerdy'
p68
F0.0126974295448
sS'BustyPetite'
p69
F0.0399901713864
sS'EmmaWatson'
p70
F0.0093603744149799994
sS'OnOff'
p71
F0.0305862361937
s.