(dp1
S'kpop'
p2
F0.015681544028999999
sS'gaybrosgonemild'
p3
F0.0147540983607
sS'gay'
p4
F0.0075625363583499998
sS'asianamerican'
p5
F0.0100465572164
sS'uglyduckling'
p6
F0.00710788185121
sS'twinks'
p7
F0.014425694066399999
sS'GaybrosGoneWild'
p8
F0.0140958517922
sS'LadyBoners'
p9
F0.0089202316458099999
sS'penis'
p10
F0.0085990210345300005
sS'MassiveCock'
p11
F0.010431350436999999
sS'Korean'
p12
F0.0092566619915799998
sS'AsianBeauty'
p13
F0.0086140888208300001
sS'gaymersgonewild'
p14
F0.0131888836552
sS'KDRAMA'
p15
F0.018471568272399999
sS'ladybonersgw'
p16
F0.015262930235400001
s.