(dp1
S'NoStupidQuestions'
p2
F0.010465230006800001
sS'circlebroke'
p3
F0.013622291021699999
sS'CityPorn'
p4
F0.0089239856188999996
sS'PanicHistory'
p5
F0.017002402513399999
sS'ShitPoliticsSays'
p6
F0.017147636971999999
sS'washingtondc'
p7
F0.00845401749614
sS'inthenews'
p8
F0.019502353732299998
sS'Conservative'
p9
F0.018631986995099999
sS'quotes'
p10
F0.0095877277085299993
sS'PoliticalDiscussion'
p11
F0.059891107078000001
sS'everymanshouldknow'
p12
F0.010065612884
sS'dataisbeautiful'
p13
F0.0103492119814
sS'askphilosophy'
p14
F0.017495576960900001
sS'Foodforthought'
p15
F0.0272598774988
sS'islam'
p16
F0.0083576760792000004
sS'linguistics'
p17
F0.012620133967600001
sS'syriancivilwar'
p18
F0.015795141797299999
sS'ShitRConservativeSays'
p19
F0.010888129803600001
sS'badlinguistics'
p20
F0.0076116373477700004
sS'Documentaries'
p21
F0.0073964813270899999
sS'environment'
p22
F0.0125298329356
sS'whowouldwin'
p23
F0.0070499226228000001
sS'PublicFreakout'
p24
F0.0070189715680800003
sS'texas'
p25
F0.0076315555949999997
sS'MensRights'
p26
F0.0080594961176800005
sS'MilitaryPorn'
p27
F0.0070762453723199996
sS'Frisson'
p28
F0.0072514784567699999
sS'YouShouldKnow'
p29
F0.0101503240932
sS'finance'
p30
F0.0081594807603199999
sS'misc'
p31
F0.0086206896551700007
sS'howto'
p32
F0.00724418955629
sS'DebateAnAtheist'
p33
F0.0103990326481
sS'lostgeneration'
p34
F0.015652557319200001
sS'GunsAreCool'
p35
F0.0115358126722
sS'IWantToLearn'
p36
F0.0095455699416100003
sS'Liberal'
p37
F0.025806451612899999
sS'progressive'
p38
F0.026240517348600001
sS'progun'
p39
F0.011159874608199999
sS'PropagandaPosters'
p40
F0.019896193771599999
sS'MarkMyWords'
p41
F0.0098420413122700008
sS'Enhancement'
p42
F0.0086625818719599998
sS'Libertarian'
p43
F0.015722064575499999
sS'Anarcho_Capitalism'
p44
F0.0150242627846
sS'Firearms'
p45
F0.0072695035461000004
sS'europe'
p46
F0.0118026740433
sS'TrueAtheism'
p47
F0.0143659813561
sS'badhistory'
p48
F0.021245818642100001
sS'energy'
p49
F0.0133664537497
sS'circlebroke2'
p50
F0.00716575523289
sS'literature'
p51
F0.0097357440890100001
sS'Christianity'
p52
F0.0071576794682899998
sS'POLITIC'
p53
F0.018407166523499999
sS'AskAcademia'
p54
F0.0108337904553
sS'changemyview'
p55
F0.0201296696511
sS'OneY'
p56
F0.0098115156209699992
sS'Feminism'
p57
F0.0072500000000000004
sS'forwardsfromgrandma'
p58
F0.010016791152800001
sS'humor'
p59
F0.010272830364899999
sS'psychology'
p60
F0.010848508330099999
sS'skeptic'
p61
F0.015705724323199999
sS'wikipedia'
p62
F0.013606047132100001
sS'socialskills'
p63
F0.0074415679698100002
sS'DebateReligion'
p64
F0.0129744042365
sS'religion'
p65
F0.0080536912751699996
sS'Anticonsumption'
p66
F0.0083172434278899997
sS'socialism'
p67
F0.019615597563900002
sS'AskCulinary'
p68
F0.010025690832799999
sS'Republican'
p69
F0.014715719063500001
sS'Anarchy101'
p70
F0.0073690499900400004
sS'vexillology'
p71
F0.0107875740125
sS'AskFeminists'
p72
F0.0094128193635099992
sS'LetsTalkMusic'
p73
F0.0073050123623299998
sS'bestof'
p74
F0.0084250255225700003
sS'business'
p75
F0.0092952706907300005
sS'FloridaMan'
p76
F0.0094738189732399992
sS'legaladvice'
p77
F0.0071886483731699998
sS'answers'
p78
F0.014799813055
sS'conservatives'
p79
F0.0117212936835
sS'worldbuilding'
p80
F0.0071418368804499997
sS'PoliticalHumor'
p81
F0.023553624514100001
sS'TheoryOfReddit'
p82
F0.021782424695
sS'RedditDayOf'
p83
F0.0153363541304
sS'WarshipPorn'
p84
F0.0092231287690699992
sS'TheBluePill'
p85
F0.0070306397014100004
sS'ukpolitics'
p86
F0.011847721927
sS'gunpolitics'
p87
F0.0119250425894
sS'whatstheword'
p88
F0.0087997184090099993
sS'IWantOut'
p89
F0.0075414781297099996
sS'paradoxplaza'
p90
F0.0077497333807299996
sS'QuotesPorn'
p91
F0.0099403578528799996
sS'ShitAmericansSay'
p92
F0.014530860780499999
sS'TrueReddit'
p93
F0.0190544983561
sS'AmIFreeToGo'
p94
F0.0105111023519
sS'Scotland'
p95
F0.0079642421779800004
sS'conspiratard'
p96
F0.0149017699653
sS'ProtectAndServe'
p97
F0.0092975206611600001
sS'HistoryPorn'
p98
F0.0109545464728
sS'CrazyIdeas'
p99
F0.011776187378
sS'AskHistorians'
p100
F0.022040284427300001
sS'privacy'
p101
F0.0099836805222199999
sS'Bad_Cop_No_Donut'
p102
F0.0116328356803
sS'OutOfTheLoop'
p103
F0.0101873075409
sS'SubredditDrama'
p104
F0.0109931615776
sS'California'
p105
F0.0097129760995300005
sS'ifyoulikeblank'
p106
F0.0073229750382100001
sS'urbanplanning'
p107
F0.0072261455082900002
sS'ObscureMedia'
p108
F0.0076682760579399999
sS'CombatFootage'
p109
F0.0078082929456099997
sS'explainlikeIAmA'
p110
F0.010175438596500001
sS'DaystromInstitute'
p111
F0.0095154626267699993
sS'occupywallstreet'
p112
F0.012987012987
sS'cordcutters'
p113
F0.0070689478537000004
sS'MapPorn'
p114
F0.0118883596426
sS'polandball'
p115
F0.0085740667458100005
sS'NeutralPolitics'
p116
F0.044089362331700001
sS'CanadaPolitics'
p117
F0.0114198705748
sS'SelfDrivingCars'
p118
F0.0072132301196299996
sS'worldpolitics'
p119
F0.021471379359199998
sS'offbeat'
p120
F0.012385670731700001
sS'findareddit'
p121
F0.0087375469541099999
sS'standupshots'
p122
F0.00754761716589
sS'AskScienceDiscussion'
p123
F0.012079157029
sS'russia'
p124
F0.0097637795275599994
sS'history'
p125
F0.0113645311147
sS'AskScienceFiction'
p126
F0.013008514664099999
sS'NewsOfTheStupid'
p127
F0.0076219512195099997
sS'Economics'
p128
F0.023959706269999999
sS'arabs'
p129
F0.0092436974789900008
sS'Infographics'
p130
F0.013641954601400001
sS'TrueAskReddit'
p131
F0.032005447735799997
sS'conspiracy'
p132
F0.0088650175627700001
sS'politics'
p133
F0.0096190255163700004
sS'AnythingGoesNews'
p134
F0.0146542512593
sS'education'
p135
F0.0074951118835500001
sS'collapse'
p136
F0.0099377235987800003
sS'HouseOfCards'
p137
F0.0094707877391700009
sS'Israel'
p138
F0.012098895318299999
sS'MURICA'
p139
F0.0075818795455599997
sS'self'
p140
F0.0087048511409999994
sS'AskSocialScience'
p141
F0.047902056341399997
sS'TheWayWeWere'
p142
F0.0093524328163800009
sS'scifi'
p143
F0.0083486972553699999
sS'spaceporn'
p144
F0.0077685846017800002
sS'FutureWhatIf'
p145
F0.023540883131400001
sS'economy'
p146
F0.019154794684500001
sS'BasicIncome'
p147
F0.018716283166400002
sS'Anarchism'
p148
F0.0117530060573
sS'badphilosophy'
p149
F0.0100619195046
sS'askscience'
p150
F0.0081078699215699993
sS'Futurology'
p151
F0.0088806787082600005
sS'philosophy'
p152
F0.010217466344499999
sS'DebateAChristian'
p153
F0.0085855806274099996
sS'EnoughLibertarianSpam'
p154
F0.021394831897700001
sS'law'
p155
F0.017104877333599999
sS'Physics'
p156
F0.0081738301205599995
sS'truegaming'
p157
F0.0076942482341100004
sS'TrueFilm'
p158
F0.0088961510530100006
sS'HumanPorn'
p159
F0.0091013329511299996
sS'investing'
p160
F0.0084334732879700006
sS'Shitstatistssay'
p161
F0.0131283468647
sS'HailCorporate'
p162
F0.0090803709428099993
sS'AskEngineers'
p163
F0.0086425271941599994
s.