(dp1
S'badhistory'
p2
F0.0097711267605600002
sS'TrueReddit'
p3
F0.0102281667978
sS'EatCheapAndHealthy'
p4
F0.0074930699930700001
sS'AskSocialScience'
p5
F0.034637514384300003
sS'TrueAskReddit'
p6
F0.011930228731300001
sS'engineering'
p7
F0.0072083204613300001
sS'AskScienceDiscussion'
p8
F0.019888522928800001
sS'college'
p9
F0.0136428913356
sS'changemyview'
p10
F0.0084957115918799994
sS'askphilosophy'
p11
F0.017199729442499999
sS'Foodforthought'
p12
F0.011797863275899999
sS'education'
p13
F0.0137309590217
sS'philosophy'
p14
F0.0075977959546899999
sS'Ask_Politics'
p15
F0.0108337904553
sS'linguistics'
p16
F0.0148311166396
sS'statistics'
p17
F0.0277053902071
sS'languagelearning'
p18
F0.0094750964279700003
sS'psychology'
p19
F0.011321909424700001
sS'TheoryOfReddit'
p20
F0.011827178373199999
sS'badlinguistics'
p21
F0.0085526315789500006
sS'skeptic'
p22
F0.0082346363035600001
sS'HomeworkHelp'
p23
F0.0077915753591400001
sS'wikipedia'
p24
F0.0087161160986700004
sS'learnmath'
p25
F0.0089157614265199994
sS'socialskills'
p26
F0.0071124493821999998
sS'booksuggestions'
p27
F0.0070951096516900002
sS'AskCulinary'
p28
F0.0097291937782699994
sS'math'
p29
F0.014697901591900001
sS'SampleSize'
p30
F0.0084285446712900006
sS'biology'
p31
F0.023344239101599999
sS'literature'
p32
F0.011575292013
sS'jobs'
p33
F0.0083301619518799993
sS'Scholar'
p34
F0.019261130407300001
sS'badphilosophy'
p35
F0.0087323095453199998
sS'askscience'
p36
F0.0092056944514299997
sS'Economics'
p37
F0.0091582677527700003
sS'answers'
p38
F0.011104303875000001
sS'Teachers'
p39
F0.0080999569151200008
sS'GradSchool'
p40
F0.115170278638
sS'productivity'
p41
F0.0075637428327400003
sS'NeutralPolitics'
p42
F0.0089285714285700004
sS'Physics'
p43
F0.015735214324500001
sS'IWantToLearn'
p44
F0.0077877706878399997
sS'chemistry'
p45
F0.013613861386100001
sS'grammar'
p46
F0.0081683511006499995
sS'AskHistorians'
p47
F0.012936935930000001
sS'MachineLearning'
p48
F0.013077469793900001
sS'PoliticalDiscussion'
p49
F0.0079406746292200008
sS'PropagandaPosters'
p50
F0.0073398343294500002
sS'compsci'
p51
F0.010720241404
sS'AskPhysics'
p52
F0.0125777070985
sS'AskEngineers'
p53
F0.0096451185392399993
sS'lostgeneration'
p54
F0.0084854994629399993
sS'IWantOut'
p55
F0.0088488256698600002
s.