(dp1
S'PoliticalDiscussion'
p2
F0.0120118058892
sS'TrueAtheism'
p3
F0.0078293208064199992
sS'badhistory'
p4
F0.015908665543700001
sS'TrueReddit'
p5
F0.0092010771992800007
sS'AskWomen'
p6
F0.0123957477196
sS'bisexual'
p7
F0.010498687664
sS'askphilosophy'
p8
F0.0134969325153
sS'TrueAskReddit'
p9
F0.0105518076457
sS'PurplePillDebate'
p10
F0.024644220756699999
sS'POLITIC'
p11
F0.0074349442379200003
sS'blackladies'
p12
F0.013516086046100001
sS'bigboobproblems'
p13
F0.0071038251366099996
sS'changemyview'
p14
F0.0154415412601
sS'TwoXChromosomes'
p15
F0.0096723377441699995
sS'TrollXChromosomes'
p16
F0.0095886120005599998
sS'OneY'
p17
F0.025420197249599999
sS'Foodforthought'
p18
F0.0098106008993100006
sS'ShitRedditSays'
p19
F0.0178721811547
sS'Feminism'
p20
F0.081630757800899997
sS'SRSsucks'
p21
F0.0162277580071
sS'asktrp'
p22
F0.0074387849984500001
sS'AskMen'
p23
F0.0090427010003699994
sS'psychology'
p24
F0.0075939248601099999
sS'AskHistorians'
p25
F0.0083755411561600001
sS'badlinguistics'
p26
F0.0089612289685399998
sS'skeptic'
p27
F0.00860621326616
sS'philosophy'
p28
F0.0073737550235899998
sS'AskSocialScience'
p29
F0.0142891741342
sS'NoStupidQuestions'
p30
F0.0071197837695299998
sS'DebateReligion'
p31
F0.010344196265099999
sS'badphilosophy'
p32
F0.0131535131535
sS'GirlGamers'
p33
F0.015625
sS'TumblrInAction'
p34
F0.0075352390989299996
sS'againstmensrights'
p35
F0.047723132969
sS'ShitAmericansSay'
p36
F0.0071616486407500004
sS'conspiratard'
p37
F0.0081290722928899998
sS'islam'
p38
F0.0073955794604600002
sS'Anarchy101'
p39
F0.011388523872099999
sS'asktransgender'
p40
F0.0125775473783
sS'circlebroke'
p41
F0.0134277568288
sS'MensRights'
p42
F0.022176536011599999
sS'TrollYChromosome'
p43
F0.0095378312635999996
sS'Anarchism'
p44
F0.0123352165725
sS'BasicIncome'
p45
F0.0097387717690200007
sS'linguistics'
p46
F0.0076651538073600001
sS'Economics'
p47
F0.0074210625827199998
sS'DebateAChristian'
p48
F0.00960648148148
sS'lgbt'
p49
F0.0100595478985
sS'DebateAnAtheist'
p50
F0.0094363682733999994
sS'actuallesbians'
p51
F0.0087748677071500004
sS'EnoughLibertarianSpam'
p52
F0.013341152323699999
sS'lostgeneration'
p53
F0.00896964121435
sS'TheGirlSurvivalGuide'
p54
F0.0093979217603899993
sS'ainbow'
p55
F0.015582391897199999
sS'NeutralPolitics'
p56
F0.0089966453186900008
sS'SRSGaming'
p57
F0.0153603781016
sS'RedPillWomen'
p58
F0.0098723404255300004
sS'TheoryOfReddit'
p59
F0.0105359001041
sS'Liberal'
p60
F0.0086153846153800007
sS'creepyPMs'
p61
F0.0087812103258599998
sS'progressive'
p62
F0.0087809917355400006
sS'rant'
p63
F0.0075701624815399998
sS'worldpolitics'
p64
F0.0070282078070100003
sS'TheBluePill'
p65
F0.025542080117600001
sS'FeMRADebates'
p66
F0.059816590245899998
sS'TheRedPill'
p67
F0.0076931451173899998
sS'socialism'
p68
F0.0141728435285
sS'Ask_Politics'
p69
F0.0094128193635099992
sS'SubredditDrama'
p70
F0.0104012184857
sS'Anarcho_Capitalism'
p71
F0.0082109737248799997
sS'polyamory'
p72
F0.0099706129303099994
s.