(dp1
S'playstation'
p2
F0.0087855297157600001
sS'gamemusic'
p3
F0.0120311394197
sS'pcgaming'
p4
F0.011395659267300001
sS'HalfLife'
p5
F0.00828544701323
sS'PlayStationPlus'
p6
F0.0109581597537
sS'AskScienceFiction'
p7
F0.0098973829619300006
sS'xbox360'
p8
F0.0081920903954800003
sS'classic4chan'
p9
F0.0078936850519599998
sS'ShouldIbuythisgame'
p10
F0.031669696791999997
sS'FanTheories'
p11
F0.00753178857826
sS'hardware'
p12
F0.0071260767423600001
sS'masseffect'
p13
F0.0076410658307199996
sS'FinalFantasy'
p14
F0.0077628793225099999
sS'MarkMyWords'
p15
F0.00813113061435
sS'wiiu'
p16
F0.0075173839503900001
sS'IndieGaming'
p17
F0.0117481203008
sS'PS3'
p18
F0.0096078533758
sS'JRPG'
p19
F0.012509951097499999
sS'nintendo'
p20
F0.0082890209571499993
sS'CrazyIdeas'
p21
F0.0074732510288099997
sS'mountandblade'
p22
F0.0076652826572999998
sS'TheoryOfReddit'
p23
F0.0092956271275200005
sS'OutOfTheLoop'
p24
F0.0082990461941299994
sS'outside'
p25
F0.0071790104328100001
sS'ifyoulikeblank'
p26
F0.0078289473684200004
sS'gamedesign'
p27
F0.011263467189000001
sS'WebGames'
p28
F0.0072727272727299997
sS'gamingpc'
p29
F0.0070705140454799999
sS'FutureWhatIf'
p30
F0.0076515597410200002
sS'truegaming'
p31
F0.0259956293421
sS'GiftofGames'
p32
F0.0108436132113
sS'3DS'
p33
F0.0071325553953099996
sS'skyrimmods'
p34
F0.00713543470731
sS'rpg_gamers'
p35
F0.016272391631299999
sS'gamernews'
p36
F0.0201093667313
sS'AskTechnology'
p37
F0.00769089910273
sS'answers'
p38
F0.0085332474641800007
sS'patientgamers'
p39
F0.023629169022000001
sS'GameDealsMeta'
p40
F0.0115648717022
sS'Games'
p41
F0.0111666224185
sS'emulation'
p42
F0.0103533065873
sS'NoStupidQuestions'
p43
F0.0094676906779700004
sS'Gaming4Gamers'
p44
F0.024385805277499999
sS'thelastofus'
p45
F0.0075688767786900001
sS'GamePhysics'
p46
F0.0112201963534
sS'AndroidGaming'
p47
F0.0095634095634099994
sS'Steam'
p48
F0.00894412342061
sS'RandomActsOfGaming'
p49
F0.010244827169
sS'gamingsuggestions'
p50
F0.047226798462400001
sS'Morrowind'
p51
F0.0084317032040499996
sS'TrueAskReddit'
p52
F0.0098166970723699998
sS'Cynicalbrit'
p53
F0.0088063405652099996
sS'windows'
p54
F0.0071066819147200004
sS'GirlGamers'
p55
F0.0078655151141300006
sS'gamecollecting'
p56
F0.0099345224655700004
sS'Megaten'
p57
F0.0077591558038499998
sS'findareddit'
p58
F0.0113481228669
sS'oblivion'
p59
F0.0077661032434899998
sS'MMORPG'
p60
F0.00811561187442
sS'GameDeals'
p61
F0.012277424028699999
sS'retrogaming'
p62
F0.0088508208422600002
s.