(dp1
S'firefox'
p2
F0.0096636085626899994
sS'Piracy'
p3
F0.0077123738233
sS'netsec'
p4
F0.091681415929199997
sS'linuxquestions'
p5
F0.027939176659699999
sS'linuxadmin'
p6
F0.031611039794599997
sS'sysadmin'
p7
F0.028540334648300001
sS'LinuxActionShow'
p8
F0.0073962010421899996
sS'webhosting'
p9
F0.0119006553984
sS'torrents'
p10
F0.0086393088552900003
sS'linux'
p11
F0.020876547340199999
sS'webdev'
p12
F0.0106150359798
sS'vmware'
p13
F0.018266303477
sS'techsupportmacgyver'
p14
F0.010206948216099999
sS'24hoursupport'
p15
F0.0079327304458199997
sS'TheoryOfReddit'
p16
F0.0073380566801600003
sS'arduino'
p17
F0.0086041266393800005
sS'Python'
p18
F0.0143292899198
sS'linux4noobs'
p19
F0.022292276514300002
sS'unixporn'
p20
F0.0145810923868
sS'archlinux'
p21
F0.0139841688654
sS'Ubuntu'
p22
F0.0153276955603
sS'web_design'
p23
F0.0077519379845000002
sS'electronics'
p24
F0.010397958219100001
sS'talesfromtechsupport'
p25
F0.0100092943447
sS'cablefail'
p26
F0.0138200390566
sS'raspberry_pi'
p27
F0.0137353433836
sS'lockpicking'
p28
F0.017783423308999999
sS'cscareerquestions'
p29
F0.011329688292700001
sS'javascript'
p30
F0.0074537148353000003
sS'HomeNetworking'
p31
F0.017133706965600001
sS'AskElectronics'
p32
F0.0088344864289499996
sS'cordcutters'
p33
F0.0078915944135800001
sS'geek'
p34
F0.0090035153167400007
sS'linux_gaming'
p35
F0.0080303368280200006
sS'thinkpad'
p36
F0.0074884792626699996
sS'homelab'
p37
F0.032328136979300003
sS'networking'
p38
F0.037680746491900001
sS'learnpython'
p39
F0.0149793907711
sS'amateurradio'
p40
F0.0099215163630999997
sS'ProgrammerHumor'
p41
F0.0110524579347
sS'software'
p42
F0.0125710141424
sS'hardware'
p43
F0.0099345398536800009
sS'trackers'
p44
F0.0082784971343700005
sS'windows'
p45
F0.0109272055279
sS'techsupportgore'
p46
F0.0087846550612500005
sS'programming'
p47
F0.0116271826921
sS'crypto'
p48
F0.042838271371999997
sS'cableporn'
p49
F0.0115449596396
sS'privacy'
p50
F0.038092351217500001
sS'softwaregore'
p51
F0.0088942793612300005
sS'compsci'
p52
F0.0140079103494
sS'vim'
p53
F0.0091919940696799998
sS'Cyberpunk'
p54
F0.010810810810800001
sS'hacking'
p55
F0.0449780182618
sS'PHP'
p56
F0.011170872982999999
sS'DataHoarder'
p57
F0.0149384885764
sS'microsoft'
p58
F0.0086398743290999995
sS'learnprogramming'
p59
F0.0100346652071
s.