(dp1
S'photoshop'
p2
F0.0167830290011
sS'astrophotography'
p3
F0.0108436921449
sS'videography'
p4
F0.016172057352500002
sS'ExposurePorn'
p5
F0.024576822916699999
sS'photocritique'
p6
F0.0540444444444
sS'photography'
p7
F0.034395158988400003
sS'Filmmakers'
p8
F0.0087613812059800008
sS'itookapicture'
p9
F0.019111960531600001
sS'analog'
p10
F0.035658914728700003
sS'VideoEditing'
p11
F0.0083111702127699992
s.