(dp1
S'Heavymind'
p2
F0.010580132074099999
sS'NoStupidQuestions'
p3
F0.010145827787099999
sS'circlebroke'
p4
F0.0145782714335
sS'polandball'
p5
F0.0071040534893399999
sS'PanicHistory'
p6
F0.0085022129047299996
sS'zen'
p7
F0.017325680272099998
sS'Poetry'
p8
F0.010960172892899999
sS'inthenews'
p9
F0.0084780640381900002
sS'Conservative'
p10
F0.0099184712052799995
sS'quotes'
p11
F0.0128774422735
sS'PoliticalDiscussion'
p12
F0.022524531668199999
sS'DeepIntoYouTube'
p13
F0.0072867983315700003
sS'everymanshouldknow'
p14
F0.0101853397896
sS'dataisbeautiful'
p15
F0.0109302753072
sS'Foodforthought'
p16
F0.024132562277599998
sS'StonerPhilosophy'
p17
F0.0109560723514
sS'islam'
p18
F0.0105706874189
sS'linguistics'
p19
F0.020504731861199998
sS'AskMen'
p20
F0.0073599609244899998
sS'languagelearning'
p21
F0.0090017466075499996
sS'TheoryOfReddit'
p22
F0.0181867048916
sS'badlinguistics'
p23
F0.0188953488372
sS'Anticonsumption'
p24
F0.0118018109675
sS'Documentaries'
p25
F0.0093951378154299992
sS'writing'
p26
F0.0131300935708
sS'environment'
p27
F0.0106305870983
sS'booksuggestions'
p28
F0.0110860295962
sS'whowouldwin'
p29
F0.0072858307688299997
sS'TrueChristian'
p30
F0.0079423137213899993
sS'scifi'
p31
F0.0098652172546999997
sS'MensRights'
p32
F0.0097327221858400006
sS'Frisson'
p33
F0.0090719981509300007
sS'Judaism'
p34
F0.0085569817191800002
sS'vegan'
p35
F0.0081152699569400008
sS'spaceporn'
p36
F0.0071669477234399996
sS'DebateAnAtheist'
p37
F0.025293908086900001
sS'lostgeneration'
p38
F0.0115299697441
sS'grammar'
p39
F0.00993898838811
sS'magicskyfairy'
p40
F0.0072350845948400003
sS'intj'
p41
F0.0070678946241200004
sS'occult'
p42
F0.0090637179371000007
sS'IWantToLearn'
p43
F0.012970453745999999
sS'Liberal'
p44
F0.00744269127717
sS'progressive'
p45
F0.0125144226502
sS'books'
p46
F0.0078830609040200002
sS'conspiratard'
p47
F0.011933904528800001
sS'PropagandaPosters'
p48
F0.015243164771399999
sS'comics'
p49
F0.0081598338361100007
sS'compsci'
p50
F0.0104850122218
sS'SubredditDrama'
p51
F0.012579205879000001
sS'Cyberpunk'
p52
F0.0085269665316599994
sS'Libertarian'
p53
F0.012327971860800001
sS'fifthworldproblems'
p54
F0.0082098875602399993
sS'Anarcho_Capitalism'
p55
F0.0205818181818
sS'MovieSuggestions'
p56
F0.0072508014043699996
sS'YouShouldKnow'
p57
F0.010337295539999999
sS'europe'
p58
F0.00934500993257
sS'TrueAtheism'
p59
F0.022223415105500001
sS'badhistory'
p60
F0.024528569403100001
sS'latin'
p61
F0.0080957409362899992
sS'energy'
p62
F0.0072171148724100003
sS'circlebroke2'
p63
F0.0071115325352599998
sS'literature'
p64
F0.0239024390244
sS'Christianity'
p65
F0.013749031758299999
sS'POLITIC'
p66
F0.00845144819086
sS'interestingasfuck'
p67
F0.0074712267852499997
sS'AskScienceDiscussion'
p68
F0.016305849838799999
sS'changemyview'
p69
F0.0249635462234
sS'OneY'
p70
F0.0085438677078499992
sS'Feminism'
p71
F0.0129585326954
sS'forwardsfromgrandma'
p72
F0.0080250538265799996
sS'humor'
p73
F0.0074314653748800003
sS'psychology'
p74
F0.0210499779416
sS'space'
p75
F0.0071732833532100002
sS'skeptic'
p76
F0.0175266467466
sS'learnmath'
p77
F0.0112749349523
sS'wikipedia'
p78
F0.014074693422499999
sS'socialskills'
p79
F0.0100645394232
sS'DebateReligion'
p80
F0.039866401364399999
sS'religion'
p81
F0.0140711161818
sS'outside'
p82
F0.0089756437628000004
sS'AskCulinary'
p83
F0.0082121560832700002
sS'Astronomy'
p84
F0.0073666849917499999
sS'Anarchy101'
p85
F0.015955473098300001
sS'vexillology'
p86
F0.0086540945492099997
sS'math'
p87
F0.017493294904099999
sS'AskFeminists'
p88
F0.0134969325153
sS'LetsTalkMusic'
p89
F0.0115182372089
sS'biology'
p90
F0.0096427332639600002
sS'bestof'
p91
F0.010541279168700001
sS'casualiama'
p92
F0.0082082919433300004
sS'Economics'
p93
F0.0189813867867
sS'delusionalartists'
p94
F0.0070525545920000002
sS'answers'
p95
F0.013336672719300001
sS'minimalism'
p96
F0.0092635839950199993
sS'CrazyIdeas'
p97
F0.0090424435215500001
sS'shittyaskscience'
p98
F0.0077959963786300001
sS'ainbow'
p99
F0.0076884386002700001
sS'lewronggeneration'
p100
F0.0081724220815600004
sS'worldbuilding'
p101
F0.010835822643899999
sS'PoliticalHumor'
p102
F0.0072373346643400003
sS'RedditDayOf'
p103
F0.0094195519348299998
sS'TheBluePill'
p104
F0.012000274292000001
sS'DrugNerds'
p105
F0.0093737124021399994
sS'howtonotgiveafuck'
p106
F0.010408615447999999
sS'ukpolitics'
p107
F0.0087413781328999993
sS'AskPhysics'
p108
F0.010934494279600001
sS'whatstheword'
p109
F0.0122287289011
sS'classicalmusic'
p110
F0.012975422216099999
sS'INTP'
p111
F0.011437524481
sS'QuotesPorn'
p112
F0.015022330491299999
sS'ShitAmericansSay'
p113
F0.0078808265257100003
sS'TrueReddit'
p114
F0.018865743416599998
sS'Catholicism'
p115
F0.0126711789706
sS'confession'
p116
F0.0074826621243500001
sS'printSF'
p117
F0.0071979434447300003
sS'Buddhism'
p118
F0.020285051375500001
sS'unitedkingdom'
p119
F0.0071111586376499999
sS'HistoryPorn'
p120
F0.0081219333959699994
sS'statistics'
p121
F0.0073090979034400004
sS'AskHistorians'
p122
F0.0221185910796
sS'privacy'
p123
F0.0086283185840700001
sS'Bad_Cop_No_Donut'
p124
F0.0072777823207100002
sS'OutOfTheLoop'
p125
F0.010955056179800001
sS'MorbidReality'
p126
F0.0074676901024200004
sS'ifyoulikeblank'
p127
F0.011029411764700001
sS'AskAcademia'
p128
F0.017199729442499999
sS'musictheory'
p129
F0.0099482035682000002
sS'explainlikeIAmA'
p130
F0.010677137149500001
sS'Scholar'
p131
F0.0084419747809399998
sS'occupywallstreet'
p132
F0.0093574547722999994
sS'Psychonaut'
p133
F0.016377737226299999
sS'NeutralPolitics'
p134
F0.015309672929699999
sS'getdisciplined'
p135
F0.0101181331779
sS'againstmensrights'
p136
F0.0088495575221199992
sS'worldpolitics'
p137
F0.0128639686364
sS'science'
p138
F0.0094857769909099995
sS'TheRedPill'
p139
F0.0071607475435100003
sS'offbeat'
p140
F0.0086370703057500001
sS'Glitch_in_the_Matrix'
p141
F0.0070248614236300003
sS'standupshots'
p142
F0.0079856469429399994
sS'socialism'
p143
F0.026154239672599999
sS'findareddit'
p144
F0.0086498439125899992
sS'Meditation'
p145
F0.0169120785318
sS'history'
p146
F0.0110097972645
sS'AskScienceFiction'
p147
F0.010660555943
sS'DecidingToBeBetter'
p148
F0.0118231105885
sS'TrueAskReddit'
p149
F0.0218001872409
sS'FanTheories'
p150
F0.00767292716445
sS'conspiracy'
p151
F0.0084977877659900003
sS'learnprogramming'
p152
F0.00733607340853
sS'Infographics'
p153
F0.0084165360178199995
sS'politics'
p154
F0.0075716344802400004
sS'ShitRedditSays'
p155
F0.0102603475954
sS'collapse'
p156
F0.0098379087416799998
sS'Israel'
p157
F0.0071738273551399997
sS'Nootropics'
p158
F0.0092150400215200001
sS'selfimprovement'
p159
F0.0073549441569100002
sS'self'
p160
F0.0097578505086200005
sS'Jazz'
p161
F0.0092186791597399995
sS'AskSocialScience'
p162
F0.0357297344061
sS'TumblrInAction'
p163
F0.0076887261378899997
sS'chess'
p164
F0.0090928772461599996
sS'nottheonion'
p165
F0.0075103548081200001
sS'Ask_Politics'
p166
F0.017495576960900001
sS'FutureWhatIf'
p167
F0.0083517327445500004
sS'economy'
p168
F0.0106530400139
sS'BasicIncome'
p169
F0.016131673763499998
sS'Anarchism'
p170
F0.0223758284045
sS'MapPorn'
p171
F0.0084272777675100004
sS'badphilosophy'
p172
F0.100613915416
sS'askscience'
p173
F0.0129988680761
sS'Futurology'
p174
F0.0107403901772
sS'philosophy'
p175
F0.080625270806299998
sS'DebateAChristian'
p176
F0.021391261089499999
sS'EnoughLibertarianSpam'
p177
F0.018414421399499999
sS'GradSchool'
p178
F0.0083284260116099993
sS'law'
p179
F0.0120140288038
sS'Physics'
p180
F0.0163572560561
sS'truegaming'
p181
F0.0094296228150899993
sS'TrueFilm'
p182
F0.015441542731100001
sS'HumanPorn'
p183
F0.0081885710943399997
sS'atheism'
p184
F0.0077730761143799997
sS'Shitstatistssay'
p185
F0.0087219054008700007
sS'HailCorporate'
p186
F0.0074063101762699996
s.