(dp1
S'EngineeringStudents'
p2
F0.0107412727159
sS'TrueAskReddit'
p3
F0.00745501285347
sS'engineering'
p4
F0.0085905186127899994
sS'AskScienceDiscussion'
p5
F0.023442824042500001
sS'askphilosophy'
p6
F0.010934494279600001
sS'cheatatmathhomework'
p7
F0.020193247204400001
sS'linguistics'
p8
F0.00750825908499
sS'ECE'
p9
F0.0082405667196799991
sS'skeptic'
p10
F0.0070992326564700003
sS'HomeworkHelp'
p11
F0.018002571796
sS'learnmath'
p12
F0.030118480788400001
sS'electronics'
p13
F0.0083961454059699996
sS'Astronomy'
p14
F0.013211938663700001
sS'math'
p15
F0.026825493598499998
sS'AskAcademia'
p16
F0.0125777070985
sS'askscience'
p17
F0.011163829193399999
sS'philosophy'
p18
F0.0073198786991500002
sS'AskElectronics'
p19
F0.0103649319801
sS'GradSchool'
p20
F0.0085806220951000003
sS'learnpython'
p21
F0.0070664243892600001
sS'Physics'
p22
F0.074838037083899994
sS'AskEngineers'
p23
F0.011908420405700001
sS'compsci'
p24
F0.0074404761904800004
sS'chemistry'
p25
F0.0120035446709
s.