(dp1
S'amiugly'
p2
F0.0074962518740600004
sS'AskWomen'
p3
F0.00770768286151
sS'malehairadvice'
p4
F0.012270270270299999
sS'DecidingToBeBetter'
p5
F0.010841883140500001
sS'Rateme'
p6
F0.0079732230325500007
sS'sex'
p7
F0.0071714877154399996
sS'PurplePillDebate'
p8
F0.0090665304558800001
sS'college'
p9
F0.0082301581621699992
sS'everymanshouldknow'
p10
F0.0093708165997300006
sS'bodybuilding'
p11
F0.0081269885184699995
sS'OneY'
p12
F0.0074105896251700004
sS'asktrp'
p13
F0.024324324324300001
sS'ForeverAlone'
p14
F0.0089178420087299998
sS'AskMen'
p15
F0.0094322530969
sS'productivity'
p16
F0.0075235109717899998
sS'psychology'
p17
F0.0071729084764499997
sS'selfimprovement'
p18
F0.0122588210212
sS'Advice'
p19
F0.0082213578500700008
sS'seduction'
p20
F0.083920082919300004
sS'pornfree'
p21
F0.0094856661045500008
sS'socialskills'
p22
F0.0249050648518
sS'malefashionadvice'
p23
F0.0087287016458899996
sS'RedPillWomen'
p24
F0.0071111111111100004
sS'MensRights'
p25
F0.0074796646616999999
sS'malelivingspace'
p26
F0.0086558044806500003
sS'OkCupid'
p27
F0.0091048518635700008
sS'malegrooming'
p28
F0.0132450331126
sS'socialanxiety'
p29
F0.0080433969322899999
sS'NoFap'
p30
F0.010879142615699999
sS'bodyweightfitness'
p31
F0.0082761624741399999
sS'frugalmalefashion'
p32
F0.0076500709482399997
sS'IWantToLearn'
p33
F0.0097009653873300003
sS'getdisciplined'
p34
F0.010878370559000001
sS'dating_advice'
p35
F0.021312692185299999
sS'TheRedPill'
p36
F0.0183366973419
sS'relationship_advice'
p37
F0.0103193666044
sS'howtonotgiveafuck'
p38
F0.018548888763199999
sS'Meditation'
p39
F0.0100642026722
sS'gainit'
p40
F0.0094865750589300003
sS'self'
p41
F0.0089541030010699997
sS'AmISexy'
p42
F0.0094317096466099998
s.