(dp1
S'delusionalartists'
p2
F0.0080686402636499996
sS'Heavymind'
p3
F0.0076990237320399999
sS'NoStupidQuestions'
p4
F0.0143692460811
sS'Piracy'
p5
F0.0072131147541
sS'CityPorn'
p6
F0.0132094219417
sS'PanicHistory'
p7
F0.0187356979405
sS'ShitPoliticsSays'
p8
F0.0091828793774300001
sS'washingtondc'
p9
F0.0090125649628300004
sS'inthenews'
p10
F0.015253434391300001
sS'Conservative'
p11
F0.0144418644164
sS'PurplePillDebate'
p12
F0.0084842345194399999
sS'quotes'
p13
F0.012246938265399999
sS'BuyItForLife'
p14
F0.011984171848499999
sS'SampleSize'
p15
F0.012015246934000001
sS'london'
p16
F0.00732829631313
sS'everymanshouldknow'
p17
F0.012660906365699999
sS'dataisbeautiful'
p18
F0.018459746688
sS'InternetIsBeautiful'
p19
F0.0075835337735400002
sS'spacex'
p20
F0.0071297616622499997
sS'japan'
p21
F0.00823683896383
sS'Foodforthought'
p22
F0.041970127144800001
sS'financialindependence'
p23
F0.0095564812545900005
sS'islam'
p24
F0.0086163567171700008
sS'linguistics'
p25
F0.032293986636999998
sS'AskMen'
p26
F0.0089461421882400007
sS'languagelearning'
p27
F0.0131489969194
sS'syriancivilwar'
p28
F0.014348785871999999
sS'ShitRConservativeSays'
p29
F0.0082500396636500002
sS'badlinguistics'
p30
F0.024611223799899998
sS'quityourbullshit'
p31
F0.0090623910770299999
sS'paradoxplaza'
p32
F0.0121763650346
sS'LearnUselessTalents'
p33
F0.010866489331599999
sS'ProtectAndServe'
p34
F0.0100288120567
sS'duolingo'
p35
F0.0087728682999899995
sS'HistoryPorn'
p36
F0.0161504184328
sS'booksuggestions'
p37
F0.0090500189671099997
sS'whowouldwin'
p38
F0.0074268957768100002
sS'collapse'
p39
F0.013155009866299999
sS'askphilosophy'
p40
F0.0357297344061
sS'scifi'
p41
F0.0134432634681
sS'MensRights'
p42
F0.011334540685700001
sS'nononono'
p43
F0.0086422668240900002
sS'MilitaryPorn'
p44
F0.0079378925331500001
sS'Frisson'
p45
F0.00969950551541
sS'Judaism'
p46
F0.0084455603743399995
sS'RoomPorn'
p47
F0.0099736274274799998
sS'SelfDrivingCars'
p48
F0.010316368638199999
sS'misc'
p49
F0.0090732339598199995
sS'CrusaderKings'
p50
F0.0093724273320199992
sS'UnresolvedMysteries'
p51
F0.0078288942695699994
sS'UpliftingNews'
p52
F0.0085954739056800008
sS'AbandonedPorn'
p53
F0.0084388185654000001
sS'geek'
p54
F0.0097963305840800003
sS'spaceporn'
p55
F0.0086078273843699996
sS'DebateAnAtheist'
p56
F0.0097165991902799995
sS'lostgeneration'
p57
F0.020919713531899999
sS'Military'
p58
F0.0078545340297700005
sS'firstworldproblems'
p59
F0.0081857816531700003
sS'bodyweightfitness'
p60
F0.0074282925771299996
sS'homestead'
p61
F0.0071053444547400004
sS'linux'
p62
F0.00756114257266
sS'GunsAreCool'
p63
F0.0077988436197400004
sS'IWantToLearn'
p64
F0.015681828916899999
sS'grammar'
p65
F0.0097188476223500006
sS'progressive'
p66
F0.023535510627299999
sS'IdiotsFightingThings'
p67
F0.0075013395249199999
sS'conspiratard'
p68
F0.016943503138700002
sS'PropagandaPosters'
p69
F0.0292419444962
sS'CrappyDesign'
p70
F0.0093244529019999994
sS'NewsOfTheWeird'
p71
F0.0088001983143299999
sS'comics'
p72
F0.0100656455142
sS'compsci'
p73
F0.010480536147200001
sS'MarkMyWords'
p74
F0.0082233502538099999
sS'architecture'
p75
F0.0094323732524799996
sS'Cyberpunk'
p76
F0.0094629898403499994
sS'Libertarian'
p77
F0.016600962060100002
sS'PoliticalDiscussion'
p78
F0.041527209619399999
sS'fifthworldproblems'
p79
F0.0080545229244099997
sS'Anarcho_Capitalism'
p80
F0.02082992975
sS'SubredditDrama'
p81
F0.017410186316100001
sS'marijuanaenthusiasts'
p82
F0.0079775280898899993
sS'YouShouldKnow'
p83
F0.0150763105508
sS'europe'
p84
F0.018609177775199999
sS'TrueAtheism'
p85
F0.0167847601347
sS'whatisthisthing'
p86
F0.0097989834699400008
sS'AskWomen'
p87
F0.0092032158964600007
sS'totalwar'
p88
F0.0072672597418899998
sS'energy'
p89
F0.018598140185999999
sS'TrollXChromosomes'
p90
F0.0072937625754499998
sS'literature'
p91
F0.016827586206899999
sS'Christianity'
p92
F0.0081550610193799992
sS'POLITIC'
p93
F0.0116267210607
sS'interestingasfuck'
p94
F0.0089156788340799993
sS'AskScienceDiscussion'
p95
F0.019431025228099998
sS'changemyview'
p96
F0.027440982816799998
sS'classicalmusic'
p97
F0.0095463571101300007
sS'FeMRADebates'
p98
F0.0093233507557600008
sS'OneY'
p99
F0.0161429186397
sS'Cinemagraphs'
p100
F0.0071049477829100002
sS'firstworldanarchists'
p101
F0.0075932737782400004
sS'offbeat'
p102
F0.0165695557174
sS'humor'
p103
F0.013113367174300001
sS'psychology'
p104
F0.0274644433546
sS'Entrepreneur'
p105
F0.0082924301088399995
sS'skeptic'
p106
F0.021897810218999999
sS'learnmath'
p107
F0.00812572551121
sS'wikipedia'
p108
F0.0237496067946
sS'socialskills'
p109
F0.0121394580946
sS'DebateReligion'
p110
F0.013699690402500001
sS'religion'
p111
F0.0079487745639199997
sS'outside'
p112
F0.0099495515695100008
sS'China'
p113
F0.0111591695502
sS'AskCulinary'
p114
F0.0162704096247
sS'DaystromInstitute'
p115
F0.011807732497399999
sS'foodhacks'
p116
F0.00735179102143
sS'medicine'
p117
F0.0076163984369799998
sS'lifehacks'
p118
F0.0081496786042199992
sS'Astronomy'
p119
F0.0075016503630800004
sS'Anarchy101'
p120
F0.014431110436
sS'vexillology'
p121
F0.014407145944400001
sS'math'
p122
F0.0129363362599
sS'AskFeminists'
p123
F0.0142891741342
sS'LetsTalkMusic'
p124
F0.0102138220695
sS'TheWayWeWere'
p125
F0.0129792332268
sS'biology'
p126
F0.00867813420115
sS'StandUpComedy'
p127
F0.0084752603115700008
sS'jobs'
p128
F0.010266038188100001
sS'business'
p129
F0.0141243976901
sS'casualiama'
p130
F0.0094101199118100005
sS'FloridaMan'
p131
F0.010928961748600001
sS'legaladvice'
p132
F0.0085225809773900006
sS'malelivingspace'
p133
F0.0072500421514099999
sS'answers'
p134
F0.024478948104599999
sS'KitchenConfidential'
p135
F0.0079596903753499995
sS'Frugal'
p136
F0.010123150578300001
sS'slowcooking'
p137
F0.0071323683658499996
sS'statistics'
p138
F0.019388686131400001
sS'finance'
p139
F0.0144539179862
sS'shittyaskscience'
p140
F0.0075294117647099999
sS'ainbow'
p141
F0.013389596689099999
sS'lewronggeneration'
p142
F0.0082348423433000004
sS'howto'
p143
F0.0096458684654300002
sS'worldbuilding'
p144
F0.0120373350499
sS'TheoryOfReddit'
p145
F0.033543638275499998
sS'sanfrancisco'
p146
F0.0075464269308999996
sS'CanadaPolitics'
p147
F0.0164264518864
sS'RedditDayOf'
p148
F0.018183605268299999
sS'lgbt'
p149
F0.0095627002997999994
sS'WarshipPorn'
p150
F0.0094433399602400006
sS'minimalism'
p151
F0.0103545394301
sS'recipes'
p152
F0.0085715779020499993
sS'Ask_Politics'
p153
F0.047902056341399997
sS'programming'
p154
F0.0080500537998599991
sS'Liberal'
p155
F0.0160377358491
sS'Design'
p156
F0.0080489938757700007
sS'LawSchool'
p157
F0.00702058088094
sS'AnimalsBeingBros'
p158
F0.0089999999999999993
sS'ukpolitics'
p159
F0.0147205397531
sS'whatstheword'
p160
F0.012585472203000001
sS'history'
p161
F0.018310002028799999
sS'OutOfTheLoop'
p162
F0.0137781163187
sS'AskUK'
p163
F0.0094119930137800002
sS'Whatcouldgowrong'
p164
F0.0072682050573399997
sS'QuotesPorn'
p165
F0.0140017286085
sS'circlebroke2'
p166
F0.0104514443315
sS'TrueReddit'
p167
F0.0312280276397
sS'French'
p168
F0.0084874204304299997
sS'Scotland'
p169
F0.0095752339812800007
sS'patientgamers'
p170
F0.0090791180285300001
sS'community'
p171
F0.00714518760196
sS'printSF'
p172
F0.0111825828798
sS'privacy'
p173
F0.0107392607393
sS'rant'
p174
F0.0072199363403499996
sS'Buddhism'
p175
F0.010576221736000001
sS'Health'
p176
F0.0092636299268399995
sS'Documentaries'
p177
F0.012062951582100001
sS'rpg'
p178
F0.0085118997204999998
sS'ADHD'
p179
F0.0072777777777800002
sS'confession'
p180
F0.0086217907778800007
sS'gardening'
p181
F0.0073040355816699999
sS'writing'
p182
F0.0104104230417
sS'solotravel'
p183
F0.00780107264749
sS'badhistory'
p184
F0.040773569701899999
sS'Damnthatsinteresting'
p185
F0.0100252737995
sS'environment'
p186
F0.018908408207099998
sS'ontario'
p187
F0.0070694797304800003
sS'AskHistorians'
p188
F0.041554996822599999
sS'TinyHouses'
p189
F0.0085439338069999999
sS'Bad_Cop_No_Donut'
p190
F0.011117919986000001
sS'ANormalDayInRussia'
p191
F0.0107100357001
sS'EatCheapAndHealthy'
p192
F0.0084904890195099999
sS'TheWire'
p193
F0.0073077265840800001
sS'Enhancement'
p194
F0.010770205448500001
sS'MorbidReality'
p195
F0.0095576581336200006
sS'NetflixBestOf'
p196
F0.0093157276338600003
sS'beer'
p197
F0.0078737745097999991
sS'wheredidthesodago'
p198
F0.0081930246542400009
sS'California'
p199
F0.0098458108861200003
sS'ifyoulikeblank'
p200
F0.010019691880000001
sS'AskAcademia'
p201
F0.034637514384300003
sS'WebGames'
p202
F0.0073283415644400003
sS'urbanplanning'
p203
F0.016120576671
sS'ObscureMedia'
p204
F0.0082128397917899994
sS'CombatFootage'
p205
F0.0096756526501600004
sS'nutrition'
p206
F0.0071662252687300001
sS'explainlikeIAmA'
p207
F0.013345676155199999
sS'Infographics'
p208
F0.0175221407485
sS'Scholar'
p209
F0.0097124600639000008
sS'unitedkingdom'
p210
F0.0103167724439
sS'occupywallstreet'
p211
F0.0156599552573
sS'cordcutters'
p212
F0.0088655004029800002
sS'madmen'
p213
F0.0075296623060499999
sS'Unexpected'
p214
F0.0070896614524
sS'Awwducational'
p215
F0.0095734847484500001
sS'asoiaf'
p216
F0.0073638697473300003
sS'PoliticalHumor'
p217
F0.0141980046048
sS'polandball'
p218
F0.013533077358799999
sS'NeutralPolitics'
p219
F0.046430294259500002
sS'SRSGaming'
p220
F0.0083845723868100006
sS'getdisciplined'
p221
F0.0093845356669900008
sS'againstmensrights'
p222
F0.012048192771100001
sS'rage'
p223
F0.0073663107837200004
sS'worldpolitics'
p224
F0.023086056022199999
sS'science'
p225
F0.010537618441100001
sS'fitmeals'
p226
F0.0072998492422400004
sS'entertainment'
p227
F0.0085287846481899993
sS'PerfectTiming'
p228
F0.00825752274318
sS'behindthegifs'
p229
F0.0070125539427199996
sS'standupshots'
p230
F0.0109230539815
sS'socialism'
p231
F0.030025553662699999
sS'findareddit'
p232
F0.0109977570364
sS'civ'
p233
F0.0079309129361999995
sS'TheBluePill'
p234
F0.0154366024115
sS'Meditation'
p235
F0.0090977140553899997
sS'happy'
p236
F0.00752205988717
sS'russia'
p237
F0.0107024012951
sS'bestof'
p238
F0.0143153040089
sS'fullmoviesonyoutube'
p239
F0.008230846533
sS'AskScienceFiction'
p240
F0.017581940525299999
sS'NewsOfTheStupid'
p241
F0.0075929283771500001
sS'Economics'
p242
F0.051842851356800002
sS'Anticonsumption'
p243
F0.0160705654906
sS'badphilosophy'
p244
F0.0265944038316
sS'netsec'
p245
F0.0081629755820600003
sS'Cooking'
p246
F0.0092983733915999994
sS'BasicIncome'
p247
F0.030030314513099999
sS'DecidingToBeBetter'
p248
F0.011232698021600001
sS'TrueAskReddit'
p249
F0.038772579548000001
sS'FanTheories'
p250
F0.0101580594043
sS'blackladies'
p251
F0.0079170079170099994
sS'conspiracy'
p252
F0.0094618996027399996
sS'learnprogramming'
p253
F0.00709096769395
sS'politics'
p254
F0.0099217752717899992
sS'AnythingGoesNews'
p255
F0.0090321005736599992
sS'budgetfood'
p256
F0.00754751295808
sS'education'
p257
F0.014148748022
sS'ShitRedditSays'
p258
F0.012125479151999999
sS'SRSsucks'
p259
F0.00943706792494
sS'HouseOfCards'
p260
F0.0077631655176400001
sS'urbanexploration'
p261
F0.0073494168397499997
sS'Israel'
p262
F0.0108822735858
sS'MURICA'
p263
F0.0072316177311900001
sS'Nootropics'
p264
F0.0095195262723899998
sS'Fantasy'
p265
F0.0074684417745700003
sS'CampingandHiking'
p266
F0.0073790653183899999
sS'travel'
p267
F0.0088584246123000008
sS'circlebroke'
p268
F0.0216372441806
sS'ImaginaryLandscapes'
p269
F0.0075593952483799997
sS'Parenting'
p270
F0.0079557799220399995
sS'TumblrInAction'
p271
F0.0086297675613199992
sS'Feminism'
p272
F0.0148822745446
sS'britishproblems'
p273
F0.00780199085284
sS'LifeProTips'
p274
F0.0070888722126899997
sS'nottheonion'
p275
F0.0092996565371900007
sS'nyc'
p276
F0.0091699791412499995
sS'nonononoyes'
p277
F0.0090167013900700008
sS'Frugal_Jerk'
p278
F0.0078609388839699992
sS'FutureWhatIf'
p279
F0.0181653042688
sS'economy'
p280
F0.0290443789987
sS'talesfromtechsupport'
p281
F0.0073305104038600003
sS'canada'
p282
F0.0092978248979800008
sS'ArtisanVideos'
p283
F0.0077618908666499996
sS'Anarchism'
p284
F0.022181440995800002
sS'MapPorn'
p285
F0.020141200007699998
sS'forwardsfromgrandma'
p286
F0.0120507511812
sS'AnimalsBeingJerks'
p287
F0.0082322357019099998
sS'askscience'
p288
F0.0147820578115
sS'Futurology'
p289
F0.012605663141199999
sS'philosophy'
p290
F0.020181668042899999
sS'DebateAChristian'
p291
F0.0088884730538899993
sS'germany'
p292
F0.0075992555831300001
sS'EnoughLibertarianSpam'
p293
F0.0264271822446
sS'GradSchool'
p294
F0.017724970783000001
sS'CrazyIdeas'
p295
F0.0135984883685
sS'law'
p296
F0.019498134960999999
sS'Physics'
p297
F0.011893024402299999
sS'startrek'
p298
F0.0091623036649199994
sS'truegaming'
p299
F0.013339771835599999
sS'MachinePorn'
p300
F0.0092903910812199997
sS'GirlGamers'
p301
F0.0076285240464299998
sS'TrueFilm'
p302
F0.016443167305199999
sS'space'
p303
F0.0085483560180099998
sS'ShitAmericansSay'
p304
F0.013818099445000001
sS'HumanPorn'
p305
F0.014866524465099999
sS'IWantOut'
p306
F0.0132184761622
sS'investing'
p307
F0.010765591250400001
sS'Shitstatistssay'
p308
F0.010394168466500001
sS'HailCorporate'
p309
F0.013438602385399999
sS'AskEngineers'
p310
F0.0120176258512
sS'self'
p311
F0.013291249203699999
sS'shutupandtakemymoney'
p312
F0.0079894726947999997
s.