(dp1
S'Awwducational'
p2
F0.0077241766729899998
sS'PoliticalDiscussion'
p3
F0.0128327906531
sS'dataisbeautiful'
p4
F0.0098175486853799999
sS'askphilosophy'
p5
F0.016305849838799999
sS'spacex'
p6
F0.0098183049317199997
sS'Foodforthought'
p7
F0.0134130061662
sS'chemistry'
p8
F0.0139323498733
sS'linguistics'
p9
F0.0105502501137
sS'TheoryOfReddit'
p10
F0.0155375299897
sS'badlinguistics'
p11
F0.0074377656344900003
sS'printSF'
p12
F0.0071645679548399998
sS'environment'
p13
F0.010848755583899999
sS'BasicIncome'
p14
F0.010889476897999999
sS'geology'
p15
F0.0076864782938199996
sS'geek'
p16
F0.00721020521353
sS'KerbalAcademy'
p17
F0.0076542098153999996
sS'DebateAnAtheist'
p18
F0.013686336100499999
sS'NoStupidQuestions'
p19
F0.0098839433745699992
sS'IWantToLearn'
p20
F0.0080890283361100008
sS'PropagandaPosters'
p21
F0.0073719864514799997
sS'compsci'
p22
F0.0086128048780500007
sS'Enhancement'
p23
F0.0080820027597099994
sS'TrueAtheism'
p24
F0.0132102012109
sS'whatisthisthing'
p25
F0.0077979081060899997
sS'energy'
p26
F0.0128148959474
sS'SelfDrivingCars'
p27
F0.00866141732283
sS'interestingasfuck'
p28
F0.00710004767418
sS'bestof'
p29
F0.0087899028807900004
sS'changemyview'
p30
F0.0131475469339
sS'badphilosophy'
p31
F0.0099523409027199999
sS'psychology'
p32
F0.0092653871608199996
sS'space'
p33
F0.012351637351599999
sS'skeptic'
p34
F0.017050852542600001
sS'wikipedia'
p35
F0.0114730759568
sS'DebateReligion'
p36
F0.011902780089900001
sS'LearnUselessTalents'
p37
F0.0077422428681999996
sS'medicine'
p38
F0.0071972904318399998
sS'Astronomy'
p39
F0.014401843435999999
sS'math'
p40
F0.0161218885641
sS'SubredditDrama'
p41
F0.00772359313285
sS'biology'
p42
F0.020101351351399999
sS'AskAcademia'
p43
F0.019888522928800001
sS'Economics'
p44
F0.0099950474989900003
sS'answers'
p45
F0.0151818114493
sS'CrazyIdeas'
p46
F0.0090484808077
sS'AskElectronics'
p47
F0.0081387462455200007
sS'shittyaskscience'
p48
F0.0094777822526500004
sS'worldbuilding'
p49
F0.0100444140758
sS'RedditDayOf'
p50
F0.0107307651036
sS'programming'
p51
F0.0076512491628300001
sS'AskPhysics'
p52
F0.023442824042500001
sS'whatstheword'
p53
F0.0071645679548399998
sS'TrueReddit'
p54
F0.012759015315699999
sS'robotics'
p55
F0.0080403379667499993
sS'learnmath'
p56
F0.0110383901534
sS'conspiratard'
p57
F0.0085370811313099995
sS'Health'
p58
F0.0071651090342700003
sS'badhistory'
p59
F0.011059518784300001
sS'ECE'
p60
F0.00728368705262
sS'statistics'
p61
F0.0076855234975400002
sS'AskHistorians'
p62
F0.0155270064926
sS'OutOfTheLoop'
p63
F0.0086728886865499993
sS'explainlikeIAmA'
p64
F0.0099370652534000008
sS'collapse'
p65
F0.0076465590484300003
sS'MapPorn'
p66
F0.00721232863468
sS'NeutralPolitics'
p67
F0.0130941469163
sS'ProgrammerHumor'
p68
F0.0076168614357299998
sS'worldpolitics'
p69
F0.0084010840108400004
sS'science'
p70
F0.010437838024
sS'offbeat'
p71
F0.0076444554486100004
sS'findareddit'
p72
F0.0087461300309599997
sS'socialism'
p73
F0.0087712777819099995
sS'Scholar'
p74
F0.0084021439953600001
sS'KerbalSpaceProgram'
p75
F0.0084175084175099994
sS'history'
p76
F0.0076834125658500002
sS'AskScienceFiction'
p77
F0.0131391843467
sS'TrueAskReddit'
p78
F0.0143389051731
sS'engineering'
p79
F0.0084933159111500005
sS'YouShouldKnow'
p80
F0.0091983875767700004
sS'DaystromInstitute'
p81
F0.0095842956120099996
sS'astrophotography'
p82
F0.0081810454738599995
sS'self'
p83
F0.0077833678603099997
sS'HomeworkHelp'
p84
F0.0076419213973799999
sS'AskSocialScience'
p85
F0.019431025228099998
sS'scifi'
p86
F0.00990604575163
sS'spaceporn'
p87
F0.0104470359572
sS'Ask_Politics'
p88
F0.012079157029
sS'FutureWhatIf'
p89
F0.0095573440643899991
sS'askscience'
p90
F0.026203759006699998
sS'Futurology'
p91
F0.010346653631500001
sS'philosophy'
p92
F0.011313363277200001
sS'DebateAChristian'
p93
F0.0105749486653
sS'EnoughLibertarianSpam'
p94
F0.0073999749153400001
sS'GradSchool'
p95
F0.0123483074303
sS'Physics'
p96
F0.028227948990400001
sS'MachinePorn'
p97
F0.0077019351111999998
sS'AskEngineers'
p98
F0.0152088539807
s.