(dp1
S'google'
p2
F0.0071249167051100001
sS'firefox'
p3
F0.00855644493514
sS'linuxquestions'
p4
F0.0084850143697800008
sS'TrueAskReddit'
p5
F0.0074654377880200001
sS'hardware'
p6
F0.0131557035803
sS'SelfDrivingCars'
p7
F0.0082313681868699997
sS'torrents'
p8
F0.0077334243148000003
sS'techsupportmacgyver'
p9
F0.0077821011673200003
sS'24hoursupport'
p10
F0.0076407007081599997
sS'TheoryOfReddit'
p11
F0.0076116616401000004
sS'privacy'
p12
F0.0118234081788
sS'chrome'
p13
F0.0084536474164100001
sS'linux4noobs'
p14
F0.0088056554632300003
sS'AndroidQuestions'
p15
F0.00764065755962
sS'windows8'
p16
F0.0078822911192899994
sS'robotics'
p17
F0.0087655222790400007
sS'BasicIncome'
p18
F0.0081300813008099992
sS'HomeNetworking'
p19
F0.0076421248834999999
sS'answers'
p20
F0.00749127436792
sS'AskGames'
p21
F0.00769089910273
sS'windows'
p22
F0.011650147800399999
sS'computers'
p23
F0.00788880540947
sS'techsupport'
p24
F0.0072237852634799999
sS'AskEngineers'
p25
F0.0070974057758199996
sS'DataHoarder'
p26
F0.0075109534738199996
sS'microsoft'
p27
F0.010313901345300001
sS'software'
p28
F0.0130879345603
s.