(dp1
S'getdisciplined'
p2
F0.012097853434
sS'Paleo'
p3
F0.0071456703989200001
sS'seduction'
p4
F0.033244421312900001
sS'bigdickproblems'
p5
F0.0084000781402599999
sS'steroids'
p6
F0.0107146019658
sS'confession'
p7
F0.0097108197524799992
sS'DecidingToBeBetter'
p8
F0.0072278073460799999
sS'PurplePillDebate'
p9
F0.064152233363700004
sS'malegrooming'
p10
F0.0072220356063200002
sS'bodybuilding'
p11
F0.011240412589299999
sS'OneY'
p12
F0.0099906629318400001
sS'Feminism'
p13
F0.0072797702531200003
sS'SRSsucks'
p14
F0.0108986615679
sS'relationships'
p15
F0.0086058954169200008
sS'ForeverAlone'
p16
F0.010812067662600001
sS'AskMen'
p17
F0.011388504309800001
sS'Nootropics'
p18
F0.0085615274852200007
sS'pornfree'
p19
F0.010272402091200001
sS'TheBluePill'
p20
F0.031954754330200001
sS'AskWomen'
p21
F0.0071394696027800002
sS'socialskills'
p22
F0.013178294573599999
sS'swoleacceptance'
p23
F0.011790598962399999
sS'confessions'
p24
F0.0072609923356199996
sS'askseddit'
p25
F0.024324324324300001
sS'AskFeminists'
p26
F0.0074387849984500001
sS'MensRights'
p27
F0.0213255089386
sS'fatlogic'
p28
F0.0088618407004100001
sS'ketogains'
p29
F0.0070010549534900001
sS'DeadBedrooms'
p30
F0.0152284263959
sS'OkCupid'
p31
F0.0074937160844699997
sS'leangains'
p32
F0.0086452593577800007
sS'Psychonaut'
p33
F0.0076537585421399996
sS'changemyview'
p34
F0.0094301572973300007
sS'NoFap'
p35
F0.011101367941099999
sS'bodyweightfitness'
p36
F0.0078282828282800008
sS'RedPillWomen'
p37
F0.0841337808124
sS'short'
p38
F0.0079237966787499992
sS'Anarcho_Capitalism'
p39
F0.0096804716500499995
sS'weightroom'
p40
F0.0076487058662800004
sS'TheRedPill'
p41
F0.16798921994300001
sS'relationship_advice'
p42
F0.0093254651964199999
sS'TumblrInAction'
p43
F0.0070440283273299998
sS'howtonotgiveafuck'
p44
F0.0151902698752
sS'dating_advice'
p45
F0.0102484017373
sS'Libertarian'
p46
F0.0085519789279199995
sS'Meditation'
p47
F0.0087532023911200008
sS'gainit'
p48
F0.0116638261611
sS'everymanshouldknow'
p49
F0.011462955492800001
s.