(dp1
S'FancyFollicles'
p2
F0.0088448137228599993
sS'AskScienceFiction'
p3
F0.0070021684134399997
sS'rpg'
p4
F0.0076622706844499998
sS'AskWomen'
p5
F0.0099445855171800008
sS'ABraThatFits'
p6
F0.0081100369817699997
sS'crossdressing'
p7
F0.036864828960500001
sS'confession'
p8
F0.0085276214539999999
sS'actuallesbians'
p9
F0.037254606617499998
sS'SuicideWatch'
p10
F0.0081285620854000002
sS'Tgirls'
p11
F0.0119958135416
sS'changemyview'
p12
F0.011030023094699999
sS'TwoXChromosomes'
p13
F0.0094008646381100007
sS'TrollXChromosomes'
p14
F0.0101629243815
sS'femalefashionadvice'
p15
F0.0091669698072000001
sS'ShitRedditSays'
p16
F0.012100737100700001
sS'Feminism'
p17
F0.0116736082595
sS'gaymers'
p18
F0.0095262615859900007
sS'Sissies'
p19
F0.0097020692023699999
sS'TheBluePill'
p20
F0.011587905124
sS'furry'
p21
F0.0084644094908000005
sS'TumblrInAction'
p22
F0.0097554374569400002
sS'transtimelines'
p23
F0.125727590221
sS'depression'
p24
F0.0074926763314100003
sS'bdsm'
p25
F0.00724739656628
sS'bisexual'
p26
F0.019394879751700001
sS'raisedbynarcissists'
p27
F0.0099964528715600007
sS'ftm'
p28
F0.067048652995600005
sS'AskFeminists'
p29
F0.0125775473783
sS'offmychest'
p30
F0.0083390104206100008
sS'Anxiety'
p31
F0.0071178355817199997
sS'childfree'
p32
F0.0074824721616699999
sS'gay'
p33
F0.0089723818869999993
sS'MakeupAddiction'
p34
F0.0078527974740399999
sS'casualiama'
p35
F0.0080332783185699998
sS'BDSMcommunity'
p36
F0.0139291566873
sS'mylittlepony'
p37
F0.0082540255288399995
sS'lgbt'
p38
F0.049877127514299999
sS'NoStupidQuestions'
p39
F0.0074402273867200004
sS'TheGirlSurvivalGuide'
p40
F0.0091201716738199996
sS'ainbow'
p41
F0.061179898033499998
sS'SRSGaming'
p42
F0.0072110882187700004
sS'traps'
p43
F0.022723886157099998
sS'creepyPMs'
p44
F0.0093248347497599995
sS'GoneWildCD'
p45
F0.0110497237569
sS'GirlGamers'
p46
F0.019709261174899999
sS'transpassing'
p47
F0.16203703703700001
sS'againstmensrights'
p48
F0.0087984358336300004
sS'polyamory'
p49
F0.013313806417299999
sS'askgaybros'
p50
F0.0074164977056899997
sS'SampleSize'
p51
F0.0072899347742700002
sS'SubredditDrama'
p52
F0.0082617851935799999
sS'LGBTeens'
p53
F0.013330101793500001
sS'asexuality'
p54
F0.010060362173
sS'MtF'
p55
F0.126571304725
sS'aspergers'
p56
F0.0083257644565500003
s.