(dp1
S'pettyrevenge'
p2
F0.00817664194915
sS'circlebroke'
p3
F0.0081916537867099994
sS'CityPorn'
p4
F0.0075117917661399998
sS'SampleSize'
p5
F0.0077775939103100003
sS'london'
p6
F0.050323422942300002
sS'everymanshouldknow'
p7
F0.0076944698194099997
sS'dataisbeautiful'
p8
F0.0071439888231099999
sS'Foodforthought'
p9
F0.0072333811573400001
sS'TalesFromRetail'
p10
F0.0083515511778099998
sS'Cricket'
p11
F0.0084671299624599992
sS'languagelearning'
p12
F0.0083964315166100006
sS'TheoryOfReddit'
p13
F0.0080263428688999994
sS'quityourbullshit'
p14
F0.0078624268949199997
sS'outside'
p15
F0.0074668657830899996
sS'duolingo'
p16
F0.0071819058848799997
sS'HistoryPorn'
p17
F0.0099667055822200007
sS'soccer'
p18
F0.0073538405088099997
sS'TheRedLion'
p19
F0.064954939636099995
sS'nononono'
p20
F0.00775010632768
sS'MilitaryPorn'
p21
F0.0077292576419199996
sS'Frisson'
p22
F0.0073520091266300004
sS'YouShouldKnow'
p23
F0.0078868929861999997
sS'footballmanagergames'
p24
F0.0110701107011
sS'unitedkingdom'
p25
F0.0837836215178
sS'NoStupidQuestions'
p26
F0.0125240847784
sS'LiverpoolFC'
p27
F0.0080120180270399997
sS'techsupportgore'
p28
F0.0073862997262900002
sS'PropagandaPosters'
p29
F0.0108246949821
sS'glasgow'
p30
F0.013549415515399999
sS'thatHappened'
p31
F0.0070407994714199998
sS'Enhancement'
p32
F0.0084223872486900008
sS'manchester'
p33
F0.0281279023484
sS'whatisthisthing'
p34
F0.0078435856391500004
sS'AskWomen'
p35
F0.0081655583282199996
sS'totalwar'
p36
F0.0074720582694999997
sS'offbeat'
p37
F0.0078301460623400009
sS'MarkMyWords'
p38
F0.0076351420136399999
sS'changemyview'
p39
F0.0086767895878500003
sS'CrappyDesign'
p40
F0.0088387272232799997
sS'forwardsfromgrandma'
p41
F0.0071443691786600002
sS'truegaming'
p42
F0.0079935090302600004
sS'skeptic'
p43
F0.0073010003318599997
sS'wikipedia'
p44
F0.0083870466723599997
sS'LearnUselessTalents'
p45
F0.0073454627641499999
sS'AskCulinary'
p46
F0.0071672354948799999
sS'vexillology'
p47
F0.0133439122908
sS'SubredditDrama'
p48
F0.011027143738400001
sS'europe'
p49
F0.0244336905858
sS'bestof'
p50
F0.0073694880892000002
sS'linguistics'
p51
F0.0083060659451299999
sS'casualiama'
p52
F0.0086739905733099996
sS'answers'
p53
F0.0130311222014
sS'Roadcam'
p54
F0.0086671154493400005
sS'doctorwho'
p55
F0.0085024876784000007
sS'lewronggeneration'
p56
F0.0073425827107800002
sS'TopGear'
p57
F0.012012012012000001
sS'RedditDayOf'
p58
F0.0076112412177999998
sS'Sherlock'
p59
F0.011662474274000001
sS'ukpolitics'
p60
F0.082486061003599995
sS'whatstheword'
p61
F0.0087154600376299993
sS'IWantOut'
p62
F0.020773961301899999
sS'paradoxplaza'
p63
F0.00728574167572
sS'ShitAmericansSay'
p64
F0.040363975735000002
sS'TrueReddit'
p65
F0.0087105119502500009
sS'Scotland'
p66
F0.034227840615100001
sS'patientgamers'
p67
F0.0082376435347000006
sS'conspiratard'
p68
F0.0090562703628000001
sS'badhistory'
p69
F0.010193679918500001
sS'CrazyIdeas'
p70
F0.0080796866808500005
sS'AskHistorians'
p71
F0.0121466193701
sS'OutOfTheLoop'
p72
F0.0105032627157
sS'MorbidReality'
p73
F0.0076762539880500004
sS'ifyoulikeblank'
p74
F0.0074082648454699999
sS'ireland'
p75
F0.0083711768889900007
sS'Pareidolia'
p76
F0.0074121817595899997
sS'explainlikeIAmA'
p77
F0.0083884869939999992
sS'DaystromInstitute'
p78
F0.0078328981723199999
sS'snackexchange'
p79
F0.0091291414504099996
sS'mildlyinfuriating'
p80
F0.00749297059047
sS'MapPorn'
p81
F0.0117406742774
sS'AskMen'
p82
F0.00762703246291
sS'rugbyunion'
p83
F0.011038430089900001
sS'rage'
p84
F0.0079598506069100006
sS'worldpolitics'
p85
F0.0082892110059899996
sS'firstworldproblems'
p86
F0.011578006258399999
sS'findareddit'
p87
F0.0092673037938000007
sS'BritishTV'
p88
F0.063139285263299996
sS'socialism'
p89
F0.0083577099874600005
sS'history'
p90
F0.0078374236981599999
sS'fullmoviesonyoutube'
p91
F0.0081955427749800004
sS'gallifrey'
p92
F0.0127118644068
sS'formula1'
p93
F0.0094125500667600007
sS'AskScienceFiction'
p94
F0.0090017248814099997
sS'solotravel'
p95
F0.0070015468533699996
sS'TrueAskReddit'
p96
F0.011434051342599999
sS'tipofmytongue'
p97
F0.00772282539638
sS'polandball'
p98
F0.013483287654
sS'techsupportmacgyver'
p99
F0.0077445109780400001
sS'travel'
p100
F0.0086811884797699992
sS'AskSocialScience'
p101
F0.0094119930137800002
sS'scifi'
p102
F0.0072809936414900004
sS'britishproblems'
p103
F0.092000145916199996
sS'UnresolvedMysteries'
p104
F0.0071977355438699996
sS'reddevils'
p105
F0.0076903225806499997
sS'nonononoyes'
p106
F0.0070641231273200003
sS'FutureWhatIf'
p107
F0.0114330993887
sS'talesfromtechsupport'
p108
F0.0085998448834299999
sS'football'
p109
F0.0143720058321
sS'northernireland'
p110
F0.0097613882863300007
sS'HumanPorn'
p111
F0.0070703175215300002
sS'coys'
p112
F0.0073684210526300002
sS'self'
p113
F0.0087428225178199995
s.