(dp1
S'asoiaf'
p2
F0.0089815533838300005
sS'BuyItForLife'
p3
F0.010759617809399999
sS'SampleSize'
p4
F0.0076633756464500003
sS'everymanshouldknow'
p5
F0.014061163387500001
sS'wiiu'
p6
F0.00731650845103
sS'RandomActsOfGaming'
p7
F0.0084529682390099992
sS'AskMen'
p8
F0.0109798685292
sS'Showerthoughts'
p9
F0.0115313653137
sS'HistoryPorn'
p10
F0.0146115079221
sS'holdmybeer'
p11
F0.014469311531300001
sS'ImaginaryMonsters'
p12
F0.00893738889986
sS'YouShouldKnow'
p13
F0.0148605884365
sS'skyrimmods'
p14
F0.0070044361428900003
sS'horror'
p15
F0.0071067045690900001
sS'UpliftingNews'
p16
F0.0115265966316
sS'Jokes'
p17
F0.0090783482784499991
sS'Military'
p18
F0.00785877322239
sS'Steam'
p19
F0.0112851386357
sS'AlienBlue'
p20
F0.00745838299181
sS'photoshopbattles'
p21
F0.014104304576100001
sS'IWantToLearn'
p22
F0.0091643673630299998
sS'Celebs'
p23
F0.0097309232823300004
sS'CrappyDesign'
p24
F0.018122707203000001
sS'techsupport'
p25
F0.010066724313700001
sS'Libertarian'
p26
F0.0088103345765100007
sS'starcitizen'
p27
F0.0082879612825200004
sS'pcgaming'
p28
F0.012105365097800001
sS'EatCheapAndHealthy'
p29
F0.0095821925961200004
sS'totalwar'
p30
F0.0070058116392
sS'tea'
p31
F0.0071254779284
sS'redditgetsdrawn'
p32
F0.0081507383462099993
sS'fatpeoplestories'
p33
F0.011738373538899999
sS'depression'
p34
F0.0085673488814899997
sS'forwardsfromgrandma'
p35
F0.013109821620499999
sS'no_sob_story'
p36
F0.00880272182319
sS'frugalmalefashion'
p37
F0.0077355498967000003
sS'Glitch_in_the_Matrix'
p38
F0.010794020578499999
sS'skeptic'
p39
F0.010737009544
sS'socialskills'
p40
F0.0097400416470699996
sS'gamedev'
p41
F0.0070028375810299998
sS'worldnews'
p42
F0.0103489431882
sS'vexillology'
p43
F0.0089192933841399993
sS'tattoos'
p44
F0.0083493898522800005
sS'FloridaMan'
p45
F0.0115562989432
sS'LetsNotMeet'
p46
F0.0071412956350699998
sS'titanfall'
p47
F0.0074161650902800002
sS'answers'
p48
F0.0095165588123299998
sS'lgbt'
p49
F0.0075696513054100004
sS'baseball'
p50
F0.0072611554555399999
sS'doctorwho'
p51
F0.0099593535088900002
sS'TopGear'
p52
F0.010168665895399999
sS'Cynicalbrit'
p53
F0.0093638648730800002
sS'creepy'
p54
F0.011220493278299999
sS'pics'
p55
F0.0079508749511900002
sS'whatsthisbug'
p56
F0.0071187460312200001
sS'QuotesPorn'
p57
F0.013300263525
sS'apple'
p58
F0.0086325869595799999
sS'TrueReddit'
p59
F0.0143669149353
sS'todayilearned'
p60
F0.010421611631199999
sS'confession'
p61
F0.010074506794700001
sS'findareddit'
p62
F0.0083036257716700007
sS'IdiotsFightingThings'
p63
F0.0127057912067
sS'gamernews'
p64
F0.0103183546978
sS'ContagiousLaughter'
p65
F0.021954727837100001
sS'HIMYM'
p66
F0.0075262481251300003
sS'FiftyFifty'
p67
F0.0148069354324
sS'AskHistorians'
p68
F0.010423621131499999
sS'Drugs'
p69
F0.0084540065716699996
sS'OutOfTheLoop'
p70
F0.018758883818400001
sS'sports'
p71
F0.0076453870061700003
sS'ifyoulikeblank'
p72
F0.0092753842659200007
sS'misleadingthumbnails'
p73
F0.014454996218199999
sS'WebGames'
p74
F0.0105837223275
sS'battlefield_4'
p75
F0.0083052075418400002
sS'Pareidolia'
p76
F0.013770625381999999
sS'hockey'
p77
F0.0076452220459999999
sS'tipofmytongue'
p78
F0.0143671292161
sS'cordcutters'
p79
F0.0074984309450700001
sS'LifeProTips'
p80
F0.012535623385399999
sS'Shitty_Car_Mods'
p81
F0.0092959066763899992
sS'FanTheories'
p82
F0.011906175772
sS'EDC'
p83
F0.00863002258035
sS'techsupportgore'
p84
F0.013325478314500001
sS'science'
p85
F0.0136789370508
sS'firstworldproblems'
p86
F0.0106190762989
sS'movies'
p87
F0.010994477528
sS'standupshots'
p88
F0.0136974836802
sS'Meditation'
p89
F0.0095119465519199996
sS'history'
p90
F0.0084764803202699995
sS'AskScienceFiction'
p91
F0.0089817119359400007
sS'audiophile'
p92
F0.0078749058025600008
sS'DecidingToBeBetter'
p93
F0.0093205574912900001
sS'gadgets'
p94
F0.0094948509795999992
sS'buildapcsales'
p95
F0.0077264602433300003
sS'learnprogramming'
p96
F0.0085395714025499996
sS'polandball'
p97
F0.012415680907199999
sS'HouseOfCards'
p98
F0.0078766993600200008
sS'techsupportmacgyver'
p99
F0.0082503687315599993
sS'MURICA'
p100
F0.012322905771599999
sS'technology'
p101
F0.012312161061999999
sS'RealGirls'
p102
F0.0090012448530099997
sS'scifi'
p103
F0.011273899906099999
sS'RedditLaqueristas'
p104
F0.0078729376326399994
sS'spaceporn'
p105
F0.012507084829000001
sS'howtonotgiveafuck'
p106
F0.010515013514000001
sS'wheredidthesodago'
p107
F0.0197176723528
sS'gaming'
p108
F0.010286431258799999
sS'askscience'
p109
F0.011988512400399999
sS'philosophy'
p110
F0.0081190458235900001
sS'oculus'
p111
F0.0107751483812
sS'futurebeats'
p112
F0.00884287237824
sS'listentothis'
p113
F0.012165888650600001
sS'tall'
p114
F0.0092785975964699997
sS'ImGoingToHellForThis'
p115
F0.013683335607699999
sS'DoesAnybodyElse'
p116
F0.0128960716266
sS'pettyrevenge'
p117
F0.0135538708936
sS'malehairadvice'
p118
F0.0079168016121500002
sS'CityPorn'
p119
F0.0086603107076399996
sS'DeepIntoYouTube'
p120
F0.0206500533736
sS'dataisbeautiful'
p121
F0.013763875907500001
sS'japan'
p122
F0.0071742652163899997
sS'LucidDreaming'
p123
F0.0120581186339
sS'nostalgia'
p124
F0.013291613179299999
sS'Documentaries'
p125
F0.012329939398200001
sS'writing'
p126
F0.0092486114849200003
sS'AndroidQuestions'
p127
F0.0071152464680299997
sS'WTF'
p128
F0.0095300494371299994
sS'soccer'
p129
F0.0075801957562300001
sS'wallpaper'
p130
F0.0080345255038799992
sS'Gore'
p131
F0.0072529076005300001
sS'MensRights'
p132
F0.0107858617758
sS'MilitaryPorn'
p133
F0.0087678242690900007
sS'Frisson'
p134
F0.026324381683100001
sS'electronicmusic'
p135
F0.010940604036500001
sS'childfree'
p136
F0.011514951682899999
sS'food'
p137
F0.0097672953143999996
sS'whitepeoplegifs'
p138
F0.0099421209858100001
sS'NoStupidQuestions'
p139
F0.0134205426357
sS'halo'
p140
F0.0076043211184100004
sS'creepyPMs'
p141
F0.0136732152388
sS'WatchItForThePlot'
p142
F0.0114101264873
sS'freebies'
p143
F0.0118899887449
sS'PropagandaPosters'
p144
F0.0081058232632199995
sS'mashups'
p145
F0.0076859463929600004
sS'AdviceAnimals'
p146
F0.0079664564483499997
sS'trap'
p147
F0.0074922310672199998
sS'minimalism'
p148
F0.0145784914431
sS'wallpapers'
p149
F0.0133454581203
sS'mildlyinteresting'
p150
F0.012261036874899999
sS'TrueAtheism'
p151
F0.00974725150176
sS'badhistory'
p152
F0.0072348364198900001
sS'books'
p153
F0.0092578971130599999
sS'TwoXChromosomes'
p154
F0.0086642077095500005
sS'Cinemagraphs'
p155
F0.0121057200733
sS'canada'
p156
F0.0093345802967999998
sS'DunderMifflin'
p157
F0.0073916408668699999
sS'psychology'
p158
F0.0084441629723500007
sS'space'
p159
F0.0127973798729
sS'shittyfoodporn'
p160
F0.014199237725100001
sS'malefashionadvice'
p161
F0.0108491305029
sS'LearnUselessTalents'
p162
F0.015372501968399999
sS'RoomPorn'
p163
F0.0130804228556
sS'Astronomy'
p164
F0.0084137877554199998
sS'DarkSouls2'
p165
F0.00726292105089
sS'bestof'
p166
F0.0177923939624
sS'Cyberpunk'
p167
F0.0136767114938
sS'cars'
p168
F0.0078238960350100004
sS'Metal'
p169
F0.0080842263583399999
sS'LadyBoners'
p170
F0.0093821709704599993
sS'Roadcam'
p171
F0.0078770048400899993
sS'GamePhysics'
p172
F0.015652722469699999
sS'youtubehaiku'
p173
F0.024224536392499999
sS'dayz'
p174
F0.0084488557132299993
sS'headphones'
p175
F0.0105769230769
sS'programming'
p176
F0.0086683756071200008
sS'dogecoin'
p177
F0.0085950084957100003
sS'classicalmusic'
p178
F0.00727207433676
sS'patientgamers'
p179
F0.011715394922199999
sS'conspiratard'
p180
F0.00975788701394
sS'pokemon'
p181
F0.0084211761157000006
sS'tf2'
p182
F0.010022560005900001
sS'OldSchoolCool'
p183
F0.0112308044923
sS'lego'
p184
F0.00794292646294
sS'ANormalDayInRussia'
p185
F0.0113064289841
sS'seduction'
p186
F0.0085554961423900001
sS'onetruegod'
p187
F0.0081116315001700003
sS'PenmanshipPorn'
p188
F0.0146357447118
sS'shittyreactiongifs'
p189
F0.0087888738651700007
sS'alternativeart'
p190
F0.0070743341015099999
sS'gentlemanboners'
p191
F0.0139988869387
sS'explainlikeimfive'
p192
F0.0094702628866899993
sS'CombatFootage'
p193
F0.011521279097100001
sS'TrollYChromosome'
p194
F0.0095916996342500001
sS'3DS'
p195
F0.00755458338397
sS'mildlyinfuriating'
p196
F0.0173735033872
sS'Psychonaut'
p197
F0.0098752949106799999
sS'skyrim'
p198
F0.013118494224999999
sS'sex'
p199
F0.0086451154735199993
sS'television'
p200
F0.0107610039197
sS'worldpolitics'
p201
F0.00809930178433
sS'TheRedPill'
p202
F0.0076901241258299996
sS'nononono'
p203
F0.015846649612999999
sS'KerbalSpaceProgram'
p204
F0.0106616912108
sS'FoodPorn'
p205
F0.011050361928199999
sS'teenagers'
p206
F0.010469547926399999
sS'conspiracy'
p207
F0.011603522997299999
sS'HighQualityGifs'
p208
F0.011632483491499999
sS'self'
p209
F0.0114382449157
sS'IAmA'
p210
F0.0084882023573500005
sS'britishproblems'
p211
F0.010416666666700001
sS'UnresolvedMysteries'
p212
F0.0078465967127899997
sS'nonononoyes'
p213
F0.016921139619099999
sS'firefly'
p214
F0.0082154827107000002
sS'aww'
p215
F0.0092502945918099995
sS'Futurology'
p216
F0.0134456601196
sS'Games'
p217
F0.0149697050501
sS'mylittlepony'
p218
F0.0081268654032900008
sS'progresspics'
p219
F0.0091768164636700008
sS'Gaming4Gamers'
p220
F0.0087041914029400008
sS'Minecraft'
p221
F0.0117789187557
sS'TumblrInAction'
p222
F0.017436063901300002
sS'secretsanta'
p223
F0.0070307562671199997
sS'HailCorporate'
p224
F0.010875243386999999
sS'Heavymind'
p225
F0.0112121072302
sS'Awwducational'
p226
F0.011471959724300001
sS'adventuretime'
p227
F0.0103600991195
sS'fffffffuuuuuuuuuuuu'
p228
F0.011617683998999999
sS'Foodforthought'
p229
F0.0097094889946199997
sS'TheBluePill'
p230
F0.0078591637849699993
sS'harrypotter'
p231
F0.010551130641799999
sS'wicked_edge'
p232
F0.0093980365440400008
sS'shittybattlestations'
p233
F0.0073074190601799998
sS'whowouldwin'
p234
F0.0109493865705
sS'GrandTheftAutoV'
p235
F0.010567878295199999
sS'Anxiety'
p236
F0.0095067596765199998
sS'shutupandtakemymoney'
p237
F0.011377502225999999
sS'photography'
p238
F0.0077496710045300001
sS'JusticePorn'
p239
F0.019592672091000001
sS'trees'
p240
F0.0081186938567000006
sS'smashbros'
p241
F0.0082055166319500005
sS'geek'
p242
F0.011921350054199999
sS'Fitness'
p243
F0.0079983508554899996
sS'beards'
p244
F0.0097524381095300001
sS'PrettyGirlsUglyFaces'
p245
F0.0089460305044999997
sS'AbandonedPorn'
p246
F0.0130168657953
sS'motorcycles'
p247
F0.00731424008131
sS'masseffect'
p248
F0.0102890429607
sS'guns'
p249
F0.0076731766565799999
sS'WeAreTheMusicMakers'
p250
F0.0083152104387900008
sS'thatHappened'
p251
F0.015772428884
sS'nsfw'
p252
F0.0094731977818899998
sS'cringe'
p253
F0.021416421017
sS'StarWars'
p254
F0.0115999124535
sS'rpg'
p255
F0.0072567612891399997
sS'AskWomen'
p256
F0.010169610398699999
sS'TheSimpsons'
p257
F0.0078066794078599996
sS'Christianity'
p258
F0.00873819547161
sS'Justrolledintotheshop'
p259
F0.00947493091196
sS'StandUpComedy'
p260
F0.0077037312047500001
sS'changemyview'
p261
F0.013235146106599999
sS'roosterteeth'
p262
F0.0082856151310099994
sS'Android'
p263
F0.0102628611087
sS'PS4'
p264
F0.0072905563845700001
sS'firstworldanarchists'
p265
F0.0155419397536
sS'PerfectTiming'
p266
F0.0133771569433
sS'cosplay'
p267
F0.0094735542800700005
sS'truegaming'
p268
F0.015326215895599999
sS'lotr'
p269
F0.0082083318199999995
sS'wow'
p270
F0.0081439474694100008
sS'wikipedia'
p271
F0.0088463457787099995
sS'breakingbad'
p272
F0.012112403100799999
sS'outside'
p273
F0.015308138003699999
sS'foodhacks'
p274
F0.0078438526085399998
sS'pcmasterrace'
p275
F0.011007687819
sS'europe'
p276
F0.0102738144711
sS'glitch_art'
p277
F0.0090406571266199998
sS'casualiama'
p278
F0.0122484284015
sS'facepalm'
p279
F0.0140537164272
sS'NotTimAndEric'
p280
F0.018044186251199999
sS'AnimalCrossing'
p281
F0.0071073205401600004
sS'news'
p282
F0.0095681503535900003
sS'Unexpected'
p283
F0.018829021034099998
sS'RedditDayOf'
p284
F0.0086548864046199995
sS'nosleep'
p285
F0.0071968927701099999
sS'itookapicture'
p286
F0.0087785157378000005
sS'Sherlock'
p287
F0.0097040089921299998
sS'GetMotivated'
p288
F0.012270523343800001
sS'buildapc'
p289
F0.00906862387463
sS'drunk'
p290
F0.0103495562628
sS'reactiongifs'
p291
F0.016195217554899999
sS'community'
p292
F0.0111738889169
sS'Music'
p293
F0.0092171181908099996
sS'startrek'
p294
F0.010063737001
sS'EarthPorn'
p295
F0.0100529388303
sS'linux'
p296
F0.0072149722780399999
sS'Guitar'
p297
F0.0071065786039800002
sS'TheLastAirbender'
p298
F0.010271846486699999
sS'Diablo'
p299
F0.0072392743530199999
sS'fatlogic'
p300
F0.0134336974865
sS'hiphopheads'
p301
F0.0087974236116600008
sS'MakeupAddiction'
p302
F0.0093421269162099994
sS'somethingimade'
p303
F0.0086566541510200001
sS'WritingPrompts'
p304
F0.0098556096827899994
sS'MapPorn'
p305
F0.013695060984500001
sS'IndieGaming'
p306
F0.0074382056759200003
sS'darksouls'
p307
F0.00897197165728
sS'Perfectfit'
p308
F0.011783077796700001
sS'offbeat'
p309
F0.013571869216500001
sS'softwaregore'
p310
F0.0078450131547500006
sS'socialism'
p311
F0.0074291051112200003
sS'Cooking'
p312
F0.0094600234513200002
sS'IASIP'
p313
F0.0081357508135800009
sS'DIY'
p314
F0.0101518216779
sS'ShitRedditSays'
p315
F0.0072733884898600002
sS'southpark'
p316
F0.0100996425864
sS'starcraft'
p317
F0.00775681341719
sS'funny'
p318
F0.00717980397515
sS'watchpeopledie'
p319
F0.012753048969199999
sS'Whatcouldgowrong'
p320
F0.0156569700205
sS'talesfromtechsupport'
p321
F0.0121339466561
sS'notinteresting'
p322
F0.0152906896073
sS'AnimalsBeingJerks'
p323
F0.014780209272500001
sS'Physics'
p324
F0.0074653255274799999
sS'thesims'
p325
F0.0076875768757699997
sS'TrueFilm'
p326
F0.0078038927653299997
sS'HumanPorn'
p327
F0.012966425493899999
sS'drawing'
p328
F0.00735150353889
sS'GifSound'
p329
F0.0094355589405099999
sS'FancyFollicles'
p330
F0.0086603262581099998
sS'awwwtf'
p331
F0.00760233918129
sS'PublicFreakout'
p332
F0.0152760288952
sS'ArtisanVideos'
p333
F0.0231767614339
sS'Bitcoin'
p334
F0.0079360541572799995
sS'rickandmorty'
p335
F0.0115630873125
sS'dadjokes'
p336
F0.0123366212875
sS'futurama'
p337
F0.0087975531805199996
sS'perfectloops'
p338
F0.012281149073599999
sS'InternetIsBeautiful'
p339
F0.0153958646464
sS'carporn'
p340
F0.0080073277390399992
sS'TalesFromRetail'
p341
F0.011399963809600001
sS'quityourbullshit'
p342
F0.019214099971100001
sS'woahdude'
p343
F0.017340524757699999
sS'Fallout'
p344
F0.0107967454415
sS'offmychest'
p345
F0.010899214737
sS'australia'
p346
F0.0076327530399800001
sS'slowcooking'
p347
F0.0081220074481300007
sS'NSFW_GIF'
p348
F0.0087941603309700002
sS'howto'
p349
F0.0082954687565100008
sS'cringepics'
p350
F0.016130669848
sS'toosoon'
p351
F0.0079787234042600005
sS'bodyweightfitness'
p352
F0.0070274577990300001
sS'thewalkingdead'
p353
F0.0102514743178
sS'gifs'
p354
F0.0104272552907
sS'Art'
p355
F0.0094959405571299997
sS'ConfusedBoners'
p356
F0.0079758248290899992
sS'4chan'
p357
F0.016785860236999999
sS'montageparodies'
p358
F0.0150721615281
sS'ArcherFX'
p359
F0.0088002149670800001
sS'getdisciplined'
p360
F0.0079499642063199996
sS'google'
p361
F0.0073449920508699999
sS'blunderyears'
p362
F0.014862473862
sS'whatisthisthing'
p363
F0.0123203675228
sS'MechanicalKeyboards'
p364
F0.012136852594699999
sS'NetflixBestOf'
p365
F0.0130151843818
sS'ShouldIbuythisgame'
p366
F0.0075222009402800003
sS'SubredditDrama'
p367
F0.017682474226799999
sS'tumblr'
p368
F0.0112309785188
sS'interestingasfuck'
p369
F0.018710682579799999
sS'MarkMyWords'
p370
F0.0076821888976599997
sS'Coffee'
p371
F0.0086127149191400007
sS'gameofthrones'
p372
F0.013304187561599999
sS'humor'
p373
F0.0099106101826699992
sS'SkincareAddiction'
p374
F0.010509045760900001
sS'ExpectationVsReality'
p375
F0.011251336898399999
sS'lifehacks'
p376
F0.0137945508662
sS'SCP'
p377
F0.0076319232446600003
sS'Enhancement'
p378
F0.0081091772151899999
sS'starbound'
p379
F0.00843036202838
sS'blackpeoplegifs'
p380
F0.0096392054411999998
sS'Economics'
p381
F0.0072936304354499996
sS'delusionalartists'
p382
F0.0158628485305
sS'OkCupid'
p383
F0.0085481979205999994
sS'Frugal'
p384
F0.011742482258599999
sS'promos'
p385
F0.011651008087800001
sS'JonTron'
p386
F0.0075023600139100003
sS'shittyaskscience'
p387
F0.0134323607427
sS'lewronggeneration'
p388
F0.0152990264256
sS'worldbuilding'
p389
F0.00800193986421
sS'netflix'
p390
F0.0082739440292000001
sS'anime'
p391
F0.0094527583458800003
sS'AnimalsBeingBros'
p392
F0.0126966381857
sS'classic4chan'
p393
F0.0097549481621100002
sS'GameDeals'
p394
F0.011395027624300001
sS'battlestations'
p395
F0.011325709908600001
sS'amiugly'
p396
F0.0094789474700300008
sS'gamemusic'
p397
F0.0078931390406799997
sS'TrollXChromosomes'
p398
F0.0131292308142
sS'tifu'
p399
F0.0105812728512
sS'unitedkingdom'
p400
F0.0105159967917
sS'Damnthatsinteresting'
p401
F0.0145777940772
sS'DnD'
p402
F0.0081495802843800005
sS'loseit'
p403
F0.0083000988512800002
sS'CrazyIdeas'
p404
F0.0152989590898
sS'Bad_Cop_No_Donut'
p405
F0.0090540118638799995
sS'MorbidReality'
p406
F0.016559246405600001
sS'gif'
p407
F0.0082471077851200003
sS'cats'
p408
F0.0093660411780000005
sS'introvert'
p409
F0.0093479356642099994
sS'raisedbynarcissists'
p410
F0.0090812402847099995
sS'happy'
p411
F0.0098586634095300003
sS'explainlikeIAmA'
p412
F0.0103036876356
sS'batman'
p413
F0.0086631280767900005
sS'gamegrumps'
p414
F0.0119226609691
sS'ProgrammerHumor'
p415
F0.0092107515836299999
sS'Marvel'
p416
F0.0075122338315
sS'rage'
p417
F0.018689773080499999
sS'comics'
p418
F0.015444581822800001
sS'behindthegifs'
p419
F0.0165351371665
sS'civ'
p420
F0.0090966829887899996
sS'BustyPetite'
p421
F0.00704747774481
sS'fullmoviesonyoutube'
p422
F0.016955412301900001
sS'iphone'
p423
F0.0074629615979999999
sS'videos'
p424
F0.0105564519727
sS'keto'
p425
F0.00840922056245
sS'TrueAskReddit'
p426
F0.0094065934065900008
sS'politics'
p427
F0.0113854280301
sS'bestofworldstar'
p428
F0.0082379223680500002
sS'ForeverAlone'
p429
F0.0084322423370500003
sS'bicycling'
p430
F0.0079173126614999999
sS'circlebroke'
p431
F0.0090501832662100001
sS'zelda'
p432
F0.0100702912064
sS'ImaginaryLandscapes'
p433
F0.0093772666045000008
sS'popping'
p434
F0.0123727735369
sS'nottheonion'
p435
F0.013189769080699999
sS'nintendo'
p436
F0.0084197946656499999
sS'comicbooks'
p437
F0.0084424841842599997
sS'oddlysatisfying'
p438
F0.021284494493299999
sS'GirlGamers'
p439
F0.0081777630926800002
sS'cosplaygirls'
p440
F0.0089789948401300008
sS'entertainment'
p441
F0.007259797022
sS'youtube'
p442
F0.0093294709039799997
sS'atheism'
p443
F0.011276944425300001
sS'Design'
p444
F0.0073739024668399997
sS'PrettyGirls'
p445
F0.0085415332052100005
sS'urbanexploration'
p446
F0.0079881793415499999
sS'speedrun'
p447
F0.0073042880467499996
s.