(dp1
S'breastfeeding'
p2
F0.00865503503228
sS'FancyFollicles'
p3
F0.011761734675500001
sS'SuicideWatch'
p4
F0.013326590713
sS'RandomActsOfGaming'
p5
F0.0095971084037000005
sS'help'
p6
F0.0075626482086800003
sS'Justrolledintotheshop'
p7
F0.0072838796243099996
sS'DoesAnybodyElse'
p8
F0.010722725043499999
sS'pettyrevenge'
p9
F0.0131601338703
sS'ABraThatFits'
p10
F0.0077188468510599999
sS'PublicFreakout'
p11
F0.00725596160387
sS'r4r'
p12
F0.0078520423517799993
sS'Bitcoin'
p13
F0.0073736249266799997
sS'randomactsofamazon'
p14
F0.014685140628900001
sS'dadjokes'
p15
F0.0070224293973399996
sS'BuyItForLife'
p16
F0.0091838339361500002
sS'SampleSize'
p17
F0.0072744067894499999
sS'everymanshouldknow'
p18
F0.0077477958856500004
sS'Pets'
p19
F0.0125701921591
sS'RandomActsofMakeup'
p20
F0.012502454670400001
sS'relationships'
p21
F0.0085653977490400008
sS'TalesFromRetail'
p22
F0.0129909894147
sS'creepy'
p23
F0.0074752569904100001
sS'quityourbullshit'
p24
F0.010169819848900001
sS'Advice'
p25
F0.014620410815499999
sS'nostalgia'
p26
F0.0094685127288999995
sS'ProtectAndServe'
p27
F0.0080773361976400008
sS'writing'
p28
F0.0078163033483000001
sS'AndroidQuestions'
p29
F0.0072013611363899999
sS'picrequests'
p30
F0.0093346506319599998
sS'HITsWorthTurkingFor'
p31
F0.00875382980054
sS'MensRights'
p32
F0.0078219174412700009
sS'ChronicPain'
p33
F0.0103706085698
sS'offmychest'
p34
F0.015489505704400001
sS'Anxiety'
p35
F0.011516923185299999
sS'RandomActsOfPolish'
p36
F0.0074670206587600001
sS'childfree'
p37
F0.0115541778216
sS'food'
p38
F0.0070312861394200002
sS'cringepics'
p39
F0.0074131423594299998
sS'UnresolvedMysteries'
p40
F0.010434485118000001
sS'UpliftingNews'
p41
F0.0093358410187799994
sS'AbandonedPorn'
p42
F0.0079952444642600005
sS'fffffffuuuuuuuuuuuu'
p43
F0.0072692578542099999
sS'geek'
p44
F0.0077807654900199997
sS'NoStupidQuestions'
p45
F0.010735459060999999
sS'nyc'
p46
F0.0076365772469200004
sS'IWantToLearn'
p47
F0.0093623768356700006
sS'makeupexchange'
p48
F0.0075822509395400001
sS'creepyPMs'
p49
F0.0120376635092
sS'penpals'
p50
F0.0082353609359899996
sS'techsupportgore'
p51
F0.0072720433814999997
sS'freebies'
p52
F0.018550686637600001
sS'CrappyDesign'
p53
F0.0070126227208999999
sS'SubredditDrama'
p54
F0.0087219464448000002
sS'techsupport'
p55
F0.0086912829148400005
sS'YouShouldKnow'
p56
F0.0113046916797
sS'gardening'
p57
F0.0095488747174100001
sS'whatisthisthing'
p58
F0.013120880474699999
sS'AskWomen'
p59
F0.0103073830768
sS'NetflixBestOf'
p60
F0.0079045597599400001
sS'TrollXChromosomes'
p61
F0.0095531063053599999
sS'redditgetsdrawn'
p62
F0.0096519695613200007
sS'Christianity'
p63
F0.0080205886762299995
sS'interestingasfuck'
p64
F0.0085223325253600008
sS'MechanicAdvice'
p65
F0.0088070096607499992
sS'changemyview'
p66
F0.0084729099261700008
sS'TwoXChromosomes'
p67
F0.0097410098751600002
sS'fatpeoplestories'
p68
F0.0083811931521499995
sS'Baking'
p69
F0.0095565945640400003
sS'amiugly'
p70
F0.0073616817167499998
sS'depression'
p71
F0.0121614454747
sS'firstworldproblems'
p72
F0.0084228030220899995
sS'femalefashionadvice'
p73
F0.0084963513652400006
sS'Glitch_in_the_Matrix'
p74
F0.0090160183066400005
sS'skeptic'
p75
F0.0073708206686900002
sS'shittyfoodporn'
p76
F0.0078483027359300007
sS'ExpectationVsReality'
p77
F0.0089331553547600008
sS'RandomKindness'
p78
F0.053761584067199997
sS'AskCulinary'
p79
F0.0086494555672599997
sS'facepalm'
p80
F0.0103661094134
sS'foodhacks'
p81
F0.00846230931967
sS'lifehacks'
p82
F0.010547742412999999
sS'Paranormal'
p83
F0.010065237651399999
sS'tattoos'
p84
F0.00705444392741
sS'bestof'
p85
F0.0089183274038500005
sS'jobs'
p86
F0.0125385610509
sS'needamod'
p87
F0.0084275043095200005
sS'casualiama'
p88
F0.0126020005265
sS'LetsNotMeet'
p89
F0.0093441993429200006
sS'legaladvice'
p90
F0.0156686033213
sS'BabyBumps'
p91
F0.0115661994829
sS'Random_Acts_Of_Pizza'
p92
F0.043851690558300002
sS'delusionalartists'
p93
F0.0073219922834099997
sS'lgbt'
p94
F0.0085522296884499999
sS'promos'
p95
F0.0106810519218
sS'CrazyIdeas'
p96
F0.0079668578712600007
sS'LadyBoners'
p97
F0.0090196464298599992
sS'doctorwho'
p98
F0.0083470369059799997
sS'howto'
p99
F0.0079832352060699996
sS'forhire'
p100
F0.0132236410438
sS'bigboobproblems'
p101
F0.0082496906366000006
sS'Unexpected'
p102
F0.0073034297625999998
sS'LifeProTips'
p103
F0.0091219328636100005
sS'ThriftStoreHauls'
p104
F0.010563201462599999
sS'Frugal'
p105
F0.016458960614600001
sS'recipes'
p106
F0.0095892666063099995
sS'TalesFromThePizzaGuy'
p107
F0.0080020989111899993
sS'personalfinance'
p108
F0.00881106759967
sS'relationship_advice'
p109
F0.0091918347857200006
sS'watchpeopledie'
p110
F0.0078574435246200006
sS'howtonotgiveafuck'
p111
F0.0073040020745100001
sS'AnimalsBeingBros'
p112
F0.0072084805653699997
sS'IWantOut'
p113
F0.00849404348523
sS'whatsthisbug'
p114
F0.0082128397917899994
sS'TrueReddit'
p115
F0.00863634444022
sS'drunk'
p116
F0.0070655139730599996
sS'xxfitness'
p117
F0.0073469387755099999
sS'confession'
p118
F0.013543272407
sS'findareddit'
p119
F0.012760348009499999
sS'rant'
p120
F0.00964844183209
sS'Health'
p121
F0.0076683657359399998
sS'MMFB'
p122
F0.012336106019999999
sS'ADHD'
p123
F0.0071554808396900003
sS'tifu'
p124
F0.0079815341581300006
sS'harrypotter'
p125
F0.0077525214511500002
sS'ainbow'
p126
F0.0074469899380400001
sS'HistoryPorn'
p127
F0.0070322943102300002
sS'loseit'
p128
F0.0115686418304
sS'beyondthebump'
p129
F0.0106303151576
sS'Bad_Cop_No_Donut'
p130
F0.0101247771836
sS'OutOfTheLoop'
p131
F0.0101646757508
sS'EatCheapAndHealthy'
p132
F0.0136095876498
sS'RandomActsOfPizza'
p133
F0.032571771131699997
sS'MorbidReality'
p134
F0.012920228835899999
sS'cats'
p135
F0.011849499144899999
sS'firstimpression'
p136
F0.0072706350036600004
sS'raisedbynarcissists'
p137
F0.013755833947400001
sS'dogs'
p138
F0.012370455667099999
sS'happy'
p139
F0.011613175675699999
sS'tipofmytongue'
p140
F0.00966947265805
sS'FloridaMan'
p141
F0.0075261634379899999
sS'MakeupAddiction'
p142
F0.010013600362699999
sS'snackexchange'
p143
F0.0131464216245
sS'mildlyinfuriating'
p144
F0.0081576871054999996
sS'cordcutters'
p145
F0.0075239398084800003
sS'somethingimade'
p146
F0.0117642302717
sS'keto'
p147
F0.0089265119712099994
sS'Awwducational'
p148
F0.0093931346513200006
sS'TheGirlSurvivalGuide'
p149
F0.0100487660706
sS'dogemarket'
p150
F0.0077480450534499999
sS'AskMen'
p151
F0.0083600256246000003
sS'ghettoglamourshots'
p152
F0.0070682429473900004
sS'blunderyears'
p153
F0.00823090430202
sS'Random_Acts_Of_Amazon'
p154
F0.034101825168100001
sS'rage'
p155
F0.0093543615492
sS'thatHappened'
p156
F0.0085664694574600006
sS'science'
p157
F0.0077113712300600004
sS'AMA'
p158
F0.0091813705375500005
sS'sex'
p159
F0.0076090115737500004
sS'Flipping'
p160
F0.00844449883735
sS'offbeat'
p161
F0.0103033622871
sS'Entrepreneur'
p162
F0.0084504817564400002
sS'ICanDrawThat'
p163
F0.0085325196360999996
sS'fullmoviesonyoutube'
p164
F0.0074689750268099996
sS'FoodPorn'
p165
F0.0072850293684200004
sS'Cooking'
p166
F0.0097508359400299994
sS'TrueAskReddit'
p167
F0.0071110167692599998
sS'conspiracy'
p168
F0.0089111851876300004
sS'DIY'
p169
F0.0086363936685299996
sS'politics'
p170
F0.0071897413097100002
sS'Dogtraining'
p171
F0.0075371057513900002
sS'SkincareAddiction'
p172
F0.0093920640698900004
sS'shutupandtakemymoney'
p173
F0.0082757057023000007
sS'TalesFromYourServer'
p174
F0.0104400081483
sS'breakingmom'
p175
F0.011673151751
sS'self'
p176
F0.015935953126600001
sS'answers'
p177
F0.00934104985278
sS'Parenting'
p178
F0.016920567336699999
sS'badtattoos'
p179
F0.0074642895499900004
sS'popping'
p180
F0.0095725008158399991
sS'slowcooking'
p181
F0.0105863865685
sS'RedditLaqueristas'
p182
F0.0096771634806100005
sS'daddit'
p183
F0.0077281284058299997
sS'dogecoin'
p184
F0.0078388878001499993
sS'Whatcouldgowrong'
p185
F0.00771220656142
sS'wheredidthesodago'
p186
F0.0072258875274899999
sS'talesfromtechsupport'
p187
F0.0091159375955900002
sS'JusticePorn'
p188
F0.0085521107751400007
sS'knitting'
p189
F0.0073590901488499996
sS'GiftofGames'
p190
F0.0081736027168600005
sS'AnimalsBeingJerks'
p191
F0.0074132587956499997
sS'mturk'
p192
F0.0085568917668799992
sS'sewing'
p193
F0.0089559415760100004
sS'budgetfood'
p194
F0.0101547987616
sS'Mommit'
p195
F0.0125122830003
sS'progresspics'
p196
F0.0082820471756399998
sS'crochet'
p197
F0.0094179488583499994
sS'DumpsterDiving'
p198
F0.0076625445717299996
sS'oddlysatisfying'
p199
F0.0071267390704400002
sS'beermoney'
p200
F0.017922336541700001
sS'atheism'
p201
F0.0070912436605200004
sS'eFreebies'
p202
F0.0081829767254699998
sS'secretsanta'
p203
F0.020555903119100001
sS'crafts'
p204
F0.0124197261602
sS'needadvice'
p205
F0.013711235851699999
s.