(dp1
S'asoiaf'
p2
F0.0086812985266199998
sS'inthenews'
p3
F0.0116168800379
sS'AndroidGaming'
p4
F0.0075961386295299999
sS'BuyItForLife'
p5
F0.0143887089876
sS'spiders'
p6
F0.0096669646848499997
sS'askphilosophy'
p7
F0.0073666849917499999
sS'NeutralPolitics'
p8
F0.0085900275149299998
sS'syriancivilwar'
p9
F0.0070969715509300001
sS'JoeRogan'
p10
F0.0073214746068600003
sS'Showerthoughts'
p11
F0.0102449374182
sS'HistoryPorn'
p12
F0.022687877970800002
sS'holdmybeer'
p13
F0.016520425545600001
sS'ImaginaryMonsters'
p14
F0.0089029293509500004
sS'dwarffortress'
p15
F0.0079759289330399996
sS'YouShouldKnow'
p16
F0.022211525237199999
sS'geology'
p17
F0.0153526209554
sS'UpliftingNews'
p18
F0.012506375146899999
sS'PandR'
p19
F0.0071147369918899998
sS'Jokes'
p20
F0.0097400121988399993
sS'Stargate'
p21
F0.0101439168199
sS'Military'
p22
F0.011948035528000001
sS'Steam'
p23
F0.0098434226349100006
sS'AlienBlue'
p24
F0.0090366655136599992
sS'photoshopbattles'
p25
F0.012541442638399999
sS'IWantToLearn'
p26
F0.0140891218873
sS'Celebs'
p27
F0.0102524314888
sS'CrappyDesign'
p28
F0.0164103043621
sS'NewsOfTheWeird'
p29
F0.0074388209121199998
sS'techsupport'
p30
F0.0102776437798
sS'Libertarian'
p31
F0.0151716011195
sS'starcitizen'
p32
F0.010212878838100001
sS'everymanshouldknow'
p33
F0.016847904886199999
sS'pcgaming'
p34
F0.011096325109999999
sS'EatCheapAndHealthy'
p35
F0.0107393907837
sS'tea'
p36
F0.0087906630245800001
sS'blackpeoplegifs'
p37
F0.0097112454155700006
sS'POLITIC'
p38
F0.0086789411691800007
sS'MechanicAdvice'
p39
F0.00748055056852
sS'fatpeoplestories'
p40
F0.0084540096541100007
sS'forwardsfromgrandma'
p41
F0.0097735399284899997
sS'Glitch_in_the_Matrix'
p42
F0.0102045266233
sS'skeptic'
p43
F0.029086439983599999
sS'Warthunder'
p44
F0.0081754897199300004
sS'boardgames'
p45
F0.0074995066114100003
sS'socialskills'
p46
F0.0108158334882
sS'DebateReligion'
p47
F0.0108627858628
sS'Anticonsumption'
p48
F0.0072330262709000004
sS'gamedev'
p49
F0.0092999661819399993
sS'worldnews'
p50
F0.0114849814304
sS'guns'
p51
F0.011445536445500001
sS'tattoos'
p52
F0.0080686381891200004
sS'Economics'
p53
F0.0160656298069
sS'ExposurePorn'
p54
F0.015730928717199999
sS'legaladvice'
p55
F0.0081277406209900004
sS'AskElectronics'
p56
F0.0093537899960099997
sS'lgbt'
p57
F0.0079049844236799994
sS'baseball'
p58
F0.0095158597662799993
sS'gentlemanboners'
p59
F0.0146136835146
sS'doctorwho'
p60
F0.0124616956078
sS'TopGear'
p61
F0.013169329500599999
sS'sanfrancisco'
p62
F0.0072389791183299999
sS'WarshipPorn'
p63
F0.0117683113699
sS'personalfinance'
p64
F0.0082596010906800001
sS'creepy'
p65
F0.0093194625054199998
sS'pics'
p66
F0.0073001355683000001
sS'IWantOut'
p67
F0.0084728666532199997
sS'whatsthisbug'
p68
F0.013568268837599999
sS'QuotesPorn'
p69
F0.018897583979800001
sS'firefox'
p70
F0.0086333578251300003
sS'apple'
p71
F0.0125920471281
sS'hiking'
p72
F0.0094726506093699998
sS'todayilearned'
p73
F0.0097259793090600007
sS'AmIFreeToGo'
p74
F0.0077205172746600001
sS'findareddit'
p75
F0.0085847558555000002
sS'IdiotsFightingThings'
p76
F0.0158875649251
sS'Health'
p77
F0.013173807878399999
sS'Firearms'
p78
F0.0077664842324700004
sS'gamernews'
p79
F0.0109231853418
sS'ContagiousLaughter'
p80
F0.0136951772811
sS'Multicopter'
p81
F0.0097493869250599996
sS'environment'
p82
F0.021910272218500001
sS'FiftyFifty'
p83
F0.0110274219737
sS'eldertrees'
p84
F0.0102600680347
sS'AskHistorians'
p85
F0.017697479379899999
sS'Drugs'
p86
F0.0092940992873400009
sS'OutOfTheLoop'
p87
F0.016247193666500001
sS'sports'
p88
F0.0080895125855799995
sS'ifyoulikeblank'
p89
F0.0073675742050200001
sS'misleadingthumbnails'
p90
F0.0119393045712
sS'WebGames'
p91
F0.0089219330854999994
sS'battlefield_4'
p92
F0.0080355648146399998
sS'Pareidolia'
p93
F0.016014399113899999
sS'hockey'
p94
F0.00793987280786
sS'Filmmakers'
p95
F0.0077218622871799997
sS'Eve'
p96
F0.0093635015651600002
sS'ftlgame'
p97
F0.0072390910919000002
sS'LifeProTips'
p98
F0.012820429933700001
sS'Shitty_Car_Mods'
p99
F0.010586479713899999
sS'UFOs'
p100
F0.017188629915999998
sS'EDC'
p101
F0.0090249033046099995
sS'techsupportgore'
p102
F0.016351855247900001
sS'science'
p103
F0.020807806269100001
sS'firstworldproblems'
p104
F0.014369122120099999
sS'Entrepreneur'
p105
F0.0085441661763600001
sS'standupshots'
p106
F0.0141506575359
sS'Meditation'
p107
F0.011865915158700001
sS'history'
p108
F0.018505945993300001
sS'AskScienceFiction'
p109
F0.011197937646
sS'NewsOfTheStupid'
p110
F0.0086018659432299995
sS'audiophile'
p111
F0.0094686562116899995
sS'awesome'
p112
F0.0110520594275
sS'DecidingToBeBetter'
p113
F0.0084926744474799996
sS'gadgets'
p114
F0.0139973567223
sS'learnprogramming'
p115
F0.0118480859956
sS'Infographics'
p116
F0.0116983372922
sS'BasicIncome'
p117
F0.010263929618800001
sS'CampingandHiking'
p118
F0.014740807468700001
sS'Pizza'
p119
F0.0076522305438000001
sS'HouseOfCards'
p120
F0.0093080584835100004
sS'asmr'
p121
F0.0084137877554199998
sS'techsupportmacgyver'
p122
F0.0114410387399
sS'MURICA'
p123
F0.015095936794599999
sS'backpacking'
p124
F0.0097507586687199995
sS'travel'
p125
F0.012391573729899999
sS'RealGirls'
p126
F0.0092585089140999992
sS'scifi'
p127
F0.030503276174500001
sS'spaceporn'
p128
F0.059886605244499999
sS'howtonotgiveafuck'
p129
F0.00963128306878
sS'economy'
p130
F0.0112876510644
sS'polandball'
p131
F0.011092754307299999
sS'gaming'
p132
F0.0081420945217300002
sS'askscience'
p133
F0.026883601586199998
sS'philosophy'
p134
F0.013223770135
sS'netsec'
p135
F0.010371608336600001
sS'classic4chan'
p136
F0.0078197121911499998
sS'mac'
p137
F0.0075666894664800002
sS'law'
p138
F0.0088932806324099993
sS'MachinePorn'
p139
F0.017474504411599999
sS'oculus'
p140
F0.012125044678500001
sS'FanTheories'
p141
F0.0099987056691700008
sS'listentothis'
p142
F0.0083445287517299998
sS'tall'
p143
F0.0084129149613500001
sS'ImGoingToHellForThis'
p144
F0.0124690200711
sS'cableporn'
p145
F0.010103158566400001
sS'DoesAnybodyElse'
p146
F0.0124659474774
sS'pettyrevenge'
p147
F0.012505153222500001
sS'CityPorn'
p148
F0.015824684792900001
sS'DeepIntoYouTube'
p149
F0.011062306816300001
sS'dataisbeautiful'
p150
F0.020391789797400001
sS'japan'
p151
F0.0084602368866299998
sS'islam'
p152
F0.0070596366508699996
sS'battlefield3'
p153
F0.0074770465666099996
sS'beards'
p154
F0.010505899466600001
sS'arduino'
p155
F0.0122711627675
sS'nostalgia'
p156
F0.013661755767200001
sS'Documentaries'
p157
F0.0155005897965
sS'writing'
p158
F0.0120504166227
sS'AndroidQuestions'
p159
F0.0094590487767800008
sS'WTF'
p160
F0.0084154174166599996
sS'soccer'
p161
F0.0070850128652800003
sS'wallpaper'
p162
F0.0120890774125
sS'texas'
p163
F0.0087160751565799992
sS'MensRights'
p164
F0.011831383201000001
sS'MilitaryPorn'
p165
F0.0151609124113
sS'Frisson'
p166
F0.0144340224023
sS'electronicmusic'
p167
F0.0088858296048299999
sS'childfree'
p168
F0.0105110844163
sS'food'
p169
F0.010601899443100001
sS'DebateAnAtheist'
p170
F0.010083513764300001
sS'NoStupidQuestions'
p171
F0.012761533463299999
sS'nyc'
p172
F0.010102923533499999
sS'IndieGaming'
p173
F0.0085678790215500001
sS'Liberal'
p174
F0.0088972768940400009
sS'creepyPMs'
p175
F0.0085276809067099998
sS'WatchItForThePlot'
p176
F0.011127907953300001
sS'nfl'
p177
F0.0071583637215000004
sS'freebies'
p178
F0.010927245894400001
sS'Watches'
p179
F0.0076251477372399996
sS'radiocontrol'
p180
F0.0082295988935000008
sS'SubredditDrama'
p181
F0.013576609638
sS'minimalism'
p182
F0.0143512256277
sS'wallpapers'
p183
F0.0155927357442
sS'mildlyinteresting'
p184
F0.0110990795885
sS'TrueAtheism'
p185
F0.021667451719299999
sS'badhistory'
p186
F0.0082151640416499999
sS'energy'
p187
F0.0147870904405
sS'books'
p188
F0.0100184917148
sS'Cinemagraphs'
p189
F0.0143896976484
sS'canada'
p190
F0.0128630550688
sS'psychology'
p191
F0.017082849399899999
sS'space'
p192
F0.055458327829899998
sS'shittyfoodporn'
p193
F0.0100080064051
sS'malefashionadvice'
p194
F0.0084904996834899993
sS'LearnUselessTalents'
p195
F0.0152201257862
sS'RoomPorn'
p196
F0.016537506025399999
sS'electronics'
p197
F0.014704303960499999
sS'math'
p198
F0.020419183907699999
sS'bestof'
p199
F0.016795654472900001
sS'Cyberpunk'
p200
F0.0152240848443
sS'cars'
p201
F0.0103772433158
sS'Metal'
p202
F0.0087002065935299997
sS'vinyl'
p203
F0.0080697224015499995
sS'Roadcam'
p204
F0.0106166455801
sS'GamePhysics'
p205
F0.013234187580200001
sS'youtubehaiku'
p206
F0.0111501997496
sS'PoliticalHumor'
p207
F0.0117168818747
sS'recipes'
p208
F0.0088499056010100004
sS'privacy'
p209
F0.012095008756600001
sS'programming'
p210
F0.014737592444100001
sS'dogecoin'
p211
F0.0088643795504000002
sS'classicalmusic'
p212
F0.012048815803100001
sS'misc'
p213
F0.0091306584362100002
sS'patientgamers'
p214
F0.0102238607427
sS'Buddhism'
p215
F0.0111589271417
sS'TheLastAirbender'
p216
F0.0070128172111200001
sS'OldSchoolCool'
p217
F0.012225792212900001
sS'lego'
p218
F0.0119107797296
sS'ANormalDayInRussia'
p219
F0.014058106841600001
sS'seduction'
p220
F0.00784528871211
sS'TheFacebookDelusion'
p221
F0.0089102564102599997
sS'Autos'
p222
F0.0099493679849899999
sS'Seattle'
p223
F0.0081704201081500005
sS'PenmanshipPorn'
p224
F0.011653785457
sS'shittyreactiongifs'
p225
F0.0081109805895799997
sS'shittyadvice'
p226
F0.0077130528586800001
sS'explainlikeimfive'
p227
F0.010271642939599999
sS'dogs'
p228
F0.0084753802852500001
sS'CombatFootage'
p229
F0.0136962092427
sS'TrollYChromosome'
p230
F0.0094757054600099998
sS'DaystromInstitute'
p231
F0.0123745185933
sS'mildlyinfuriating'
p232
F0.0173019583689
sS'Awwducational'
p233
F0.0144839223774
sS'skyrim'
p234
F0.0120378204272
sS'learnpython'
p235
F0.00709336852524
sS'toronto'
p236
F0.0073968452009600004
sS'television'
p237
F0.0098055050811000008
sS'SelfDrivingCars'
p238
F0.0082443871917600008
sS'worldpolitics'
p239
F0.020360354152999999
sS'PerfectTiming'
p240
F0.020583941605799998
sS'knives'
p241
F0.0071410611013299997
sS'hacking'
p242
F0.0082802547770699994
sS'KerbalSpaceProgram'
p243
F0.0278213071675
sS'russia'
p244
F0.0073878930187299997
sS'torrents'
p245
F0.0081655480984300002
sS'gallifrey'
p246
F0.0092287115470400007
sS'formula1'
p247
F0.010121345835599999
sS'FoodPorn'
p248
F0.0123562515292
sS'teenagers'
p249
F0.0070893064399800004
sS'sysadmin'
p250
F0.011627906976700001
sS'conspiracy'
p251
F0.017338017811899999
sS'TheSimpsons'
p252
F0.0103019029904
sS'AnythingGoesNews'
p253
F0.0093206296603099998
sS'collapse'
p254
F0.011677695601399999
sS'HighQualityGifs'
p255
F0.0114294270313
sS'self'
p256
F0.016222194912099999
sS'IAmA'
p257
F0.0078886493530300004
sS'Parenting'
p258
F0.0087301376061299993
sS'chess'
p259
F0.0093964776632300007
sS'britishproblems'
p260
F0.0093655337242599997
sS'UnresolvedMysteries'
p261
F0.0084038111551200008
sS'conspiratard'
p262
F0.0151502675998
sS'FutureWhatIf'
p263
F0.0084918701862899994
sS'firefly'
p264
F0.013153002416799999
sS'aww'
p265
F0.0079580723530599997
sS'Futurology'
p266
F0.022822304013600001
sS'Games'
p267
F0.011147120892399999
sS'progresspics'
p268
F0.0082554273857099996
sS'Minecraft'
p269
F0.0097493175477699999
sS'chemistry'
p270
F0.016091395235799999
sS'windows'
p271
F0.0092673459485700001
sS'chicago'
p272
F0.0076608472713999998
sS'investing'
p273
F0.010746925420300001
sS'TumblrInAction'
p274
F0.0109798504263
sS'secretsanta'
p275
F0.0073755553024300001
sS'Fishing'
p276
F0.0079753856119200005
sS'HailCorporate'
p277
F0.0093714035183899997
sS'Heavymind'
p278
F0.0101824352991
sS'Psychonaut'
p279
F0.0123673591391
sS'photocritique'
p280
F0.0080180526214699999
sS'adventuretime'
p281
F0.0089631231504699992
sS'LucidDreaming'
p282
F0.011429767636600001
sS'fffffffuuuuuuuuuuuu'
p283
F0.0122244488978
sS'PoliticalDiscussion'
p284
F0.013347337096799999
sS'spacex'
p285
F0.0246056782334
sS'Foodforthought'
p286
F0.0184543900408
sS'blender'
p287
F0.0075055187637999999
sS'languagelearning'
p288
F0.00741493143728
sS'TheoryOfReddit'
p289
F0.011502156654400001
sS'printSF'
p290
F0.0115995115995
sS'harrypotter'
p291
F0.0096847562914200002
sS'wicked_edge'
p292
F0.0094255459446900003
sS'booksuggestions'
p293
F0.0073010366665299999
sS'whowouldwin'
p294
F0.0078313112186499997
sS'GrandTheftAutoV'
p295
F0.0087290716928700007
sS'ipad'
p296
F0.0078433259551500007
sS'buildapcsales'
p297
F0.0071567581141299998
sS'arresteddevelopment'
p298
F0.0083349970053899994
sS'shutupandtakemymoney'
p299
F0.0164533820841
sS'photography'
p300
F0.0173534819066
sS'JusticePorn'
p301
F0.016491522145599999
sS'trees'
p302
F0.0078585123112400006
sS'geek'
p303
F0.0254471590589
sS'KerbalAcademy'
p304
F0.010971560560099999
sS'lostgeneration'
p305
F0.0086272668583800005
sS'Fitness'
p306
F0.0076105961533900002
sS'Conservative'
p307
F0.0093597903406999992
sS'homestead'
p308
F0.0083130195637200009
sS'AbandonedPorn'
p309
F0.018964514252499998
sS'motorcycles'
p310
F0.0107929557719
sS'progressive'
p311
F0.0113452188006
sS'dadjokes'
p312
F0.0127823756369
sS'Marijuana'
p313
F0.0109152463227
sS'vexillology'
p314
F0.012185456706999999
sS'WeAreTheMusicMakers'
p315
F0.0086673291376800007
sS'thatHappened'
p316
F0.0123706042141
sS'futurama'
p317
F0.015527950310599999
sS'architecture'
p318
F0.0091904683286600005
sS'whitepeoplegifs'
p319
F0.0091945370469899996
sS'cringe'
p320
F0.0114945007548
sS'StarWars'
p321
F0.016002365852900002
sS'rpg'
p322
F0.0092335485597700006
sS'AskWomen'
p323
F0.0070753579865999996
sS'EngineeringStudents'
p324
F0.0086784847612400001
sS'Christianity'
p325
F0.010529137926800001
sS'Justrolledintotheshop'
p326
F0.0149092277302
sS'AskScienceDiscussion'
p327
F0.014401843435999999
sS'changemyview'
p328
F0.014851921754
sS'PS3'
p329
F0.0076825511868099999
sS'Android'
p330
F0.012325983494099999
sS'firstworldanarchists'
p331
F0.0162320685657
sS'nononono'
p332
F0.019424619233300001
sS'cosplay'
p333
F0.0075622024914799996
sS'truegaming'
p334
F0.0122705607951
sS'camping'
p335
F0.010920354911500001
sS'lotr'
p336
F0.013064713064699999
sS'wikipedia'
p337
F0.022973329812499999
sS'breakingbad'
p338
F0.0115461475835
sS'outside'
p339
F0.0131474103586
sS'AskCulinary'
p340
F0.0098507712944300007
sS'foodhacks'
p341
F0.0081249672380399995
sS'pcmasterrace'
p342
F0.0089350870237300001
sS'europe'
p343
F0.013056188683
sS'StandUpComedy'
p344
F0.0075919589392599999
sS'jobs'
p345
F0.0084454076104300002
sS'linguistics'
p346
F0.0108761329305
sS'casualiama'
p347
F0.0099597099113600002
sS'facepalm'
p348
F0.0153563654134
sS'NASCAR'
p349
F0.0072934359076799998
sS'answers'
p350
F0.016260162601600001
sS'news'
p351
F0.0106546460404
sS'pinkfloyd'
p352
F0.0081852055463900002
sS'Unexpected'
p353
F0.016841635023500001
sS'RedditDayOf'
p354
F0.0131562992603
sS'watchpeopledie'
p355
F0.010733755459999999
sS'Sherlock'
p356
F0.0085437869078999994
sS'Cartalk'
p357
F0.0071723993508200001
sS'GetMotivated'
p358
F0.011469472231800001
sS'buildapc'
p359
F0.0079705291359699997
sS'drunk'
p360
F0.0105013266304
sS'robotics'
p361
F0.0112908777969
sS'reactiongifs'
p362
F0.0140819852645
sS'community'
p363
F0.00897262130659
sS'NotTimAndEric'
p364
F0.0074574922939199999
sS'Music'
p365
F0.00766372939551
sS'startrek'
p366
F0.0252473905382
sS'EarthPorn'
p367
F0.0165560123234
sS'linux'
p368
F0.015175342034899999
sS'3Dprinting'
p369
F0.0112083374299
sS'chrome'
p370
F0.0088224794737099994
sS'Homebrewing'
p371
F0.010876782496
sS'Guitar'
p372
F0.0099502487562199999
sS'beer'
p373
F0.012250477123800001
sS'California'
p374
F0.0089625680979400005
sS'HomeImprovement'
p375
F0.0084636614535399998
sS'web_design'
p376
F0.0100982532751
sS'fatlogic'
p377
F0.0104653909757
sS'androidapps'
p378
F0.0084174457149200008
sS'movies'
p379
F0.0097488828901499992
sS'somethingimade'
p380
F0.012626360432199999
sS'WritingPrompts'
p381
F0.0075267842105900002
sS'MapPorn'
p382
F0.022170964299199999
sS'aviation'
p383
F0.018905811926999999
sS'Scotch'
p384
F0.0073364358061899998
sS'Chromecast'
p385
F0.0091902536973400006
sS'sex'
p386
F0.0074567853790799997
sS'Perfectfit'
p387
F0.0097632813352199997
sS'offbeat'
p388
F0.0239740987229
sS'softwaregore'
p389
F0.0082539330822100007
sS'socialism'
p390
F0.0115884406517
sS'Cooking'
p391
F0.0148441470439
sS'IASIP'
p392
F0.00735262127474
sS'hardware'
p393
F0.013251638643499999
sS'LosAngeles'
p394
F0.0091327289947200005
sS'DIY'
p395
F0.0126890937567
sS'webdev'
p396
F0.0091195440228
sS'technology'
p397
F0.014914060780900001
sS'southpark'
p398
F0.0108016085004
sS'astrophotography'
p399
F0.068309141838599999
sS'Python'
p400
F0.0089613764674299993
sS'daddit'
p401
F0.0094548191354199996
sS'itookapicture'
p402
F0.0168061897514
sS'Whatcouldgowrong'
p403
F0.0202622169249
sS'fifthworldproblems'
p404
F0.0078178747889199995
sS'talesfromtechsupport'
p405
F0.0137233296604
sS'Anarchism'
p406
F0.0088975465936600006
sS'notinteresting'
p407
F0.0124613398192
sS'AnimalsBeingJerks'
p408
F0.0178772940548
sS'DebateAChristian'
p409
F0.0078818893006299996
sS'running'
p410
F0.0097558676595299997
sS'climbing'
p411
F0.0074281219959800001
sS'Physics'
p412
F0.0488669859985
sS'TrueFilm'
p413
F0.0084006974163899992
sS'HumanPorn'
p414
F0.015799170889
sS'Fantasy'
p415
F0.0089002524435199994
sS'Graffiti'
p416
F0.0070607348162999998
sS'Portland'
p417
F0.0075253155777500001
sS'AskEngineers'
p418
F0.0119019617067
sS'drawing'
p419
F0.0072154516256800003
sS'EmmaWatson'
p420
F0.0079708494648099999
sS'awwwtf'
p421
F0.0095810420091800002
sS'Aquariums'
p422
F0.0101733232856
sS'Piracy'
p423
F0.0074807091947900004
sS'PublicFreakout'
p424
F0.0115834335045
sS'ArtisanVideos'
p425
F0.013603398704
sS'Bitcoin'
p426
F0.010199729902599999
sS'rickandmorty'
p427
F0.0096463022507999995
sS'quotes'
p428
F0.0109830063931
sS'woodworking'
p429
F0.013739019423099999
sS'perfectloops'
p430
F0.014181994191699999
sS'InternetIsBeautiful'
p431
F0.014374525303100001
sS'carporn'
p432
F0.0115243922178
sS'TalesFromRetail'
p433
F0.0098997253624599994
sS'TrueReddit'
p434
F0.021395290528800001
sS'quityourbullshit'
p435
F0.014017960511899999
sS'audioengineering'
p436
F0.0079527279189599998
sS'learnmath'
p437
F0.0088637273403100007
sS'ProtectAndServe'
p438
F0.0091136746171800002
sS'woahdude'
p439
F0.0198706907312
sS'Fallout'
p440
F0.0089851683180499995
sS'mycology'
p441
F0.0083322969779899992
sS'offmychest'
p442
F0.0088275458447100007
sS'australia'
p443
F0.0104305526322
sS'slowcooking'
p444
F0.0105179913009
sS'howto'
p445
F0.0192178984607
sS'cringepics'
p446
F0.010772177445300001
sS'toosoon'
p447
F0.010347864376900001
sS'amateurradio'
p448
F0.0115692473263
sS'bodyweightfitness'
p449
F0.0072721396250800003
sS'thewalkingdead'
p450
F0.0090284091815399994
sS'gifs'
p451
F0.0094285298015100005
sS'Art'
p452
F0.011264905027299999
sS'Paranormal'
p453
F0.0092092446648399991
sS'4chan'
p454
F0.0118187718527
sS'compsci'
p455
F0.0124303260494
sS'Enhancement'
p456
F0.010031131096499999
sS'zombies'
p457
F0.0078457744900200001
sS'ArcherFX'
p458
F0.0106398809524
sS'getdisciplined'
p459
F0.0076786769049000001
sS'google'
p460
F0.0126880359904
sS'gardening'
p461
F0.0151762935828
sS'whatisthisthing'
p462
F0.017359920963
sS'glitch_art'
p463
F0.0088999212932099996
sS'NetflixBestOf'
p464
F0.014513198163699999
sS'tumblr'
p465
F0.0106989023204
sS'interestingasfuck'
p466
F0.0215248843037
sS'MarkMyWords'
p467
F0.0071751097915499999
sS'PropagandaPosters'
p468
F0.0113312801441
sS'Coffee'
p469
F0.0117891328829
sS'gameofthrones'
p470
F0.011355266388400001
sS'humor'
p471
F0.0184597761917
sS'AMA'
p472
F0.0097310245022199995
sS'ExpectationVsReality'
p473
F0.0111484348376
sS'nonononoyes'
p474
F0.020527108861900002
sS'religion'
p475
F0.0078770913352000007
sS'lifehacks'
p476
F0.017159392136600001
sS'starbound'
p477
F0.00723169368362
sS'biology'
p478
F0.017171664128599998
sS'ProgrammerHumor'
p479
F0.0129059275898
sS'business'
p480
F0.0122642635474
sS'FloridaMan'
p481
F0.0128407491148
sS'delusionalartists'
p482
F0.010103974509499999
sS'OkCupid'
p483
F0.0070481800967800001
sS'Frugal'
p484
F0.014608233731699999
sS'promos'
p485
F0.0109387668302
sS'Images'
p486
F0.0081649197984800005
sS'shittyaskscience'
p487
F0.015541931543099999
sS'whatsthisplant'
p488
F0.0089451913133399997
sS'lewronggeneration'
p489
F0.0071550942255399997
sS'worldbuilding'
p490
F0.0113625950701
sS'calvinandhobbes'
p491
F0.0100251999562
sS'netflix'
p492
F0.010673266561000001
sS'masseffect'
p493
F0.0096992873283500008
sS'wheredidthesodago'
p494
F0.016482843137300002
sS'AnimalsBeingBros'
p495
F0.0140184809556
sS'AskPhysics'
p496
F0.013211938663700001
sS'GameDeals'
p497
F0.0084019850303799996
sS'battlestations'
p498
F0.010919717010199999
sS'software'
p499
F0.0082012028430799994
sS'applehelp'
p500
F0.0071820152139699996
sS'Scotland'
p501
F0.0077155151095500002
sS'weather'
p502
F0.012627940981000001
sS'marijuanaenthusiasts'
p503
F0.0089550273260000004
sS'TrollXChromosomes'
p504
F0.0100815035582
sS'confession'
p505
F0.0083725380751100004
sS'tifu'
p506
F0.0083196502713999993
sS'unitedkingdom'
p507
F0.0108248281112
sS'Damnthatsinteresting'
p508
F0.020250269106600001
sS'DnD'
p509
F0.0074919166162799996
sS'loseit'
p510
F0.0075350801832800001
sS'CrazyIdeas'
p511
F0.0165461262293
sS'networking'
p512
F0.0073383139560600002
sS'MechanicalKeyboards'
p513
F0.0088408104991500001
sS'TinyHouses'
p514
F0.0084390607956799993
sS'Bad_Cop_No_Donut'
p515
F0.015866445916100001
sS'flying'
p516
F0.0129132231405
sS'gopro'
p517
F0.0088200347317399994
sS'MorbidReality'
p518
F0.0134025799966
sS'gif'
p519
F0.0140875409271
sS'cats'
p520
F0.011847894944100001
sS'introvert'
p521
F0.0087400621281500009
sS'Ubuntu'
p522
F0.010129431626299999
sS'happy'
p523
F0.010462335591899999
sS'explainlikeIAmA'
p524
F0.0089567693502500007
sS'batman'
p525
F0.0086520675458000001
sS'occupywallstreet'
p526
F0.0102949360045
sS'teslamotors'
p527
F0.0112326161892
sS'blunderyears'
p528
F0.0095040304129000008
sS'Marvel'
p529
F0.0080135084857300004
sS'webcomics'
p530
F0.0084740705376900004
sS'rage'
p531
F0.014490973842599999
sS'comics'
p532
F0.0179301105281
sS'nsfw'
p533
F0.0096416669786900007
sS'behindthegifs'
p534
F0.0142593081595
sS'civ'
p535
F0.010654523270000001
sS'BustyPetite'
p536
F0.0070921985815599999
sS'fullmoviesonyoutube'
p537
F0.014803301136200001
sS'iphone'
p538
F0.010277311907599999
sS'videos'
p539
F0.0084808467000400001
sS'keto'
p540
F0.0077956506110699996
sS'TrueAskReddit'
p541
F0.0135162396611
sS'engineering'
p542
F0.014987942867699999
sS'tipofmytongue'
p543
F0.0098175443153000006
sS'politics'
p544
F0.015250582955400001
sS'ForeverAlone'
p545
F0.0071599045346100003
sS'bicycling'
p546
F0.0147042564953
sS'Survival'
p547
F0.0102771905097
sS'AskSocialScience'
p548
F0.0075016503630800004
sS'zelda'
p549
F0.0075084898900199997
sS'ImaginaryLandscapes'
p550
F0.012677515694499999
sS'TheWayWeWere'
p551
F0.011464655753800001
sS'popping'
p552
F0.0073040937706499998
sS'nottheonion'
p553
F0.013967379928800001
sS'AskMen'
p554
F0.00946495536893
sS'raspberry_pi'
p555
F0.0116112820068
sS'comicbooks'
p556
F0.0086106419923400006
sS'cordcutters'
p557
F0.0145395799677
sS'oddlysatisfying'
p558
F0.017840738770999998
sS'cosplaygirls'
p559
F0.0086325649738299998
sS'entertainment'
p560
F0.013794540529300001
sS'atheism'
p561
F0.015913892866999998
sS'Design'
p562
F0.0116856433525
sS'PrettyGirls'
p563
F0.0087518840861600007
sS'urbanexploration'
p564
F0.0099600532623200008
s.