(dp1
S'photoshop'
p2
F0.0070045724292200004
sS'awwwtf'
p3
F0.0073024810839299997
sS'Heavymind'
p4
F0.0073033261887800001
sS'MapPorn'
p5
F0.0079076928925800004
sS'pettyrevenge'
p6
F0.0073699517482999997
sS'photocritique'
p7
F0.017095205003500001
sS'CityPorn'
p8
F0.0095548823118199993
sS'ArtisanVideos'
p9
F0.0090611481351599993
sS'BuyItForLife'
p10
F0.0076949063473599998
sS'woodworking'
p11
F0.0073145245558999998
sS'perfectloops'
p12
F0.0103149878851
sS'everymanshouldknow'
p13
F0.0094236787510100003
sS'dataisbeautiful'
p14
F0.0091900626136100002
sS'InternetIsBeautiful'
p15
F0.0076461033986099996
sS'spacex'
p16
F0.0152060002055
sS'carporn'
p17
F0.0076113360323900002
sS'TrueReddit'
p18
F0.00772511848341
sS'arduino'
p19
F0.0093444404201399999
sS'quityourbullshit'
p20
F0.0076595744680899996
sS'LearnUselessTalents'
p21
F0.0079602551798099996
sS'startrek'
p22
F0.0083558406482099994
sS'environment'
p23
F0.0072949134558000003
sS'woahdude'
p24
F0.0092319984714700001
sS'nononono'
p25
F0.0105068862701
sS'MilitaryPorn'
p26
F0.0081162455818800001
sS'Frisson'
p27
F0.0081692103096699994
sS'YouShouldKnow'
p28
F0.0082003955174700001
sS'shutupandtakemymoney'
p29
F0.00751844368216
sS'photography'
p30
F0.0217886604688
sS'JusticePorn'
p31
F0.0081093863016699994
sS'UpliftingNews'
p32
F0.0071754394956700003
sS'softwaregore'
p33
F0.0076582709326099997
sS'geek'
p34
F0.0102068315031
sS'KerbalAcademy'
p35
F0.0092384848884799996
sS'amateurradio'
p36
F0.0073111291632800002
sS'photoshopbattles'
p37
F0.0082068336641099998
sS'AbandonedPorn'
p38
F0.0109653762076
sS'CrappyDesign'
p39
F0.0088598994428599996
sS'radiocontrol'
p40
F0.0071061014457200001
sS'futurama'
p41
F0.0076091309571500003
sS'Enhancement'
p42
F0.0085848545093099998
sS'whitepeoplegifs'
p43
F0.0070599691633500003
sS'spiders'
p44
F0.0071385568074300004
sS'behindthegifs'
p45
F0.0094413847364299992
sS'TrueAtheism'
p46
F0.0073681786783300002
sS'whatisthisthing'
p47
F0.0098236775818600006
sS'gentlemanboners'
p48
F0.0082201194692600003
sS'interestingasfuck'
p49
F0.010443820319199999
sS'AskScienceDiscussion'
p50
F0.0081810454738599995
sS'Cinemagraphs'
p51
F0.0103110500086
sS'firstworldanarchists'
p52
F0.0082835879769599993
sS'PerfectTiming'
p53
F0.012228260869600001
sS'humor'
p54
F0.0080000000000000002
sS'camping'
p55
F0.0079724871033299994
sS'space'
p56
F0.024286959770800001
sS'skeptic'
p57
F0.010449817128199999
sS'AskPhotography'
p58
F0.0108436921449
sS'wikipedia'
p59
F0.0077453334366000002
sS'ExpectationVsReality'
p60
F0.00726916893828
sS'outside'
p61
F0.0076926663247699999
sS'RoomPorn'
p62
F0.0087673070473799995
sS'lifehacks'
p63
F0.0085909863554900004
sS'electronics'
p64
F0.0089242643511799995
sS'Astronomy'
p65
F0.068309141838599999
sS'math'
p66
F0.0072139723253500003
sS'bestof'
p67
F0.0098749377736699999
sS'ExposurePorn'
p68
F0.032195676905599997
sS'FloridaMan'
p69
F0.0085286609422099997
sS'shittyaskscience'
p70
F0.0081371009942400006
sS'GamePhysics'
p71
F0.0082942001585700007
sS'howto'
p72
F0.0072712583316500001
sS'TopGear'
p73
F0.0085473684210500001
sS'RedditDayOf'
p74
F0.0074939172749399997
sS'WarshipPorn'
p75
F0.0079459674215300001
sS'Roadcam'
p76
F0.0078865676650699996
sS'itookapicture'
p77
F0.0175751098444
sS'wheredidthesodago'
p78
F0.0098655721655300007
sS'AnimalsBeingBros'
p79
F0.0105203832425
sS'OutOfTheLoop'
p80
F0.0088073312671399992
sS'whatsthisbug'
p81
F0.0072750048178799997
sS'QuotesPorn'
p82
F0.0082527401676299999
sS'hiking'
p83
F0.0071564453301900003
sS'IdiotsFightingThings'
p84
F0.0087060226595099995
sS'weather'
p85
F0.00817717206133
sS'marijuanaenthusiasts'
p86
F0.0071910112359600004
sS'EarthPorn'
p87
F0.0101311614759
sS'ContagiousLaughter'
p88
F0.0085125702287000005
sS'Multicopter'
p89
F0.0088198638673199995
sS'3Dprinting'
p90
F0.0084445075219999992
sS'Damnthatsinteresting'
p91
F0.0120324242168
sS'HistoryPorn'
p92
F0.0099174625124200007
sS'CrazyIdeas'
p93
F0.0078868726701400004
sS'Bad_Cop_No_Donut'
p94
F0.0078558023829300005
sS'ANormalDayInRussia'
p95
F0.0091131215743199996
sS'flying'
p96
F0.0086010047191399999
sS'analog'
p97
F0.010470085470099999
sS'gif'
p98
F0.0074473699642300002
sS'gopro'
p99
F0.0095715295175699995
sS'PenmanshipPorn'
p100
F0.0082206598161199997
sS'misleadingthumbnails'
p101
F0.0086562521133400003
sS'Pareidolia'
p102
F0.0090879793747999996
sS'holdmybeer'
p103
F0.0097909922871000001
sS'CombatFootage'
p104
F0.0085132259045300005
sS'teslamotors'
p105
F0.0074690365888199998
sS'mildlyinfuriating'
p106
F0.0081486211195199998
sS'oddlysatisfying'
p107
F0.0098860262086400003
sS'Unexpected'
p108
F0.0084516675351699998
sS'Awwducational'
p109
F0.0087782984621499992
sS'aviation'
p110
F0.0104320440901
sS'UFOs'
p111
F0.0098213529760400008
sS'videography'
p112
F0.0071509648127100001
sS'techsupportgore'
p113
F0.0088150343223699999
sS'comics'
p114
F0.0076028048185300002
sS'science'
p115
F0.0089244981751800002
sS'Justrolledintotheshop'
p116
F0.0091594679830000001
sS'offbeat'
p117
F0.0083702164814999994
sS'Glitch_in_the_Matrix'
p118
F0.0070709491850399998
sS'standupshots'
p119
F0.0075070610970700002
sS'KerbalSpaceProgram'
p120
F0.0140616700679
sS'fullmoviesonyoutube'
p121
F0.0076547698784800002
sS'engineering'
p122
F0.0073875083948999999
sS'CampingandHiking'
p123
F0.00947945205479
sS'techsupportmacgyver'
p124
F0.0094173982442099999
sS'MURICA'
p125
F0.0074172428002400002
sS'HighQualityGifs'
p126
F0.0101699840186
sS'scifi'
p127
F0.0089020771513400009
sS'spaceporn'
p128
F0.039339801230500002
sS'nonononoyes'
p129
F0.012547137470000001
sS'Whatcouldgowrong'
p130
F0.0101175296596
sS'wallpapers'
p131
F0.0086035737921899991
sS'talesfromtechsupport'
p132
F0.00740049184807
sS'raspberry_pi'
p133
F0.0075312815038800001
sS'notinteresting'
p134
F0.0070673979460400002
sS'AnimalsBeingJerks'
p135
F0.0098025030745899997
sS'askscience'
p136
F0.0113533657715
sS'Futurology'
p137
F0.0092293678753699992
sS'netsec'
p138
F0.0072371221796500001
sS'Physics'
p139
F0.0145877117073
sS'MachinePorn'
p140
F0.0114453021027
sS'HumanPorn'
p141
F0.0095201337964699994
sS'urbanexploration'
p142
F0.0075145894955599996
sS'cableporn'
p143
F0.0090226764611899997
s.