(dp1
S'audiophile'
p2
F0.047544927126099999
sS'livesound'
p3
F0.046147148454499999
sS'Luthier'
p4
F0.0074706510138699998
sS'hardware'
p5
F0.011219270747399999
sS'torrents'
p6
F0.0070882088208799997
sS'techsupportmacgyver'
p7
F0.0094521800995999994
sS'audioengineering'
p8
F0.039480717831200003
sS'CableManagement'
p9
F0.0094886663152299999
sS'shittybattlestations'
p10
F0.0082887018617699999
sS'musictheory'
p11
F0.0079125847776899995
sS'electronics'
p12
F0.0097555966317499996
sS'cablefail'
p13
F0.0087298870249900001
sS'ableton'
p14
F0.00725163161711
sS'AskElectronics'
p15
F0.0103116943989
sS'synthesizers'
p16
F0.0113757015016
sS'edmproduction'
p17
F0.0077797395718399998
sS'CarAV'
p18
F0.017482003819599998
sS'htpc'
p19
F0.0086449915429399997
sS'vintageaudio'
p20
F0.041188217673499998
sS'DJs'
p21
F0.0105547689535
sS'videography'
p22
F0.0070330389270500003
sS'battlestations'
p23
F0.00754926707269
sS'headphones'
p24
F0.0209212534794
sS'WeAreTheMusicMakers'
p25
F0.0124589922223
sS'guitarpedals'
p26
F0.0075120957473899996
sS'hometheater'
p27
F0.027818756585899999
sS'cableporn'
p28
F0.0089494559137600002
sS'vinyl'
p29
F0.0117362316193
s.