(dp1
S'FancyFollicles'
p2
F0.0112722269263
sS'australia'
p3
F0.012428998961699999
sS'RandomActsOfPolish'
p4
F0.0078517587939699995
sS'sydney'
p5
F0.017393062999300001
sS'femalefashionadvice'
p6
F0.0094530057604300007
sS'MakeupAddiction'
p7
F0.0156725039523
sS'brisbane'
p8
F0.0183788232067
sS'SkincareAddiction'
p9
F0.012180381218000001
sS'TheGirlSurvivalGuide'
p10
F0.013133701076999999
sS'melbourne'
p11
F0.018924302788800001
sS'bigboobproblems'
p12
F0.0073813708260099999
sS'Indiemakeupandmore'
p13
F0.0276789244761
sS'perth'
p14
F0.0131115459883
sS'curlyhair'
p15
F0.0075663777686100003
sS'RedditLaqueristas'
p16
F0.012065903105300001
sS'MakeupAddicts'
p17
F0.027366387636800001
sS'makeupexchange'
p18
F0.023540793292500001
sS'AsianBeauty'
p19
F0.020423319717799999
sS'RandomActsofMakeup'
p20
F0.019981267561699999
sS'Adelaide'
p21
F0.011758691206499999
s.