(dp1
S'uglyduckling'
p2
F0.0101447847927
sS'KitchenConfidential'
p3
F0.0076179314386200002
sS'BuyItForLife'
p4
F0.0100606654358
sS'everymanshouldknow'
p5
F0.0150125694862
sS'aviation'
p6
F0.0095069208413399997
sS'UFOs'
p7
F0.0093402394497699992
sS'HistoryPorn'
p8
F0.0144231813541
sS'holdmybeer'
p9
F0.020426323666200001
sS'ImaginaryMonsters'
p10
F0.0128809869376
sS'YouShouldKnow'
p11
F0.0197020663143
sS'UpliftingNews'
p12
F0.0107609926887
sS'PandR'
p13
F0.010903639089500001
sS'Jokes'
p14
F0.0074788487228299996
sS'inthenews'
p15
F0.0086027604462100005
sS'Scrubs'
p16
F0.0073219436432199999
sS'3amjokes'
p17
F0.0093619619415900007
sS'Military'
p18
F0.0087422225722600007
sS'AlienBlue'
p19
F0.00701545778835
sS'photoshopbattles'
p20
F0.0102444139711
sS'IWantToLearn'
p21
F0.0129355112832
sS'Celebs'
p22
F0.0090634441087599996
sS'CrappyDesign'
p23
F0.016112679143900001
sS'NewsOfTheWeird'
p24
F0.013781007266300001
sS'Cyberpunk'
p25
F0.0125540114446
sS'Libertarian'
p26
F0.00862657704612
sS'pcgaming'
p27
F0.0074053243344600001
sS'EatCheapAndHealthy'
p28
F0.0086305628272299994
sS'gentlemanboners'
p29
F0.0124345723623
sS'DCcomics'
p30
F0.0070179286145099998
sS'fatpeoplestories'
p31
F0.0080541650622500006
sS'OneY'
p32
F0.0078309375670500003
sS'forwardsfromgrandma'
p33
F0.0128355347252
sS'no_sob_story'
p34
F0.0101953208843
sS'Glitch_in_the_Matrix'
p35
F0.0087845968712400007
sS'skeptic'
p36
F0.0117215419069
sS'socialskills'
p37
F0.0102987612339
sS'Anticonsumption'
p38
F0.0075912760573599997
sS'GuessTheMovie'
p39
F0.0081363070737999997
sS'vexillology'
p40
F0.0091314351452400008
sS'tattoos'
p41
F0.0080939893869599999
sS'ExposurePorn'
p42
F0.011194447554
sS'malelivingspace'
p43
F0.0081321473951700002
sS'answers'
p44
F0.017207746969500001
sS'TopGear'
p45
F0.011163262717199999
sS'ThriftStoreHauls'
p46
F0.0105772554442
sS'environment'
p47
F0.0087228658942599992
sS'WarshipPorn'
p48
F0.0086817682866000001
sS'creepy'
p49
F0.0073903399747600003
sS'whatsthisbug'
p50
F0.0092865779927400003
sS'QuotesPorn'
p51
F0.017466869433
sS'TrueReddit'
p52
F0.0128254028798
sS'confession'
p53
F0.0099590111438499999
sS'AntiJokes'
p54
F0.0088109812650699997
sS'KingOfTheHill'
p55
F0.0082209799408099991
sS'IdiotsFightingThings'
p56
F0.021425977484600001
sS'gamernews'
p57
F0.010299625468199999
sS'ContagiousLaughter'
p58
F0.0151142153776
sS'graphic_design'
p59
F0.00731317600787
sS'HIMYM'
p60
F0.0071763535597600004
sS'FiftyFifty'
p61
F0.0120335992838
sS'eldertrees'
p62
F0.0083934866543600006
sS'AskHistorians'
p63
F0.0076813960335100004
sS'OutOfTheLoop'
p64
F0.0133381156269
sS'ifyoulikeblank'
p65
F0.0079981453575999999
sS'firstimpression'
p66
F0.0072792792792799998
sS'WebGames'
p67
F0.0080812930068799999
sS'Pareidolia'
p68
F0.018988580750400001
sS'tipofmytongue'
p69
F0.0073260590319400003
sS'cordcutters'
p70
F0.0085019473734200008
sS'LifeProTips'
p71
F0.0086798329820200002
sS'Shitty_Car_Mods'
p72
F0.013922788683
sS'AskMen'
p73
F0.0073550180203599998
sS'ghettoglamourshots'
p74
F0.0126357169599
sS'EDC'
p75
F0.0094278424079899999
sS'showerbeer'
p76
F0.010762252068
sS'techsupportgore'
p77
F0.0137410343526
sS'science'
p78
F0.0071170324821400004
sS'firstworldproblems'
p79
F0.016221802822
sS'findareddit'
p80
F0.013610888711
sS'standupshots'
p81
F0.015988590301799999
sS'Meditation'
p82
F0.0073194628551699996
sS'history'
p83
F0.0074604370761099997
sS'TalesFromThePizzaGuy'
p84
F0.0079944039172599995
sS'AskScienceFiction'
p85
F0.0100437388628
sS'NewsOfTheStupid'
p86
F0.0145692325341
sS'Infographics'
p87
F0.014108674928500001
sS'DecidingToBeBetter'
p88
F0.00958257713249
sS'gadgets'
p89
F0.0087144531185500002
sS'polandball'
p90
F0.0075195037127499999
sS'TalesFromYourServer'
p91
F0.0079612322603000007
sS'CampingandHiking'
p92
F0.0085034013605399996
sS'Pizza'
p93
F0.010295582862799999
sS'HouseOfCards'
p94
F0.0073162234351399997
sS'hardbodies'
p95
F0.0077606148794899998
sS'techsupportmacgyver'
p96
F0.0126094289615
sS'MURICA'
p97
F0.0132048947987
sS'Gore'
p98
F0.00880744371049
sS'spaceporn'
p99
F0.016232825091300002
sS'wheredidthesodago'
p100
F0.017130051656000001
sS'BasicIncome'
p101
F0.0075383899488099997
sS'highdeas'
p102
F0.0092041755528099994
sS'wallpaper'
p103
F0.0152012160973
sS'budgetfood'
p104
F0.0085931072310100002
sS'Images'
p105
F0.019914783253100001
sS'dogpictures'
p106
F0.0110258199581
sS'MachinePorn'
p107
F0.014104624174299999
sS'FanTheories'
p108
F0.011660143509500001
sS'tall'
p109
F0.0097926555083699997
sS'ImGoingToHellForThis'
p110
F0.0105737441935
sS'cableporn'
p111
F0.0075987841945299997
sS'DoesAnybodyElse'
p112
F0.012025668232999999
sS'pettyrevenge'
p113
F0.012607278291500001
sS'CityPorn'
p114
F0.0120594778129
sS'DeepIntoYouTube'
p115
F0.0130048287972
sS'dataisbeautiful'
p116
F0.0097638477648600008
sS'LucidDreaming'
p117
F0.0073742129445799999
sS'nostalgia'
p118
F0.0168756883504
sS'Documentaries'
p119
F0.0073433589144200001
sS'StonerEngineering'
p120
F0.0085141444658099995
sS'scifi'
p121
F0.011753021023
sS'MensRights'
p122
F0.0081985099286099993
sS'MilitaryPorn'
p123
F0.012112169219300001
sS'Frisson'
p124
F0.0152803529186
sS'childfree'
p125
F0.0082666403188099997
sS'NoStupidQuestions'
p126
F0.0146747258225
sS'creepyPMs'
p127
F0.0078009282117099997
sS'WatchItForThePlot'
p128
F0.0123683005039
sS'freebies'
p129
F0.011806236517
sS'PropagandaPosters'
p130
F0.010374586852700001
sS'shittyadviceanimals'
p131
F0.0093541202672599993
sS'SubredditDrama'
p132
F0.0097644589103099994
sS'minimalism'
p133
F0.0120126361294
sS'wallpapers'
p134
F0.015213593774799999
sS'mildlyinteresting'
p135
F0.0075751248297799998
sS'TrueAtheism'
p136
F0.0093068963523899994
sS'DoctorWhumour'
p137
F0.0073903561909399998
sS'dubstep'
p138
F0.0078322385042999994
sS'popping'
p139
F0.0094402934991699994
sS'DunderMifflin'
p140
F0.0087249533666299995
sS'psychology'
p141
F0.0109266943292
sS'space'
p142
F0.0099187191685800001
sS'shittyfoodporn'
p143
F0.0132757620674
sS'LearnUselessTalents'
p144
F0.021796489618000001
sS'RoomPorn'
p145
F0.0148244724516
sS'askscience'
p146
F0.0073410568654299997
sS'memes'
p147
F0.012099588924199999
sS'Astronomy'
p148
F0.0110520594275
sS'bestof'
p149
F0.0092122369383299992
sS'cars'
p150
F0.0072121022594000004
sS'corgi'
p151
F0.0075295236585599997
sS'Roadcam'
p152
F0.0121734719757
sS'GamePhysics'
p153
F0.016831072749699999
sS'youtubehaiku'
p154
F0.012063702232499999
sS'PoliticalHumor'
p155
F0.013480982185799999
sS'lego'
p156
F0.010447466982099999
sS'howtonotgiveafuck'
p157
F0.0099731062303899994
sS'whatstheword'
p158
F0.0091278896715900008
sS'misc'
p159
F0.020195368236199999
sS'patientgamers'
p160
F0.0099084221588400002
sS'comicbookmovies'
p161
F0.0073082977288100003
sS'seinfeld'
p162
F0.0085556577736900005
sS'OldSchoolCool'
p163
F0.00863049660906
sS'privacy'
p164
F0.0079173264438700004
sS'ANormalDayInRussia'
p165
F0.0196694988961
sS'onetruegod'
p166
F0.0103541286
sS'TheFacebookDelusion'
p167
F0.0091842247433799994
sS'Autos'
p168
F0.010920222973599999
sS'PenmanshipPorn'
p169
F0.0129601394032
sS'shittyreactiongifs'
p170
F0.015375207477899999
sS'alternativeart'
p171
F0.014594652178500001
sS'shittyadvice'
p172
F0.010612916495300001
sS'MeanJokes'
p173
F0.0091779334846499999
sS'dogs'
p174
F0.0072312008535199996
sS'ObscureMedia'
p175
F0.0088444082392600005
sS'CombatFootage'
p176
F0.0095185795350500001
sS'TrollYChromosome'
p177
F0.012467976088800001
sS'mildlyinfuriating'
p178
F0.016363273881599999
sS'Psychonaut'
p179
F0.00847870577916
sS'skyrim'
p180
F0.0070086222352599998
sS'thatHappened'
p181
F0.0122695565521
sS'Justrolledintotheshop'
p182
F0.0114464958864
sS'nononono'
p183
F0.023189936623799999
sS'knives'
p184
F0.00970586056161
sS'torrents'
p185
F0.0070154165944899998
sS'FoodPorn'
p186
F0.0109152954375
sS'explainlikeIAmA'
p187
F0.012375280377400001
sS'AnythingGoesNews'
p188
F0.010572903860299999
sS'HighQualityGifs'
p189
F0.018959435626099998
sS'self'
p190
F0.012018186557
sS'DaftPunk'
p191
F0.0072092417267399997
sS'slowcooking'
p192
F0.0086878685762399998
sS'conspiratard'
p193
F0.0106830510351
sS'firefly'
p194
F0.0108966784823
sS'Futurology'
p195
F0.00881517603558
sS'progresspics'
p196
F0.0071139266798200002
sS'Gaming4Gamers'
p197
F0.0075580077091699999
sS'TumblrInAction'
p198
F0.0081168205694600003
sS'HailCorporate'
p199
F0.010934477247900001
sS'IDAP'
p200
F0.0076434619002799997
sS'Heavymind'
p201
F0.012892376681599999
sS'Awwducational'
p202
F0.0171481951024
sS'adventuretime'
p203
F0.0081176715465199993
sS'fffffffuuuuuuuuuuuu'
p204
F0.0105818736902
sS'Foodforthought'
p205
F0.0121445319545
sS'TheoryOfReddit'
p206
F0.0085575832560100002
sS'harrypotter'
p207
F0.0077125278026499997
sS'wicked_edge'
p208
F0.0070816441730399996
sS'shittybattlestations'
p209
F0.0098282442748099993
sS'whowouldwin'
p210
F0.0090701701344000005
sS'GrandTheftAutoV'
p211
F0.0076728143038200004
sS'MetalMemes'
p212
F0.0074383533727299996
sS'arresteddevelopment'
p213
F0.0096547688706799997
sS'shutupandtakemymoney'
p214
F0.020796565704699999
sS'JusticePorn'
p215
F0.012963584494000001
sS'geek'
p216
F0.017565914650699999
sS'beards'
p217
F0.0092448423511100001
sS'PrettyGirlsUglyFaces'
p218
F0.011024182076800001
sS'AbandonedPorn'
p219
F0.014850783299099999
sS'progressive'
p220
F0.0084162988812499992
sS'dadjokes'
p221
F0.012443929966700001
sS'Marijuana'
p222
F0.0080310163389599992
sS'guns'
p223
F0.0071672834590299998
sS'worldpolitics'
p224
F0.0100487210719
sS'futurama'
p225
F0.015314632297200001
sS'whitepeoplegifs'
p226
F0.021891780256099998
sS'cringe'
p227
F0.0094935612403999996
sS'spotted'
p228
F0.00763264803644
sS'StarWars'
p229
F0.010111868236
sS'TheSimpsons'
p230
F0.0114362440967
sS'see'
p231
F0.012416785099899999
sS'StandUpComedy'
p232
F0.0108828067896
sS'changemyview'
p233
F0.0091171014721599993
sS'skateboarding'
p234
F0.0074020880517000004
sS'KarmaCourt'
p235
F0.0076789695318300001
sS'firstworldanarchists'
p236
F0.017587672688599999
sS'PerfectTiming'
p237
F0.025976497454700001
sS'cosplay'
p238
F0.0076499914045000004
sS'truegaming'
p239
F0.0086943441636600002
sS'lotr'
p240
F0.0093886462882099998
sS'wikipedia'
p241
F0.0155014483677
sS'breakingbad'
p242
F0.0104838945186
sS'outside'
p243
F0.014530919351
sS'foodhacks'
p244
F0.0151886717823
sS'glitch_art'
p245
F0.0098376783079199993
sS'tonightsdinner'
p246
F0.0077350737249200002
sS'casualiama'
p247
F0.0085315362142200004
sS'facepalm'
p248
F0.0140443023521
sS'NotTimAndEric'
p249
F0.0102739726027
sS'Unexpected'
p250
F0.0185651508419
sS'RedditDayOf'
p251
F0.0144613871126
sS'BustyPetite'
p252
F0.0072659682325100002
sS'watchpeopledie'
p253
F0.0106447164282
sS'Sherlock'
p254
F0.0071196673691400003
sS'GunPorn'
p255
F0.0092403376277200005
sS'GetMotivated'
p256
F0.0090234182361000007
sS'drunk'
p257
F0.0127865061552
sS'reactiongifs'
p258
F0.011747888977199999
sS'community'
p259
F0.0084742989889699995
sS'startrek'
p260
F0.0096503851688799994
sS'gopro'
p261
F0.0076492897088100004
sS'Portal'
p262
F0.0084256694367499992
sS'fatlogic'
p263
F0.0101363548002
sS'androidapps'
p264
F0.0075532381462900004
sS'somethingimade'
p265
F0.016106622755100001
sS'MapPorn'
p266
F0.011454097703499999
sS'shittyaskreddit'
p267
F0.0079047217537899991
sS'Perfectfit'
p268
F0.017555648887000001
sS'offbeat'
p269
F0.018636377478
sS'softwaregore'
p270
F0.0107048043162
sS'conspiracy'
p271
F0.0094699365658800008
sS'Cooking'
p272
F0.0086960746210600001
sS'IASIP'
p273
F0.0116531819829
sS'DIY'
p274
F0.0074182063411800002
sS'southpark'
p275
F0.0110706429627
sS'tattoo'
p276
F0.0071184510250599997
sS'deadpool'
p277
F0.0080971659918999996
sS'daddit'
p278
F0.0084365584198200002
sS'itookapicture'
p279
F0.0130644142722
sS'Whatcouldgowrong'
p280
F0.0206937161764
sS'fifthworldproblems'
p281
F0.0083030617540199997
sS'talesfromtechsupport'
p282
F0.0080505382229499999
sS'notinteresting'
p283
F0.0135791934108
sS'AnimalsBeingJerks'
p284
F0.020051959457000001
sS'Physics'
p285
F0.0080650126208199995
sS'HumanPorn'
p286
F0.019937451133700001
sS'Graffiti'
p287
F0.0089285714285700004
sS'drawing'
p288
F0.0076979472140800004
sS'EmmaWatson'
p289
F0.0089245872378400006
sS'GifSound'
p290
F0.0080143705955499998
sS'awwwtf'
p291
F0.021305165159800001
sS'Piracy'
p292
F0.0076242469879499999
sS'PublicFreakout'
p293
F0.012411179535799999
sS'ArtisanVideos'
p294
F0.012344953265499999
sS'quotes'
p295
F0.012633868808600001
sS'woodworking'
p296
F0.0098920863309400007
sS'perfectloops'
p297
F0.021405010878000001
sS'InternetIsBeautiful'
p298
F0.010548166372
sS'carporn'
p299
F0.0125922001712
sS'TalesFromRetail'
p300
F0.0075374416891700003
sS'WouldYouRather'
p301
F0.011104396434499999
sS'quityourbullshit'
p302
F0.0158184587744
sS'ProtectAndServe'
p303
F0.0088220607002199997
sS'woahdude'
p304
F0.0146654205281
sS'AmIFreeToGo'
p305
F0.0082716586852399996
sS'britishproblems'
p306
F0.00747499915822
sS'howto'
p307
F0.016971101417699998
sS'cringepics'
p308
F0.0084425133689799998
sS'toosoon'
p309
F0.017270716351900001
sS'nonononoyes'
p310
F0.021435744710299999
sS'thewalkingdead'
p311
F0.0070849126784499998
sS'ConfusedBoners'
p312
F0.010303638187300001
sS'4chan'
p313
F0.0098234464857099996
sS'Enhancement'
p314
F0.0088905016783100005
sS'zombies'
p315
F0.0091463414634100001
sS'ArcherFX'
p316
F0.0126292178662
sS'getdisciplined'
p317
F0.0077809798270900002
sS'google'
p318
F0.0091850517784800006
sS'whatisthisthing'
p319
F0.0156992023606
sS'NetflixBestOf'
p320
F0.011396171335499999
sS'tumblr'
p321
F0.0131232424229
sS'interestingasfuck'
p322
F0.017747266717500002
sS'MarkMyWords'
p323
F0.011047463175099999
sS'humor'
p324
F0.019328089750599999
sS'AMA'
p325
F0.0092724256428499997
sS'ExpectationVsReality'
p326
F0.018786332057300001
sS'lifehacks'
p327
F0.017087477684299999
sS'SCP'
p328
F0.0074325062848399999
sS'blackpeoplegifs'
p329
F0.016702752861100002
sS'ProgrammerHumor'
p330
F0.0090886392010000004
sS'FloridaMan'
p331
F0.014507165838
sS'delusionalartists'
p332
F0.0147969717825
sS'Frugal'
p333
F0.0087326176237499994
sS'shittyaskscience'
p334
F0.011457101563499999
sS'lewronggeneration'
p335
F0.0088120802498199997
sS'calvinandhobbes'
p336
F0.0133849650644
sS'netflix'
p337
F0.0088432244543299992
sS'sixwordstories'
p338
F0.0108315468803
sS'AnimalsBeingBros'
p339
F0.0199594474718
sS'classic4chan'
p340
F0.0151097754404
sS'battlestations'
p341
F0.0075041992975700004
sS'NSFWFunny'
p342
F0.0114764772912
sS'marijuanaenthusiasts'
p343
F0.0087035153159299994
sS'TrollXChromosomes'
p344
F0.0083147162078200006
sS'Damnthatsinteresting'
p345
F0.023173286587700001
sS'CrazyIdeas'
p346
F0.0216364943876
sS'TinyHouses'
p347
F0.0094007050528799995
sS'Bad_Cop_No_Donut'
p348
F0.0123841728514
sS'MorbidReality'
p349
F0.011684494555300001
sS'gif'
p350
F0.021636764618200001
sS'cats'
p351
F0.0086124401913900001
sS'introvert'
p352
F0.0077396935713199997
sS'happy'
p353
F0.017889874624200001
sS'spicy'
p354
F0.0071799403512600004
sS'misleadingthumbnails'
p355
F0.018207954001000001
sS'batman'
p356
F0.010581815500300001
sS'occupywallstreet'
p357
F0.0078144381046899997
sS'trailerparkboys'
p358
F0.0081905050811500006
sS'blunderyears'
p359
F0.013003546421800001
sS'Marvel'
p360
F0.0080442081701200003
sS'webcomics'
p361
F0.0106843777072
sS'rage'
p362
F0.0147867788801
sS'comics'
p363
F0.0134212567882
sS'nsfw'
p364
F0.0072049162958299998
sS'behindthegifs'
p365
F0.0160682404285
sS'lookatmydog'
p366
F0.0074512123004100003
sS'fullmoviesonyoutube'
p367
F0.015948192538199998
sS'Design'
p368
F0.0112649612767
sS'TrueAskReddit'
p369
F0.0111472021261
sS'engineering'
p370
F0.00754698841513
sS'bestofworldstar'
p371
F0.0102689486553
sS'DAE'
p372
F0.0104430379747
sS'ForeverAlone'
p373
F0.0071275387914699999
sS'eatsandwiches'
p374
F0.0110024449878
sS'Survival'
p375
F0.0111371080955
sS'shittyama'
p376
F0.00755851755527
sS'ImaginaryLandscapes'
p377
F0.011184796595100001
sS'TheWayWeWere'
p378
F0.016200442745000002
sS'badtattoos'
p379
F0.010116148370199999
sS'Cinemagraphs'
p380
F0.016569792660700002
sS'nottheonion'
p381
F0.0089796607308599997
sS'Frugal_Jerk'
p382
F0.0109399419513
sS'comicbooks'
p383
F0.0076686258046500004
sS'oddlysatisfying'
p384
F0.017259920421599999
sS'cosplaygirls'
p385
F0.0111067809821
sS'entertainment'
p386
F0.011054086063999999
sS'terriblefacebookmemes'
p387
F0.0103110954437
sS'PrettyGirls'
p388
F0.013205282112800001
sS'urbanexploration'
p389
F0.0116765984861
s.