(dp1
S'MapPorn'
p2
F0.0116039678083
sS'Shitty_Car_Mods'
p3
F0.014675122016
sS'uglyduckling'
p4
F0.013062539142900001
sS'KitchenConfidential'
p5
F0.0090537780803299998
sS'BuyItForLife'
p6
F0.0106236403191
sS'spiders'
p7
F0.0166826309068
sS'AskMen'
p8
F0.0088215563506300002
sS'Showerthoughts'
p9
F0.00763462075709
sS'HistoryPorn'
p10
F0.0142902643593
sS'reptiles'
p11
F0.0096194955108999999
sS'holdmybeer'
p12
F0.026106298290799999
sS'ImaginaryMonsters'
p13
F0.017128128377799999
sS'YouShouldKnow'
p14
F0.017281583583800001
sS'horror'
p15
F0.011349856914200001
sS'UpliftingNews'
p16
F0.010777212461499999
sS'PandR'
p17
F0.0081151334559100008
sS'Jokes'
p18
F0.0085197658567900004
sS'inthenews'
p19
F0.0085940185630799994
sS'3amjokes'
p20
F0.013562136728500001
sS'Military'
p21
F0.0082372945399599995
sS'magicskyfairy'
p22
F0.0075569724879000003
sS'photoshopbattles'
p23
F0.014536934730200001
sS'IWantToLearn'
p24
F0.010135892721
sS'Celebs'
p25
F0.0096007265414699994
sS'CrappyDesign'
p26
F0.021064746661
sS'NewsOfTheWeird'
p27
F0.016198823921
sS'Cyberpunk'
p28
F0.012151536811999999
sS'Libertarian'
p29
F0.0084824983554299994
sS'everymanshouldknow'
p30
F0.0138779963856
sS'Whatisthis'
p31
F0.010046728971999999
sS'Paleo'
p32
F0.0071178462774799996
sS'BackYardChickens'
p33
F0.0077048797571799997
sS'EatCheapAndHealthy'
p34
F0.0131138502737
sS'tea'
p35
F0.0071942446043200001
sS'blackpeoplegifs'
p36
F0.0192156019216
sS'redditgetsdrawn'
p37
F0.0103651578547
sS'POLITIC'
p38
F0.0080169553999299998
sS'fatpeoplestories'
p39
F0.0132892438233
sS'forwardsfromgrandma'
p40
F0.020010157440299998
sS'no_sob_story'
p41
F0.0118760258762
sS'findareddit'
p42
F0.0155107017069
sS'skeptic'
p43
F0.014143435354000001
sS'InteriorDesign'
p44
F0.0070624431857900004
sS'socialskills'
p45
F0.0083475533828299992
sS'guns'
p46
F0.00795992589035
sS'disney'
p47
F0.0086872035205999999
sS'tattoos'
p48
F0.011208626385900001
sS'LetsNotMeet'
p49
F0.0116031010979
sS'legaladvice'
p50
F0.0071673808986800003
sS'answers'
p51
F0.014175674801
sS'lgbt'
p52
F0.0094307186011099997
sS'Random_Acts_Of_Pizza'
p53
F0.0076477404403200002
sS'gentlemanboners'
p54
F0.0124579994831
sS'doctorwho'
p55
F0.010232983097300001
sS'TopGear'
p56
F0.0079896699217200003
sS'ThriftStoreHauls'
p57
F0.0140289630204
sS'Breadit'
p58
F0.0076034648700700003
sS'WarshipPorn'
p59
F0.0078463203463200008
sS'piercing'
p60
F0.0099181360201500007
sS'creepy'
p61
F0.0129140932061
sS'Hair'
p62
F0.0081792621623900004
sS'whatsthisbug'
p63
F0.020850786558699999
sS'QuotesPorn'
p64
F0.0157650182542
sS'TrueReddit'
p65
F0.011355192272000001
sS'AmIFreeToGo'
p66
F0.0101691600665
sS'AntiJokes'
p67
F0.0122891770489
sS'KingOfTheHill'
p68
F0.0081516401492799997
sS'IdiotsFightingThings'
p69
F0.031266164722099997
sS'Health'
p70
F0.0072802045126199996
sS'gamernews'
p71
F0.0075731497418199999
sS'ContagiousLaughter'
p72
F0.0161630358398
sS'environment'
p73
F0.0082069137030600006
sS'FiftyFifty'
p74
F0.019749070632000001
sS'eldertrees'
p75
F0.0092585448653700001
sS'AskHistorians'
p76
F0.0082289523710299996
sS'Drugs'
p77
F0.0077571090950700004
sS'OutOfTheLoop'
p78
F0.0181086076395
sS'ifyoulikeblank'
p79
F0.0079724785671399997
sS'firstimpression'
p80
F0.0087172265808399992
sS'WebGames'
p81
F0.0079657766632200006
sS'Pareidolia'
p82
F0.032299981436799997
sS'tipofmytongue'
p83
F0.00912586730571
sS'cordcutters'
p84
F0.0084565640121199992
sS'parrots'
p85
F0.0097077134114200003
sS'LifeProTips'
p86
F0.0091696620896199992
sS'TheGirlSurvivalGuide'
p87
F0.0094181795650300007
sS'UFOs'
p88
F0.0077796794772100001
sS'ghettoglamourshots'
p89
F0.024390243902400001
sS'EDC'
p90
F0.0078037904124900002
sS'showerbeer'
p91
F0.012049173654600001
sS'techsupportgore'
p92
F0.017788794517600001
sS'science'
p93
F0.0089468969349200001
sS'firstworldproblems'
p94
F0.017923920051600001
sS'Glitch_in_the_Matrix'
p95
F0.013699408822200001
sS'standupshots'
p96
F0.016767246052100001
sS'AskScienceFiction'
p97
F0.0130655326126
sS'NewsOfTheStupid'
p98
F0.0188116776316
sS'awesome'
p99
F0.021305165159800001
sS'oddlysatisfying'
p100
F0.021318685200599999
sS'Infographics'
p101
F0.0080089562521499999
sS'TalesFromYourServer'
p102
F0.0127017043614
sS'SRSsucks'
p103
F0.0099822099229100007
sS'hardbodies'
p104
F0.0092810638592600008
sS'techsupportmacgyver'
p105
F0.015219005196700001
sS'MURICA'
p106
F0.013731625509300001
sS'technology'
p107
F0.0071499187910499997
sS'needadvice'
p108
F0.0079764665950099994
sS'RealGirls'
p109
F0.0081814885323199995
sS'Hotchickswithtattoos'
p110
F0.0075130845855099996
sS'scifi'
p111
F0.010576431492799999
sS'RedditLaqueristas'
p112
F0.0120527845267
sS'spaceporn'
p113
F0.0155644148326
sS'nyc'
p114
F0.00732960556143
sS'Pizza'
p115
F0.0106911034746
sS'Dreams'
p116
F0.0075699501724799997
sS'wheredidthesodago'
p117
F0.023448985592499999
sS'polandball'
p118
F0.0095411728957799993
sS'asmr'
p119
F0.00760233918129
sS'askscience'
p120
F0.0082893469701199995
sS'wallpaper'
p121
F0.0100594757324
sS'budgetfood'
p122
F0.011198395453799999
sS'Images'
p123
F0.017866172256900001
sS'dogpictures'
p124
F0.0172650578772
sS'MachinePorn'
p125
F0.0111472742067
sS'eFreebies'
p126
F0.00707569127642
sS'FanTheories'
p127
F0.013311929838300001
sS'crafts'
p128
F0.0115751983163
sS'tall'
p129
F0.0109754359291
sS'ImGoingToHellForThis'
p130
F0.0161731774073
sS'cableporn'
p131
F0.0084877112701999997
sS'DoesAnybodyElse'
p132
F0.0143301104972
sS'pettyrevenge'
p133
F0.0201055460226
sS'CityPorn'
p134
F0.0084610735673900008
sS'DeepIntoYouTube'
p135
F0.021071895424800001
sS'dataisbeautiful'
p136
F0.0093285173914299992
sS'MLPLounge'
p137
F0.0074042186827399997
sS'linguistics'
p138
F0.0077095058206799998
sS'beards'
p139
F0.011027679160500001
sS'nostalgia'
p140
F0.018665294218600002
sS'startrek'
p141
F0.0104610144751
sS'pugs'
p142
F0.0076806467913100003
sS'StonerEngineering'
p143
F0.0096123037488000003
sS'WTF'
p144
F0.0080514974311599995
sS'texas'
p145
F0.0077770576798399998
sS'Gore'
p146
F0.022293633259700001
sS'MensRights'
p147
F0.011382556837100001
sS'MilitaryPorn'
p148
F0.0103420843278
sS'Frisson'
p149
F0.013091822094700001
sS'childfree'
p150
F0.013759559694100001
sS'food'
p151
F0.0081108886886199997
sS'whitepeoplegifs'
p152
F0.022680569297500001
sS'NoStupidQuestions'
p153
F0.016409295578900002
sS'Braveryjerk'
p154
F0.0084634760705299995
sS'creepyPMs'
p155
F0.019006882356699999
sS'WatchItForThePlot'
p156
F0.0136253041363
sS'freebies'
p157
F0.0139276817393
sS'PropagandaPosters'
p158
F0.0139425499748
sS'shittyadviceanimals'
p159
F0.010276172125900001
sS'SubredditDrama'
p160
F0.013623100534299999
sS'minimalism'
p161
F0.010537198298100001
sS'wallpapers'
p162
F0.0118551648082
sS'mildlyinteresting'
p163
F0.0097594222654000008
sS'TrueAtheism'
p164
F0.010692269925300001
sS'snakes'
p165
F0.0101433091383
sS'DoctorWhumour'
p166
F0.0082751209027399995
sS'ADHD'
p167
F0.0072052172083699999
sS'mycology'
p168
F0.0098348487659999997
sS'Cinemagraphs'
p169
F0.015004763417
sS'canada'
p170
F0.0070079533077099998
sS'DunderMifflin'
p171
F0.0075719048426299996
sS'psychology'
p172
F0.0104361270373
sS'space'
p173
F0.0085545113429000008
sS'shittyfoodporn'
p174
F0.021554026455499999
sS'LearnUselessTalents'
p175
F0.019272295400599999
sS'RoomPorn'
p176
F0.013772207684899999
sS'randomsexiness'
p177
F0.0080402983628799999
sS'memes'
p178
F0.0137891410514
sS'Astronomy'
p179
F0.0095810420091800002
sS'CatsStandingUp'
p180
F0.010401444167499999
sS'bestof'
p181
F0.0110741971207
sS'LadyBoners'
p182
F0.0140941904435
sS'corgi'
p183
F0.0101165603695
sS'Roadcam'
p184
F0.017002027764800001
sS'GamePhysics'
p185
F0.0190934942836
sS'youtubehaiku'
p186
F0.0120379549639
sS'PoliticalHumor'
p187
F0.0106364428945
sS'recipes'
p188
F0.010243150514599999
sS'TalesFromThePizzaGuy'
p189
F0.011608924360599999
sS'howtonotgiveafuck'
p190
F0.010318552227699999
sS'whatstheword'
p191
F0.0107933081489
sS'misc'
p192
F0.016480282519100001
sS'patientgamers'
p193
F0.0099819374465300002
sS'rant'
p194
F0.0087946943483300007
sS'conspiratard'
p195
F0.0162486196561
sS'OldSchoolCool'
p196
F0.010322454859600001
sS'lego'
p197
F0.0091094647717000002
sS'ANormalDayInRussia'
p198
F0.027146186307200001
sS'onetruegod'
p199
F0.0149695805315
sS'TheFacebookDelusion'
p200
F0.0124525732075
sS'Autos'
p201
F0.0076906365413900004
sS'PenmanshipPorn'
p202
F0.017221762515499998
sS'shittyreactiongifs'
p203
F0.018867924528299999
sS'alternativeart'
p204
F0.0153388936823
sS'shittyadvice'
p205
F0.0128973522494
sS'MeanJokes'
p206
F0.011464397671299999
sS'dogs'
p207
F0.0125824531971
sS'ObscureMedia'
p208
F0.0103777501038
sS'CombatFootage'
p209
F0.011021814006899999
sS'TrollYChromosome'
p210
F0.0164455947374
sS'DaystromInstitute'
p211
F0.0071515949938799998
sS'GODZILLA'
p212
F0.00712468193384
sS'mildlyinfuriating'
p213
F0.021246587807099999
sS'DumpsterDiving'
p214
F0.0092376182526400005
sS'short'
p215
F0.0070306397014100004
sS'Awwducational'
p216
F0.035684805384500001
sS'skyrim'
p217
F0.0087149116471700004
sS'highdeas'
p218
F0.0073109664496700004
sS'worldpolitics'
p219
F0.0094351386175699995
sS'Justrolledintotheshop'
p220
F0.014754802017400001
sS'nononono'
p221
F0.030389538631499999
sS'knives'
p222
F0.0085100542172800008
sS'gallifrey'
p223
F0.0073931773198300001
sS'FoodPorn'
p224
F0.0141650838692
sS'crappymusic'
p225
F0.0104727707959
sS'Aquariums'
p226
F0.0109175002689
sS'conspiracy'
p227
F0.011083481349900001
sS'AnythingGoesNews'
p228
F0.0118762257572
sS'collapse'
p229
F0.00805500982318
sS'HighQualityGifs'
p230
F0.0173036310375
sS'self'
p231
F0.01322341952
sS'Parenting'
p232
F0.0079541937480700001
sS'britishproblems'
p233
F0.0088224761532700001
sS'UnresolvedMysteries'
p234
F0.010700389105099999
sS'nonononoyes'
p235
F0.0268100117588
sS'FutureWhatIf'
p236
F0.0075658226571199997
sS'firefly'
p237
F0.00981173729073
sS'aww'
p238
F0.0080087343197400001
sS'Futurology'
p239
F0.00870426627922
sS'sewing'
p240
F0.0079371442315400009
sS'mylittlepony'
p241
F0.0083371460525599999
sS'progresspics'
p242
F0.0092934920232999995
sS'crochet'
p243
F0.0075811251239899999
sS'TumblrInAction'
p244
F0.0127159095248
sS'secretsanta'
p245
F0.0084250805585400004
sS'Fishing'
p246
F0.0075180226570500004
sS'HailCorporate'
p247
F0.013947001394700001
sS'IDAP'
p248
F0.0094280326838500003
sS'Heavymind'
p249
F0.016527088119799999
sS'Psychonaut'
p250
F0.0079662822472300002
sS'adventuretime'
p251
F0.011278574066
sS'fffffffuuuuuuuuuuuu'
p252
F0.015153815017199999
sS'PoliticalDiscussion'
p253
F0.0070625459065499999
sS'Foodforthought'
p254
F0.0105560259667
sS'tattoo'
p255
F0.010032866286099999
sS'TheoryOfReddit'
p256
F0.0093031909945099998
sS'TheBluePill'
p257
F0.0108595358081
sS'harrypotter'
p258
F0.010171110674
sS'wicked_edge'
p259
F0.0071060060352399999
sS'shittybattlestations'
p260
F0.0111969447097
sS'whowouldwin'
p261
F0.0098364161231700008
sS'ProgrammerHumor'
p262
F0.0093466812164900003
sS'MetalMemes'
p263
F0.0080058893898999998
sS'arresteddevelopment'
p264
F0.0090242909485699994
sS'shutupandtakemymoney'
p265
F0.017065773391900001
sS'webcomics'
p266
F0.013848715926
sS'JusticePorn'
p267
F0.0156839443393
sS'geek'
p268
F0.0139261196469
sS'spicy'
p269
F0.0086155674391000005
sS'Conservative'
p270
F0.0070748444066200001
sS'PrettyGirlsUglyFaces'
p271
F0.016424252328800001
sS'homestead'
p272
F0.0085917071348499997
sS'AbandonedPorn'
p273
F0.019287528313499998
sS'Rabbits'
p274
F0.0090963700334700005
sS'dadjokes'
p275
F0.0164066326174
sS'vexillology'
p276
F0.0084808013355599995
sS'thatHappened'
p277
F0.016960914378999999
sS'futurama'
p278
F0.015700019204899999
sS'nsfw'
p279
F0.0085922420770800003
sS'cringe'
p280
F0.013122938805400001
sS'StarWars'
p281
F0.0093057316877099994
sS'RATS'
p282
F0.011044074036200001
sS'AskWomen'
p283
F0.0099550666253499995
sS'TheSimpsons'
p284
F0.010853260389999999
sS'sex'
p285
F0.0079720516490500003
sS'see'
p286
F0.011428967236999999
sS'glitch_art'
p287
F0.0133237950461
sS'changemyview'
p288
F0.010452354683200001
sS'KarmaCourt'
p289
F0.00810603571037
sS'firstworldanarchists'
p290
F0.022837100545599998
sS'PerfectTiming'
p291
F0.030085112193300002
sS'cosplay'
p292
F0.010720323259000001
sS'truegaming'
p293
F0.0078951201747999994
sS'lotr'
p294
F0.0080919492835800008
sS'AmericanHorrorStory'
p295
F0.0090937019969299995
sS'wikipedia'
p296
F0.0124044425213
sS'breakingbad'
p297
F0.010796871457700001
sS'outside'
p298
F0.019451573686299999
sS'AskCulinary'
p299
F0.0090909090909099995
sS'foodhacks'
p300
F0.016825164593999999
sS'europe'
p301
F0.0070233071847299999
sS'StandUpComedy'
p302
F0.00730471079308
sS'LucidDreaming'
p303
F0.00770795418049
sS'tonightsdinner'
p304
F0.0087954521076899998
sS'casualiama'
p305
F0.0130930294196
sS'facepalm'
p306
F0.0196729770697
sS'celebnsfw'
p307
F0.0083237463625899996
sS'NotTimAndEric'
p308
F0.0129570585442
sS'Unexpected'
p309
F0.024908830424600001
sS'RedditDayOf'
p310
F0.013358268768399999
sS'lookatmydog'
p311
F0.014393057466399999
sS'watchpeopledie'
p312
F0.019713857927099999
sS'GunPorn'
p313
F0.0087676570871899999
sS'GetMotivated'
p314
F0.0080225840336099995
sS'drunk'
p315
F0.014302623791699999
sS'reactiongifs'
p316
F0.013577719769400001
sS'community'
p317
F0.0073603740207199998
sS'EarthPorn'
p318
F0.0083816073539299991
sS'ainbow'
p319
F0.011077844311399999
sS'ketorecipes'
p320
F0.0076010746346900004
sS'confessions'
p321
F0.0104965011663
sS'fatlogic'
p322
F0.0144962878665
sS'MakeupAddiction'
p323
F0.0087428611718299992
sS'somethingimade'
p324
F0.017054339327600001
sS'keto'
p325
F0.0075707366811099998
sS'curlyhair'
p326
F0.0073603211776500001
sS'shittyaskreddit'
p327
F0.0092091521883599994
sS'Perfectfit'
p328
F0.0201222815572
sS'offbeat'
p329
F0.019342645365100001
sS'softwaregore'
p330
F0.013227304936599999
sS'OnOff'
p331
F0.0084093500570100004
sS'ICanDrawThat'
p332
F0.0093278057447400003
sS'Cooking'
p333
F0.011157799776800001
sS'IASIP'
p334
F0.0100884153253
sS'bigboobproblems'
p335
F0.0095624456679199998
sS'DIY'
p336
F0.0074987240391000002
sS'ShitRedditSays'
p337
F0.00721604849185
sS'shorthairedhotties'
p338
F0.011842327863300001
sS'southpark'
p339
F0.012066207664
sS'cripplingalcoholism'
p340
F0.0072866065232499999
sS'astrophotography'
p341
F0.0073024810839299997
sS'deadpool'
p342
F0.0091549295774600008
sS'pitbulls'
p343
F0.012346675274400001
sS'daddit'
p344
F0.0092615769712100001
sS'itookapicture'
p345
F0.0139573693393
sS'Whatcouldgowrong'
p346
F0.0263518325755
sS'fifthworldproblems'
p347
F0.0123943661972
sS'talesfromtechsupport'
p348
F0.0112364570535
sS'notinteresting'
p349
F0.017893642198899998
sS'AnimalsBeingJerks'
p350
F0.038796970893299997
sS'girlsinyogapants'
p351
F0.0070953112427800001
sS'catpictures'
p352
F0.015003551136399999
sS'HumanPorn'
p353
F0.023567580803100001
sS'Graffiti'
p354
F0.0081323611890099998
sS'drawing'
p355
F0.0099493903841700003
sS'EmmaWatson'
p356
F0.0094647519582200003
sS'GifSound'
p357
F0.0096079442868200002
sS'FancyFollicles'
p358
F0.013568694172699999
sS'PublicFreakout'
p359
F0.0172265288544
sS'ArtisanVideos'
p360
F0.011057054400699999
sS'Dexter'
p361
F0.0074074074074100002
sS'rickandmorty'
p362
F0.0088654760375199999
sS'quotes'
p363
F0.0091954022988500004
sS'woodworking'
p364
F0.0075877445339500001
sS'perfectloops'
p365
F0.026346911957999999
sS'Pets'
p366
F0.013188976377999999
sS'InternetIsBeautiful'
p367
F0.0111580445413
sS'carporn'
p368
F0.0095048887850099992
sS'BeardPorn'
p369
F0.00872152678022
sS'TalesFromRetail'
p370
F0.0147253753645
sS'WouldYouRather'
p371
F0.0111243265934
sS'quityourbullshit'
p372
F0.021543917899199998
sS'ProtectAndServe'
p373
F0.0097571211246900002
sS'woahdude'
p374
F0.016174469302300001
sS'Fallout'
p375
F0.0082308311300100002
sS'thesims'
p376
F0.00704304080492
sS'offmychest'
p377
F0.0114726251143
sS'confession'
p378
F0.014688491939999999
sS'slowcooking'
p379
F0.011098890110999999
sS'NSFW_GIF'
p380
F0.0078266579120200002
sS'howto'
p381
F0.0135023771791
sS'cringepics'
p382
F0.0126978836861
sS'toosoon'
p383
F0.024785585018499999
sS'thewalkingdead'
p384
F0.0082505091295200002
sS'gifs'
p385
F0.0072091013152100003
sS'Art'
p386
F0.0082540094377900001
sS'ConfusedBoners'
p387
F0.023422360771799999
sS'Paranormal'
p388
F0.0101816498901
sS'4chan'
p389
F0.0124052148463
sS'Enhancement'
p390
F0.0101110558594
sS'zombies'
p391
F0.0119171398864
sS'ArcherFX'
p392
F0.011254689453899999
sS'gardening'
p393
F0.0112509834776
sS'whatisthisthing'
p394
F0.0230333257765
sS'NetflixBestOf'
p395
F0.012389139036699999
sS'tumblr'
p396
F0.016641711229899998
sS'interestingasfuck'
p397
F0.020609603340300001
sS'MarkMyWords'
p398
F0.0104262779111
sS'gameofthrones'
p399
F0.0072886430853999996
sS'humor'
p400
F0.0152414659208
sS'AMA'
p401
F0.0095101278551900006
sS'SkincareAddiction'
p402
F0.0088256727213800006
sS'ExpectationVsReality'
p403
F0.030711710508699998
sS'RandomKindness'
p404
F0.0080108718975799992
sS'lifehacks'
p405
F0.017734190976599999
sS'SCP'
p406
F0.011408339889899999
sS'biology'
p407
F0.0096375143843499995
sS'FloridaMan'
p408
F0.022948269156000001
sS'delusionalartists'
p409
F0.022676478604499999
sS'OkCupid'
p410
F0.0078671121537400007
sS'Frugal'
p411
F0.0113561975238
sS'promos'
p412
F0.0087427797190299996
sS'shittyaskscience'
p413
F0.015349075975400001
sS'whatsthisplant'
p414
F0.011122994652399999
sS'lewronggeneration'
p415
F0.0124866507845
sS'calvinandhobbes'
p416
F0.012438195302799999
sS'netflix'
p417
F0.0095113311010799999
sS'sixwordstories'
p418
F0.010176322418100001
sS'AnimalsBeingBros'
p419
F0.037601257405399997
sS'classic4chan'
p420
F0.019893592412700001
sS'NSFWFunny'
p421
F0.019184290030199998
sS'amiugly'
p422
F0.00721889706218
sS'marijuanaenthusiasts'
p423
F0.01503606624
sS'TrollXChromosomes'
p424
F0.0146817026789
sS'tifu'
p425
F0.0089761872729700008
sS'badhistory'
p426
F0.0082477210244500006
sS'Damnthatsinteresting'
p427
F0.021702701598100001
sS'loseit'
p428
F0.0072140090125700001
sS'CrazyIdeas'
p429
F0.0187801932367
sS'TinyHouses'
p430
F0.0089064819396299996
sS'Bad_Cop_No_Donut'
p431
F0.016220771013299998
sS'MorbidReality'
p432
F0.0223414610983
sS'gif'
p433
F0.020628959022400001
sS'cats'
p434
F0.016985378955500001
sS'introvert'
p435
F0.010376324442800001
sS'raisedbynarcissists'
p436
F0.0126217346975
sS'happy'
p437
F0.017906992578500001
sS'cablefail'
p438
F0.0085827925476200002
sS'explainlikeIAmA'
p439
F0.0160051675877
sS'misleadingthumbnails'
p440
F0.0305106658048
sS'shortscarystories'
p441
F0.0096760005864199999
sS'batman'
p442
F0.0095366398411699995
sS'occupywallstreet'
p443
F0.0076737557553200001
sS'trailerparkboys'
p444
F0.0084263745523499994
sS'snackexchange'
p445
F0.0092669817440499992
sS'rule34'
p446
F0.0081864636562699999
sS'blunderyears'
p447
F0.0243057078928
sS'Marvel'
p448
F0.0077548130415700002
sS'Random_Acts_Of_Amazon'
p449
F0.0077091779092199999
sS'rage'
p450
F0.021169517741299999
sS'comics'
p451
F0.01559109945
sS'behindthegifs'
p452
F0.023747328425600001
sS'BustyPetite'
p453
F0.0077643054669200001
sS'fullmoviesonyoutube'
p454
F0.0153527924615
sS'Design'
p455
F0.0073197578425999998
sS'TrueAskReddit'
p456
F0.011094370634200001
sS'politics'
p457
F0.0076676166191700004
sS'Dogtraining'
p458
F0.0071149873766400001
sS'bestofworldstar'
p459
F0.0105081438115
sS'DAE'
p460
F0.011592550361100001
sS'ForeverAlone'
p461
F0.0102004507176
sS'eatsandwiches'
p462
F0.0113821138211
sS'Survival'
p463
F0.0078105102300700001
sS'shittyama'
p464
F0.0105832019815
sS'circlebroke'
p465
F0.0085121602288999992
sS'zelda'
p466
F0.0080627099664100001
sS'ImaginaryLandscapes'
p467
F0.011202724502600001
sS'TheWayWeWere'
p468
F0.0149063806581
sS'badtattoos'
p469
F0.020555633506399999
sS'popping'
p470
F0.023387760405399999
sS'nottheonion'
p471
F0.012031513504
sS'Frugal_Jerk'
p472
F0.017693777018200001
sS'Baking'
p473
F0.011070352417100001
sS'bigdickproblems'
p474
F0.0077927267883300001
sS'comicbooks'
p475
F0.0079119086460000005
sS'Thetruthishere'
p476
F0.0081591024987299997
sS'GirlGamers'
p477
F0.0082726876904899993
sS'cosplaygirls'
p478
F0.012971195420500001
sS'entertainment'
p479
F0.0102116796086
sS'atheism'
p480
F0.0084510944860100006
sS'terriblefacebookmemes'
p481
F0.016631510627900001
sS'PrettyGirls'
p482
F0.0106208614699
sS'urbanexploration'
p483
F0.012931034482800001
s.