(dp1
S'breastfeeding'
p2
F0.15423813966800001
sS'FancyFollicles'
p3
F0.021973063038
sS'DoesAnybodyElse'
p4
F0.0083277599188800004
sS'pettyrevenge'
p5
F0.0102879538403
sS'ABraThatFits'
p6
F0.017586979081300001
sS'Pets'
p7
F0.013088879264699999
sS'entwives'
p8
F0.0079562750795599997
sS'RandomActsofMakeup'
p9
F0.010484692349200001
sS'relationships'
p10
F0.012433766128699999
sS'TalesFromRetail'
p11
F0.012154508622700001
sS'nostalgia'
p12
F0.0091478231039700004
sS'harrypotter'
p13
F0.0104288214702
sS'InfertilityBabies'
p14
F0.015464770095900001
sS'offmychest'
p15
F0.0110088167958
sS'Anxiety'
p16
F0.0084714548802900004
sS'TalesFromYourServer'
p17
F0.0098901621416
sS'childfree'
p18
F0.0096927033978600006
sS'food'
p19
F0.0072482566035399999
sS'vegan'
p20
F0.0073751401707899998
sS'xxketo'
p21
F0.0142929491869
sS'wedding'
p22
F0.0163847780127
sS'clothdiaps'
p23
F0.067224187841700006
sS'homestead'
p24
F0.0072419295446200004
sS'creepyPMs'
p25
F0.0095276762755399994
sS'predaddit'
p26
F0.051321473021500003
sS'freebies'
p27
F0.0083837913367499992
sS'Paleo'
p28
F0.0107813182017
sS'gardening'
p29
F0.015861688669799999
sS'whatisthisthing'
p30
F0.0079663070902099998
sS'AskWomen'
p31
F0.0155301699597
sS'redditgetsdrawn'
p32
F0.0088540825663400002
sS'sex'
p33
F0.0092202668557999998
sS'TwoXChromosomes'
p34
F0.0167653372752
sS'fatpeoplestories'
p35
F0.0091393149487400006
sS'Baking'
p36
F0.016076083808100002
sS'popping'
p37
F0.0102611940299
sS'firstworldproblems'
p38
F0.0077748727122599996
sS'shittyfoodporn'
p39
F0.0071058748943400004
sS'InteriorDesign'
p40
F0.0079572925060399993
sS'ExpectationVsReality'
p41
F0.0088665228852100007
sS'RandomKindness'
p42
F0.0080315121751600004
sS'AskCulinary'
p43
F0.0083578137283299991
sS'lifehacks'
p44
F0.0081775933940999995
sS'disney'
p45
F0.010381374337600001
sS'tattoos'
p46
F0.0077713621672700003
sS'facepalm'
p47
F0.0092649602720800001
sS'DeadBedrooms'
p48
F0.0085933304037899994
sS'LetsNotMeet'
p49
F0.0071554912365300004
sS'legaladvice'
p50
F0.0092327354457699996
sS'Random_Acts_Of_Pizza'
p51
F0.00707152496626
sS'Frugal'
p52
F0.0162752478397
sS'LadyBoners'
p53
F0.015952238051599999
sS'keto'
p54
F0.011155664075599999
sS'ThriftStoreHauls'
p55
F0.0075219982969100003
sS'glutenfree'
p56
F0.0070431720360000002
sS'recipes'
p57
F0.012060889929699999
sS'piercing'
p58
F0.0078146346794899998
sS'relationship_advice'
p59
F0.0096662340429700001
sS'Hair'
p60
F0.0092565808504500007
sS'MakeupAddicts'
p61
F0.0085078139141999999
sS'weddingplanning'
p62
F0.0212124025251
sS'xxfitness'
p63
F0.0157753281658
sS'Assistance'
p64
F0.0115661994829
sS'confession'
p65
F0.0102831161278
sS'Health'
p66
F0.0075127334465200004
sS'TrollXChromosomes'
p67
F0.0166580302984
sS'femalefashionadvice'
p68
F0.0156121339877
sS'BeautyBoxes'
p69
F0.0086468646864699995
sS'CrossStitch'
p70
F0.0088002149670800001
sS'loseit'
p71
F0.0156003159558
sS'EatCheapAndHealthy'
p72
F0.0135187580854
sS'MorbidReality'
p73
F0.0090179737545900002
sS'cats'
p74
F0.013258933142200001
sS'catpictures'
p75
F0.0072686443682799997
sS'ketorecipes'
p76
F0.0088925206691000003
sS'raisedbynarcissists'
p77
F0.0217326762069
sS'dogs'
p78
F0.0151792476647
sS'happy'
p79
F0.010715690129800001
sS'fatlogic'
p80
F0.0093543395695599996
sS'TrollYChromosome'
p81
F0.0079522043675300004
sS'MakeupAddiction'
p82
F0.022004080226800001
sS'SkincareAddiction'
p83
F0.0170814800795
sS'mildlyinfuriating'
p84
F0.0071929533907699999
sS'breakingmom'
p85
F0.101304896871
sS'somethingimade'
p86
F0.0093968447992700006
sS'HomeImprovement'
p87
F0.0075324439604300001
sS'namenerds'
p88
F0.095307024226699996
sS'curlyhair'
p89
F0.0120371431847
sS'TheGirlSurvivalGuide'
p90
F0.0170412332838
sS'blunderyears'
p91
F0.0078655204816800006
sS'Random_Acts_Of_Amazon'
p92
F0.011293384607899999
sS'rage'
p93
F0.00713232174247
sS'offbeat'
p94
F0.0072791164658600003
sS'RealEstate'
p95
F0.00770035174446
sS'TryingForABaby'
p96
F0.092871257029899998
sS'C25K'
p97
F0.00703741846893
sS'nursing'
p98
F0.012251885934400001
sS'FoodPorn'
p99
F0.0077707134927800002
sS'Cooking'
p100
F0.0132635473158
sS'personalfinance'
p101
F0.00791347510982
sS'bigboobproblems'
p102
F0.0126709953981
sS'DIY'
p103
F0.0073696356124599996
sS'Dogtraining'
p104
F0.010385836517200001
sS'self'
p105
F0.0081133446354999996
sS'pitbulls'
p106
F0.00849811153077
sS'Parenting'
p107
F0.074496228751499999
sS'badtattoos'
p108
F0.0079500000000000005
sS'slowcooking'
p109
F0.013017565872
sS'RedditLaqueristas'
p110
F0.0209077776933
sS'daddit'
p111
F0.029404801363699998
sS'knitting'
p112
F0.016978372165900001
sS'quilting'
p113
F0.0085193003618800004
sS'AnimalsBeingJerks'
p114
F0.0071992771576000003
sS'birthcontrol'
p115
F0.0080710250201800008
sS'sewing'
p116
F0.017628294812200001
sS'budgetfood'
p117
F0.0079672205781899999
sS'Mommit'
p118
F0.109838008692
sS'Teachers'
p119
F0.0095461738730899994
sS'progresspics'
p120
F0.012176661769300001
sS'crochet'
p121
F0.0240086741016
sS'dogpictures'
p122
F0.0091537544696100002
sS'beyondthebump'
p123
F0.234099374517
sS'thesims'
p124
F0.0090967328635500003
sS'infertility'
p125
F0.019284603421499999
sS'secretsanta'
p126
F0.0112024957459
sS'crafts'
p127
F0.015306122449000001
sS'AmericanHorrorStory'
p128
F0.0072221968277200004
s.