(dp1
S'cyanogenmod'
p2
F0.0082051282051300006
sS'androidapps'
p3
F0.0109229381702
sS'TheWire'
p4
F0.0079655140099299995
sS'AndroidGaming'
p5
F0.0085270475776699998
sS'AndroidQuestions'
p6
F0.0089230769230799999
sS'Android'
p7
F0.0080312936996900005
s.