(dp1
S'asoiaf'
p2
F0.0174088206875
sS'inthenews'
p3
F0.0125067137267
sS'KitchenConfidential'
p4
F0.00754903780707
sS'BuyItForLife'
p5
F0.0088389049387799998
sS'SampleSize'
p6
F0.0078194663557199992
sS'everymanshouldknow'
p7
F0.013582011957399999
sS'askphilosophy'
p8
F0.024528569403100001
sS'AskMen'
p9
F0.0096573140113599999
sS'syriancivilwar'
p10
F0.0229969120754
sS'Showerthoughts'
p11
F0.0077174016779600002
sS'duolingo'
p12
F0.0109507640068
sS'HistoryPorn'
p13
F0.0325963837731
sS'holdmybeer'
p14
F0.011074277804100001
sS'ImaginaryMonsters'
p15
F0.011299852289499999
sS'dwarffortress'
p16
F0.0165762151958
sS'YouShouldKnow'
p17
F0.014802262702800001
sS'skyrimmods'
p18
F0.0074752579490400001
sS'UpliftingNews'
p19
F0.011742204144900001
sS'PandR'
p20
F0.0089498459929100004
sS'Jokes'
p21
F0.0076304229801099997
sS'Military'
p22
F0.0147838315364
sS'magicskyfairy'
p23
F0.0273465611185
sS'Steam'
p24
F0.0079901260231299998
sS'photoshopbattles'
p25
F0.0091074444588799992
sS'IWantToLearn'
p26
F0.0096829874121200001
sS'PoliticalDiscussion'
p27
F0.032997643025499998
sS'CrappyDesign'
p28
F0.019878463281499999
sS'NewsOfTheWeird'
p29
F0.0079734219269099998
sS'Cyberpunk'
p30
F0.014812544693
sS'Libertarian'
p31
F0.0188867792545
sS'Anarcho_Capitalism'
p32
F0.026243661778800002
sS'pcgaming'
p33
F0.0097615085967800008
sS'EatCheapAndHealthy'
p34
F0.0072246304323700002
sS'totalwar'
p35
F0.027290340437300002
sS'tea'
p36
F0.0086508374746900006
sS'blackpeoplegifs'
p37
F0.0090768636539200007
sS'polandball'
p38
F0.044132699139000003
sS'POLITIC'
p39
F0.00845872305815
sS'AskAcademia'
p40
F0.0097711267605600002
sS'fatpeoplestories'
p41
F0.0117745252929
sS'OneY'
p42
F0.0144656228727
sS'forwardsfromgrandma'
p43
F0.045368528312900003
sS'no_sob_story'
p44
F0.019815510761899999
sS'findareddit'
p45
F0.0104403365473
sS'skeptic'
p46
F0.034933356564199998
sS'Warthunder'
p47
F0.0096463022507999995
sS'boardgames'
p48
F0.0093129335740799995
sS'DebateReligion'
p49
F0.0268292682927
sS'Anticonsumption'
p50
F0.0085208854311399993
sS'socialism'
p51
F0.037871846557899998
sS'worldnews'
p52
F0.0093511190106400008
sS'vexillology'
p53
F0.044196456717699999
sS'Economics'
p54
F0.0246928260008
sS'needamod'
p55
F0.0071047957371200001
sS'legaladvice'
p56
F0.0080110363521999992
sS'answers'
p57
F0.016619183285800001
sS'lgbt'
p58
F0.012418931971900001
sS'baseball'
p59
F0.0084786338427200007
sS'doctorwho'
p60
F0.0087878118790000008
sS'TopGear'
p61
F0.0088137662635000003
sS'Frugal'
p62
F0.00870629467887
sS'WarshipPorn'
p63
F0.0210926135445
sS'vegetarian'
p64
F0.0071519283470400001
sS'IWantOut'
p65
F0.0098960290617600005
sS'QuotesPorn'
p66
F0.017731052879300001
sS'TrueReddit'
p67
F0.029551016673900001
sS'todayilearned'
p68
F0.0077856699647999997
sS'Catholicism'
p69
F0.015962924819799999
sS'confession'
p70
F0.01077055455
sS'AntiJokes'
p71
F0.0089574708317700005
sS'KingOfTheHill'
p72
F0.0073889509407999996
sS'IdiotsFightingThings'
p73
F0.014642054071000001
sS'Firearms'
p74
F0.0079530638852699995
sS'gamernews'
p75
F0.012034304684600001
sS'ContagiousLaughter'
p76
F0.0077604218485699998
sS'environment'
p77
F0.0128932439402
sS'FiftyFifty'
p78
F0.0082955888144899993
sS'AskHistorians'
p79
F0.075142497792300006
sS'OutOfTheLoop'
p80
F0.027423208558500001
sS'france'
p81
F0.0077753453612099998
sS'ifyoulikeblank'
p82
F0.0112707518912
sS'misleadingthumbnails'
p83
F0.011861844400499999
sS'WebGames'
p84
F0.0095441500367100009
sS'Pareidolia'
p85
F0.0096833435360899993
sS'tipofmytongue'
p86
F0.0091230657871400004
sS'rpg_gamers'
p87
F0.0077051926298199996
sS'ftlgame'
p88
F0.011514392991200001
sS'Shitty_Car_Mods'
p89
F0.0080909205389700003
sS'NeutralPolitics'
p90
F0.0283897133376
sS'techsupportgore'
p91
F0.010767854685600001
sS'science'
p92
F0.012877474863199999
sS'firstworldproblems'
p93
F0.0101651331914
sS'movies'
p94
F0.0074471942817199996
sS'standupshots'
p95
F0.016974195100199999
sS'history'
p96
F0.035006797436399999
sS'AskScienceFiction'
p97
F0.0265435381714
sS'NewsOfTheStupid'
p98
F0.013096935139
sS'programming'
p99
F0.0092615484091800003
sS'ShitPoliticsSays'
p100
F0.0164417734437
sS'learnprogramming'
p101
F0.0071977752331100001
sS'Infographics'
p102
F0.013393888076400001
sS'arresteddevelopment'
p103
F0.0072159861847800001
sS'SRSsucks'
p104
F0.025103133502999999
sS'HouseOfCards'
p105
F0.011193080641100001
sS'asmr'
p106
F0.0072348364198900001
sS'techsupportmacgyver'
p107
F0.00933644548183
sS'MURICA'
p108
F0.015507939628200001
sS'technology'
p109
F0.0090805103387599992
sS'travel'
p110
F0.0074945083344100001
sS'scifi'
p111
F0.018625700387899999
sS'spaceporn'
p112
F0.0117029862793
sS'nyc'
p113
F0.0087886070954599996
sS'Ask_Politics'
p114
F0.021245818642100001
sS'economy'
p115
F0.0094437775109999997
sS'BasicIncome'
p116
F0.018690875801000002
sS'askscience'
p117
F0.014951828584500001
sS'philosophy'
p118
F0.0201174024703
sS'netsec'
p119
F0.0073058809322500001
sS'Xcom'
p120
F0.0123928236905
sS'dragonage'
p121
F0.0074888310352600003
sS'law'
p122
F0.013130325464499999
sS'Sidehugs'
p123
F0.012108262108300001
sS'MachinePorn'
p124
F0.011213864414199999
sS'CFB'
p125
F0.0075624256837100003
sS'Shitstatistssay'
p126
F0.014455868879199999
sS'FanTheories'
p127
F0.0210247217865
sS'tall'
p128
F0.0080688065259800004
sS'ImGoingToHellForThis'
p129
F0.0077288062690700002
sS'shield'
p130
F0.0072637840311099997
sS'pettyrevenge'
p131
F0.0094614042071100007
sS'CityPorn'
p132
F0.014281326781300001
sS'washingtondc'
p133
F0.0072926677596199998
sS'PurplePillDebate'
p134
F0.0147687524291
sS'london'
p135
F0.0070250610333300002
sS'dataisbeautiful'
p136
F0.0200667483419
sS'japan'
p137
F0.00985247354428
sS'MLPLounge'
p138
F0.0075792374827700001
sS'islam'
p139
F0.016670767716500001
sS'linguistics'
p140
F0.0316648917288
sS'badlinguistics'
p141
F0.072403497547500001
sS'Documentaries'
p142
F0.014878947577
sS'writing'
p143
F0.0136587945012
sS'WorldofTanks'
p144
F0.0072437522636699999
sS'TrueChristian'
p145
F0.0092451391536399995
sS'soccer'
p146
F0.0079939351177699992
sS'texas'
p147
F0.0074967405475900003
sS'MensRights'
p148
F0.0159965034965
sS'MilitaryPorn'
p149
F0.0189130001991
sS'Frisson'
p150
F0.0133781105483
sS'Judaism'
p151
F0.015890115809299998
sS'childfree'
p152
F0.0073252279635299998
sS'GunsAreCool'
p153
F0.024127310061599998
sS'DebateAnAtheist'
p154
F0.013506916192
sS'NoStupidQuestions'
p155
F0.019196700839300002
sS'IndieGaming'
p156
F0.0073228185170000001
sS'Braveryjerk'
p157
F0.012268314210100001
sS'grammar'
p158
F0.00927593659942
sS'creepyPMs'
p159
F0.019940302181699999
sS'asianamerican'
p160
F0.0088147935230399998
sS'nfl'
p161
F0.0072062609862699996
sS'Buddhism'
p162
F0.0083333333333300008
sS'PropagandaPosters'
p163
F0.057104913678600003
sS'shittyadviceanimals'
p164
F0.0095269026740300005
sS'SubredditDrama'
p165
F0.059207863544399997
sS'minimalism'
p166
F0.0086701947978800008
sS'eu4'
p167
F0.028099552701000001
sS'TrueAtheism'
p168
F0.020942943249699999
sS'latin'
p169
F0.0094209802053600005
sS'energy'
p170
F0.0098054846938800001
sS'TrollXChromosomes'
p171
F0.011136973458799999
sS'perfectloops'
p172
F0.0096943902583199997
sS'MST3K'
p173
F0.0086115142718900008
sS'Anarchism'
p174
F0.024659920927399999
sS'TwoXChromosomes'
p175
F0.0081883782757299992
sS'Cinemagraphs'
p176
F0.0092100602196200001
sS'canada'
p177
F0.0106351018446
sS'psychology'
p178
F0.0132978723404
sS'space'
p179
F0.013022282947899999
sS'shittyfoodporn'
p180
F0.011793787413999999
sS'LearnUselessTalents'
p181
F0.0102811165193
sS'China'
p182
F0.010123333571000001
sS'RoomPorn'
p183
F0.010039040713900001
sS'Astronomy'
p184
F0.0082151640416499999
sS'books'
p185
F0.0106898165432
sS'math'
p186
F0.012560015363899999
sS'LetsTalkMusic'
p187
F0.0145231438335
sS'bestof'
p188
F0.022027403855800001
sS'Metal'
p189
F0.0093415057851800008
sS'conservatives'
p190
F0.0073588593767999998
sS'GamePhysics'
p191
F0.014454104218899999
sS'paradoxplaza'
p192
F0.052225485115399997
sS'Morrowind'
p193
F0.0094291102348699994
sS'youtubehaiku'
p194
F0.0124688279302
sS'PoliticalHumor'
p195
F0.017779164067399999
sS'CanadaPolitics'
p196
F0.0120734468014
sS'privacy'
p197
F0.0071640146035700002
sS'punk'
p198
F0.0086224182875499992
sS'whatstheword'
p199
F0.010424126681
sS'classicalmusic'
p200
F0.0126427143134
sS'AskUK'
p201
F0.010193679918500001
sS'misc'
p202
F0.0099957283212299998
sS'patientgamers'
p203
F0.0151095216808
sS'rant'
p204
F0.0098673462719699994
sS'conspiratard'
p205
F0.094403201179400001
sS'tf2'
p206
F0.0087645373335600001
sS'OldSchoolCool'
p207
F0.0097203274215599995
sS'lego'
p208
F0.00758633029164
sS'ANormalDayInRussia'
p209
F0.018456952883200001
sS'onetruegod'
p210
F0.0079846011264000007
sS'TheFacebookDelusion'
p211
F0.011248402215600001
sS'shittyreactiongifs'
p212
F0.011726011725999999
sS'alternativeart'
p213
F0.0091274493384699996
sS'shittyadvice'
p214
F0.010300136425599999
sS'explainlikeimfive'
p215
F0.0082095374869099996
sS'ObscureMedia'
p216
F0.010560519902499999
sS'CombatFootage'
p217
F0.0208210672804
sS'TrollYChromosome'
p218
F0.0152454263721
sS'collapse'
p219
F0.0092991217496099995
sS'mildlyinfuriating'
p220
F0.0119282247389
sS'madmen'
p221
F0.010472886147500001
sS'short'
p222
F0.0072486119679199996
sS'Awwducational'
p223
F0.0150796824127
sS'skyrim'
p224
F0.0104009552539
sS'SRSGaming'
p225
F0.027118644067799999
sS'toronto'
p226
F0.0074789549585800004
sS'television'
p227
F0.0093425032108400002
sS'DCcomics'
p228
F0.0076195987654299998
sS'worldpolitics'
p229
F0.0226406101049
sS'TheRedPill'
p230
F0.0074838629205800002
sS'nononono'
p231
F0.013434231783
sS'KerbalSpaceProgram'
p232
F0.013094615786700001
sS'russia'
p233
F0.014419877246200001
sS'gallifrey'
p234
F0.015092502434299999
sS'FoodPorn'
p235
F0.0072388831437399997
sS'boston'
p236
F0.0072878476258600002
sS'urbanplanning'
p237
F0.0080780218697700003
sS'conspiracy'
p238
F0.018082898843899999
sS'AnythingGoesNews'
p239
F0.0078777079621100005
sS'DaystromInstitute'
p240
F0.0147672284332
sS'HighQualityGifs'
p241
F0.0113517181813
sS'self'
p242
F0.0143189692508
sS'chess'
p243
F0.00721997300945
sS'britishproblems'
p244
F0.0146976046032
sS'UnresolvedMysteries'
p245
F0.014849471114700001
sS'nonononoyes'
p246
F0.0142848093247
sS'startrek'
p247
F0.0148099707647
sS'FutureWhatIf'
p248
F0.021322151842300002
sS'firefly'
p249
F0.0078709169618299997
sS'badphilosophy'
p250
F0.077367673899799996
sS'Futurology'
p251
F0.0129631798836
sS'translator'
p252
F0.0075263036633099996
sS'germany'
p253
F0.0097885669537999993
sS'mylittlepony'
p254
F0.00742738196613
sS'Gaming4Gamers'
p255
F0.0124497222754
sS'AskEngineers'
p256
F0.0086349859895899998
sS'TumblrInAction'
p257
F0.027246332712099999
sS'HailCorporate'
p258
F0.021058542748800001
sS'Heavymind'
p259
F0.0075687159739700003
sS'PanicHistory'
p260
F0.067474433081399998
sS'Hiphopcirclejerk'
p261
F0.0103388269014
sS'teslore'
p262
F0.017261118450000001
sS'Foodforthought'
p263
F0.028471263146699999
sS'languagelearning'
p264
F0.0150696254848
sS'TheoryOfReddit'
p265
F0.034022177419400002
sS'TheBluePill'
p266
F0.058942541138400001
sS'printSF'
p267
F0.013003589948100001
sS'French'
p268
F0.0075194049159100001
sS'harrypotter'
p269
F0.0075404626612399998
sS'Warhammer40k'
p270
F0.0073100442819999997
sS'booksuggestions'
p271
F0.0089900535577699999
sS'shittybattlestations'
p272
F0.0088495575221199992
sS'whowouldwin'
p273
F0.0194061257891
sS'blunderyears'
p274
F0.013771965672299999
sS'TalesFromYourServer'
p275
F0.0089159187529499993
sS'shutupandtakemymoney'
p276
F0.0074099023240099997
sS'CrusaderKings'
p277
F0.041268584996299998
sS'JusticePorn'
p278
F0.0099700897308100007
sS'geek'
p279
F0.0106114828069
sS'lostgeneration'
p280
F0.0198391420912
sS'Conservative'
p281
F0.024517684887499998
sS'AbandonedPorn'
p282
F0.013465166200499999
sS'progressive'
p283
F0.021755314748899999
sS'dadjokes'
p284
F0.0099288432897600004
sS'progun'
p285
F0.0072871811858200002
sS'guns'
p286
F0.0083052799432999994
sS'thatHappened'
p287
F0.0240201265899
sS'DeepIntoYouTube'
p288
F0.015286377709
sS'cringe'
p289
F0.0127132481279
sS'StarWars'
p290
F0.0107935622243
sS'rpg'
p291
F0.0149374710514
sS'AskWomen'
p292
F0.0088247955230299994
sS'TheSimpsons'
p293
F0.011370238194
sS'Christianity'
p294
F0.0196668836806
sS'Justrolledintotheshop'
p295
F0.0083934392566500007
sS'AskScienceDiscussion'
p296
F0.011059518784300001
sS'changemyview'
p297
F0.0331927838426
sS'KarmaCourt'
p298
F0.0110942537455
sS'againstmensrights'
p299
F0.043707534732800001
sS'firstworldanarchists'
p300
F0.015066007010900001
sS'PerfectTiming'
p301
F0.0106552563134
sS'truegaming'
p302
F0.023213576252899999
sS'lotr'
p303
F0.013403403886
sS'wikipedia'
p304
F0.022835269271400001
sS'outside'
p305
F0.0170485715491
sS'AskCulinary'
p306
F0.01095
sS'foodhacks'
p307
F0.0080063000393800002
sS'Anarchy101'
p308
F0.0143996455472
sS'AskFeminists'
p309
F0.015908665543700001
sS'TheLastAirbender'
p310
F0.010413753039100001
sS'StandUpComedy'
p311
F0.0078750757218800007
sS'casualiama'
p312
F0.0129382375743
sS'facepalm'
p313
F0.013377192982499999
sS'NotTimAndEric'
p314
F0.014481990345300001
sS'news'
p315
F0.0088156277531800005
sS'gamingsuggestions'
p316
F0.0077899233572100001
sS'Unexpected'
p317
F0.012973942033999999
sS'RedditDayOf'
p318
F0.023517219387799999
sS'watchpeopledie'
p319
F0.0089327326394300008
sS'Sherlock'
p320
F0.0099955020240900007
sS'ukpolitics'
p321
F0.018602540834800001
sS'GunPorn'
p322
F0.0090836421771700003
sS'drunk'
p323
F0.0075466990987599998
sS'reactiongifs'
p324
F0.0095413859924300005
sS'community'
p325
F0.011771487515499999
sS'exmuslim'
p326
F0.0080925861468800001
sS'EarthPorn'
p327
F0.00742929181142
sS'linux'
p328
F0.0081552387287100007
sS'ainbow'
p329
F0.0214275965607
sS'TheWire'
p330
F0.0086351994145600006
sS'beer'
p331
F0.0086676360733299995
sS'California'
p332
F0.0091451893280899994
sS'ireland'
p333
F0.0099339345131899993
sS'bisexual'
p334
F0.0080523780854899994
sS'fatlogic'
p335
F0.013521963420399999
sS'hiphopheads'
p336
F0.0080609968968199993
sS'roguelikes'
p337
F0.0076656324146700001
sS'WritingPrompts'
p338
F0.0086258666812300006
sS'MapPorn'
p339
F0.035016408114600002
sS'aviation'
p340
F0.0095601455948800002
sS'Perfectfit'
p341
F0.0077780837004400001
sS'offbeat'
p342
F0.0192645475664
sS'softwaregore'
p343
F0.013223023617599999
sS'metacanada'
p344
F0.0092097782831199997
sS'Cooking'
p345
F0.0093018993287100008
sS'IASIP'
p346
F0.0074190177638499997
sS'assassinscreed'
p347
F0.0085617139813999998
sS'ShitRedditSays'
p348
F0.045855379188700002
sS'southpark'
p349
F0.0084796093440700007
sS'Israel'
p350
F0.016371583080200001
sS'tolkienfans'
p351
F0.013800984528800001
sS'Whatcouldgowrong'
p352
F0.0134860713356
sS'fifthworldproblems'
p353
F0.0138302277433
sS'talesfromtechsupport'
p354
F0.013117099928499999
sS'literature'
p355
F0.022353118864200001
sS'notinteresting'
p356
F0.011385970857300001
sS'AnimalsBeingJerks'
p357
F0.0131964809384
sS'DebateAChristian'
p358
F0.013061411549
sS'wargame'
p359
F0.0093330740812800003
sS'Physics'
p360
F0.012264353041999999
sS'TrueFilm'
p361
F0.020183732314099999
sS'HumanPorn'
p362
F0.019800314112600002
sS'Fantasy'
p363
F0.014153046062400001
sS'chemistry'
p364
F0.00817003137766
sS'GifSound'
p365
F0.0075342868915199996
sS'awwwtf'
p366
F0.0082477210244500006
sS'circlebroke'
p367
F0.089108217835599995
sS'PublicFreakout'
p368
F0.0127124030679
sS'ArtisanVideos'
p369
F0.0092502683088899994
sS'Bitcoin'
p370
F0.0084363618344399996
sS'rickandmorty'
p371
F0.0088317135137299992
sS'quotes'
p372
F0.0095921606514399998
sS'futurama'
p373
F0.0089676095297599994
sS'whitepeoplegifs'
p374
F0.0097607266318699999
sS'InternetIsBeautiful'
p375
F0.0115610363432
sS'TalesFromRetail'
p376
F0.011892595001400001
sS'ShitRConservativeSays'
p377
F0.036971830985899998
sS'WouldYouRather'
p378
F0.0074074074074100002
sS'quityourbullshit'
p379
F0.0295125735108
sS'ProtectAndServe'
p380
F0.0120711562897
sS'crappymusic'
p381
F0.0085269294353100007
sS'woahdude'
p382
F0.0088738535814199999
sS'Fallout'
p383
F0.0123547810545
sS'offmychest'
p384
F0.0094328755551599999
sS'australia'
p385
F0.0099109045626100001
sS'slowcooking'
p386
F0.00748036983692
sS'howto'
p387
F0.0074484670015599998
sS'cringepics'
p388
F0.011960917553500001
sS'toosoon'
p389
F0.010605637733699999
sS'Liberal'
p390
F0.019759213307599999
sS'4chan'
p391
F0.0121855431676
sS'oblivion'
p392
F0.0070921985815599999
sS'compsci'
p393
F0.00817290228841
sS'montageparodies'
p394
F0.010018189450099999
sS'ArcherFX'
p395
F0.013002826701500001
sS'whatisthisthing'
p396
F0.0128051829467
sS'glitch_art'
p397
F0.0076408034659300001
sS'NetflixBestOf'
p398
F0.0125787815126
sS'circlebroke2'
p399
F0.041363335539399998
sS'ShouldIbuythisgame'
p400
F0.0098293515358399992
sS'tumblr'
p401
F0.0091618323664700001
sS'interestingasfuck'
p402
F0.0130662867135
sS'MarkMyWords'
p403
F0.016129032258100001
sS'FeMRADebates'
p404
F0.016260162601600001
sS'gameofthrones'
p405
F0.0118094511918
sS'humor'
p406
F0.0149781129687
sS'mountandblade'
p407
F0.018686173680000001
sS'ExpectationVsReality'
p408
F0.0103437967115
sS'religion'
p409
F0.0123822811301
sS'lifehacks'
p410
F0.0073387324402400004
sS'SCP'
p411
F0.0130251013543
sS'Enhancement'
p412
F0.0119374212204
sS'biology'
p413
F0.0081967213114800003
sS'ProgrammerHumor'
p414
F0.0094578393499399997
sS'business'
p415
F0.0075437537718800003
sS'FloridaMan'
p416
F0.023330071586799998
sS'delusionalartists'
p417
F0.022191891618599999
sS'OkCupid'
p418
F0.0084124146151399997
sS'Cynicalbrit'
p419
F0.0098949508641100001
sS'promos'
p420
F0.010640085120700001
sS'shittyaskscience'
p421
F0.015799900941099999
sS'lewronggeneration'
p422
F0.046409105482499997
sS'worldbuilding'
p423
F0.025522564651500001
sS'calvinandhobbes'
p424
F0.0083073727933500006
sS'netflix'
p425
F0.00742115027829
sS'masseffect'
p426
F0.0125095531153
sS'wheredidthesodago'
p427
F0.018772161579599999
sS'AnimalsBeingBros'
p428
F0.0122289254851
sS'classic4chan'
p429
F0.014856274184599999
sS'Games'
p430
F0.0141670623584
sS'GameDeals'
p431
F0.0085123490237900001
sS'EnoughLibertarianSpam'
p432
F0.084059068534600004
sS'ShitAmericansSay'
p433
F0.040790312300799998
sS'Scotland'
p434
F0.016758055572699999
sS'marijuanaenthusiasts'
p435
F0.0100555702567
sS'ADHD'
p436
F0.0071341314439299997
sS'unitedkingdom'
p437
F0.017576220717300001
sS'Damnthatsinteresting'
p438
F0.0107346143561
sS'DnD'
p439
F0.010677618069800001
sS'CrazyIdeas'
p440
F0.016957966199600001
sS'Bad_Cop_No_Donut'
p441
F0.0143950509577
sS'MorbidReality'
p442
F0.018018842037899999
sS'raisedbynarcissists'
p443
F0.0083300013327999994
sS'explainlikeIAmA'
p444
F0.025614081176899998
sS'batman'
p445
F0.0075051324336099998
sS'occupywallstreet'
p446
F0.0092855789274199994
sS'HipHopImages'
p447
F0.00758133372589
sS'shittyaskreddit'
p448
F0.0075839653304399998
sS'Marvel'
p449
F0.0070026661527100003
sS'webcomics'
p450
F0.010001550628000001
sS'rage'
p451
F0.0209124625765
sS'comics'
p452
F0.0160508561268
sS'behindthegifs'
p453
F0.016473809734099999
sS'BritishTV'
p454
F0.00746474979265
sS'conlangs'
p455
F0.0084699750244300008
sS'civ'
p456
F0.024335590198299999
sS'fullmoviesonyoutube'
p457
F0.013339644563
sS'arabs'
p458
F0.011511511511500001
sS'TrueAskReddit'
p459
F0.028071731829399999
sS'blackladies'
p460
F0.012315270935999999
sS'politics'
p461
F0.012835842311
sS'ForeverAlone'
p462
F0.0070790677412299998
sS'shittyama'
p463
F0.0091284062478900006
sS'AskSocialScience'
p464
F0.040773569701899999
sS'ImaginaryLandscapes'
p465
F0.0096664289675900007
sS'TheWayWeWere'
p466
F0.016340658456099999
sS'badtattoos'
p467
F0.0072997294065800002
sS'Feminism'
p468
F0.0200390698847
sS'nottheonion'
p469
F0.017384057669099999
sS'Frugal_Jerk'
p470
F0.015340112202
sS'europe'
p471
F0.030423648611000002
sS'Warhammer'
p472
F0.0095780643545799998
sS'comicbooks'
p473
F0.011524729601999999
sS'oddlysatisfying'
p474
F0.0103447688191
sS'GirlGamers'
p475
F0.0167443466252
sS'entertainment'
p476
F0.0091272386402899992
sS'atheism'
p477
F0.010007199424
sS'terriblefacebookmemes'
p478
F0.0172313508797
sS'urbanexploration'
p479
F0.0088247091857200002
s.