(dp1
S'lostgeneration'
p2
F0.0078352078857600004
sS'circlebroke'
p3
F0.032844871147
sS'PanicHistory'
p4
F0.032195594287099998
sS'PurplePillDebate'
p5
F0.0082954769899300004
sS'Hiphopcirclejerk'
p6
F0.0071126917092700003
sS'teslore'
p7
F0.0087690808704099996
sS'dataisbeautiful'
p8
F0.0070993305916599997
sS'askphilosophy'
p9
F0.0188953488372
sS'Foodforthought'
p10
F0.011541513380900001
sS'linguistics'
p11
F0.105339105339
sS'languagelearning'
p12
F0.040952287645699997
sS'ShitRConservativeSays'
p13
F0.0195392242636
sS'TheBluePill'
p14
F0.025227542540600001
sS'quityourbullshit'
p15
F0.0095752089136499994
sS'printSF'
p16
F0.0071164636649799998
sS'LearnJapanese'
p17
F0.0131427253862
sS'duolingo'
p18
F0.0292965690114
sS'dwarffortress'
p19
F0.0071978999068500003
sS'YouShouldKnow'
p20
F0.0074023459742600002
sS'CrusaderKings'
p21
F0.0105067985167
sS'de'
p22
F0.0082043343653299995
sS'NoStupidQuestions'
p23
F0.0078924192127900004
sS'magicskyfairy'
p24
F0.015049073064300001
sS'Braveryjerk'
p25
F0.0077264507644300004
sS'GunsAreCool'
p26
F0.013998250218699999
sS'grammar'
p27
F0.0249781659389
sS'creepyPMs'
p28
F0.0073542730862599997
sS'progressive'
p29
F0.0080494466005500004
sS'asianamerican'
p30
F0.0079627112060599997
sS'PoliticalDiscussion'
p31
F0.0088988568948100005
sS'PropagandaPosters'
p32
F0.0219533491331
sS'CrappyDesign'
p33
F0.0090692264656499991
sS'shittyadviceanimals'
p34
F0.0086032388663999995
sS'SampleSize'
p35
F0.00960604425256
sS'MarkMyWords'
p36
F0.0082691759338499992
sS'Enhancement'
p37
F0.0083737864077699994
sS'eu4'
p38
F0.0080070462006599993
sS'Anarcho_Capitalism'
p39
F0.0095317900911299994
sS'europe'
p40
F0.0104940831233
sS'TrueAtheism'
p41
F0.0078436768955600002
sS'badhistory'
p42
F0.072403497547500001
sS'latin'
p43
F0.0211678832117
sS'HPMOR'
p44
F0.0070048309178699997
sS'circlebroke2'
p45
F0.025499999999999998
sS'literature'
p46
F0.016867171028200002
sS'SubredditDrama'
p47
F0.0153682444185
sS'AskScienceDiscussion'
p48
F0.0074377656344900003
sS'changemyview'
p49
F0.011999748696399999
sS'FeMRADebates'
p50
F0.010372465818
sS'OneY'
p51
F0.0093529592149600004
sS'TEFL'
p52
F0.0075433231396500001
sS'Feminism'
p53
F0.0093979715269400001
sS'forwardsfromgrandma'
p54
F0.013953197347
sS'no_sob_story'
p55
F0.010872894333800001
sS'psychology'
p56
F0.0070800989507799998
sS'skeptic'
p57
F0.0114759499231
sS'wikipedia'
p58
F0.0140746656019
sS'DebateReligion'
p59
F0.013262074426
sS'religion'
p60
F0.00819935691318
sS'Anticonsumption'
p61
F0.0074423670357600001
sS'conlangs'
p62
F0.050000000000000003
sS'China'
p63
F0.0082210550354000003
sS'Anarchy101'
p64
F0.0089828269484800004
sS'vexillology'
p65
F0.022131147540999999
sS'math'
p66
F0.0090232781377499998
sS'AskFeminists'
p67
F0.0089612289685399998
sS'LetsTalkMusic'
p68
F0.0094093047569299999
sS'AskAcademia'
p69
F0.0085526315789500006
sS'FloridaMan'
p70
F0.0071388965899599997
sS'delusionalartists'
p71
F0.0095651584017399996
sS'answers'
p72
F0.010630090012900001
sS'lgbt'
p73
F0.0073716012084600003
sS'ainbow'
p74
F0.014540090612199999
sS'lewronggeneration'
p75
F0.017039612201899999
sS'worldbuilding'
p76
F0.0137925598991
sS'TheoryOfReddit'
p77
F0.019452976451700001
sS'RedditDayOf'
p78
F0.0117361392149
sS'whatstheword'
p79
F0.0140553947912
sS'classicalmusic'
p80
F0.0095497953615300002
sS'paradoxplaza'
p81
F0.012920908379
sS'ShitAmericansSay'
p82
F0.0212908633697
sS'TrueReddit'
p83
F0.0090543771300700005
sS'Scotland'
p84
F0.0082181883861599993
sS'conspiratard'
p85
F0.0211542275402
sS'French'
p86
F0.0149636596836
sS'Korean'
p87
F0.0071228145909800001
sS'AskHistorians'
p88
F0.017227283345
sS'OutOfTheLoop'
p89
F0.0086608927381700007
sS'TheFacebookDelusion'
p90
F0.0072519672889999999
sS'Calligraphy'
p91
F0.0116970278044
sS'urbanplanning'
p92
F0.0080329557157599995
sS'explainlikeIAmA'
p93
F0.0112171602873
sS'ChineseLanguage'
p94
F0.014368389543
sS'MapPorn'
p95
F0.0122467920265
sS'russian'
p96
F0.013602357742
sS'NeutralPolitics'
p97
F0.0127067014795
sS'SRSGaming'
p98
F0.023490721165099999
sS'thatHappened'
p99
F0.0080738936791099995
sS'typography'
p100
F0.0095709570957100004
sS'behindthegifs'
p101
F0.0073516840485599996
sS'softwaregore'
p102
F0.0082996859578300004
sS'socialism'
p103
F0.0144523768065
sS'Ask_Politics'
p104
F0.0076116373477700004
sS'history'
p105
F0.0071835588322699999
sS'AskScienceFiction'
p106
F0.0086310845973199997
sS'Economics'
p107
F0.0071186607098999996
sS'arabs'
p108
F0.0084638171815499992
sS'TrueAskReddit'
p109
F0.0128407927794
sS'blackladies'
p110
F0.0093687262993500005
sS'ShitPoliticsSays'
p111
F0.0080645161290299992
sS'polandball'
p112
F0.011756999034600001
sS'Judaism'
p113
F0.010140273787399999
sS'ShitRedditSays'
p114
F0.022107291349799999
sS'SRSsucks'
p115
F0.012779552715700001
sS'AskSocialScience'
p116
F0.024611223799899998
sS'OrthodoxChristianity'
p117
F0.0074505992873299997
sS'TheWayWeWere'
p118
F0.0070480928689900003
sS'TumblrInAction'
p119
F0.0085553230900399999
sS'againstmensrights'
p120
F0.026741293532299999
sS'Frugal_Jerk'
p121
F0.0098657609574599996
sS'tolkienfans'
p122
F0.0076460061818800001
sS'FutureWhatIf'
p123
F0.0077532167601499996
sS'fifthworldproblems'
p124
F0.0090630024850200004
sS'BasicIncome'
p125
F0.0077967806841000003
sS'Anarchism'
p126
F0.010868461147800001
sS'badphilosophy'
p127
F0.069823922282900006
sS'philosophy'
p128
F0.00863713247202
sS'DebateAChristian'
p129
F0.0082707723628999991
sS'translator'
p130
F0.0150032615786
sS'germany'
p131
F0.0084577114427900005
sS'EnoughLibertarianSpam'
p132
F0.034348561759699997
sS'Sidehugs'
p133
F0.0085443037974699994
sS'TrueFilm'
p134
F0.0083733278872700004
sS'terriblefacebookmemes'
p135
F0.0088619402985100001
sS'Shitstatistssay'
p136
F0.0087221979938900008
sS'Spanish'
p137
F0.018458197611299999
sS'HailCorporate'
p138
F0.0086546888694099995
s.