(dp1
S'circlebroke'
p2
F0.043932649506499999
sS'PanicHistory'
p3
F0.040930633347700002
sS'zen'
p4
F0.0093129502723599995
sS'Conservative'
p5
F0.0111988606939
sS'PurplePillDebate'
p6
F0.0164845009855
sS'quotes'
p7
F0.0075625958099100003
sS'Hiphopcirclejerk'
p8
F0.0097029702970299996
sS'DeepIntoYouTube'
p9
F0.0090219014434999995
sS'askphilosophy'
p10
F0.100613915416
sS'Foodforthought'
p11
F0.015096702379299999
sS'islam'
p12
F0.0100524100009
sS'linguistics'
p13
F0.019321148825099999
sS'syriancivilwar'
p14
F0.0078638648962199992
sS'ShitRConservativeSays'
p15
F0.027560050568899999
sS'badlinguistics'
p16
F0.069823922282900006
sS'quityourbullshit'
p17
F0.0089585190846200001
sS'printSF'
p18
F0.0086525003181100006
sS'exmuslim'
p19
F0.0070942950044300002
sS'environment'
p20
F0.0071802076016499999
sS'TrueChristian'
p21
F0.0112984529811
sS'dwarffortress'
p22
F0.00800776510556
sS'MensRights'
p23
F0.0080380467546399999
sS'Judaism'
p24
F0.010498687664
sS'CrusaderKings'
p25
F0.0084232303827399997
sS'DebateAnAtheist'
p26
F0.0234385404182
sS'lostgeneration'
p27
F0.011963989575900001
sS'grammar'
p28
F0.0075140889167199998
sS'magicskyfairy'
p29
F0.0289655172414
sS'Braveryjerk'
p30
F0.0107137467934
sS'GunsAreCool'
p31
F0.0177977703892
sS'Liberal'
p32
F0.014109347442699999
sS'progressive'
p33
F0.0139093219206
sS'Buddhism'
p34
F0.0090750436300199994
sS'PropagandaPosters'
p35
F0.022287047841299999
sS'vexillology'
p36
F0.012016135953999999
sS'shittyadviceanimals'
p37
F0.0079681274900400001
sS'MarkMyWords'
p38
F0.0073839662447299998
sS'SubredditDrama'
p39
F0.019108538937999998
sS'Cyberpunk'
p40
F0.0076758777199300004
sS'Libertarian'
p41
F0.010054773082900001
sS'Anarcho_Capitalism'
p42
F0.024287434765200001
sS'LetsTalkMusic'
p43
F0.0107264748903
sS'TrueAtheism'
p44
F0.017792642140500001
sS'badhistory'
p45
F0.077367673899799996
sS'HPMOR'
p46
F0.00722942802467
sS'circlebroke2'
p47
F0.0389321468298
sS'Anarchism'
p48
F0.0235454368554
sS'Christianity'
p49
F0.0107175854635
sS'AskScienceDiscussion'
p50
F0.0099523409027199999
sS'changemyview'
p51
F0.0153890884925
sS'FeMRADebates'
p52
F0.0152687722234
sS'OneY'
p53
F0.0094579333709800002
sS'Feminism'
p54
F0.011877326715100001
sS'forwardsfromgrandma'
p55
F0.014823330106500001
sS'no_sob_story'
p56
F0.0087237934430800003
sS'psychology'
p57
F0.0118570610843
sS'skeptic'
p58
F0.017304189435299999
sS'wikipedia'
p59
F0.0108367885413
sS'DebateReligion'
p60
F0.045573294629900001
sS'religion'
p61
F0.014236986504499999
sS'Anticonsumption'
p62
F0.0095709570957100004
sS'Anarchy101'
p63
F0.021182495344500001
sS'SCP'
p64
F0.0078045960398899997
sS'math'
p65
F0.010530749789399999
sS'AskFeminists'
p66
F0.0131535131535
sS'europe'
p67
F0.0077499999999999999
sS'AskAcademia'
p68
F0.0087323095453199998
sS'FloridaMan'
p69
F0.0076748531767200003
sS'delusionalartists'
p70
F0.0110594856358
sS'NotTimAndEric'
p71
F0.0091177492184799994
sS'ainbow'
p72
F0.0126117179742
sS'lewronggeneration'
p73
F0.0176450951404
sS'worldbuilding'
p74
F0.0090909090909099995
sS'PoliticalHumor'
p75
F0.0086479902557899998
sS'TheoryOfReddit'
p76
F0.019751082251100002
sS'RedditDayOf'
p77
F0.0114077974176
sS'TheBluePill'
p78
F0.035426731078900001
sS'ukpolitics'
p79
F0.0081989866421
sS'classic4chan'
p80
F0.0073140999593700002
sS'whatstheword'
p81
F0.00724269377382
sS'classicalmusic'
p82
F0.010635346342399999
sS'paradoxplaza'
p83
F0.011157705556399999
sS'QuotesPorn'
p84
F0.0077102470134700002
sS'ShitAmericansSay'
p85
F0.021159153633899998
sS'TrueReddit'
p86
F0.011842800030199999
sS'Catholicism'
p87
F0.014021312394799999
sS'misc'
p88
F0.0074296328046899998
sS'conspiratard'
p89
F0.0301022705345
sS'AskHistorians'
p90
F0.015662650602400002
sS'OutOfTheLoop'
p91
F0.00830868891705
sS'explainlikeIAmA'
p92
F0.010811818436000001
sS'collapse'
p93
F0.0070993914807300001
sS'occupywallstreet'
p94
F0.0096137339055799992
sS'NeutralPolitics'
p95
F0.016717083266999999
sS'SRSGaming'
p96
F0.023482959268500001
sS'worldpolitics'
p97
F0.0088014621008100005
sS'softwaregore'
p98
F0.0070593193551799997
sS'socialism'
p99
F0.025770167044400001
sS'Ask_Politics'
p100
F0.0100619195046
sS'AskScienceFiction'
p101
F0.010311176578899999
sS'Economics'
p102
F0.0115152096728
sS'crappymusic'
p103
F0.0070880094506800004
sS'TrueAskReddit'
p104
F0.013001945869400001
sS'PoliticalDiscussion'
p105
F0.017456533931599998
sS'blackladies'
p106
F0.0079160894518100003
sS'ShitPoliticsSays'
p107
F0.011824324324300001
sS'polandball'
p108
F0.0096192790603500007
sS'BasicIncome'
p109
F0.0140612076096
sS'ShitRedditSays'
p110
F0.026315789473699999
sS'SRSsucks'
p111
F0.0145395799677
sS'AskSocialScience'
p112
F0.0265944038316
sS'Shitstatistssay'
p113
F0.020231781575299999
sS'againstmensrights'
p114
F0.032348541510800001
sS'Frugal_Jerk'
p115
F0.0085875037015099992
sS'tolkienfans'
p116
F0.0075994635672799998
sS'FutureWhatIf'
p117
F0.0080012077294699998
sS'fifthworldproblems'
p118
F0.010550520762900001
sS'literature'
p119
F0.021318732525600001
sS'philosophy'
p120
F0.040082930200399998
sS'DebateAChristian'
p121
F0.020060060060099999
sS'EnoughLibertarianSpam'
p122
F0.063684126731400004
sS'law'
p123
F0.0083903045369799999
sS'Physics'
p124
F0.0095020361505999996
sS'truegaming'
p125
F0.0071143445789300002
sS'Sidehugs'
p126
F0.017615176151799999
sS'GirlGamers'
p127
F0.0074982425993899999
sS'TrueFilm'
p128
F0.011232691004199999
sS'HumanPorn'
p129
F0.0075888496506099998
sS'terriblefacebookmemes'
p130
F0.0077604109738799998
sS'TumblrInAction'
p131
F0.0082243583810399992
sS'thatHappened'
p132
F0.0081274382314700001
sS'HailCorporate'
p133
F0.0090843398368900003
s.