(dp1
S'MapPorn'
p2
F0.0094975986185299992
sS'Shitty_Car_Mods'
p3
F0.022113637787400001
sS'uglyduckling'
p4
F0.013698630137
sS'KitchenConfidential'
p5
F0.0098027495516999994
sS'BuyItForLife'
p6
F0.0095411483092300003
sS'spiders'
p7
F0.0087880645820600008
sS'relationships'
p8
F0.0077229675419899996
sS'AskMen'
p9
F0.0089747373714200007
sS'Showerthoughts'
p10
F0.0072786247161899997
sS'HistoryPorn'
p11
F0.013750177979399999
sS'holdmybeer'
p12
F0.021682754646300002
sS'ImaginaryMonsters'
p13
F0.0097416349004699997
sS'YouShouldKnow'
p14
F0.012319071293900001
sS'horror'
p15
F0.013440622512999999
sS'UpliftingNews'
p16
F0.0088032357839600006
sS'PandR'
p17
F0.0085297418630800002
sS'3amjokes'
p18
F0.0073291158771800003
sS'Military'
p19
F0.0081340719444599995
sS'photoshopbattles'
p20
F0.011199379965100001
sS'IWantToLearn'
p21
F0.0082400688722200008
sS'Celebs'
p22
F0.011270866333599999
sS'CrappyDesign'
p23
F0.0254978454321
sS'NewsOfTheWeird'
p24
F0.013446439851999999
sS'Libertarian'
p25
F0.0075243815797999998
sS'everymanshouldknow'
p26
F0.010934172467499999
sS'Whatisthis'
p27
F0.010073875083899999
sS'EatCheapAndHealthy'
p28
F0.0122355340301
sS'gentlemanboners'
p29
F0.0119243320166
sS'redditgetsdrawn'
p30
F0.013162214594799999
sS'fatpeoplestories'
p31
F0.018871819066400002
sS'forwardsfromgrandma'
p32
F0.025504536197000001
sS'no_sob_story'
p33
F0.0122590531494
sS'findareddit'
p34
F0.0131813323833
sS'skeptic'
p35
F0.0111608995104
sS'InteriorDesign'
p36
F0.0077078363002400004
sS'guns'
p37
F0.0078860563164899998
sS'disney'
p38
F0.0076647930505899997
sS'tattoos'
p39
F0.039885526737099997
sS'LetsNotMeet'
p40
F0.0138555068571
sS'transtimelines'
p41
F0.010232726614099999
sS'answers'
p42
F0.0084707220011399995
sS'lgbt'
p43
F0.0089648097765500003
sS'Random_Acts_Of_Pizza'
p44
F0.0070624292091399999
sS'doctorwho'
p45
F0.0080559123865099995
sS'TopGear'
p46
F0.0072984546639400004
sS'ThriftStoreHauls'
p47
F0.0172443425952
sS'vegetarian'
p48
F0.0081013309329399999
sS'piercing'
p49
F0.022156674440899998
sS'creepy'
p50
F0.012626686824599999
sS'Hair'
p51
F0.0096579769080000002
sS'vinyl'
p52
F0.0089462862090099998
sS'whatsthisbug'
p53
F0.0136818546514
sS'QuotesPorn'
p54
F0.010925841327899999
sS'TrueReddit'
p55
F0.0087556381002899999
sS'Assistance'
p56
F0.0074642895499900004
sS'confession'
p57
F0.0166524964086
sS'KingOfTheHill'
p58
F0.010402162339300001
sS'IdiotsFightingThings'
p59
F0.022165474974499999
sS'ContagiousLaughter'
p60
F0.0128615802757
sS'FiftyFifty'
p61
F0.016703758957199999
sS'Drugs'
p62
F0.0086646840694599991
sS'OutOfTheLoop'
p63
F0.016015132408599999
sS'stopsmoking'
p64
F0.0072081275895300003
sS'ifyoulikeblank'
p65
F0.0088947859845700007
sS'firstimpression'
p66
F0.0112864149382
sS'trailerparkboys'
p67
F0.0118849682862
sS'Pareidolia'
p68
F0.0195161728731
sS'tipofmytongue'
p69
F0.0092526111871199992
sS'LifeProTips'
p70
F0.0089982832222799992
sS'TheGirlSurvivalGuide'
p71
F0.0118476883231
sS'UFOs'
p72
F0.0070375335120599998
sS'ghettoglamourshots'
p73
F0.046879687968800002
sS'EDC'
p74
F0.0081861102649999993
sS'showerbeer'
p75
F0.011438136420700001
sS'techsupportgore'
p76
F0.0126274562766
sS'science'
p77
F0.0072738259765099999
sS'firstworldproblems'
p78
F0.0153366976818
sS'Glitch_in_the_Matrix'
p79
F0.0098939570754500005
sS'standupshots'
p80
F0.015975515420599998
sS'NewsOfTheStupid'
p81
F0.016457414319599999
sS'awesome'
p82
F0.010116148370199999
sS'TalesFromYourServer'
p83
F0.014735393612799999
sS'Pizza'
p84
F0.0116993852865
sS'hardbodies'
p85
F0.0097682320106800002
sS'techsupportmacgyver'
p86
F0.007744
sS'MURICA'
p87
F0.012923897383
sS'RealGirls'
p88
F0.0084696198418700002
sS'Hotchickswithtattoos'
p89
F0.010752688171999999
sS'Gore'
p90
F0.0177240448383
sS'RedditLaqueristas'
p91
F0.0188786435345
sS'spaceporn'
p92
F0.0087368215540799994
sS'nyc'
p93
F0.0070094276802300003
sS'wheredidthesodago'
p94
F0.0205703759296
sS'tattoo'
p95
F0.0300419538508
sS'budgetfood'
p96
F0.0088993307703299999
sS'Mommit'
p97
F0.0072633729288000002
sS'Images'
p98
F0.0132483529075
sS'vegan'
p99
F0.0080374402279000008
sS'dogpictures'
p100
F0.0139791750561
sS'MachinePorn'
p101
F0.0070153504202300002
sS'FanTheories'
p102
F0.0101550359582
sS'crafts'
p103
F0.013355592654400001
sS'tall'
p104
F0.0100795985465
sS'ImGoingToHellForThis'
p105
F0.0153955694077
sS'DoesAnybodyElse'
p106
F0.014085829655399999
sS'pettyrevenge'
p107
F0.019584623793000001
sS'malehairadvice'
p108
F0.0075984342620300004
sS'CityPorn'
p109
F0.0087411724035799995
sS'electronic_cigarette'
p110
F0.0070880361173799996
sS'actuallesbians'
p111
F0.0074771945566
sS'DeepIntoYouTube'
p112
F0.018052413273000001
sS'dataisbeautiful'
p113
F0.0071556597270099999
sS'BabyBumps'
p114
F0.0079500000000000005
sS'beards'
p115
F0.0155967383247
sS'nostalgia'
p116
F0.0219447840916
sS'Documentaries'
p117
F0.0088357790666
sS'StonerEngineering'
p118
F0.0080868630888399993
sS'WTF'
p119
F0.0090609761598100004
sS'MensRights'
p120
F0.0093309057806100007
sS'MilitaryPorn'
p121
F0.0084289123239200004
sS'Frisson'
p122
F0.0086984194335399997
sS'childfree'
p123
F0.017392614920899999
sS'food'
p124
F0.0083667558806700005
sS'whitepeoplegifs'
p125
F0.0190563806019
sS'NoStupidQuestions'
p126
F0.0138281560566
sS'creepyPMs'
p127
F0.031536486981999998
sS'WatchItForThePlot'
p128
F0.0110242338886
sS'freebies'
p129
F0.0132016668418
sS'PropagandaPosters'
p130
F0.0091330717088799994
sS'shittyadviceanimals'
p131
F0.00719716168272
sS'SubredditDrama'
p132
F0.0138665888192
sS'minimalism'
p133
F0.0097725853264299996
sS'wallpapers'
p134
F0.0100422985066
sS'mildlyinteresting'
p135
F0.0100792299468
sS'TrueAtheism'
p136
F0.0072371638141799999
sS'snakes'
p137
F0.0077966630282199998
sS'Rateme'
p138
F0.0100771492474
sS'malegrooming'
p139
F0.0071995298266200004
sS'TwoXChromosomes'
p140
F0.0076857967684899999
sS'Cinemagraphs'
p141
F0.0100625509927
sS'DunderMifflin'
p142
F0.0108695652174
sS'entertainment'
p143
F0.0086669220455899993
sS'shittyfoodporn'
p144
F0.026048774698900001
sS'LearnUselessTalents'
p145
F0.0118806143147
sS'RoomPorn'
p146
F0.0117282399263
sS'memes'
p147
F0.0120670251344
sS'CatsStandingUp'
p148
F0.0074327770895599998
sS'bestof'
p149
F0.0097526376451799995
sS'Metal'
p150
F0.0090284025189599996
sS'LadyBoners'
p151
F0.0170569631499
sS'corgi'
p152
F0.0097470854303400006
sS'Roadcam'
p153
F0.0091491919326800002
sS'GamePhysics'
p154
F0.0116464828652
sS'youtubehaiku'
p155
F0.0098165167836100006
sS'PoliticalHumor'
p156
F0.0086372360844500003
sS'recipes'
p157
F0.00883201153569
sS'TalesFromThePizzaGuy'
p158
F0.0084642366936099993
sS'punk'
p159
F0.0100353811515
sS'howtonotgiveafuck'
p160
F0.0088664314996700008
sS'MakeupAddicts'
p161
F0.0071870938145099997
sS'misc'
p162
F0.0078631647211400008
sS'rant'
p163
F0.0097423004399700003
sS'seinfeld'
p164
F0.0096663325218399997
sS'OldSchoolCool'
p165
F0.012111755089900001
sS'lego'
p166
F0.0089079048888300004
sS'ANormalDayInRussia'
p167
F0.0180015509028
sS'onetruegod'
p168
F0.0117986006311
sS'TheFacebookDelusion'
p169
F0.013482781026599999
sS'Autos'
p170
F0.0078592515758400001
sS'PenmanshipPorn'
p171
F0.017076023391800001
sS'shittyreactiongifs'
p172
F0.0134569172674
sS'alternativeart'
p173
F0.0075594811808700002
sS'shittyadvice'
p174
F0.0102849656076
sS'MeanJokes'
p175
F0.0081472540736299993
sS'dogs'
p176
F0.0097703784699000006
sS'ObscureMedia'
p177
F0.0092315582528399998
sS'CombatFootage'
p178
F0.0075761453800899997
sS'TrollYChromosome'
p179
F0.0141541444498
sS'Indiemakeupandmore'
p180
F0.0076483442595400002
sS'mildlyinfuriating'
p181
F0.021200217739899999
sS'Awwducational'
p182
F0.017266187050399999
sS'skyrim'
p183
F0.00819964903017
sS'worldpolitics'
p184
F0.0070301455698600001
sS'Justrolledintotheshop'
p185
F0.014984227129300001
sS'nononono'
p186
F0.022799531459199999
sS'knives'
p187
F0.0078749624286099992
sS'FoodPorn'
p188
F0.012771810322200001
sS'crappymusic'
p189
F0.016240526359600001
sS'teenagers'
p190
F0.0072383533572400001
sS'conspiracy'
p191
F0.010984679713499999
sS'HighQualityGifs'
p192
F0.010819165378700001
sS'self'
p193
F0.0113391932443
sS'Parenting'
p194
F0.0093833780160900004
sS'britishproblems'
p195
F0.0081422298121500009
sS'UnresolvedMysteries'
p196
F0.0107708279263
sS'conspiratard'
p197
F0.0190988759764
sS'firefly'
p198
F0.0070074420120599997
sS'RandomKindness'
p199
F0.0072283150548399996
sS'sewing'
p200
F0.0088879702356300001
sS'progresspics'
p201
F0.014689867137799999
sS'crochet'
p202
F0.010983555693499999
sS'TumblrInAction'
p203
F0.0162585432047
sS'secretsanta'
p204
F0.0096202213279700001
sS'Fishing'
p205
F0.00820092260379
sS'HailCorporate'
p206
F0.0086510946962099992
sS'IDAP'
p207
F0.0087023953127700008
sS'Heavymind'
p208
F0.0128312054918
sS'adventuretime'
p209
F0.0110214462901
sS'fffffffuuuuuuuuuuuu'
p210
F0.0096906180460800007
sS'RandomActsofMakeup'
p211
F0.0087055261165800008
sS'TheBluePill'
p212
F0.013481610337999999
sS'harrypotter'
p213
F0.0103092783505
sS'wicked_edge'
p214
F0.0073015311089500001
sS'shittybattlestations'
p215
F0.0092681132769400001
sS'whowouldwin'
p216
F0.0073049896365200003
sS'GrandTheftAutoV'
p217
F0.0080057746571299999
sS'MetalMemes'
p218
F0.0095334056735399998
sS'Anxiety'
p219
F0.0090743412559800007
sS'arresteddevelopment'
p220
F0.010196171963500001
sS'shutupandtakemymoney'
p221
F0.0146371718007
sS'webcomics'
p222
F0.0076843505246000001
sS'JusticePorn'
p223
F0.0153021468684
sS'trees'
p224
F0.00756983423242
sS'geek'
p225
F0.0097967405237100007
sS'spicy'
p226
F0.0070665571076400004
sS'Conservative'
p227
F0.0070483314154200002
sS'PrettyGirlsUglyFaces'
p228
F0.016889761020400001
sS'AbandonedPorn'
p229
F0.016281747808799998
sS'Rabbits'
p230
F0.0073566902177900004
sS'motorcycles'
p231
F0.0079209537808299993
sS'thatHappened'
p232
F0.025105676924900001
sS'futurama'
p233
F0.011805706817700001
sS'nsfw'
p234
F0.0081378459579399993
sS'cringe'
p235
F0.018572682070800001
sS'StarWars'
p236
F0.0104008555264
sS'RATS'
p237
F0.0086883171657499998
sS'AskWomen'
p238
F0.011527559055100001
sS'TheSimpsons'
p239
F0.0129749016746
sS'sex'
p240
F0.0090316220520200007
sS'see'
p241
F0.0105460937026
sS'glitch_art'
p242
F0.0085785235909399994
sS'changemyview'
p243
F0.0086604222420500008
sS'skateboarding'
p244
F0.0075418336083000002
sS'firstworldanarchists'
p245
F0.0172070988488
sS'PerfectTiming'
p246
F0.018806450282500001
sS'cosplay'
p247
F0.0109522360815
sS'AmericanHorrorStory'
p248
F0.0094978165938900006
sS'wikipedia'
p249
F0.0078203203203200001
sS'breakingbad'
p250
F0.0115250603055
sS'outside'
p251
F0.010219932957200001
sS'AskCulinary'
p252
F0.0073508076216300001
sS'foodhacks'
p253
F0.0130026639604
sS'StandUpComedy'
p254
F0.0074988687051499997
sS'tonightsdinner'
p255
F0.0084358523725800005
sS'legaladvice'
p256
F0.0080145024329699999
sS'facepalm'
p257
F0.026969649315899999
sS'celebnsfw'
p258
F0.0081981821422199997
sS'NotTimAndEric'
p259
F0.015892931827700001
sS'Unexpected'
p260
F0.018083607327400001
sS'RedditDayOf'
p261
F0.0078681153990300002
sS'relationship_advice'
p262
F0.0080509617579300006
sS'BustyPetite'
p263
F0.0078147473391500001
sS'Stretched'
p264
F0.0099858785555800005
sS'watchpeopledie'
p265
F0.018072519814700001
sS'GetMotivated'
p266
F0.0078102031164099996
sS'drunk'
p267
F0.0157672251535
sS'xxfitness'
p268
F0.0077356465748499997
sS'reactiongifs'
p269
F0.012786993905699999
sS'EarthPorn'
p270
F0.0070004973030899998
sS'femalefashionadvice'
p271
F0.0092068774265099997
sS'beer'
p272
F0.0078131563471400007
sS'ketorecipes'
p273
F0.0073903002309500003
sS'confessions'
p274
F0.0104596556141
sS'fatlogic'
p275
F0.023282314246499999
sS'MakeupAddiction'
p276
F0.014219968583799999
sS'Aquariums'
p277
F0.0099211150365399996
sS'somethingimade'
p278
F0.017247510668599999
sS'keto'
p279
F0.0077767279598799999
sS'curlyhair'
p280
F0.0108135204812
sS'shittyaskreddit'
p281
F0.0096987041895199994
sS'Perfectfit'
p282
F0.0156489312113
sS'offbeat'
p283
F0.015571222382599999
sS'softwaregore'
p284
F0.0079611388476600008
sS'ICanDrawThat'
p285
F0.011073198995699999
sS'Cooking'
p286
F0.0096069079319200008
sS'IASIP'
p287
F0.012830303955999999
sS'gamecollecting'
p288
F0.0081714378483699994
sS'bigboobproblems'
p289
F0.0093495607318399999
sS'DIY'
p290
F0.0084649460708800008
sS'ShitRedditSays'
p291
F0.0076695794304399998
sS'shorthairedhotties'
p292
F0.011460285426
sS'southpark'
p293
F0.012174929385399999
sS'cripplingalcoholism'
p294
F0.0090707964601800008
sS'pitbulls'
p295
F0.0096711798839500002
sS'daddit'
p296
F0.0086460123039399997
sS'itookapicture'
p297
F0.012406860677599999
sS'casualiama'
p298
F0.012285724022799999
sS'Whatcouldgowrong'
p299
F0.023636928493799999
sS'talesfromtechsupport'
p300
F0.0083713202402800006
sS'knitting'
p301
F0.0073371283997499996
sS'notinteresting'
p302
F0.015402567094500001
sS'AnimalsBeingJerks'
p303
F0.0210699588477
sS'girlsinyogapants'
p304
F0.0075058838496299997
sS'catpictures'
p305
F0.011914574747100001
sS'HumanPorn'
p306
F0.015125324114099999
sS'TimAndEric'
p307
F0.0077184316146999997
sS'Graffiti'
p308
F0.0091843943794600001
sS'drawing'
p309
F0.0134737494192
sS'EmmaWatson'
p310
F0.0083077352694799992
sS'Sonsofanarchy'
p311
F0.0081748324159399994
sS'FancyFollicles'
p312
F0.021817177575299999
sS'awwwtf'
p313
F0.020555633506399999
sS'PublicFreakout'
p314
F0.0215479514859
sS'ArtisanVideos'
p315
F0.0085702962449200008
sS'Dexter'
p316
F0.0074621612108400001
sS'rickandmorty'
p317
F0.0076278850312599998
sS'dadjokes'
p318
F0.0134470745287
sS'woodworking'
p319
F0.0081752998726799999
sS'perfectloops'
p320
F0.014856880628699999
sS'Pets'
p321
F0.0087557603686599997
sS'InternetIsBeautiful'
p322
F0.0090265668273700004
sS'carporn'
p323
F0.0093774796220200008
sS'BeardPorn'
p324
F0.0113868116927
sS'TalesFromRetail'
p325
F0.0167560475982
sS'WouldYouRather'
p326
F0.0092230637674100002
sS'quityourbullshit'
p327
F0.033289608962300002
sS'ProtectAndServe'
p328
F0.0092785457299799992
sS'woahdude'
p329
F0.0137656775772
sS'Fallout'
p330
F0.0083214403337400003
sS'thesims'
p331
F0.0082316920142499993
sS'offmychest'
p332
F0.0130262436749
sS'AmIFreeToGo'
p333
F0.0072281328677000004
sS'slowcooking'
p334
F0.012029051293700001
sS'howto'
p335
F0.0111422172452
sS'cringepics'
p336
F0.023561705747900001
sS'toosoon'
p337
F0.0136314799893
sS'nonononoyes'
p338
F0.017745205052200001
sS'thewalkingdead'
p339
F0.0093030297932499995
sS'gifs'
p340
F0.0074812213669399998
sS'Art'
p341
F0.0094269957735599996
sS'ConfusedBoners'
p342
F0.014050353041900001
sS'Paranormal'
p343
F0.0095617118048400007
sS'4chan'
p344
F0.0114800615158
sS'zombies'
p345
F0.010223686016200001
sS'ArcherFX'
p346
F0.0115521327014
sS'gardening'
p347
F0.0091919779101900002
sS'whatisthisthing'
p348
F0.019329618590999999
sS'NetflixBestOf'
p349
F0.012380140084300001
sS'tumblr'
p350
F0.015726361313199998
sS'interestingasfuck'
p351
F0.017669893529599998
sS'MarkMyWords'
p352
F0.0111033465331
sS'humor'
p353
F0.0097640358014599998
sS'AMA'
p354
F0.0095509428842799997
sS'SkincareAddiction'
p355
F0.0120577746992
sS'ExpectationVsReality'
p356
F0.030244189467500002
sS'aww'
p357
F0.0080099796467700008
sS'lifehacks'
p358
F0.016917618553099999
sS'blackpeoplegifs'
p359
F0.0172392254841
sS'FloridaMan'
p360
F0.022465178972599999
sS'delusionalartists'
p361
F0.052227497727
sS'OkCupid'
p362
F0.0091402714932100008
sS'Frugal'
p363
F0.0118143459916
sS'promos'
p364
F0.0073197730731999998
sS'shittyaskscience'
p365
F0.0108051670552
sS'lewronggeneration'
p366
F0.019651988094300001
sS'calvinandhobbes'
p367
F0.0078363660512699995
sS'netflix'
p368
F0.0093548671785399998
sS'sixwordstories'
p369
F0.0075795435615500003
sS'AnimalsBeingBros'
p370
F0.019342872284000001
sS'classic4chan'
p371
F0.013918345705199999
sS'NSFWFunny'
p372
F0.0122918834547
sS'amiugly'
p373
F0.010242269056499999
sS'marijuanaenthusiasts'
p374
F0.0071810287241100001
sS'TrollXChromosomes'
p375
F0.016756539235399999
sS'tifu'
p376
F0.0091780238500900006
sS'badhistory'
p377
F0.0072997294065800002
sS'Damnthatsinteresting'
p378
F0.017478574650400001
sS'loseit'
p379
F0.010826471485200001
sS'CrazyIdeas'
p380
F0.015021398407199999
sS'TinyHouses'
p381
F0.0071106730498499996
sS'Bad_Cop_No_Donut'
p382
F0.014486578611000001
sS'MorbidReality'
p383
F0.021594947597200001
sS'gif'
p384
F0.014914914914900001
sS'cats'
p385
F0.016419105868600001
sS'raisedbynarcissists'
p386
F0.0147247329499
sS'happy'
p387
F0.012070400761099999
sS'explainlikeIAmA'
p388
F0.0070750325823900001
sS'misleadingthumbnails'
p389
F0.0216663830753
sS'batman'
p390
F0.0104528464159
sS'snackexchange'
p391
F0.0097374776037999992
sS'beerporn'
p392
F0.0072729533163399997
sS'HipHopImages'
p393
F0.0081071554458899998
sS'blunderyears'
p394
F0.038232170574299999
sS'Marvel'
p395
F0.0075026795283999999
sS'Random_Acts_Of_Amazon'
p396
F0.0092527524010300004
sS'rage'
p397
F0.026877785909100001
sS'comics'
p398
F0.0110837732604
sS'behindthegifs'
p399
F0.01494973795
sS'lookatmydog'
p400
F0.0077814283243999999
sS'fullmoviesonyoutube'
p401
F0.0132528099312
sS'TrueAskReddit'
p402
F0.00748055056852
sS'bestofworldstar'
p403
F0.0143659396631
sS'DAE'
p404
F0.0078459343794600005
sS'ForeverAlone'
p405
F0.0086052159222900007
sS'eatsandwiches'
p406
F0.010256037241799999
sS'bicycling'
p407
F0.0075157760393300002
sS'shittyama'
p408
F0.0088317423209299997
sS'TheWayWeWere'
p409
F0.015418840135
sS'popping'
p410
F0.022193938429700001
sS'nottheonion'
p411
F0.0106425041186
sS'Frugal_Jerk'
p412
F0.0127065858317
sS'Baking'
p413
F0.011030898065300001
sS'comicbooks'
p414
F0.0086584548781100008
sS'oddlysatisfying'
p415
F0.017895380850399999
sS'GirlGamers'
p416
F0.0078840004410599997
sS'cosplaygirls'
p417
F0.0116826220996
sS'atheism'
p418
F0.00881648174194
sS'terriblefacebookmemes'
p419
F0.025781524411700001
sS'PrettyGirls'
p420
F0.0078967087440200007
sS'urbanexploration'
p421
F0.0097106109324799992
s.