(dp1
S'BostonBruins'
p2
F0.0083923908989200005
sS'NYGiants'
p3
F0.0075201119272500002
sS'bostonceltics'
p4
F0.00762582613116
sS'sportsbook'
p5
F0.0093155123531800006
sS'Patriots'
p6
F0.0079886102981900006
sS'redsox'
p7
F0.0110701107011
s.