(dp1
S'cripplingalcoholism'
p2
F0.0087698783910199994
sS'TalesFromYourServer'
p3
F0.036484381405299998
sS'alcohol'
p4
F0.032089552238800001
sS'KitchenConfidential'
p5
F0.020957309184999998
sS'Whiskyporn'
p6
F0.0072007200720100003
sS'drunk'
p7
F0.0083595700792500009
sS'beerporn'
p8
F0.0099655734734600005
sS'cocktails'
p9
F0.108772406301
sS'whiskey'
p10
F0.018857142857099999
sS'beer'
p11
F0.0106515062406
sS'AskCulinary'
p12
F0.0074726959187600001
sS'bourbon'
p13
F0.021146616541400001
sS'Scotch'
p14
F0.0127574083375
sS'wine'
p15
F0.0118091064037
s.