(dp1
S'inthenews'
p2
F0.016867250182299998
sS'BuyItForLife'
p3
F0.0139327512539
sS'SampleSize'
p4
F0.0070854231351000002
sS'everymanshouldknow'
p5
F0.0136657625704
sS'askphilosophy'
p6
F0.016131673763499998
sS'financialindependence'
p7
F0.020413045211699999
sS'AskMen'
p8
F0.0077906310073900002
sS'syriancivilwar'
p9
F0.0104436140653
sS'JoeRogan'
p10
F0.0082901554404100006
sS'HistoryPorn'
p11
F0.012119262119299999
sS'holdmybeer'
p12
F0.0079579756164499995
sS'ImaginaryMonsters'
p13
F0.0085706865206499998
sS'dwarffortress'
p14
F0.0097048657271999999
sS'YouShouldKnow'
p15
F0.0149833372694
sS'UpliftingNews'
p16
F0.0124563772066
sS'vegan'
p17
F0.0085208908738299994
sS'anonymous'
p18
F0.010133818370799999
sS'Military'
p19
F0.0074108383510900003
sS'GunsAreCool'
p20
F0.0112187659357
sS'IWantToLearn'
p21
F0.0134885439763
sS'litecoin'
p22
F0.0076779897626800004
sS'CrappyDesign'
p23
F0.0098118279569899998
sS'Cyberpunk'
p24
F0.0193869381219
sS'Libertarian'
p25
F0.024403373407500002
sS'starcitizen'
p26
F0.0075511962900599999
sS'Anarcho_Capitalism'
p27
F0.030187176423699998
sS'polyamory'
p28
F0.00907501456998
sS'Paleo'
p29
F0.0080827291097100001
sS'pcgaming'
p30
F0.00795288552946
sS'EatCheapAndHealthy'
p31
F0.0104082944864
sS'SelfDrivingCars'
p32
F0.0424648359009
sS'OneY'
p33
F0.013438654082900001
sS'forwardsfromgrandma'
p34
F0.012407849652199999
sS'findareddit'
p35
F0.0093863827402599995
sS'skeptic'
p36
F0.023517767932899999
sS'boardgames'
p37
F0.0076366831114399996
sS'socialskills'
p38
F0.0114063019818
sS'DebateReligion'
p39
F0.014466681658
sS'Anticonsumption'
p40
F0.031483208955200001
sS'gamedev'
p41
F0.0095556455969699992
sS'worldnews'
p42
F0.0081235862068999992
sS'vexillology'
p43
F0.0114245907349
sS'Economics'
p44
F0.045260985995899998
sS'AskTechnology'
p45
F0.0081300813008099992
sS'answers'
p46
F0.012552020405400001
sS'lgbt'
p47
F0.0089434591481000001
sS'ainbow'
p48
F0.011979329783900001
sS'sanfrancisco'
p49
F0.0090740622403999993
sS'vegetarian'
p50
F0.0071135854016900002
sS'personalfinance'
p51
F0.0084988907237799997
sS'IWantOut'
p52
F0.015725311981500002
sS'QuotesPorn'
p53
F0.015982996811900001
sS'firefox'
p54
F0.0094655320776400008
sS'TrueReddit'
p55
F0.0316926770708
sS'AmIFreeToGo'
p56
F0.0154166666667
sS'IdiotsFightingThings'
p57
F0.0108891865137
sS'Health'
p58
F0.0117077109407
sS'Firearms'
p59
F0.0078864353312300007
sS'gamernews'
p60
F0.0098929531733500005
sS'Multicopter'
p61
F0.0071631922123199998
sS'environment'
p62
F0.027202838557100002
sS'eldertrees'
p63
F0.0112468646331
sS'AskHistorians'
p64
F0.016337517656799999
sS'OutOfTheLoop'
p65
F0.013734495995
sS'misleadingthumbnails'
p66
F0.0072796432318999998
sS'WebGames'
p67
F0.0075471698113200002
sS'Pareidolia'
p68
F0.0075093867334199999
sS'cordcutters'
p69
F0.013865546218500001
sS'LifeProTips'
p70
F0.0082334528332200004
sS'UFOs'
p71
F0.0074924668132599999
sS'techsupportgore'
p72
F0.0085217840410199992
sS'science'
p73
F0.0147026012735
sS'firstworldproblems'
p74
F0.0102339820687
sS'Entrepreneur'
p75
F0.0125396585587
sS'standupshots'
p76
F0.013610947616200001
sS'legaladvice'
p77
F0.0082480525431499994
sS'Meditation'
p78
F0.014687605920200001
sS'history'
p79
F0.0116893474902
sS'AskScienceFiction'
p80
F0.0173364436433
sS'StandUpComedy'
p81
F0.0073225831580599997
sS'awesome'
p82
F0.0075383899488099997
sS'DecidingToBeBetter'
p83
F0.015023275497200001
sS'techsupportmacgyver'
p84
F0.0092506938020399995
sS'gadgets'
p85
F0.0096372904135199992
sS'ShitPoliticsSays'
p86
F0.00713038416764
sS'learnprogramming'
p87
F0.0097641358616800001
sS'Infographics'
p88
F0.012103012103000001
sS'polandball'
p89
F0.011246049941099999
sS'Ask_Politics'
p90
F0.018716283166400002
sS'HouseOfCards'
p91
F0.0088255261371399992
sS'netsec'
p92
F0.0113989637306
sS'MURICA'
p93
F0.00814225125309
sS'technology'
p94
F0.0110746455261
sS'scifi'
p95
F0.0172023985058
sS'spaceporn'
p96
F0.010660382651599999
sS'nyc'
p97
F0.0080009276437799995
sS'SRSsucks'
p98
F0.012397562513100001
sS'economy'
p99
F0.030917780161899999
sS'kickstarter'
p100
F0.00868465430017
sS'askscience'
p101
F0.0134376426747
sS'philosophy'
p102
F0.021524312689599999
sS'budgetfood'
p103
F0.0088472319551499996
sS'law'
p104
F0.011607142857099999
sS'MachinePorn'
p105
F0.010063107624100001
sS'oculus'
p106
F0.0136811023622
sS'Shitstatistssay'
p107
F0.018644721614999998
sS'Pizza'
p108
F0.0070041388093000003
sS'paradoxplaza'
p109
F0.0087632069608499993
sS'pettyrevenge'
p110
F0.0077885680766499998
sS'CityPorn'
p111
F0.0093139482053600006
sS'zen'
p112
F0.012307324650500001
sS'PurplePillDebate'
p113
F0.0071933820884800001
sS'dataisbeautiful'
p114
F0.017018940433699999
sS'japan'
p115
F0.0077343568271700004
sS'islam'
p116
F0.0078630575464499995
sS'linguistics'
p117
F0.0122396044419
sS'badlinguistics'
p118
F0.0077967806841000003
sS'Documentaries'
p119
F0.013727430126100001
sS'writing'
p120
F0.0111498691915
sS'gamedesign'
p121
F0.0091087282370600001
sS'bikecommuting'
p122
F0.0071292298423499996
sS'MensRights'
p123
F0.016977507900100001
sS'Frisson'
p124
F0.010997158037799999
sS'childfree'
p125
F0.0112841858801
sS'smallbusiness'
p126
F0.0082739765450800008
sS'DebateAnAtheist'
p127
F0.013036287576599999
sS'NoStupidQuestions'
p128
F0.0110431324564
sS'occult'
p129
F0.0073285814677199997
sS'Liberal'
p130
F0.024674589700099999
sS'freebies'
p131
F0.00743693935444
sS'PropagandaPosters'
p132
F0.018257555614600001
sS'SubredditDrama'
p133
F0.015409414519000001
sS'minimalism'
p134
F0.0153751789
sS'aspergers'
p135
F0.0088845014807500001
sS'TrueAtheism'
p136
F0.020937642239399999
sS'badhistory'
p137
F0.018690875801000002
sS'energy'
p138
F0.0242961820285
sS'CryptoCurrency'
p139
F0.010853049707
sS'Anarchism'
p140
F0.033546575128699997
sS'Cinemagraphs'
p141
F0.0083464176514300003
sS'canada'
p142
F0.0108988412152
sS'psychology'
p143
F0.019097105067800001
sS'space'
p144
F0.0150653531872
sS'LearnUselessTalents'
p145
F0.0094891316341199992
sS'China'
p146
F0.0094905094905100001
sS'RoomPorn'
p147
F0.012145748987899999
sS'electronics'
p148
F0.0081471135940400004
sS'Astronomy'
p149
F0.010263929618800001
sS'math'
p150
F0.011395300478299999
sS'bestof'
p151
F0.0157788719785
sS'ontario'
p152
F0.0074870821469999998
sS'conservatives'
p153
F0.0079519879970000006
sS'GamePhysics'
p154
F0.0078361531611800001
sS'Seattle'
p155
F0.0078417266187100002
sS'PoliticalHumor'
p156
F0.016903750230899999
sS'CanadaPolitics'
p157
F0.0148770367372
sS'programming'
p158
F0.0151596538347
sS'howtonotgiveafuck'
p159
F0.010702195042
sS'whatstheword'
p160
F0.0070888468809099997
sS'classicalmusic'
p161
F0.0071539199056000003
sS'misc'
p162
F0.00928888430179
sS'patientgamers'
p163
F0.011552205198500001
sS'Buddhism'
p164
F0.0126833415999
sS'privacy'
p165
F0.021439012506099999
sS'ANormalDayInRussia'
p166
F0.010928961748600001
sS'seduction'
p167
F0.0070894181449900001
sS'TheFacebookDelusion'
p168
F0.0076930967278700003
sS'ObscureMedia'
p169
F0.0084839136183299992
sS'CombatFootage'
p170
F0.0091259259259299993
sS'nutrition'
p171
F0.0074615616521000001
sS'TrollYChromosome'
p172
F0.0090030378348500001
sS'DaystromInstitute'
p173
F0.0137233296604
sS'mildlyinfuriating'
p174
F0.0080178779047800006
sS'DumpsterDiving'
p175
F0.0071216617210700002
sS'BitcoinMarkets'
p176
F0.0114019700445
sS'Psychonaut'
p177
F0.0144163992528
sS'learnpython'
p178
F0.0073929644975200002
sS'POLITIC'
p179
F0.018289085545699999
sS'worldpolitics'
p180
F0.028106701366299999
sS'TheRedPill'
p181
F0.0096744061916199994
sS'nononono'
p182
F0.010946704392599999
sS'KerbalSpaceProgram'
p183
F0.0085423132914000006
sS'russia'
p184
F0.0089007950224699994
sS'changemyview'
p185
F0.026875410292599999
sS'gallifrey'
p186
F0.00710672127198
sS'urbanplanning'
p187
F0.0134884296498
sS'sysadmin'
p188
F0.0084988684938399998
sS'conspiracy'
p189
F0.0158670056436
sS'AnythingGoesNews'
p190
F0.014333993707
sS'collapse'
p191
F0.031986352489600002
sS'Nootropics'
p192
F0.0145932141554
sS'HighQualityGifs'
p193
F0.0075832046060899999
sS'Fantasy'
p194
F0.0076597781855899999
sS'self'
p195
F0.0108704955919
sS'Parenting'
p196
F0.0074335391205699996
sS'britishproblems'
p197
F0.0073217598727799999
sS'conspiratard'
p198
F0.015990893321799999
sS'FutureWhatIf'
p199
F0.016646848989299998
sS'firefly'
p200
F0.0072289156626499998
sS'badphilosophy'
p201
F0.0140612076096
sS'Futurology'
p202
F0.032647499659400003
sS'Games'
p203
F0.00825510637294
sS'INTP'
p204
F0.0093138511492799995
sS'Gaming4Gamers'
p205
F0.0070710016037300004
sS'AskEngineers'
p206
F0.0120708676747
sS'windows'
p207
F0.0070355838181599996
sS'investing'
p208
F0.013791467588400001
sS'TumblrInAction'
p209
F0.010957080501300001
sS'HailCorporate'
p210
F0.0189063645995
sS'Heavymind'
p211
F0.0079048349961599994
sS'Awwducational'
p212
F0.010731958100400001
sS'PanicHistory'
p213
F0.013676588897799999
sS'fffffffuuuuuuuuuuuu'
p214
F0.0071312143439300002
sS'PoliticalDiscussion'
p215
F0.042445129693499999
sS'spacex'
p216
F0.0155404740828
sS'Foodforthought'
p217
F0.033784993732499997
sS'languagelearning'
p218
F0.0082566813935
sS'TheoryOfReddit'
p219
F0.021390906377500001
sS'TheBluePill'
p220
F0.0125277983692
sS'printSF'
p221
F0.0080416272469299999
sS'whowouldwin'
p222
F0.00810342023958
sS'shutupandtakemymoney'
p223
F0.010108003323200001
sS'JusticePorn'
p224
F0.0092176103414400006
sS'geek'
p225
F0.013150009987299999
sS'lostgeneration'
p226
F0.066118047673100006
sS'homestead'
p227
F0.013088745661900001
sS'AbandonedPorn'
p228
F0.0102001873504
sS'progressive'
p229
F0.037331455021100003
sS'dadjokes'
p230
F0.00714538379908
sS'progun'
p231
F0.0079673339308799999
sS'Marijuana'
p232
F0.0093821915383300002
sS'thatHappened'
p233
F0.0074469608625400002
sS'architecture'
p234
F0.0090975550320899993
sS'Christianity'
p235
F0.0085402184707099992
sS'Justrolledintotheshop'
p236
F0.0070030283365799997
sS'AskScienceDiscussion'
p237
F0.010889476897999999
sS'torrents'
p238
F0.0076545469672999996
sS'Android'
p239
F0.0077308973831000001
sS'againstmensrights'
p240
F0.011154694778100001
sS'firstworldanarchists'
p241
F0.0100520833333
sS'PerfectTiming'
p242
F0.0090613701890099995
sS'truegaming'
p243
F0.0144655213553
sS'wikipedia'
p244
F0.016545784224799999
sS'outside'
p245
F0.014440765268599999
sS'AskCulinary'
p246
F0.0082094519636100004
sS'NeutralPolitics'
p247
F0.031112116755299998
sS'Republican'
p248
F0.0088154954060099995
sS'Anarchy101'
p249
F0.018903050264899999
sS'AskFeminists'
p250
F0.0097387717690200007
sS'europe'
p251
F0.016862425863500001
sS'glitch_art'
p252
F0.0090115460433700008
sS'jobs'
p253
F0.011638880151
sS'LucidDreaming'
p254
F0.0074552683896599997
sS'casualiama'
p255
F0.0078850627786000004
sS'cscareerquestions'
p256
F0.0082167222747900007
sS'javascript'
p257
F0.0082017216837300001
sS'NotTimAndEric'
p258
F0.0080084299262400006
sS'news'
p259
F0.0082610976902800001
sS'Unexpected'
p260
F0.0084888270866299992
sS'RedditDayOf'
p261
F0.012567998499299999
sS'arduino'
p262
F0.0079921480650600001
sS'Design'
p263
F0.0084224903255199993
sS'ukpolitics'
p264
F0.014920941281300001
sS'GetMotivated'
p265
F0.0092863671890499998
sS'robotics'
p266
F0.018337975858899999
sS'startrek'
p267
F0.0136187580692
sS'rpg'
p268
F0.0119335725611
sS'linux'
p269
F0.0124012833169
sS'3Dprinting'
p270
F0.0113173694017
sS'chrome'
p271
F0.0079226631777899997
sS'California'
p272
F0.0111766809728
sS'HomeImprovement'
p273
F0.00717206668764
sS'web_design'
p274
F0.0088013257226999993
sS'fatlogic'
p275
F0.0090894157586399998
sS'roguelikes'
p276
F0.0070501342882700003
sS'MapPorn'
p277
F0.012997101229599999
sS'IndieGaming'
p278
F0.0085822176450400002
sS'Flipping'
p279
F0.0083721733126199994
sS'offbeat'
p280
F0.0155314819248
sS'softwaregore'
p281
F0.0072142974258099998
sS'socialism'
p282
F0.049866554291299998
sS'Glitch_in_the_Matrix'
p283
F0.0088899286466299996
sS'Cooking'
p284
F0.0071925197794300002
sS'FanTheories'
p285
F0.0094972067039100008
sS'hardware'
p286
F0.0099567666710299995
sS'exmormon'
p287
F0.0074919728861900002
sS'webdev'
p288
F0.0097978510289600008
sS'ShitRedditSays'
p289
F0.0098912715191799994
sS'finance'
p290
F0.0115787826631
sS'Israel'
p291
F0.0088992569552399994
sS'productivity'
p292
F0.0089543329021999993
sS'Python'
p293
F0.0088716047882399993
sS'Whatcouldgowrong'
p294
F0.0099945235487399996
sS'fifthworldproblems'
p295
F0.0089029577604100001
sS'talesfromtechsupport'
p296
F0.010561309873800001
sS'literature'
p297
F0.00797965626096
sS'AnimalsBeingJerks'
p298
F0.0096835059987900006
sS'DebateAChristian'
p299
F0.0091743119266099998
sS'linux_gaming'
p300
F0.0086260560249000005
sS'Physics'
p301
F0.0146864090526
sS'TrueFilm'
p302
F0.0097362772155799998
sS'HumanPorn'
p303
F0.0114063675107
sS'preppers'
p304
F0.0093980992608199993
sS'chemistry'
p305
F0.0072590401935699999
sS'Piracy'
p306
F0.0097464127786300002
sS'circlebroke'
p307
F0.0122828040743
sS'PublicFreakout'
p308
F0.0092819210344000005
sS'ArtisanVideos'
p309
F0.0098100724348400004
sS'Bitcoin'
p310
F0.012374027299400001
sS'Conservative'
p311
F0.017975034674099999
sS'quotes'
p312
F0.011004016064299999
sS'futurama'
p313
F0.0078879035813999993
sS'perfectloops'
p314
F0.0079764059253300008
sS'InternetIsBeautiful'
p315
F0.0088995900702499992
sS'startups'
p316
F0.010265962054899999
sS'TalesFromRetail'
p317
F0.0070335427227099998
sS'ShitRConservativeSays'
p318
F0.0102632753235
sS'quityourbullshit'
p319
F0.0108363858364
sS'ProtectAndServe'
p320
F0.012860166042700001
sS'woahdude'
p321
F0.0083416173228999992
sS'australia'
p322
F0.0080830472277000007
sS'slowcooking'
p323
F0.0082648870636599994
sS'howto'
p324
F0.0095681237302599996
sS'toosoon'
p325
F0.00761318538916
sS'bodyweightfitness'
p326
F0.0088058988913099993
sS'4chan'
p327
F0.0074722151287400004
sS'compsci'
p328
F0.013457269700299999
sS'Enhancement'
p329
F0.0115934449093
sS'ArcherFX'
p330
F0.0078728954232899998
sS'getdisciplined'
p331
F0.0130800022552
sS'google'
p332
F0.0102801676594
sS'gardening'
p333
F0.0084293340826100006
sS'whatisthisthing'
p334
F0.0085816502128400005
sS'HPMOR'
p335
F0.010422306442900001
sS'NetflixBestOf'
p336
F0.0096496806480999998
sS'crypto'
p337
F0.0100619195046
sS'interestingasfuck'
p338
F0.0108051236661
sS'MarkMyWords'
p339
F0.0087565674255699992
sS'FeMRADebates'
p340
F0.0125534188034
sS'humor'
p341
F0.0131338712527
sS'ExpectationVsReality'
p342
F0.0079386619622699994
sS'nonononoyes'
p343
F0.0114709851552
sS'facepalm'
p344
F0.00765581021311
sS'lifehacks'
p345
F0.0099280444484900008
sS'SCP'
p346
F0.0073727933541000001
sS'biology'
p347
F0.0080161821995800003
sS'business'
p348
F0.0149664794347
sS'FloridaMan'
p349
F0.0144539919194
sS'delusionalartists'
p350
F0.0093841967904900007
sS'OkCupid'
p351
F0.0070336318025800001
sS'Frugal'
p352
F0.01380798274
sS'promos'
p353
F0.0088741226556199992
sS'shittyaskscience'
p354
F0.0083827067863700006
sS'lewronggeneration'
p355
F0.0088870257807599998
sS'worldbuilding'
p356
F0.0146301645109
sS'bayarea'
p357
F0.0071358822203900002
sS'DrugNerds'
p358
F0.011392699372199999
sS'wheredidthesodago'
p359
F0.0093669011477199998
sS'AnimalsBeingBros'
p360
F0.0094977168949799996
sS'EnoughLibertarianSpam'
p361
F0.033728850801999999
sS'ShitAmericansSay'
p362
F0.0127292340885
sS'Scotland'
p363
F0.0096355257645599993
sS'intj'
p364
F0.0082945736434100002
sS'marijuanaenthusiasts'
p365
F0.0072805139186299999
sS'ADHD'
p366
F0.0080347448425600008
sS'confession'
p367
F0.0079317616694499996
sS'unitedkingdom'
p368
F0.0116732593842
sS'Damnthatsinteresting'
p369
F0.010220125786199999
sS'DnD'
p370
F0.0077420558423
sS'CrazyIdeas'
p371
F0.014998928648000001
sS'TinyHouses'
p372
F0.0184440559441
sS'Bad_Cop_No_Donut'
p373
F0.023303334637599999
sS'linux4noobs'
p374
F0.0071662390515800003
sS'MorbidReality'
p375
F0.010106534766499999
sS'introvert'
p376
F0.011223944414799999
sS'Ubuntu'
p377
F0.0095627418059700004
sS'raisedbynarcissists'
p378
F0.0078574234794100001
sS'happy'
p379
F0.0076448309720899997
sS'explainlikeIAmA'
p380
F0.011702444842
sS'occupywallstreet'
p381
F0.034114114114100001
sS'teslamotors'
p382
F0.017042330951099999
sS'ProgrammerHumor'
p383
F0.0121312918848
sS'webcomics'
p384
F0.0099301213681500002
sS'MachineLearning'
p385
F0.0087336244541499995
sS'rage'
p386
F0.0102293503668
sS'comics'
p387
F0.012324572595
sS'forhire'
p388
F0.0070529299321099997
sS'behindthegifs'
p389
F0.0088997931399400002
sS'civ'
p390
F0.0082965841991199992
sS'RealEstate'
p391
F0.0079263787196899999
sS'fullmoviesonyoutube'
p392
F0.010572811428
sS'TrueAskReddit'
p393
F0.024638728323699999
sS'engineering'
p394
F0.0104608425219
sS'politics'
p395
F0.0165260645373
sS'education'
p396
F0.0120568009288
sS'ForeverAlone'
p397
F0.0092018894546299999
sS'bicycling'
p398
F0.0077392356559399999
sS'Survival'
p399
F0.0084874475118399996
sS'AskSocialScience'
p400
F0.030030314513099999
sS'ImaginaryLandscapes'
p401
F0.0105780128447
sS'TheWayWeWere'
p402
F0.0090579710144899992
sS'Feminism'
p403
F0.0139068100358
sS'nottheonion'
p404
F0.012193065299500001
sS'Frugal_Jerk'
p405
F0.011021619330199999
sS'raspberry_pi'
p406
F0.0078621805989099996
sS'stocks'
p407
F0.0071334863889799998
sS'oddlysatisfying'
p408
F0.0085275825008400002
sS'GirlGamers'
p409
F0.0076734588599399996
sS'entertainment'
p410
F0.00893248575186
sS'atheism'
p411
F0.0099686283353100005
sS'urbanexploration'
p412
F0.0075681519808499997
s.