(dp1
S'Heavymind'
p2
F0.0074941451990600001
sS'DoesAnybodyElse'
p3
F0.00765617236551
sS'livesound'
p4
F0.014491532563799999
sS'postrock'
p5
F0.0085171102661599999
sS'BuyItForLife'
p6
F0.0081967213114800003
sS'woodworking'
p7
F0.00738491048593
sS'DeepIntoYouTube'
p8
F0.0085432639649500007
sS'everymanshouldknow'
p9
F0.0089274869427900007
sS'audioengineering'
p10
F0.031468012468499999
sS'nostalgia'
p11
F0.0073774971157900002
sS'HistoryPorn'
p12
F0.0073101713567000001
sS'holdmybeer'
p13
F0.0081226520458899994
sS'Fallout'
p14
F0.0074047279613600001
sS'piano'
p15
F0.0115053971948
sS'MetalMemes'
p16
F0.017538916672499998
sS'beatles'
p17
F0.0128482748665
sS'YouShouldKnow'
p18
F0.0074697205334799998
sS'ukulele'
p19
F0.0100775813805
sS'progrockmusic'
p20
F0.0144022644023
sS'NoStupidQuestions'
p21
F0.0078180140072799994
sS'cringepics'
p22
F0.0070561707476700002
sS'Djent'
p23
F0.0112127957787
sS'beards'
p24
F0.0082532504239699999
sS'IWantToLearn'
p25
F0.0073572120038699999
sS'dadjokes'
p26
F0.0086463369282300008
sS'CrappyDesign'
p27
F0.0074762284967699998
sS'WeAreTheMusicMakers'
p28
F0.041476590636299999
sS'futurama'
p29
F0.0075215631770400001
sS'cringe'
p30
F0.0079570363875499997
sS'StarWars'
p31
F0.0079121100639999997
sS'whatisthisthing'
p32
F0.0076687116564400004
sS'NetflixBestOf'
p33
F0.0089483234321799995
sS'TheSimpsons'
p34
F0.0077477958856500004
sS'interestingasfuck'
p35
F0.0078788067898199997
sS'mathrock'
p36
F0.0105290411668
sS'skateboarding'
p37
F0.0090744101633399993
sS'radiohead'
p38
F0.0101158973672
sS'firstworldanarchists'
p39
F0.0086127779738799995
sS'nononono'
p40
F0.0075949367088600003
sS'Coffee'
p41
F0.00760071888573
sS'truegaming'
p42
F0.0074058400338600002
sS'poppunkers'
p43
F0.0092186989212200005
sS'shittyfoodporn'
p44
F0.0070765271872900003
sS'Muse'
p45
F0.0071663434786299997
sS'breakingbad'
p46
F0.0075383348770199999
sS'LearnUselessTalents'
p47
F0.0082469580892300005
sS'lifehacks'
p48
F0.0072380873146299998
sS'LetsTalkMusic'
p49
F0.0154725866128
sS'tattoos'
p50
F0.0074356458065999997
sS'StandUpComedy'
p51
F0.0071661237784999996
sS'Metal'
p52
F0.0285123449054
sS'longboarding'
p53
F0.0079630999521299994
sS'NotTimAndEric'
p54
F0.0090366394654700002
sS'delusionalartists'
p55
F0.0075613510821299999
sS'vinyl'
p56
F0.019247442344400002
sS'drums'
p57
F0.0293596693683
sS'shittyaskscience'
p58
F0.0077247191011200001
sS'pinkfloyd'
p59
F0.0115886045389
sS'lewronggeneration'
p60
F0.0093974175035899995
sS'RedHotChiliPeppers'
p61
F0.018541511464300001
sS'youtubehaiku'
p62
F0.0071273823354000001
sS'headphones'
p63
F0.0074952944339899998
sS'punk'
p64
F0.019955918270100001
sS'rocksmith'
p65
F0.024418270611899998
sS'progmetal'
p66
F0.0223741794311
sS'wheredidthesodago'
p67
F0.0077823514278400003
sS'classicalmusic'
p68
F0.0106589147287
sS'drunk'
p69
F0.0070379167766299999
sS'Luthier'
p70
F0.031225739670500002
sS'Music'
p71
F0.0099560421152700002
sS'singing'
p72
F0.010743344655999999
sS'wicked_edge'
p73
F0.0070792037977800001
sS'FiftyFifty'
p74
F0.0070740905577300001
sS'CrazyIdeas'
p75
F0.0082044894533000005
sS'OutOfTheLoop'
p76
F0.0082053567810700008
sS'Guitar'
p77
F0.056768254411000002
sS'beer'
p78
F0.0093899247187100004
sS'ifyoulikeblank'
p79
F0.010170271514
sS'trailerparkboys'
p80
F0.0077331226010400001
sS'musictheory'
p81
F0.031638723634399998
sS'woahdude'
p82
F0.0082177366148599995
sS'mildlyinfuriating'
p83
F0.0077538128841299998
sS'oddlysatisfying'
p84
F0.0075422712259899998
sS'Psychonaut'
p85
F0.0071784646061800001
sS'Shitty_Car_Mods'
p86
F0.0073659921902700003
sS'Metalcore'
p87
F0.0098948026247299998
sS'blunderyears'
p88
F0.0085299864722700007
sS'EDC'
p89
F0.0074020581332400002
sS'comics'
p90
F0.0070670564673900003
sS'Justrolledintotheshop'
p91
F0.0074121031842799999
sS'offbeat'
p92
F0.0084368035657399996
sS'standupshots'
p93
F0.0070684879167099996
sS'fullmoviesonyoutube'
p94
F0.0072052917552600003
sS'Blink182'
p95
F0.0074595591316699997
sS'audiophile'
p96
F0.010220918507700001
sS'crappymusic'
p97
F0.0079911209766900006
sS'FanTheories'
p98
F0.0079612916509400004
sS'southpark'
p99
F0.0070126660488100002
sS'ToolBand'
p100
F0.011194602054899999
sS'bicycling'
p101
F0.0077324304538799998
sS'Jazz'
p102
F0.029890276201300001
sS'nonononoyes'
p103
F0.0075741885854599999
sS'phish'
p104
F0.0078475336322900002
sS'Whatcouldgowrong'
p105
F0.00718009245599
sS'guitarpedals'
p106
F0.044473557195100002
sS'edmproduction'
p107
F0.0093813086331799994
sS'PostHardcore'
p108
F0.0094501210796799993
sS'gratefuldead'
p109
F0.0086901564228200005
sS'synthesizers'
p110
F0.0143732671823
sS'guitarlessons'
p111
F0.0196527521241
sS'listentothis'
p112
F0.0129946839929
s.