(dp1
S'Boobies'
p2
F0.0103639627877
sS'wifesharing'
p3
F0.039386306388800002
sS'boltedontits'
p4
F0.0090166723375300004
sS'TinyTits'
p5
F0.019708316909699999
sS'pussy'
p6
F0.0205314009662
sS'crossdressing'
p7
F0.0075282308657499998
sS'shorthairedhotties'
p8
F0.0086279209107200001
sS'RandomActsOfBlowJob'
p9
F0.0120343239849
sS'ginger'
p10
F0.0209040314918
sS'milf'
p11
F0.0160645292483
sS'penis'
p12
F0.0086043133311000004
sS'Tgirls'
p13
F0.0096213531967700005
sS'nsfw'
p14
F0.0070411516194599996
sS'Swingers'
p15
F0.0107270560191
sS'hugeboobs'
p16
F0.010684725357399999
sS'thick'
p17
F0.0145518044237
sS'gonewild'
p18
F0.00979680957272
sS'gonewildaudio'
p19
F0.023141253293599999
sS'girlsinyogapants'
p20
F0.0080859875751899991
sS'NSFWFunny'
p21
F0.0077998379254500001
sS'Blowjobs'
p22
F0.0115327879844
sS'redheads'
p23
F0.0114025085519
sS'RealGirls'
p24
F0.0091697889962500008
sS'GoneMild'
p25
F0.0258952053409
sS'Hotchickswithtattoos'
p26
F0.0093840230991299994
sS'GWCouples'
p27
F0.045815586508600001
sS'BBWGW'
p28
F0.022354228544600001
sS'bdsm'
p29
F0.088378841841400005
sS'randomsexiness'
p30
F0.0070453544694
sS'Hotwife'
p31
F0.027073590942699999
sS'tightdresses'
p32
F0.0114453411592
sS'gonewildcurvy'
p33
F0.0244411233576
sS'AsiansGoneWild'
p34
F0.023382559774999999
sS'asstastic'
p35
F0.029706090930600001
sS'BigBoobsGW'
p36
F0.029699703003
sS'ass'
p37
F0.0123107307439
sS'treesgonewild'
p38
F0.0233315954119
sS'Stacked'
p39
F0.0088054494102000006
sS'cumsluts'
p40
F0.02099609375
sS'Bondage'
p41
F0.074478089147999998
sS'dirtykikpals'
p42
F0.0074328187535699997
sS'NSFW_GIF'
p43
F0.0074922618531100002
sS'BDSMcommunity'
p44
F0.059289790741900002
sS'altgonewild'
p45
F0.0389190776913
sS'nsfw_gifs'
p46
F0.0078799062390900003
sS'ladybonersgw'
p47
F0.0095108695652199992
sS'BBW'
p48
F0.014535358484399999
sS'Sissies'
p49
F0.0138839444642
sS'Amateur'
p50
F0.016604540833599999
sS'feet'
p51
F0.0214434505575
sS'TributeMe'
p52
F0.030297692443199999
sS'gonewildstories'
p53
F0.016724822524399999
sS'traps'
p54
F0.013490279063599999
sS'GoneWildCD'
p55
F0.013162773452000001
sS'burstingout'
p56
F0.0104918032787
sS'ConfusedBoners'
p57
F0.0084407971863999995
sS'GoneWildPlus'
p58
F0.027521051550600001
sS'Cuckold'
p59
F0.025939177101999999
sS'AmateurArchives'
p60
F0.0101481958763
sS'BustyPetite'
p61
F0.0092374213836499998
sS'curvy'
p62
F0.012549608495099999
sS'dirtypenpals'
p63
F0.016247700797100001
sS'workgonewild'
p64
F0.038330494037500003
sS'pantyselling'
p65
F0.010481283422499999
sS'MassiveCock'
p66
F0.0083539239910600006
sS'anal'
p67
F0.0147017642117
sS'GWNerdy'
p68
F0.0370509450494
sS'polyamory'
p69
F0.011821898132799999
sS'Pegging'
p70
F0.0261391734369
sS'OnOff'
p71
F0.0150267993874
s.