(dp1
S'gonewildcurvy'
p2
F0.0086246272065300007
sS'FancyFollicles'
p3
F0.011404220779199999
sS'rpg'
p4
F0.00746065669322
sS'AskWomen'
p5
F0.0113747943738
sS'GWCouples'
p6
F0.0097873279858700004
sS'ABraThatFits'
p7
F0.0097316636851500007
sS'crossdressing'
p8
F0.0093995254608499994
sS'r4r'
p9
F0.0070189062453300003
sS'TrollYChromosome'
p10
F0.0095676824946799993
sS'wifesharing'
p11
F0.0080111715419699994
sS'sex'
p12
F0.0199618523981
sS'PurplePillDebate'
p13
F0.0092147435897400008
sS'actuallesbians'
p14
F0.014453001371499999
sS'incest'
p15
F0.0072690992018200002
sS'bigboobproblems'
p16
F0.0098853993526400001
sS'TwoXChromosomes'
p17
F0.0085186144679299993
sS'fatpeoplestories'
p18
F0.00738118098896
sS'confession'
p19
F0.0109804392176
sS'OneY'
p20
F0.0071478382147800003
sS'Swingers'
p21
F0.0121773522065
sS'LongDistance'
p22
F0.0071562860088500001
sS'EatCheapAndHealthy'
p23
F0.00743801652893
sS'Feminism'
p24
F0.0084788983807199993
sS'DeadBedrooms'
p25
F0.012549413314900001
sS'relationships'
p26
F0.0077019463704
sS'TalesFromRetail'
p27
F0.0078629926036500007
sS'BDSMGW'
p28
F0.059289790741900002
sS'femalefashionadvice'
p29
F0.0076584338502800001
sS'Sissies'
p30
F0.0098709929632499992
sS'TheBluePill'
p31
F0.0120116156283
sS'self'
p32
F0.0070565884109100004
sS'MakeupAddiction'
p33
F0.0083022116092100005
sS'TrollXChromosomes'
p34
F0.0106612926817
sS'transpassing'
p35
F0.0096922292127199997
sS'bdsm'
p36
F0.14366847102700001
sS'RedditLaqueristas'
p37
F0.0080787110168299998
sS'raisedbynarcissists'
p38
F0.0115385916827
sS'Hotwife'
p39
F0.00932908341755
sS'confessions'
p40
F0.0070068545316099998
sS'ftm'
p41
F0.00789820096534
sS'asktransgender'
p42
F0.0139291566873
sS'MensRights'
p43
F0.0075638105250899999
sS'gonewildaudio'
p44
F0.016938989656700001
sS'offmychest'
p45
F0.0087899660738200002
sS'Anxiety'
p46
F0.00759692973824
sS'childfree'
p47
F0.0102339631947
sS'Bondage'
p48
F0.041142742178900002
sS'transtimelines'
p49
F0.0072248614410100002
sS'RedPillWomen'
p50
F0.0074775672981100003
sS'OkCupid'
p51
F0.0107738646895
sS'altgonewild'
p52
F0.0082651743435200008
sS'lgbt'
p53
F0.0154358637515
sS'dirtypenpals'
p54
F0.011089125237
sS'LadyBoners'
p55
F0.0082801386102499992
sS'bigdickproblems'
p56
F0.0097093421298300002
sS'TheGirlSurvivalGuide'
p57
F0.0094657375145199996
sS'ainbow'
p58
F0.0155815247635
sS'AskMen'
p59
F0.0086817252996099995
sS'ABDL'
p60
F0.0077224276702199997
sS'traps'
p61
F0.0084446995162700007
sS'xxfitness'
p62
F0.0083727021843900008
sS'gonewildstories'
p63
F0.011907523389799999
sS'creepyPMs'
p64
F0.011635802469100001
sS'Pegging'
p65
F0.020015621948800001
sS'SkincareAddiction'
p66
F0.0071471581537799998
sS'ConfusedBoners'
p67
F0.0076109292944700003
sS'GoneWildPlus'
p68
F0.0080558263635900004
sS'Cuckold'
p69
F0.0090224246671299999
sS'GirlGamers'
p70
F0.0088041513614400008
sS'piercing'
p71
F0.011038489469899999
sS'relationship_advice'
p72
F0.0087947951766400006
sS'NSFWFunny'
p73
F0.0075291842232499996
sS'bisexual'
p74
F0.018609742747700001
sS'GWNerdy'
p75
F0.0077205022225700004
sS'polyamory'
p76
F0.049927696171700002
sS'ladybonersgw'
p77
F0.011024118070599999
s.