(dp1
S'FancyFollicles'
p2
F0.0152887610832
sS'awwwtf'
p3
F0.00872152678022
sS'curlyhair'
p4
F0.010427864975300001
sS'Cumberbitches'
p5
F0.0076679446574400003
sS'TrollXChromosomes'
p6
F0.0100224641438
sS'blackpeoplegifs'
p7
F0.0071378830083599996
sS'uglyduckling'
p8
F0.0103620910467
sS'nostalgia'
p9
F0.0070002978850199999
sS'penis'
p10
F0.0097660223804700002
sS'malegrooming'
p11
F0.0110161870504
sS'entwives'
p12
F0.0079846694346900008
sS'bigdickproblems'
p13
F0.0070979190192000004
sS'gaybears'
p14
F0.029129600558199999
sS'femalefashionadvice'
p15
F0.0070023638553100001
sS'shorthairedhotties'
p16
F0.010520607375300001
sS'popping'
p17
F0.0086521822726400004
sS'askgaybros'
p18
F0.0070479406798300004
sS'gaybrosgonemild'
p19
F0.019106490587200001
sS'malehairadvice'
p20
F0.0085791514866600006
sS'MassiveCock'
p21
F0.01315930245
sS'shittyfoodporn'
p22
F0.0071146778163700001
sS'pitbulls'
p23
F0.0072235222301400004
sS'ExpectationVsReality'
p24
F0.0084344947185900007
sS'badtattoos'
p25
F0.0113868116927
sS'PenmanshipPorn'
p26
F0.0076950396590500002
sS'PrettyGirlsUglyFaces'
p27
F0.0117768595041
sS'firstimpression'
p28
F0.010596674274499999
sS'RedditLaqueristas'
p29
F0.0094984802431599992
sS'progresspics'
p30
F0.0086739672557700001
sS'HumanPorn'
p31
F0.0093216692958599991
sS'happy'
p32
F0.0089373565103299992
sS'tattoos'
p33
F0.0097674617423299994
sS'TrollYChromosome'
p34
F0.01072720469
sS'bigboobproblems'
p35
F0.0110075110075
sS'Baking'
p36
F0.0074039067422799996
sS'gaymers'
p37
F0.0076053586380100003
sS'MakeupAddiction'
p38
F0.0084907041428799995
sS'somethingimade'
p39
F0.0083250083250099999
sS'tattoo'
p40
F0.010289676769900001
sS'ladybonersgw'
p41
F0.025119028074199998
sS'Awwducational'
p42
F0.0077427918295100004
sS'TheGirlSurvivalGuide'
p43
F0.0096182302456299992
sS'dogpictures'
p44
F0.0093034164647000008
sS'gaybros'
p45
F0.0092083233676199996
sS'beards'
p46
F0.046672336806300001
sS'ghettoglamourshots'
p47
F0.0090631142170800004
sS'blunderyears'
p48
F0.0095581780942200004
sS'ThriftStoreHauls'
p49
F0.0074165636588400001
sS'creepyPMs'
p50
F0.0084033613445400005
sS'showerbeer'
p51
F0.0146189735614
sS'piercing'
p52
F0.011821974965200001
sS'redditgetsdrawn'
p53
F0.00744468187771
sS'Hair'
p54
F0.0081193767829700007
sS'GaybrosGoneWild'
p55
F0.0135746606335
sS'Stretched'
p56
F0.0089523809523800006
sS'crafts'
p57
F0.0074649759689100004
sS'tall'
p58
F0.0081155656549300008
sS'gaymersgonewild'
p59
F0.012107279693500001
sS'lookatmydog'
p60
F0.0075493612079000003
sS'catpictures'
p61
F0.0086078273843699996
sS'LadyBoners'
p62
F0.024031871144599998
s.