(dp1
S'StarWars'
p2
F0.0083145486123899996
sS'gallifrey'
p3
F0.0077371975608200002
sS'audioengineering'
p4
F0.0077119142539699998
sS'fullmoviesonyoutube'
p5
F0.0070960971465700001
sS'NetflixBestOf'
p6
F0.0073337725957500002
sS'crappymusic'
p7
F0.0084912626138300001
sS'TheSimpsons'
p8
F0.0125018101076
sS'community'
p9
F0.0070943446977300003
sS'FanTheories'
p10
F0.0073622212873400003
sS'KingOfTheHill'
p11
F0.0070124531495599999
sS'conspiratard'
p12
F0.0072984244670999997
sS'MarkMyWords'
p13
F0.00760031295406
sS'DeepIntoYouTube'
p14
F0.0072716862295999999
sS'PropagandaPosters'
p15
F0.0072542979230800003
sS'radiohead'
p16
F0.024198683931200001
sS'harrypotter'
p17
F0.0074931880109000001
sS'singing'
p18
F0.0075218818380699999
sS'southpark'
p19
F0.0086126888666099993
sS'HIMYM'
p20
F0.00744189456705
sS'LSD'
p21
F0.0073891625615799999
sS'pinkfloyd'
p22
F0.041140667267800003
sS'DunderMifflin'
p23
F0.0099116843509800007
sS'OldSchoolCool'
p24
F0.0072005910439199997
sS'entertainment'
p25
F0.0077391150233399996
sS'lost'
p26
F0.0090119793383899999
sS'classicalmusic'
p27
F0.0082773315849899998
sS'Jazz'
p28
F0.010659004541700001
sS'wikipedia'
p29
F0.0085000000000000006
sS'nostalgia'
p30
F0.0105964605637
sS'bonnaroo'
p31
F0.0073245952197400002
sS'breakingbad'
p32
F0.010575194727399999
sS'HistoryPorn'
p33
F0.0093820199973600003
sS'audiophile'
p34
F0.0070926285159999998
sS'DaftPunk'
p35
F0.0112179487179
sS'ifyoulikeblank'
p36
F0.0089765510503199992
sS'musictheory'
p37
F0.0097565985416499992
sS'piano'
p38
F0.0080875826018300002
sS'lewronggeneration'
p39
F0.0098701760625999994
sS'greenday'
p40
F0.0092959201239500005
sS'disney'
p41
F0.0072435897435900003
sS'ObscureMedia'
p42
F0.010231835254500001
sS'LetsTalkMusic'
p43
F0.016402060771699999
sS'TheWayWeWere'
p44
F0.0138400702988
sS'StandUpComedy'
p45
F0.0096799511642100006
sS'arresteddevelopment'
p46
F0.013397054215000001
sS'forwardsfromgrandma'
p47
F0.0091753322582400001
sS'batman'
p48
F0.0074400242939600004
sS'PandR'
p49
F0.0096883811727299998
sS'Guitar'
p50
F0.0140078018137
sS'madmen'
p51
F0.011235033623100001
sS'progrockmusic'
p52
F0.0100149476831
sS'indieheads'
p53
F0.0098329581803100006
sS'vinyl'
p54
F0.019833163091599999
sS'drums'
p55
F0.0084341767510100005
sS'IASIP'
p56
F0.0100457782299
sS'gratefuldead'
p57
F0.0132523467697
sS'blunderyears'
p58
F0.0081932476338499993
sS'Bass'
p59
F0.0128482748665
sS'VinylCollectors'
p60
F0.0110497237569
sS'RedHotChiliPeppers'
p61
F0.0135593220339
sS'Sherlock'
p62
F0.0071886419457300003
sS'PoliticalHumor'
p63
F0.0075125208681099996
sS'ThriftStoreHauls'
p64
F0.0077695521512900004
sS'RedditDayOf'
p65
F0.0081135902636900008
sS'guitarlessons'
p66
F0.0083092485549099999
sS'howardstern'
p67
F0.0072650050296199998
sS'TrueFilm'
p68
F0.0082757443904099993
sS'punk'
p69
F0.0077559462254399997
sS'seinfeld'
p70
F0.0159017713366
sS'TimAndEric'
p71
F0.0107226627946
sS'WeAreTheMusicMakers'
p72
F0.010214645593199999
sS'terriblefacebookmemes'
p73
F0.00779986683154
sS'futurama'
p74
F0.0081833919110299996
sS'guitarpedals'
p75
F0.0105000519805
sS'calvinandhobbes'
p76
F0.0083965330444200001
sS'NotTimAndEric'
p77
F0.0083798882681599997
sS'startrek'
p78
F0.00837939808722
s.