(dp1
S'slowcooking'
p2
F0.0088039386041100006
sS'FancyFollicles'
p3
F0.026013958709600001
sS'weddingplanning'
p4
F0.016312481292999999
sS'AskWomen'
p5
F0.0085728424121700002
sS'ABraThatFits'
p6
F0.020893731880400002
sS'Baking'
p7
F0.010563380281700001
sS'TheGirlSurvivalGuide'
p8
F0.029470148114200002
sS'piercing'
p9
F0.00855302877843
sS'Pets'
p10
F0.0095085896923699995
sS'TrollXChromosomes'
p11
F0.011505422993500001
sS'tea'
p12
F0.0089515126398700007
sS'TalesFromYourServer'
p13
F0.0079408758550199993
sS'femalefashionadvice'
p14
F0.028162553894099999
sS'RandomActsofMakeup'
p15
F0.082809896167199998
sS'CrossStitch'
p16
F0.0084059300015300008
sS'breakingmom'
p17
F0.00817174515235
sS'loseit'
p18
F0.00780645026266
sS'yoga'
p19
F0.0081959664794199992
sS'AmericanHorrorStory'
p20
F0.0087420358571599997
sS'EatCheapAndHealthy'
p21
F0.0092918795138300005
sS'knitting'
p22
F0.0116289717059
sS'GirlGamers'
p23
F0.0092620481927699998
sS'neopets'
p24
F0.0075868820362199997
sS'sailormoon'
p25
F0.0112471055243
sS'RedditLaqueristas'
p26
F0.037768771811299999
sS'raisedbynarcissists'
p27
F0.0078315822122299993
sS'ketorecipes'
p28
F0.0093953264273699995
sS'xxfitness'
p29
F0.0152351385535
sS'birthcontrol'
p30
F0.016086620263
sS'disney'
p31
F0.0091106880609200004
sS'bigboobproblems'
p32
F0.015676896505900002
sS'RandomActsOfPolish'
p33
F0.032245062474800003
sS'childfree'
p34
F0.0079944143829600006
sS'Indiemakeupandmore'
p35
F0.071740768651100004
sS'MakeupAddiction'
p36
F0.033721384953199998
sS'RandomKindness'
p37
F0.00713903266107
sS'OnceUponATime'
p38
F0.0074402632708500003
sS'sewing'
p39
F0.0124416796267
sS'snackexchange'
p40
F0.0094905094905100001
sS'budgetfood'
p41
F0.0092311033883599996
sS'Mommit'
p42
F0.0082476691369799994
sS'xxketo'
p43
F0.014468264864299999
sS'namenerds'
p44
F0.0079512772796500007
sS'BabyBumps'
p45
F0.0086468646864699995
sS'LadyBoners'
p46
F0.0111148965165
sS'curlyhair'
p47
F0.016059839401599999
sS'crochet'
p48
F0.012148621087200001
sS'wedding'
p49
F0.011149032991999999
sS'beyondthebump'
p50
F0.0074947646864299998
sS'thesims'
p51
F0.0092905965890199994
sS'ThriftStoreHauls'
p52
F0.0090104207474700007
sS'Random_Acts_Of_Amazon'
p53
F0.012371978697299999
sS'makeupexchange'
p54
F0.090129321720800001
sS'creepyPMs'
p55
F0.0075712640870899996
sS'braswap'
p56
F0.013533208411400001
sS'recipes'
p57
F0.0076537952465899999
sS'PolishGauntlet'
p58
F0.0198403097024
sS'freebies'
p59
F0.011266184630899999
sS'Hair'
p60
F0.013701707097899999
sS'secretsanta'
p61
F0.012415433796699999
sS'crafts'
p62
F0.0142348754448
sS'MakeupAddicts'
p63
F0.084313725490199998
sS'AsianBeauty'
p64
F0.056918687589199997
sS'SkincareAddiction'
p65
F0.0308930967646
sS'fitmeals'
p66
F0.0072952257826199999
s.