(dp1
S'delusionalartists'
p2
F0.0082228116710899996
sS'RandomActsOfGaming'
p3
F0.0202157478977
sS'LifeProTips'
p4
F0.014299551386599999
sS'softwareswap'
p5
F0.0095983722576100002
sS'DoesAnybodyElse'
p6
F0.0103988280686
sS'pettyrevenge'
p7
F0.0137819109199
sS'PublicFreakout'
p8
F0.0087602424888399994
sS'Shitty_Car_Mods'
p9
F0.0076874639240199997
sS'LucidDreaming'
p10
F0.0084313206548499997
sS'Bitcoin'
p11
F0.0163116462144
sS'AndroidGaming'
p12
F0.011970633973500001
sS'sgsflair'
p13
F0.0093718103368299992
sS'BuyItForLife'
p14
F0.0140529184647
sS'everymanshouldknow'
p15
F0.0134570265095
sS'wiiu'
p16
F0.0082714145520799993
sS'InternetIsBeautiful'
p17
F0.011766938697999999
sS'startups'
p18
F0.0092495470582599996
sS'breakingbad'
p19
F0.0088563281014499996
sS'financialindependence'
p20
F0.0116772317811
sS'apple'
p21
F0.0093472503505199998
sS'TalesFromRetail'
p22
F0.011297376093299999
sS'quityourbullshit'
p23
F0.0115871498508
sS'Advice'
p24
F0.0073636767599800004
sS'LearnUselessTalents'
p25
F0.0132307225718
sS'Documentaries'
p26
F0.0076257105378200003
sS'writing'
p27
F0.0079363123259299992
sS'HistoryPorn'
p28
F0.0080113100848299996
sS'todayilearned'
p29
F0.0076403373179699998
sS'HITsWorthTurkingFor'
p30
F0.058706947345899999
sS'GrandTheftAutoV'
p31
F0.0082631773375099991
sS'hiphopheads'
p32
F0.0071985332988399996
sS'4chan'
p33
F0.0098573334283799992
sS'oddlysatisfying'
p34
F0.010447600437
sS'churning'
p35
F0.014340032591
sS'MensRights'
p36
F0.0083838482596800008
sS'nononono'
p37
F0.0092496744248199998
sS'offmychest'
p38
F0.0094726123096600008
sS'Anxiety'
p39
F0.0079446677259599995
sS'YouShouldKnow'
p40
F0.018969544904000001
sS'childfree'
p41
F0.00893381320673
sS'smallbusiness'
p42
F0.0085381746281399992
sS'Random_Acts_Of_Amazon'
p43
F0.017737084218
sS'food'
p44
F0.007890449628
sS'jailbreak'
p45
F0.0120216606498
sS'photography'
p46
F0.0071503680336500001
sS'foodhacks'
p47
F0.0090014847809900007
sS'UpliftingNews'
p48
F0.00854146167856
sS'AbandonedPorn'
p49
F0.0085419576662700003
sS'fffffffuuuuuuuuuuuu'
p50
F0.0087686096391599994
sS'geek'
p51
F0.010373605803000001
sS'Jokes'
p52
F0.0076177027981099996
sS'xbox360'
p53
F0.0097126184100099992
sS'NoStupidQuestions'
p54
F0.012250475865100001
sS'Fitness'
p55
F0.0078247168998500007
sS'Steam'
p56
F0.0124672944524
sS'bodyweightfitness'
p57
F0.0076363903370300001
sS'tmobile'
p58
F0.0090995950680199996
sS'photoshopbattles'
p59
F0.0087364542956200001
sS'IWantToLearn'
p60
F0.014294779733500001
sS'litecoin'
p61
F0.0089012386379700003
sS'creepyPMs'
p62
F0.0085467904888299993
sS'dadjokes'
p63
F0.0100177911592
sS'holdmybeer'
p64
F0.0075847007437099996
sS'techsupportgore'
p65
F0.0111670247654
sS'freebies'
p66
F0.040780833008500002
sS'CrappyDesign'
p67
F0.010968238267900001
sS'thatHappened'
p68
F0.0107786949892
sS'SteamGameSwap'
p69
F0.0131682979361
sS'montageparodies'
p70
F0.0079489369779799993
sS'techsupport'
p71
F0.013898830051699999
sS'ClashOfClans'
p72
F0.0080417644422200001
sS'Libertarian'
p73
F0.0076032156969600001
sS'cringe'
p74
F0.0099717937694600006
sS'SubredditDrama'
p75
F0.0108595346385
sS'getdisciplined'
p76
F0.0100631337287
sS'mildlyinteresting'
p77
F0.0084195180697399993
sS'google'
p78
F0.0092136206952099994
sS'pcgaming'
p79
F0.0103171049814
sS'whatisthisthing'
p80
F0.011147591051400001
sS'MechanicalKeyboards'
p81
F0.0091252602627000003
sS'AskWomen'
p82
F0.0073386549310599999
sS'NetflixBestOf'
p83
F0.0121379993695
sS'ShouldIbuythisgame'
p84
F0.0092530460886499997
sS'Christianity'
p85
F0.0075379187096200001
sS'CryptoCurrency'
p86
F0.0118805619551
sS'interestingasfuck'
p87
F0.011100032259
sS'MechanicAdvice'
p88
F0.00757136786804
sS'changemyview'
p89
F0.010313614644299999
sS'fatpeoplestories'
p90
F0.0081495925203699995
sS'mturk'
p91
F0.038456759443300001
sS'PS3'
p92
F0.0083136576768300004
sS'Android'
p93
F0.013434008379899999
sS'EatCheapAndHealthy'
p94
F0.017333333333300002
sS'tifu'
p95
F0.0093056660707500002
sS'PS4'
p96
F0.0078033846779599998
sS'notinteresting'
p97
F0.0098949187501699998
sS'firstworldanarchists'
p98
F0.0110711379502
sS'offbeat'
p99
F0.0102542089951
sS'frugalmalefashion'
p100
F0.0119209809264
sS'Piracy'
p101
F0.0093121366465999996
sS'Entrepreneur'
p102
F0.016234946327799999
sS'investing'
p103
F0.011740805234599999
sS'Justrolledintotheshop'
p104
F0.0085013359242199996
sS'shittyfoodporn'
p105
F0.0103136656069
sS'ExpectationVsReality'
p106
F0.0088388214904699999
sS'DarkNetMarkets'
p107
F0.0070076082604000004
sS'socialskills'
p108
F0.0097542738673800002
sS'malefashionadvice'
p109
F0.00876573714555
sS'firstworldproblems'
p110
F0.0113556168602
sS'outside'
p111
F0.0086683209263899996
sS'Nexus5'
p112
F0.0081437549792000002
sS'AskCulinary'
p113
F0.0070785070785100001
sS'Nexus7'
p114
F0.0072093578419700002
sS'cars'
p115
F0.00763486030539
sS'worldnews'
p116
F0.0070326806440000004
sS'lifehacks'
p117
F0.0161135068535
sS'pcmasterrace'
p118
F0.0096027391047999993
sS'needadvice'
p119
F0.0081313587618300001
sS'Damnthatsinteresting'
p120
F0.0085984522785899995
sS'bestof'
p121
F0.0121806437138
sS'jobs'
p122
F0.012869554903199999
sS'business'
p123
F0.0071033720287499999
sS'needamod'
p124
F0.0074154739680599999
sS'casualiama'
p125
F0.012583110669200001
sS'FloridaMan'
p126
F0.0090311671342400007
sS'legaladvice'
p127
F0.010348526597
sS'loseit'
p128
F0.0094755814951499994
sS'Random_Acts_Of_Pizza'
p129
F0.0114753304605
sS'Ebay'
p130
F0.010817926850199999
sS'Frugal'
p131
F0.028195439739399999
sS'promos'
p132
F0.012930089853200001
sS'answers'
p133
F0.0079300441510600003
sS'shittyaskscience'
p134
F0.010100149158300001
sS'news'
p135
F0.0078031949837400003
sS'doctorwho'
p136
F0.0078383556871600008
sS'giftcardexchange'
p137
F0.064763148521900002
sS'SuggestALaptop'
p138
F0.0095544859035099992
sS'gamingsuggestions'
p139
F0.0074566525918599996
sS'howto'
p140
F0.010214894248300001
sS'forhire'
p141
F0.0135961349352
sS'youtubehaiku'
p142
F0.0077176288346099998
sS'ThriftStoreHauls'
p143
F0.012695816835900001
sS'netflix'
p144
F0.00954965113821
sS'minimalism'
p145
F0.0098985850488899994
sS'recipes'
p146
F0.0071523084075399996
sS'headphones'
p147
F0.010151836158200001
sS'personalfinance'
p148
F0.0134689368237
sS'creepy'
p149
F0.0070407021316000002
sS'iphone'
p150
F0.011696559944900001
sS'chrome'
p151
F0.0077288135593200002
sS'dogecoin'
p152
F0.015988664003699998
sS'wheredidthesodago'
p153
F0.0110188935784
sS'Assistance'
p154
F0.017922336541700001
sS'battlestations'
p155
F0.0098792133286900001
sS'thewalkingdead'
p156
F0.0086184422395699997
sS'OutOfTheLoop'
p157
F0.0146239946004
sS'Chromecast'
p158
F0.0103685417034
sS'buildapc'
p159
F0.0103484642088
sS'Paleo'
p160
F0.0072196437780200004
sS'TrueReddit'
p161
F0.0094465611375199997
sS'drunk'
p162
F0.0091276568000999998
sS'applehelp'
p163
F0.0077656466246299998
sS'Homebrewing'
p164
F0.00709654809883
sS'AppHookup'
p165
F0.0097391474575400008
sS'confession'
p166
F0.0091303697051300006
sS'reactiongifs'
p167
F0.0090631808278900002
sS'patientgamers'
p168
F0.0124582405345
sS'community'
p169
F0.0071988035791200004
sS'findareddit'
p170
F0.0112016293279
sS'conspiratard'
p171
F0.0071537121464799996
sS'RandomKindness'
p172
F0.0159766601834
sS'Showerthoughts'
p173
F0.0086291048465800008
sS'keto'
p174
F0.0096116960061399994
sS'gardening'
p175
F0.0094773896561100007
sS'ContagiousLaughter'
p176
F0.0070300098269000001
sS'femalefashionadvice'
p177
F0.0070958703861599996
sS'nostalgia'
p178
F0.0099012564909699997
sS'electronic_cigarette'
p179
F0.0082243457276399996
sS'AndroidQuestions'
p180
F0.0131666028075
sS'FiftyFifty'
p181
F0.0087136222250599991
sS'CrazyIdeas'
p182
F0.0139210571227
sS'TinyHouses'
p183
F0.0080827350770599996
sS'Drugs'
p184
F0.0072490212991799998
sS'Bad_Cop_No_Donut'
p185
F0.0086138895024100003
sS'ANormalDayInRussia'
p186
F0.0076342246881599997
sS'seduction'
p187
F0.00772706268933
sS'RandomActsOfPizza'
p188
F0.0105630083448
sS'urbanexploration'
p189
F0.0074115770710199997
sS'MorbidReality'
p190
F0.010942309601799999
sS'beer'
p191
F0.0070410648404900002
sS'IWantOut'
p192
F0.0075194700563999996
sS'ifyoulikeblank'
p193
F0.0076613675541099997
sS'misleadingthumbnails'
p194
F0.0077525947892400004
sS'ketorecipes'
p195
F0.0076365687508099999
sS'raisedbynarcissists'
p196
F0.0081703391928699999
sS'web_design'
p197
F0.0076793248945100003
sS'explainlikeimfive'
p198
F0.0085046823017799998
sS'dogs'
p199
F0.0071430662490100001
sS'woahdude'
p200
F0.00994775812091
sS'iOSthemes'
p201
F0.0088583727631699992
sS'fatlogic'
p202
F0.0083047602084
sS'JusticePorn'
p203
F0.0109988441893
sS'tipofmytongue'
p204
F0.0111984480891
sS'3DS'
p205
F0.0102884025363
sS'RealEstate'
p206
F0.0071342616469
sS'androidapps'
p207
F0.012593682625499999
sS'snackexchange'
p208
F0.00731143486909
sS'mildlyinfuriating'
p209
F0.0116113233949
sS'teenagers'
p210
F0.0095929792706899997
sS'somethingimade'
p211
F0.0091197183098599994
sS'Unexpected'
p212
F0.0108076467313
sS'xboxone'
p213
F0.00812740566915
sS'Awwducational'
p214
F0.0083062025210800007
sS'TheGirlSurvivalGuide'
p215
F0.0073873121869800001
sS'dogemarket'
p216
F0.014161045935499999
sS'AskMen'
p217
F0.0084003372473200003
sS'blunderyears'
p218
F0.0080793717480500005
sS'gameswap'
p219
F0.0076753824898899998
sS'buildapcforme'
p220
F0.0081611833715900008
sS'EDC'
p221
F0.0090095726709599998
sS'television'
p222
F0.0080879097643000008
sS'hardwareswap'
p223
F0.012276435519299999
sS'rage'
p224
F0.0112621359223
sS'comics'
p225
F0.0086391276997299996
sS'science'
p226
F0.0089601841996700005
sS'AMA'
p227
F0.0081388530550000008
sS'Flipping'
p228
F0.0387893187335
sS'PerfectTiming'
p229
F0.0090716461395799995
sS'behindthegifs'
p230
F0.0079536494223299992
sS'standupshots'
p231
F0.0088880165984399993
sS'college'
p232
F0.0084563817201900003
sS'hacking'
p233
F0.0087803599510700003
sS'Glitch_in_the_Matrix'
p234
F0.0089583906329800001
sS'torrents'
p235
F0.0096342902084200002
sS'fullmoviesonyoutube'
p236
F0.012103999729499999
sS'TalesFromThePizzaGuy'
p237
F0.0073697046816200004
sS'watchpeopledie'
p238
F0.0074083297018
sS'FoodPorn'
p239
F0.0074938195302800001
sS'Cooking'
p240
F0.0096280875935799998
sS'DecidingToBeBetter'
p241
F0.0090201627166600004
sS'FanTheories'
p242
F0.0086428614151600001
sS'gadgets'
p243
F0.0099218366934899997
sS'gamecollecting'
p244
F0.0078047571853300003
sS'conspiracy'
p245
F0.010216018092499999
sS'DIY'
p246
F0.0105542344979
sS'politics'
p247
F0.0089184768572999999
sS'webdev'
p248
F0.00704735376045
sS'technology'
p249
F0.0101187296445
sS'SkincareAddiction'
p250
F0.0094868189022100004
sS'southpark'
p251
F0.0076354612636700004
sS'shutupandtakemymoney'
p252
F0.011883303291299999
sS'TalesFromYourServer'
p253
F0.0083336913097599996
sS'atheism'
p254
F0.0071949209373500002
sS'techsupportmacgyver'
p255
F0.0091437681703100005
sS'MURICA'
p256
F0.00850609349074
sS'travel'
p257
F0.0078668511743400001
sS'Parenting'
p258
F0.0073784181269799997
sS'LosAngeles'
p259
F0.00706702780113
sS'Frisson'
p260
F0.0070677119298099998
sS'depression'
p261
F0.0076714107536400003
sS'slowcooking'
p262
F0.012443642921600001
sS'UnresolvedMysteries'
p263
F0.0072169811320799996
sS'nottheonion'
p264
F0.0092862473975700004
sS'howtonotgiveafuck'
p265
F0.0077435283555299999
sS'nonononoyes'
p266
F0.0093818984547499994
sS'Frugal_Jerk'
p267
F0.0089275687815800007
sS'Whatcouldgowrong'
p268
F0.0103681241499
sS'wallpapers'
p269
F0.0076665187595499999
sS'talesfromtechsupport'
p270
F0.0120422240006
sS'gaming'
p271
F0.0076891422571100003
sS'buildapcsales'
p272
F0.014752030970500001
sS'GameSale'
p273
F0.0092292479261699995
sS'raspberry_pi'
p274
F0.0086973478939199999
sS'GiftofGames'
p275
F0.0154621848739
sS'facepalm'
p276
F0.0109083668738
sS'forwardsfromgrandma'
p277
F0.0092140921409199997
sS'AnimalsBeingJerks'
p278
F0.0078899786313099997
sS'askscience'
p279
F0.00712871727574
sS'Futurology'
p280
F0.0091429803959200001
sS'budgetfood'
p281
F0.011870941558399999
sS'Games'
p282
F0.0084782031226900006
sS'progresspics'
p283
F0.0076892203046099996
sS'nintendo'
p284
F0.0075620581949700002
sS'cordcutters'
p285
F0.0164542450604
sS'Minecraft'
p286
F0.0077605429458899996
sS'GameDeals'
p287
F0.016448046695299999
sS'lewronggeneration'
p288
F0.0070658237262900001
sS'truegaming'
p289
F0.0083151192625699998
sS'wicked_edge'
p290
F0.0070576610911100004
sS'DumpsterDiving'
p291
F0.011663376996200001
sS'BitcoinMarkets'
p292
F0.0070519435844500003
sS'windows'
p293
F0.0089142758232700001
sS'dataisbeautiful'
p294
F0.0087018837018800008
sS'space'
p295
F0.0070632815460399999
sS'GetMotivated'
p296
F0.0090750810913900002
sS'picrequests'
p297
F0.0090409878341100001
sS'eFreebies'
p298
F0.022406047989500001
sS'TumblrInAction'
p299
F0.0084219755878100003
sS'secretsanta'
p300
F0.0117763298441
sS'cringepics'
p301
F0.0094516047510700002
sS'HailCorporate'
p302
F0.0078482353507599995
sS'ImGoingToHellForThis'
p303
F0.0095547724226900006
sS'self'
p304
F0.010902134329
sS'learnprogramming'
p305
F0.0112600645768
s.