(dp1
S'ShingekiNoKyojin'
p2
F0.017587493338099999
sS'FinalFantasy'
p3
F0.0071067377340399999
sS'dbz'
p4
F0.0094549926973600002
sS'TwoBestFriendsPlay'
p5
F0.0110919043503
sS'Naruto'
p6
F0.0099284047308300007
sS'JRPG'
p7
F0.0080050825921200008
sS'TrueAnime'
p8
F0.0072486605735899998
sS'demonssouls'
p9
F0.0121739130435
sS'fairytail'
p10
F0.0112378396511
sS'ImaginaryMonsters'
p11
F0.0075663607045400004
sS'DarkSouls2'
p12
F0.0085546396461900001
sS'metalgearsolid'
p13
F0.0090181205225500008
sS'HunterXHunter'
p14
F0.0216826996488
sS'Gundam'
p15
F0.0076045627376399999
sS'shittydarksouls'
p16
F0.0102476515798
sS'bleach'
p17
F0.016361653133
sS'KillLaKill'
p18
F0.0127972699158
sS'darksouls'
p19
F0.0114515629836
sS'Toonami'
p20
F0.0088748926424300004
sS'animegifs'
p21
F0.0081509082440599998
sS'OnePiece'
p22
F0.016772293707200001
sS'Animesuggest'
p23
F0.0096756973175000007
sS'Megaten'
p24
F0.0095029239766099994
sS'anime'
p25
F0.00762539755527
sS'evangelion'
p26
F0.020938872002700001
sS'manga'
p27
F0.021025138752900002
s.