(dp1
S'breastfeeding'
p2
F0.275432969852
sS'TryingForABaby'
p3
F0.047946076561099997
sS'Paleo'
p4
F0.0079369780252299994
sS'C25K'
p5
F0.0071177504393700004
sS'gardening'
p6
F0.010839890798100001
sS'nursing'
p7
F0.0093989416317800008
sS'AskWomen'
p8
F0.0086858300225899996
sS'ABraThatFits'
p9
F0.015858815875100001
sS'Baking'
p10
F0.013116759548700001
sS'TheGirlSurvivalGuide'
p11
F0.0135022182216
sS'raisedbynarcissists'
p12
F0.0135139979209
sS'bigboobproblems'
p13
F0.0126530612245
sS'Pets'
p14
F0.0094084201976400005
sS'entwives'
p15
F0.0070489844683399999
sS'knitting'
p16
F0.014308547073600001
sS'femalefashionadvice'
p17
F0.011965741917
sS'BeautyBoxes'
p18
F0.0074947646864299998
sS'RandomActsofMakeup'
p19
F0.0094108789761000004
sS'CrossStitch'
p20
F0.0076049943246300003
sS'breakingmom'
p21
F0.18512089274599999
sS'loseit'
p22
F0.0093463555217499997
sS'Dogtraining'
p23
F0.0079770261646500001
sS'SkincareAddiction'
p24
F0.0105026462281
sS'pitbulls'
p25
F0.0074614352783400001
sS'TwoXChromosomes'
p26
F0.0089597851503700008
sS'TrollXChromosomes'
p27
F0.0083072517813099992
sS'Parenting'
p28
F0.073585095332200007
sS'EatCheapAndHealthy'
p29
F0.011196275933999999
sS'AskCulinary'
p30
F0.0071262843884700002
sS'slowcooking'
p31
F0.0123875610383
sS'RedditLaqueristas'
p32
F0.013106416275400001
sS'daddit'
p33
F0.032360532062700002
sS'Frugal'
p34
F0.0108044593471
sS'xxfitness'
p35
F0.01110603986
sS'dogs'
p36
F0.0092671578131099993
sS'happy'
p37
F0.0076858580212399996
sS'InfertilityBabies'
p38
F0.0162224797219
sS'Cooking'
p39
F0.0099639855942400008
sS'TalesFromYourServer'
p40
F0.0072715143428999998
sS'quilting'
p41
F0.0114605171209
sS'MakeupAddiction'
p42
F0.0116974895278
sS'RandomKindness'
p43
F0.0071274779122399998
sS'sewing'
p44
F0.017831488210899998
sS'budgetfood'
p45
F0.0089807306652699998
sS'Mommit'
p46
F0.19084139157499999
sS'xxketo'
p47
F0.012178504513700001
sS'namenerds'
p48
F0.074064415177999998
sS'weddingplanning'
p49
F0.0110919869956
sS'LadyBoners'
p50
F0.0100531770368
sS'curlyhair'
p51
F0.0097325734327000004
sS'crochet'
p52
F0.022628827483200002
sS'wedding'
p53
F0.010222543875499999
sS'clothdiaps'
p54
F0.113157484002
sS'BabyBumps'
p55
F0.234099374517
sS'Random_Acts_Of_Amazon'
p56
F0.0092407420177900001
sS'infertility'
p57
F0.0127906976744
sS'glutenfree'
p58
F0.0072550081212800002
sS'recipes'
p59
F0.011293949305
sS'predaddit'
p60
F0.039716670882899999
sS'secretsanta'
p61
F0.0074066489180099997
sS'FancyFollicles'
p62
F0.014101057579300001
sS'crafts'
p63
F0.013548988059999999
sS'MakeupAddicts'
p64
F0.0070476190476199997
sS'Assistance'
p65
F0.0106303151576
sS'Teachers'
p66
F0.0086544862785699998
s.