(dp1
S'breastfeeding'
p2
F0.0119817876827
sS'FancyFollicles'
p3
F0.029752066115699999
sS'awwwtf'
p4
F0.0095624456679199998
sS'Awwducational'
p5
F0.0106819468025
sS'DoesAnybodyElse'
p6
F0.0070050735275199996
sS'pettyrevenge'
p7
F0.0103834686954
sS'ABraThatFits'
p8
F0.111391893258
sS'uglyduckling'
p9
F0.0082402688929799992
sS'actuallesbians'
p10
F0.0103441790483
sS'SampleSize'
p11
F0.0074600035951799997
sS'Pets'
p12
F0.0113824815317
sS'SkincareAddiction'
p13
F0.019611236084700001
sS'RandomActsofMakeup'
p14
F0.0252138176164
sS'braswap'
p15
F0.065221489161200005
sS'BeardPorn'
p16
F0.0110075110075
sS'TalesFromRetail'
p17
F0.0119423334259
sS'BabyBumps'
p18
F0.0126709953981
sS'TheBluePill'
p19
F0.012933178577399999
sS'harrypotter'
p20
F0.011417158528600001
sS'BigBoobsGW'
p21
F0.0070331297427399997
sS'offmychest'
p22
F0.0082253340288100003
sS'Anxiety'
p23
F0.0093835585686700002
sS'TalesFromYourServer'
p24
F0.0111499293838
sS'childfree'
p25
F0.0141572342099
sS'recipes'
p26
F0.0105513202961
sS'BDSMcommunity'
p27
F0.0098853993526400001
sS'xxketo'
p28
F0.017033773862000001
sS'BipolarReddit'
p29
F0.0077099959421100001
sS'wedding'
p30
F0.0142632406922
sS'Rabbits'
p31
F0.0095405993985299992
sS'PrettyGirlsUglyFaces'
p32
F0.0095967429236099994
sS'makeupexchange'
p33
F0.016750983698700001
sS'creepyPMs'
p34
F0.0165187292231
sS'freebies'
p35
F0.00750385333009
sS'polyamory'
p36
F0.0083089415541500004
sS'Paleo'
p37
F0.0083809771309800007
sS'gardening'
p38
F0.00825953678474
sS'AskWomen'
p39
F0.016991003977499999
sS'tea'
p40
F0.0107661101576
sS'redditgetsdrawn'
p41
F0.0073566631795599999
sS'sex'
p42
F0.0073343904020200003
sS'tumblr'
p43
F0.0073209155777999996
sS'TwoXChromosomes'
p44
F0.012122541035
sS'fatpeoplestories'
p45
F0.010383148117399999
sS'knitting'
p46
F0.018596642272900001
sS'LongDistance'
p47
F0.0079193126634299997
sS'Feminism'
p48
F0.0113048324178
sS'cosplay'
p49
F0.0072557889550800003
sS'shittyfoodporn'
p50
F0.0070020147306499997
sS'InteriorDesign'
p51
F0.0075702075702099997
sS'ExpectationVsReality'
p52
F0.012683074135600001
sS'bipolar'
p53
F0.0083386786401499994
sS'AskCulinary'
p54
F0.0072830143252700002
sS'foodhacks'
p55
F0.0096922292127199997
sS'Baking'
p56
F0.0163698370595
sS'disney'
p57
F0.010084685499999999
sS'AskFeminists'
p58
F0.0071038251366099996
sS'DeadBedrooms'
p59
F0.0071157862170299997
sS'tonightsdinner'
p60
F0.0072325327510899999
sS'OnceUponATime'
p61
F0.0079876320535900002
sS'LetsNotMeet'
p62
F0.0080444470166099995
sS'transtimelines'
p63
F0.0079942897930000006
sS'delusionalartists'
p64
F0.0074033947273399996
sS'Random_Acts_Of_Pizza'
p65
F0.0074046987841700001
sS'Frugal'
p66
F0.0087220769354400002
sS'LadyBoners'
p67
F0.021235842771500001
sS'ainbow'
p68
F0.0071033938437300003
sS'keto'
p69
F0.0079825834542800005
sS'ThriftStoreHauls'
p70
F0.0104289940828
sS'fitmeals'
p71
F0.0077579519006999997
sS'vegetarian'
p72
F0.0078301722637900001
sS'TalesFromThePizzaGuy'
p73
F0.0078375096589
sS'piercing'
p74
F0.0150291189179
sS'Hair'
p75
F0.016160779032399999
sS'AnimalsBeingBros'
p76
F0.0079222421942599999
sS'MakeupAddicts'
p77
F0.023680649526400002
sS'weddingplanning'
p78
F0.0179280045351
sS'bigdickproblems'
p79
F0.0132972555083
sS'ChronicPain'
p80
F0.0103750997606
sS'xxfitness'
p81
F0.0230210240195
sS'Assistance'
p82
F0.0082496906366000006
sS'confession'
p83
F0.0085746322801900001
sS'TrollXChromosomes'
p84
F0.021088658795899998
sS'femalefashionadvice'
p85
F0.029145594889499998
sS'BeautyBoxes'
p86
F0.015676896505900002
sS'glutenfree'
p87
F0.0093095422808399993
sS'CrossStitch'
p88
F0.011788896504499999
sS'loseit'
p89
F0.011638483482899999
sS'EatCheapAndHealthy'
p90
F0.014076070679800001
sS'AustralianMakeup'
p91
F0.0073813708260099999
sS'cats'
p92
F0.0098559662750299995
sS'PenmanshipPorn'
p93
F0.0093816143241199999
sS'catpictures'
p94
F0.0118292289493
sS'Indiemakeupandmore'
p95
F0.0209518882566
sS'Cumberbitches'
p96
F0.0116861435726
sS'raisedbynarcissists'
p97
F0.016088639295700001
sS'dogs'
p98
F0.0090071563708200002
sS'happy'
p99
F0.010080487614300001
sS'fatlogic'
p100
F0.0085141522865799998
sS'TrollYChromosome'
p101
F0.016061832014999999
sS'Cooking'
p102
F0.0077001415832500001
sS'introvert'
p103
F0.0091484268125899999
sS'MakeupAddiction'
p104
F0.019985619744999999
sS'ketorecipes'
p105
F0.0114376609605
sS'snackexchange'
p106
F0.0094489981785100003
sS'breakingmom'
p107
F0.015749023560500001
sS'somethingimade'
p108
F0.0097812651152799999
sS'namenerds'
p109
F0.0112511251125
sS'ladybonersgw'
p110
F0.0085991244527800006
sS'curlyhair'
p111
F0.0279031596225
sS'TheGirlSurvivalGuide'
p112
F0.044436310395300001
sS'AskMen'
p113
F0.0074469178668899998
sS'ghettoglamourshots'
p114
F0.0100368701352
sS'blunderyears'
p115
F0.0098508169547699993
sS'Random_Acts_Of_Amazon'
p116
F0.011704011703999999
sS'PolishGauntlet'
p117
F0.0090854027861899996
sS'firstworldproblems'
p118
F0.0071614583333299998
sS'findareddit'
p119
F0.0072227399813599999
sS'lookatmydog'
p120
F0.0079989334755399995
sS'TryingForABaby'
p121
F0.0074693755602000004
sS'C25K'
p122
F0.0097274293241499995
sS'bisexual'
p123
F0.0099867522673999995
sS'entwives'
p124
F0.012708150745000001
sS'buffy'
p125
F0.0088105726872200005
sS'blackladies'
p126
F0.0096534261750300006
sS'RandomActsOfPolish'
p127
F0.013907967033000001
sS'Dogtraining'
p128
F0.0086925027164100003
sS'shorthairedhotties'
p129
F0.0071957028478799997
sS'yoga'
p130
F0.0079910637566599999
sS'pitbulls'
p131
F0.0087248322147700005
sS'Parenting'
p132
F0.0096859504132200003
sS'badtattoos'
p133
F0.0093495607318399999
sS'popping'
p134
F0.0100042073769
sS'slowcooking'
p135
F0.0119544064498
sS'RedditLaqueristas'
p136
F0.028797773257699999
sS'Fibromyalgia'
p137
F0.0079756931257100004
sS'quilting'
p138
F0.00985048372911
sS'AnimalsBeingJerks'
p139
F0.0074850299401199999
sS'birthcontrol'
p140
F0.019553459991699999
sS'sewing'
p141
F0.025272161741800001
sS'budgetfood'
p142
F0.0121546961326
sS'Mommit'
p143
F0.017214742882399998
sS'progresspics'
p144
F0.0100651431012
sS'crochet'
p145
F0.017688777638699998
sS'dogpictures'
p146
F0.0088726513569900006
sS'beyondthebump'
p147
F0.0126530612245
sS'thesims'
p148
F0.0120237944564
sS'short'
p149
F0.00969850305714
sS'GirlGamers'
p150
F0.019475386273800001
sS'HumanPorn'
p151
F0.0078173215387800001
sS'secretsanta'
p152
F0.0094390604171900004
sS'crafts'
p153
F0.016894844159599999
sS'tall'
p154
F0.0091194968553500004
sS'AsianBeauty'
p155
F0.0098619329388600005
sS'AmericanHorrorStory'
p156
F0.0084039498564300007
sS'sailormoon'
p157
F0.0095140515222499993
s.