(dp1
S'ChronicPain'
p2
F0.0082893745290099994
sS'Anxiety'
p3
F0.0141961043249
sS'BPD'
p4
F0.026498840675699999
sS'SuicideWatch'
p5
F0.0084131455399100007
sS'DrugNerds'
p6
F0.0077009465746799999
sS'MMFB'
p7
F0.0073311715776099998
sS'selfharm'
p8
F0.0093573446327699997
sS'bipolar'
p9
F0.190871953796
sS'bigboobproblems'
p10
F0.0077099959421100001
sS'socialanxiety'
p11
F0.010034207525700001
sS'ADHD'
p12
F0.0102596183922
sS'raisedbynarcissists'
p13
F0.0086793338024900007
sS'depression'
p14
F0.0136045825962
sS'psychology'
p15
F0.0112422261202
s.