(dp1
S'FancyFollicles'
p2
F0.0085337813937000004
sS'offmychest'
p3
F0.0074382781177500003
sS'Anxiety'
p4
F0.017546900047700001
sS'BPD'
p5
F0.026091319618699999
sS'actuallesbians'
p6
F0.0072365711596200002
sS'bisexual'
p7
F0.0073834794646999999
sS'leaves'
p8
F0.0070598364184199999
sS'ADHD'
p9
F0.0121699324513
sS'socialanxiety'
p10
F0.0093109869646200005
sS'SuicideWatch'
p11
F0.0114011085386
sS'selfharm'
p12
F0.010367454068199999
sS'psychology'
p13
F0.0097080694023699999
sS'bigboobproblems'
p14
F0.0083386786401499994
sS'confession'
p15
F0.0072708718668300001
sS'BipolarReddit'
p16
F0.190871953796
sS'introvert'
p17
F0.0078696781301600006
sS'TheGirlSurvivalGuide'
p18
F0.0076542395249100002
sS'raisedbynarcissists'
p19
F0.0099974551932199996
sS'aspergers'
p20
F0.0077255871446199999
sS'depression'
p21
F0.015379004315800001
sS'childfree'
p22
F0.0074918673808000002
s.