(dp1
S'FancyFollicles'
p2
F0.017524052621199999
sS'TryingForABaby'
p3
F0.0085409252668999999
sS'weddingplanning'
p4
F0.012726718487999999
sS'TwoXChromosomes'
p5
F0.0097613626515599995
sS'AskWomen'
p6
F0.0136422518487
sS'ABraThatFits'
p7
F0.025113683340200001
sS'Baking'
p8
F0.0088329107712400001
sS'crochet'
p9
F0.0082502266545800007
sS'sex'
p10
F0.0074362327288799998
sS'bigboobproblems'
p11
F0.019553459991699999
sS'Pets'
p12
F0.010646138727400001
sS'TrollXChromosomes'
p13
F0.0104186629963
sS'knitting'
p14
F0.0085333833458399993
sS'LongDistance'
p15
F0.010911163586
sS'BeautyBoxes'
p16
F0.016086620263
sS'Feminism'
p17
F0.0087627971542599999
sS'BabyBumps'
p18
F0.0080710250201800008
sS'femalefashionadvice'
p19
F0.017383306507199998
sS'TheBluePill'
p20
F0.0082345489096000007
sS'SkincareAddiction'
p21
F0.016427470050999999
sS'EatCheapAndHealthy'
p22
F0.0084685327152799993
sS'RandomActsofMakeup'
p23
F0.0136747886624
sS'Indiemakeupandmore'
p24
F0.0114226375909
sS'RedditLaqueristas'
p25
F0.013404825737299999
sS'raisedbynarcissists'
p26
F0.0070921985815599999
sS'xxfitness'
p27
F0.019011853068899999
sS'dogs'
p28
F0.0078628512503199997
sS'Anxiety'
p29
F0.0083851516864499997
sS'RandomActsOfPolish'
p30
F0.0070907194994800004
sS'childfree'
p31
F0.015599459882
sS'MakeupAddiction'
p32
F0.011633751182600001
sS'sewing'
p33
F0.0091625825697799999
sS'budgetfood'
p34
F0.0075002798611899998
sS'Mommit'
p35
F0.0090469698847400002
sS'xxketo'
p36
F0.0093204725262800003
sS'namenerds'
p37
F0.0071111111111100004
sS'LadyBoners'
p38
F0.0081685296646599997
sS'curlyhair'
p39
F0.0149795733091
sS'TheGirlSurvivalGuide'
p40
F0.034182673461399998
sS'wedding'
p41
F0.0104632024453
sS'makeupexchange'
p42
F0.0101419878296
sS'braswap'
p43
F0.014862466725799999
sS'GirlGamers'
p44
F0.0072218807621400004
sS'piercing'
p45
F0.0143869891576
sS'Hair'
p46
F0.013932427725499999
sS'crafts'
p47
F0.0086947187634199997
sS'MakeupAddicts'
p48
F0.013296188426
sS'AsianBeauty'
p49
F0.0089323692045900002
sS'sailormoon'
p50
F0.0070934256055399996
s.