(dp1
S'canada'
p2
F0.007907446928
sS'windowsphone'
p3
F0.0089668615984400003
sS'ontario'
p4
F0.013675502279300001
sS'CanadaPolitics'
p5
F0.0098207326578299992
sS'microsoft'
p6
F0.0085883822610900006
sS'thinkpad'
p7
F0.0093340060544899999
sS'PersonalFinanceCanada'
p8
F0.0073540226503899997
s.