(dp1
S'circlebroke2'
p2
F0.010077519379800001
sS'badhistory'
p3
F0.012315270935999999
sS'xxfitness'
p4
F0.0072499385598399999
sS'TrollXChromosomes'
p5
F0.0074556986625699999
sS'PurplePillDebate'
p6
F0.0073831009023799998
sS'actuallesbians'
p7
F0.0080974561089199992
sS'Hiphopcirclejerk'
p8
F0.0071975853262100003
sS'bigboobproblems'
p9
F0.0096534261750300006
sS'HipHopImages'
p10
F0.0070370370370399999
sS'entwives'
p11
F0.0076320132013199997
sS'OneY'
p12
F0.010756089845
sS'Foodforthought'
p13
F0.0078705728027999994
sS'femalefashionadvice'
p14
F0.0076703191996200003
sS'ShitRedditSays'
p15
F0.019806065607599999
sS'Feminism'
p16
F0.0143754760091
sS'SRSsucks'
p17
F0.0075397475823599999
sS'badphilosophy'
p18
F0.0079160894518100003
sS'ShitRConservativeSays'
p19
F0.0073193046660600001
sS'badlinguistics'
p20
F0.0093687262993500005
sS'circlebroke'
p21
F0.012725987273999999
sS'AskSocialScience'
p22
F0.0079170079170099994
sS'againstmensrights'
p23
F0.026968716289100001
sS'bisexual'
p24
F0.0075602255253700004
sS'Anarchy101'
p25
F0.0077821011673200003
sS'AskFeminists'
p26
F0.013516086046100001
sS'blackpeoplegifs'
p27
F0.0097560975609800003
sS'Anarchism'
p28
F0.0089950372208399999
sS'lgbt'
p29
F0.0070276216084099999
sS'GirlGamers'
p30
F0.011584298691599999
sS'EnoughLibertarianSpam'
p31
F0.0121388271499
sS'curlyhair'
p32
F0.010264858699799999
sS'TheGirlSurvivalGuide'
p33
F0.0088342140026399993
sS'ainbow'
p34
F0.010278372591
sS'TheoryOfReddit'
p35
F0.0081820886640900006
sS'SRSGaming'
p36
F0.015114578254499999
sS'GunsAreCool'
p37
F0.0072545907957399999
sS'Liberal'
p38
F0.0079710144927500007
sS'creepyPMs'
p39
F0.0070753856814600004
sS'progressive'
p40
F0.0087265197456000004
sS'asianamerican'
p41
F0.013795901805599999
sS'TheBluePill'
p42
F0.0179161245121
sS'FeMRADebates'
p43
F0.0093711467324300007
sS'socialism'
p44
F0.0076503693281699996
sS'SubredditDrama'
p45
F0.0081385387345499997
s.