(dp1
S'HalfLife'
p2
F0.0086609686609700007
sS'pcgaming'
p3
F0.0075168233665799996
sS'RandomActsOfGaming'
p4
F0.0071081897045900001
sS'photoshop'
p5
F0.011659953360200001
sS'Cinema4D'
p6
F0.010053735482800001
sS'robotics'
p7
F0.0093921910640000009
sS'worldbuilding'
p8
F0.010437847363399999
sS'hardware'
p9
F0.0086863652545399999
sS'glitch_art'
p10
F0.0116093300671
sS'perfectloops'
p11
F0.011889908256900001
sS'learnprogramming'
p12
F0.0094849230300999999
sS'linux'
p13
F0.011762820512800001
sS'webdev'
p14
F0.00734398782344
sS'Multicopter'
p15
F0.0070480928689900003
sS'3Dprinting'
p16
F0.0159163256025
sS'Portal'
p17
F0.0070760677280800001
sS'graphic_design'
p18
F0.011917098445600001
sS'techsupportmacgyver'
p19
F0.0115325474116
sS'privacy'
p20
F0.0076505648963599996
sS'MechanicalKeyboards'
p21
F0.00766531529997
sS'arduino'
p22
F0.0094586281144300004
sS'Python'
p23
F0.0096678724103900007
sS'PixelArt'
p24
F0.018828451882799999
sS'linux4noobs'
p25
F0.0080580978909699993
sS'unixporn'
p26
F0.0109121728997
sS'ImaginaryLandscapes'
p27
F0.0081083964579100002
sS'dwarffortress'
p28
F0.0077356853672600001
sS'shittybattlestations'
p29
F0.0086313193588199999
sS'animation'
p30
F0.019366771841999999
sS'gamedev'
p31
F0.024789840815600001
sS'misleadingthumbnails'
p32
F0.0072106803740999998
sS'Ubuntu'
p33
F0.0125573532963
sS'spaceporn'
p34
F0.0073317307692299999
sS'web_design'
p35
F0.0100061814248
sS'electronics'
p36
F0.0084163517691499996
sS'androiddev'
p37
F0.0081048867699600007
sS'Pareidolia'
p38
F0.0078734813004800001
sS'spaceengineers'
p39
F0.0085934333198199996
sS'wallpapers'
p40
F0.00716707021792
sS'archlinux'
p41
F0.0078422327297900003
sS'linuxquestions'
p42
F0.0097003664582899999
sS'DeepIntoYouTube'
p43
F0.0076309794988599997
sS'gamedesign'
p44
F0.015157666802
sS'firefox'
p45
F0.0076873105240399999
sS'outside'
p46
F0.0093136065971399992
sS'ImaginaryMonsters'
p47
F0.0076550387596899996
sS'delusionalartists'
p48
F0.0075595238095199999
sS'AfterEffects'
p49
F0.016655290102400001
sS'linux_gaming'
p50
F0.0147827835881
sS'IndieGaming'
p51
F0.018216861477199999
sS'GamePhysics'
p52
F0.0117086978899
sS'learnpython'
p53
F0.00795588102342
sS'Minecraft'
p54
F0.0070416487763000002
sS'Steam'
p55
F0.0071717144329100004
sS'ProgrammerHumor'
p56
F0.0116569525396
sS'VideoEditing'
p57
F0.0072690813385099997
sS'Unity3D'
p58
F0.040167753960899999
sS'raspberry_pi'
p59
F0.0103639882625
sS'Astronomy'
p60
F0.0075055187637999999
sS'oculus'
p61
F0.0109118188638
sS'windows'
p62
F0.0071650169892199999
sS'GiftofGames'
p63
F0.0073794254590200002
sS'techsupportgore'
p64
F0.0092073194320899995
sS'programming'
p65
F0.0096551724137900006
sS'typography'
p66
F0.010272277227699999
sS'Perfectfit'
p67
F0.0073686079545499999
sS'CrappyDesign'
p68
F0.0095915927604299997
sS'behindthegifs'
p69
F0.0073041168658700001
sS'softwaregore'
p70
F0.0135011021308
sS'compsci'
p71
F0.0083025133972400005
sS'Design'
p72
F0.011609336609300001
sS'Cyberpunk'
p73
F0.011534940494400001
sS'vfx'
p74
F0.019638403990000001
sS'learnart'
p75
F0.011234452320400001
sS'KerbalSpaceProgram'
p76
F0.010945472166
sS'Filmmakers'
p77
F0.0083916803953900006
sS'drawing'
p78
F0.0083349362056800002
sS'software'
p79
F0.0071558261241099997
s.