(dp1
S'RedHotChiliPeppers'
p2
F0.00745495961897
sS'Bass'
p3
F0.0074595591316699997
sS'poppunkers'
p4
F0.052936528838599999
sS'punk'
p5
F0.011386190326999999
sS'PostHardcore'
p6
F0.0102585575212
sS'drums'
p7
F0.0076401407846200002
sS'greenday'
p8
F0.045614987781699999
s.