(dp1
S'graffhelp'
p2
F0.14192424902
sS'glitch_art'
p3
F0.0072463768115899998
sS'trapmuzik'
p4
F0.0105048147067
sS'Hardcore'
p5
F0.00707046900778
sS'glassheads'
p6
F0.0079191238416199995
sS'typography'
p7
F0.00907543959161
sS'urbanexploration'
p8
F0.0096803241783000003
sS'Hiphopcirclejerk'
p9
F0.0086067778375499993
sS'CannabisExtracts'
p10
F0.0077110389610400001
sS'realdubstep'
p11
F0.0075369309617099997
sS'HipHopImages'
p12
F0.0078561917443399996
sS'stencils'
p13
F0.020610487868500001
sS'Graffiti'
p14
F0.099838391093600001
sS'bmx'
p15
F0.0089235917456800002
sS'Calligraphy'
p16
F0.0082996859578300004
sS'skateboarding'
p17
F0.0130750605327
sS'streetwear'
p18
F0.0080645161290299992
s.