(dp1
S'bettafish'
p2
F0.0098491198658799996
sS'gardening'
p3
F0.016833148353699999
sS'BackYardChickens'
p4
F0.00717360114778
sS'tea'
p5
F0.0083266183185600005
sS'Aquariums'
p6
F0.0127610987978
sS'PlantedTank'
p7
F0.017999100045000001
sS'ReefTank'
p8
F0.0105046343975
sS'woodworking'
p9
F0.0072535853436099997
sS'marijuanaenthusiasts'
p10
F0.0234948604993
sS'mycology'
p11
F0.0161656267725
sS'whatsthisplant'
p12
F0.0253822030576
sS'homestead'
p13
F0.0096948959224399996
s.