(dp1
S'FancyFollicles'
p2
F0.0096036504483499995
sS'xxfitness'
p3
F0.0112323284488
sS'knitting'
p4
F0.0084651370015599997
sS'femalefashionadvice'
p5
F0.017082524030100001
sS'BeautyBoxes'
p6
F0.013533208411400001
sS'RandomActsofMakeup'
p7
F0.0167008035292
sS'SkincareAddiction'
p8
F0.0096386288972900008
sS'Indiemakeupandmore'
p9
F0.019119697271500001
sS'ABraThatFits'
p10
F0.112796208531
sS'bigboobproblems'
p11
F0.065221489161200005
sS'RandomActsOfPolish'
p12
F0.0074074074074100002
sS'RedditLaqueristas'
p13
F0.0077220077220099999
sS'birthcontrol'
p14
F0.014862466725799999
sS'sewing'
p15
F0.0090897286066700007
sS'xxketo'
p16
F0.0070115094589200001
sS'curlyhair'
p17
F0.0131486921248
sS'TheGirlSurvivalGuide'
p18
F0.018255937610800001
sS'clothdiaps'
p19
F0.00775467042651
sS'makeupexchange'
p20
F0.030417625781000001
sS'Hair'
p21
F0.0070170413862200003
sS'MakeupAddicts'
p22
F0.0172747820471
sS'AsianBeauty'
p23
F0.0095078299776300002
s.