(dp1
S'awwwtf'
p2
F0.0084634760705299995
sS'Heavymind'
p3
F0.0074332795987799996
sS'HipHopImages'
p4
F0.0100362131402
sS'PublicFreakout'
p5
F0.0077707134927800002
sS'PanicHistory'
p6
F0.0106837606838
sS'fffffffuuuuuuuuuuuu'
p7
F0.0074097851964800001
sS'dadjokes'
p8
F0.0076173873498299998
sS'Hiphopcirclejerk'
p9
F0.018683579019500001
sS'futurama'
p10
F0.0082002589555500004
sS'perfectloops'
p11
F0.0106799846331
sS'RandomActsOfGaming'
p12
F0.0071266348186999999
sS'MLPLounge'
p13
F0.0075286415711899998
sS'ShitRConservativeSays'
p14
F0.0073891625615799999
sS'badlinguistics'
p15
F0.0077264507644300004
sS'quityourbullshit'
p16
F0.0150140240884
sS'LearnUselessTalents'
p17
F0.0073028536360800001
sS'shittybattlestations'
p18
F0.010453345070399999
sS'whowouldwin'
p19
F0.0072449299751799999
sS'holdmybeer'
p20
F0.0079526226734300005
sS'Fallout'
p21
F0.0076451110245399998
sS'ImaginaryMonsters'
p22
F0.0072194719471899999
sS'MetalMemes'
p23
F0.0080769687611400003
sS'MensRights'
p24
F0.0070954302825200002
sS'nononono'
p25
F0.0094296577946799999
sS'MilitaryPorn'
p26
F0.0071597935747799999
sS'Frisson'
p27
F0.0073043478260900003
sS'moviescirclejerk'
p28
F0.011717171717199999
sS'softwaregore'
p29
F0.0136425648022
sS'shittydarksouls'
p30
F0.0073729142413699999
sS'gmod'
p31
F0.0071770334928200003
sS'NoStupidQuestions'
p32
F0.0082818414156800007
sS'3amjokes'
p33
F0.0084043560606099996
sS'toosoon'
p34
F0.019212203128
sS'magicskyfairy'
p35
F0.049480968858100001
sS'GunsAreCool'
p36
F0.0071606994171499998
sS'creepyPMs'
p37
F0.0089436789944399991
sS'IdiotsFightingThings'
p38
F0.0091288471570200001
sS'WatchItForThePlot'
p39
F0.0075504394108200003
sS'techsupportgore'
p40
F0.0080392855728500003
sS'PropagandaPosters'
p41
F0.010946216187799999
sS'CrappyDesign'
p42
F0.011308882716399999
sS'shittyadviceanimals'
p43
F0.030546009927499999
sS'montageparodies'
p44
F0.022506198741199999
sS'DeepIntoYouTube'
p45
F0.022106398274599998
sS'csshelp'
p46
F0.0095953942107799995
sS'cringe'
p47
F0.0093652079005699992
sS'badhistory'
p48
F0.012268314210100001
sS'TheSimpsons'
p49
F0.0071428571428599997
sS'circlebroke2'
p50
F0.0233853006682
sS'tumblr'
p51
F0.0105338078292
sS'see'
p52
F0.0076392925350800001
sS'MarkMyWords'
p53
F0.0151968409716
sS'fatpeoplestories'
p54
F0.0071471713307799997
sS'KarmaCourt'
p55
F0.0124755749286
sS'firstworldanarchists'
p56
F0.0133457820738
sS'forwardsfromgrandma'
p57
F0.0222828294551
sS'no_sob_story'
p58
F0.018947100712099998
sS'findareddit'
p59
F0.0086970526654900002
sS'shittyfoodporn'
p60
F0.0112752852479
sS'ExpectationVsReality'
p61
F0.0101238221322
sS'firstworldproblems'
p62
F0.0078384798099800004
sS'outside'
p63
F0.011278760840100001
sS'facepalm'
p64
F0.0093515381037799997
sS'memes'
p65
F0.0070891328780200002
sS'vexillology'
p66
F0.010638297872299999
sS'CatsStandingUp'
p67
F0.0084699750244300008
sS'SubredditDrama'
p68
F0.013163380785
sS'blackpeoplegifs'
p69
F0.0141574585635
sS'glitch_art'
p70
F0.0107171360164
sS'needamod'
p71
F0.015940251922899999
sS'casualiama'
p72
F0.0082321162786399994
sS'FloridaMan'
p73
F0.0109060934627
sS'delusionalartists'
p74
F0.0146335388256
sS'whitepeoplegifs'
p75
F0.0148011100833
sS'NotTimAndEric'
p76
F0.019048397645499999
sS'shittyaskscience'
p77
F0.01214320799
sS'GamePhysics'
p78
F0.0121378755365
sS'lewronggeneration'
p79
F0.031527551732200003
sS'youtubehaiku'
p80
F0.0107198142415
sS'PoliticalHumor'
p81
F0.0073967763303200004
sS'TheoryOfReddit'
p82
F0.0131753898223
sS'TheBluePill'
p83
F0.0108163790883
sS'4chan'
p84
F0.0143494788753
sS'watchpeopledie'
p85
F0.0082761774119799996
sS'wheredidthesodago'
p86
F0.011881503927300001
sS'AnimalsBeingBros'
p87
F0.0091321065641300006
sS'classic4chan'
p88
F0.023786869648
sS'ANormalDayInRussia'
p89
F0.0108084422698
sS'androidcirclejerk'
p90
F0.014530839387800001
sS'QuotesPorn'
p91
F0.0070438640625699999
sS'ShitAmericansSay'
p92
F0.0109120301765
sS'misc'
p93
F0.0085590189064899992
sS'drunk'
p94
F0.0080625110992699998
sS'reactiongifs'
p95
F0.00722880061115
sS'AntiJokes'
p96
F0.010556621881000001
sS'KingOfTheHill'
p97
F0.0082751486940799996
sS'rant'
p98
F0.0080454744206400006
sS'conspiratard'
p99
F0.019779820953300001
sS'marijuanaenthusiasts'
p100
F0.0083087644063300006
sS'ContagiousLaughter'
p101
F0.0079619800024700003
sS'nostalgia'
p102
F0.0074386588209200003
sS'tf2'
p103
F0.0073569856985700004
sS'Damnthatsinteresting'
p104
F0.0078729590695600007
sS'FiftyFifty'
p105
F0.010532634795899999
sS'CrazyIdeas'
p106
F0.010076542970600001
sS'OutOfTheLoop'
p107
F0.013066907190300001
sS'onetruegod'
p108
F0.013698630137
sS'TheFacebookDelusion'
p109
F0.0083820167640299998
sS'MorbidReality'
p110
F0.0079457701189399998
sS'mylittleandysonic1'
p111
F0.0070827799911499997
sS'shittyreactiongifs'
p112
F0.020870780906699998
sS'misleadingthumbnails'
p113
F0.014607333785100001
sS'shittyadvice'
p114
F0.0134078212291
sS'MeanJokes'
p115
F0.0074192443784999998
sS'FreeKarma'
p116
F0.0086631226619399999
sS'Pareidolia'
p117
F0.0108077360637
sS'fatlogic'
p118
F0.0092341432446500001
sS'TrollYChromosome'
p119
F0.0089912550806700003
sS'explainlikeIAmA'
p120
F0.0123852416421
sS'trailerparkboys'
p121
F0.0077099042616299998
sS'mildlyinfuriating'
p122
F0.0092251209533100002
sS'oddlysatisfying'
p123
F0.0085079249407899998
sS'Unexpected'
p124
F0.0098502429170099996
sS'Awwducational'
p125
F0.0077158247197600003
sS'Shitty_Car_Mods'
p126
F0.0078565022421499993
sS'shittyaskreddit'
p127
F0.016816143497800001
sS'ghettoglamourshots'
p128
F0.0086742343114200003
sS'blunderyears'
p129
F0.012412723041100001
sS'showerbeer'
p130
F0.0071767916708800001
sS'rage'
p131
F0.0135653271209
sS'thatHappened'
p132
F0.015503044858
sS'interestingasfuck'
p133
F0.0071964687494600003
sS'Perfectfit'
p134
F0.0077125658389800003
sS'PerfectTiming'
p135
F0.0078468612554999997
sS'behindthegifs'
p136
F0.0107492719089
sS'standupshots'
p137
F0.0072196500039199999
sS'GTA'
p138
F0.0076959174096700002
sS'crappymusic'
p139
F0.0140248743054
sS'teenagers'
p140
F0.0093218822687400008
sS'conspiracy'
p141
F0.0075300647548600004
sS'polandball'
p142
F0.011144716943900001
sS'counting'
p143
F0.0094181275643400002
sS'ShitRedditSays'
p144
F0.0081593261975800007
sS'southpark'
p145
F0.0082894886256100007
sS'SRSsucks'
p146
F0.016922471467900001
sS'techsupportmacgyver'
p147
F0.0078230374966300007
sS'MURICA'
p148
F0.0120063716982
sS'HighQualityGifs'
p149
F0.0082497573600800005
sS'shittyama'
p150
F0.0177695511337
sS'circlebroke'
p151
F0.028470380194499999
sS'gats'
p152
F0.012261580381499999
sS'nonononoyes'
p153
F0.0081814267259899993
sS'Frugal_Jerk'
p154
F0.0168681099748
sS'Whatcouldgowrong'
p155
F0.0084999711865400007
sS'fifthworldproblems'
p156
F0.0140243902439
sS'notinteresting'
p157
F0.019068962805700002
sS'badphilosophy'
p158
F0.0107137467934
sS'AnimalsBeingJerks'
p159
F0.0087244742456600004
sS'EnoughLibertarianSpam'
p160
F0.0119688004303
sS'ConfusedBoners'
p161
F0.0084383789978099994
sS'HumanPorn'
p162
F0.0094900849858399992
sS'TimAndEric'
p163
F0.0098399525785399997
sS'terriblefacebookmemes'
p164
F0.032840722495899997
sS'TumblrInAction'
p165
F0.0107903293476
sS'cringepics'
p166
F0.0085699054611200007
sS'HailCorporate'
p167
F0.0123939365049
sS'ImGoingToHellForThis'
p168
F0.0088036918707800008
s.