(dp1
S'KerbalSpaceProgram'
p2
F0.0097380142197099999
sS'Destiny'
p3
F0.0084857056268300007
sS'Planetside'
p4
F0.0092696755613599999
sS'Warthunder'
p5
F0.0087573201525799997
sS'Eve'
p6
F0.13539465391300001
sS'dwarffortress'
p7
F0.0100526244771
sS'WorldofTanks'
p8
F0.00855853215312
sS'MMORPG'
p9
F0.0074494718202400001
sS'starcitizen'
p10
F0.0097103494065899996
sS'spaceengineers'
p11
F0.010121457489899999
s.