(dp1
S'FancyFollicles'
p2
F0.0111667130016
sS'TryingForABaby'
p3
F0.042713955281399998
sS'Paleo'
p4
F0.00765190324882
sS'daddit'
p5
F0.0189033189033
sS'gardening'
p6
F0.010445534001299999
sS'BackYardChickens'
p7
F0.0079099482811099998
sS'EatCheapAndHealthy'
p8
F0.0090182065679800007
sS'ABraThatFits'
p9
F0.016709748892200001
sS'Baking'
p10
F0.010611077664100001
sS'TheGirlSurvivalGuide'
p11
F0.0114706507116
sS'bigboobproblems'
p12
F0.0119817876827
sS'Pets'
p13
F0.0076501912547799998
sS'weddingplanning'
p14
F0.0070718386780600001
sS'femalefashionadvice'
p15
F0.0091276568000999998
sS'nursing'
p16
F0.0089269773254799997
sS'CrossStitch'
p17
F0.0079008309494599995
sS'breakingmom'
p18
F0.157261529648
sS'BabyBumps'
p19
F0.15423813966800001
sS'clothdiaps'
p20
F0.137396902032
sS'SkincareAddiction'
p21
F0.0086976359540299995
sS'Parenting'
p22
F0.058536247445499998
sS'slowcooking'
p23
F0.0101469365123
sS'RedditLaqueristas'
p24
F0.010558386300399999
sS'raisedbynarcissists'
p25
F0.0113606340819
sS'xxfitness'
p26
F0.010565500629600001
sS'Assistance'
p27
F0.00865503503228
sS'InfertilityBabies'
p28
F0.019912472647699998
sS'Cooking'
p29
F0.0074215647339199997
sS'knitting'
p30
F0.0146429183079
sS'quilting'
p31
F0.0123044471788
sS'MakeupAddiction'
p32
F0.0090266591202599993
sS'sewing'
p33
F0.018704203625099999
sS'budgetfood'
p34
F0.0087947231660999992
sS'Mommit'
p35
F0.1633707016
sS'xxketo'
p36
F0.0107808857809
sS'namenerds'
p37
F0.06056802134
sS'LadyBoners'
p38
F0.0077188372474999998
sS'curlyhair'
p39
F0.0099607606399000001
sS'crochet'
p40
F0.020638368984
sS'beyondthebump'
p41
F0.275432969852
sS'infertility'
p42
F0.0161021654636
sS'Frugal'
p43
F0.0088081917644100005
sS'recipes'
p44
F0.0083149779735700001
sS'predaddit'
p45
F0.0289987789988
sS'crafts'
p46
F0.0113756868794
sS'Teachers'
p47
F0.00704050360308
s.