(dp1
S'breastfeeding'
p2
F0.157261529648
sS'TryingForABaby'
p3
F0.034214366790999998
sS'gardening'
p4
F0.0089575490068800005
sS'BackYardChickens'
p5
F0.0075867635189699996
sS'AskWomen'
p6
F0.0091426898405699997
sS'pettyrevenge'
p7
F0.00796178343949
sS'ABraThatFits'
p8
F0.016642754662800002
sS'Baking'
p9
F0.0118678250078
sS'TheGirlSurvivalGuide'
p10
F0.015190243189999999
sS'raisedbynarcissists'
p11
F0.015885226354900001
sS'bigboobproblems'
p12
F0.015749023560500001
sS'Pets'
p13
F0.0088119347607600006
sS'entwives'
p14
F0.0098416115638900008
sS'confession'
p15
F0.0079055338737099995
sS'TalesFromYourServer'
p16
F0.0089945880021300006
sS'quilting'
p17
F0.0122410546139
sS'femalefashionadvice'
p18
F0.011294180175399999
sS'BeautyBoxes'
p19
F0.00817174515235
sS'autism'
p20
F0.00753084441596
sS'RandomActsofMakeup'
p21
F0.0101424501425
sS'nursing'
p22
F0.0074743932822700001
sS'CrossStitch'
p23
F0.0115356885364
sS'TalesFromRetail'
p24
F0.0072026375855899997
sS'loseit'
p25
F0.0087016115633800004
sS'clothdiaps'
p26
F0.077269010629599996
sS'SkincareAddiction'
p27
F0.0104545717091
sS'EatCheapAndHealthy'
p28
F0.0117055406226
sS'knitting'
p29
F0.0140633292057
sS'ExpectationVsReality'
p30
F0.0071786954843700004
sS'TwoXChromosomes'
p31
F0.0085297524024199999
sS'TrollXChromosomes'
p32
F0.0097873950736199998
sS'Parenting'
p33
F0.072121362845099998
sS'AskCulinary'
p34
F0.0075090785991299997
sS'slowcooking'
p35
F0.012490064721199999
sS'RedditLaqueristas'
p36
F0.010938337801599999
sS'daddit'
p37
F0.015748613678400001
sS'xxfitness'
p38
F0.011980741238400001
sS'Assistance'
p39
F0.011673151751
sS'InfertilityBabies'
p40
F0.016155856497999999
sS'offmychest'
p41
F0.0070070876288699999
sS'Cooking'
p42
F0.0085798148566299994
sS'RandomActsOfPolish'
p43
F0.00745725718443
sS'DeadBedrooms'
p44
F0.0094121400654099997
sS'MakeupAddiction'
p45
F0.00996158508976
sS'RandomKindness'
p46
F0.0090532850491499995
sS'sewing'
p47
F0.018709354677299998
sS'budgetfood'
p48
F0.0119854090672
sS'Mommit'
p49
F0.16796411136
sS'xxketo'
p50
F0.015090135709899999
sS'namenerds'
p51
F0.051806632568900002
sS'weddingplanning'
p52
F0.0079925115207400005
sS'LadyBoners'
p53
F0.010709504685400001
sS'curlyhair'
p54
F0.011207709228000001
sS'crochet'
p55
F0.018333620244399999
sS'wedding'
p56
F0.0072526520891999999
sS'beyondthebump'
p57
F0.18512089274599999
sS'BabyBumps'
p58
F0.101304896871
sS'Random_Acts_Of_Amazon'
p59
F0.0095637053430300007
sS'infertility'
p60
F0.014101290963299999
sS'Frugal'
p61
F0.0091988479398100002
sS'recipes'
p62
F0.010484189166299999
sS'predaddit'
p63
F0.020054548371599999
sS'Hair'
p64
F0.0080059777967500002
sS'secretsanta'
p65
F0.0077256659742700002
sS'FancyFollicles'
p66
F0.0128980440329
sS'crafts'
p67
F0.0136395547087
sS'MakeupAddicts'
p68
F0.0076335877862599997
sS'Divorce'
p69
F0.0074706510138699998
s.