(dp1
S'AFL'
p2
F0.0131084239407
sS'Cricket'
p3
F0.0173793734279
sS'australia'
p4
F0.067140420693600003
sS'AustralianMakeup'
p5
F0.0183788232067
sS'melbourne'
p6
F0.0174613834788
sS'Aleague'
p7
F0.0196629213483
sS'perth'
p8
F0.0084334809192499992
sS'sydney'
p9
F0.017964071856300001
sS'rugbyunion'
p10
F0.0094878124035799993
sS'Adelaide'
p11
F0.0095549104983100007
s.