(dp1
S'MapPorn'
p2
F0.0079813705421699997
sS'ABraThatFits'
p3
F0.012330851149
sS'KitchenConfidential'
p4
F0.016964662818499999
sS'BuyItForLife'
p5
F0.022117314697800001
sS'SampleSize'
p6
F0.0079968639749099998
sS'everymanshouldknow'
p7
F0.014373574735699999
sS'financialindependence'
p8
F0.015382212852300001
sS'NeutralPolitics'
p9
F0.0087662337662299996
sS'HistoryPorn'
p10
F0.0098874872144600005
sS'holdmybeer'
p11
F0.0087961701630799999
sS'BasicIncome'
p12
F0.0088472319551499996
sS'UpliftingNews'
p13
F0.0087358295250800008
sS'PandR'
p14
F0.00837879968823
sS'IWantToLearn'
p15
F0.015777645278200001
sS'beermoney'
p16
F0.011870941558399999
sS'CrappyDesign'
p17
F0.0101355868745
sS'Cyberpunk'
p18
F0.0070367474589499998
sS'Libertarian'
p19
F0.00742817098809
sS'Paleo'
p20
F0.0145963834062
sS'BackYardChickens'
p21
F0.0079355390062299993
sS'EatCheapAndHealthy'
p22
F0.061646704079100001
sS'tea'
p23
F0.0150125104254
sS'MechanicAdvice'
p24
F0.0076159314002000001
sS'fatpeoplestories'
p25
F0.0102262358013
sS'OneY'
p26
F0.0092055233139900008
sS'forwardsfromgrandma'
p27
F0.0083397288308999992
sS'frugalmalefashion'
p28
F0.0094679209897500002
sS'findareddit'
p29
F0.0105081230557
sS'skeptic'
p30
F0.0105088495575
sS'boardgames'
p31
F0.0070429620686200001
sS'InteriorDesign'
p32
F0.013878849212099999
sS'socialskills'
p33
F0.00906316036628
sS'Anticonsumption'
p34
F0.0149103139013
sS'tattoos'
p35
F0.0070166161605900003
sS'Economics'
p36
F0.0080164526147900005
sS'legaladvice'
p37
F0.0082558816825800008
sS'malelivingspace'
p38
F0.010918432883800001
sS'answers'
p39
F0.012715231788100001
sS'lgbt'
p40
F0.00769192348035
sS'Random_Acts_Of_Pizza'
p41
F0.010046244618099999
sS'doctorwho'
p42
F0.0071426930938699998
sS'ThriftStoreHauls'
p43
F0.0167364016736
sS'Breadit'
p44
F0.023942375976500001
sS'glutenfree'
p45
F0.0095034703683900008
sS'vegetarian'
p46
F0.015814524796600001
sS'personalfinance'
p47
F0.00951809438082
sS'Hair'
p48
F0.0078289936664300008
sS'IWantOut'
p49
F0.0109672397934
sS'whatsthisbug'
p50
F0.0088918008236599996
sS'QuotesPorn'
p51
F0.0100976243349
sS'TrueReddit'
p52
F0.0124276033484
sS'Assistance'
p53
F0.0101547987616
sS'AmIFreeToGo'
p54
F0.00708143651998
sS'IdiotsFightingThings'
p55
F0.0098298459415999996
sS'Health'
p56
F0.0112237921604
sS'environment'
p57
F0.0080824794755899997
sS'eldertrees'
p58
F0.0087336244541499995
sS'AskHistorians'
p59
F0.0085755622780499998
sS'OutOfTheLoop'
p60
F0.0105024439649
sS'ifyoulikeblank'
p61
F0.0083644677410400006
sS'Pareidolia'
p62
F0.010848003967300001
sS'sushi'
p63
F0.0104645814167
sS'cordcutters'
p64
F0.014248704663199999
sS'LifeProTips'
p65
F0.0107063226895
sS'TheGirlSurvivalGuide'
p66
F0.020388536257
sS'AskMen'
p67
F0.00819092714563
sS'ghettoglamourshots'
p68
F0.00938349557134
sS'EDC'
p69
F0.0078845831236399998
sS'showerbeer'
p70
F0.0077746196288200004
sS'techsupportgore'
p71
F0.0082357247437799992
sS'science'
p72
F0.0072319499038600004
sS'firstworldproblems'
p73
F0.011062426792799999
sS'Entrepreneur'
p74
F0.0079519296882000004
sS'standupshots'
p75
F0.011256010491
sS'Meditation'
p76
F0.0083805083805100003
sS'AskScienceFiction'
p77
F0.0070612668743499996
sS'NewsOfTheStupid'
p78
F0.0091014922214
sS'awesome'
p79
F0.0085931072310100002
sS'solotravel'
p80
F0.0074909259402299996
sS'DecidingToBeBetter'
p81
F0.0126248612653
sS'Glitch_in_the_Matrix'
p82
F0.0077935573259400003
sS'Infographics'
p83
F0.0077388365059600003
sS'YouShouldKnow'
p84
F0.018784385643200001
sS'CampingandHiking'
p85
F0.011078717201199999
sS'Pizza'
p86
F0.019099698842900002
sS'techsupportmacgyver'
p87
F0.00826383623958
sS'backpacking'
p88
F0.0096193771626299999
sS'needadvice'
p89
F0.0085578813461299995
sS'scifi'
p90
F0.0093340223499800007
sS'RedditLaqueristas'
p91
F0.012419949543999999
sS'spaceporn'
p92
F0.0084684784413600004
sS'nyc'
p93
F0.0077442110105800004
sS'economy'
p94
F0.0070080358811399996
sS'Mommit'
p95
F0.012863534675600001
sS'vegan'
p96
F0.0090042988265400005
sS'GradSchool'
p97
F0.0074464220850000004
sS'dogpictures'
p98
F0.0089066134928499994
sS'DumpsterDiving'
p99
F0.012699522311500001
sS'eFreebies'
p100
F0.0076240108087200003
sS'crafts'
p101
F0.016606558752000001
sS'tall'
p102
F0.0080540149505699994
sS'travel'
p103
F0.0091833756202700009
sS'DoesAnybodyElse'
p104
F0.0102389924633
sS'pettyrevenge'
p105
F0.012850961382
sS'CityPorn'
p106
F0.0075091061922100003
sS'dataisbeautiful'
p107
F0.0081967213114800003
sS'linguistics'
p108
F0.0075396825396800001
sS'BabyBumps'
p109
F0.0079672205781899999
sS'nostalgia'
p110
F0.011560494168
sS'Documentaries'
p111
F0.0080004898259099996
sS'writing'
p112
F0.0071514441601700004
sS'HITsWorthTurkingFor'
p113
F0.0085626911314999991
sS'bikecommuting'
p114
F0.0071822117276699998
sS'Frisson'
p115
F0.0078457608563399991
sS'childfree'
p116
F0.011829729467699999
sS'smallbusiness'
p117
F0.0079381954780599999
sS'food'
p118
F0.0127286168879
sS'NoStupidQuestions'
p119
F0.0115886485993
sS'creepyPMs'
p120
F0.0099025869298800008
sS'freebies'
p121
F0.019318837791
sS'PropagandaPosters'
p122
F0.0085366905234100007
sS'SubredditDrama'
p123
F0.0093868166530500004
sS'minimalism'
p124
F0.0135611059385
sS'TrueAtheism'
p125
F0.0079409151488199995
sS'malegrooming'
p126
F0.0072437846539099996
sS'TwoXChromosomes'
p127
F0.0079780680138000007
sS'Cinemagraphs'
p128
F0.0073057878074500003
sS'psychology'
p129
F0.0102283225551
sS'entertainment'
p130
F0.0073585109836600002
sS'shittyfoodporn'
p131
F0.0214544529909
sS'LearnUselessTalents'
p132
F0.0134728079303
sS'RoomPorn'
p133
F0.011509785647699999
sS'bestof'
p134
F0.0088834662660200008
sS'LadyBoners'
p135
F0.010111145415299999
sS'recipes'
p136
F0.048863875447099997
sS'TalesFromThePizzaGuy'
p137
F0.0092705309485900007
sS'howtonotgiveafuck'
p138
F0.0107463008964
sS'MakeupAddicts'
p139
F0.0077038707252899997
sS'whatstheword'
p140
F0.0085422469823600005
sS'weddingplanning'
p141
F0.010857900385100001
sS'churning'
p142
F0.0070334328933400001
sS'misc'
p143
F0.0089926240274800003
sS'patientgamers'
p144
F0.010114697769
sS'conspiratard'
p145
F0.0070145605271500003
sS'ANormalDayInRussia'
p146
F0.0095044987961000003
sS'PenmanshipPorn'
p147
F0.0093120585927300003
sS'thesims'
p148
F0.0079424032912399998
sS'Indiemakeupandmore'
p149
F0.0080287344179199999
sS'dogs'
p150
F0.0108103934211
sS'nutrition'
p151
F0.0148785046729
sS'TrollYChromosome'
p152
F0.0105015588251
sS'collapse'
p153
F0.0076444806849499999
sS'mildlyinfuriating'
p154
F0.0095124672113800005
sS'breakingmom'
p155
F0.0119854090672
sS'Awwducational'
p156
F0.012646161667499999
sS'BBQ'
p157
F0.013575072886299999
sS'worldpolitics'
p158
F0.0075853350189599997
sS'nononono'
p159
F0.01005371161
sS'FoodPorn'
p160
F0.0181186283596
sS'Aquariums'
p161
F0.0070522632845000004
sS'explainlikeIAmA'
p162
F0.0072363131350000002
sS'TalesFromYourServer'
p163
F0.013759638394
sS'HighQualityGifs'
p164
F0.0076140375164399999
sS'self'
p165
F0.011753683672599999
sS'Parenting'
p166
F0.013123937810800001
sS'slowcooking'
p167
F0.0538388021663
sS'UnresolvedMysteries'
p168
F0.0088352796558099998
sS'nonononoyes'
p169
F0.0090586976868600004
sS'getdisciplined'
p170
F0.012646944119400001
sS'RandomKindness'
p171
F0.0092708409977199993
sS'sewing'
p172
F0.013798836242700001
sS'progresspics'
p173
F0.0077853788033500002
sS'crochet'
p174
F0.0098468271334800003
sS'beyondthebump'
p175
F0.0089807306652699998
sS'investing'
p176
F0.0071545585236199999
sS'secretsanta'
p177
F0.0094936708860800002
sS'HailCorporate'
p178
F0.0093710292248999991
sS'FancyFollicles'
p179
F0.0137454073914
sS'fffffffuuuuuuuuuuuu'
p180
F0.0076554538771599996
sS'PoliticalDiscussion'
p181
F0.0082052467352400002
sS'Foodforthought'
p182
F0.012244426475699999
sS'RandomActsofMakeup'
p183
F0.0089037284362799996
sS'languagelearning'
p184
F0.0074876987805700002
sS'TheoryOfReddit'
p185
F0.0080854750216600001
sS'TheBluePill'
p186
F0.0086564341310800003
sS'harrypotter'
p187
F0.00773283480625
sS'wicked_edge'
p188
F0.0101431980907
sS'booksuggestions'
p189
F0.0097494496278400008
sS'bourbon'
p190
F0.0073090293252500004
sS'Anxiety'
p191
F0.0081470649676200005
sS'arresteddevelopment'
p192
F0.0077869707293299999
sS'shutupandtakemymoney'
p193
F0.013673488116000001
sS'JusticePorn'
p194
F0.0079115668761699995
sS'geek'
p195
F0.0098879367172099997
sS'xxketo'
p196
F0.00888441874109
sS'lostgeneration'
p197
F0.0088775599894499995
sS'wedding'
p198
F0.0105347736809
sS'homestead'
p199
F0.017074836569399999
sS'AbandonedPorn'
p200
F0.0104058989732
sS'dadjokes'
p201
F0.0080492091388400001
sS'thatHappened'
p202
F0.0075592412233299999
sS'AskWomen'
p203
F0.0113815011628
sS'sex'
p204
F0.0073654740511600002
sS'cocktails'
p205
F0.0087070499016900001
sS'Justrolledintotheshop'
p206
F0.0078040904198099998
sS'changemyview'
p207
F0.0097021177112400006
sS'entwives'
p208
F0.0086987187022500006
sS'firstworldanarchists'
p209
F0.0075710594315200001
sS'PerfectTiming'
p210
F0.0095255375124699993
sS'truegaming'
p211
F0.0071518968714100002
sS'camping'
p212
F0.0116496154133
sS'wikipedia'
p213
F0.0102040816327
sS'outside'
p214
F0.00815032827711
sS'AskCulinary'
p215
F0.038059743633199999
sS'foodhacks'
p216
F0.0387894615562
sS'StandUpComedy'
p217
F0.0073608342278799997
sS'jobs'
p218
F0.012374111952499999
sS'tonightsdinner'
p219
F0.027774615822400001
sS'casualiama'
p220
F0.0087307631005699993
sS'facepalm'
p221
F0.0087947359974299994
sS'Unexpected'
p222
F0.0083305135270099993
sS'RedditDayOf'
p223
F0.0086167384728200007
sS'fitmeals'
p224
F0.029561593084300002
sS'relationship_advice'
p225
F0.0073145701871200003
sS'itookapicture'
p226
F0.0071453135149600003
sS'GetMotivated'
p227
F0.00757046200921
sS'drunk'
p228
F0.010009611878999999
sS'xxfitness'
p229
F0.0147489645419
sS'startrek'
p230
F0.0078426541841199997
sS'femalefashionadvice'
p231
F0.016819446718000002
sS'BeautyBoxes'
p232
F0.0092311033883599996
sS'ainbow'
p233
F0.0075187969924800004
sS'Homebrewing'
p234
F0.0094165577676999998
sS'beer'
p235
F0.0105450272664
sS'California'
p236
F0.0075240594925600002
sS'ketorecipes'
p237
F0.014129259058999999
sS'HomeImprovement'
p238
F0.012171524873599999
sS'fatlogic'
p239
F0.0095328884651999998
sS'MakeupAddiction'
p240
F0.0101355667542
sS'mturk'
p241
F0.0081908831908800005
sS'somethingimade'
p242
F0.016665008456899999
sS'keto'
p243
F0.0088903777766299995
sS'curlyhair'
p244
F0.0099541244698299995
sS'smoking'
p245
F0.010385294423099999
sS'Flipping'
p246
F0.0122594925932
sS'Perfectfit'
p247
F0.0085059462865200008
sS'offbeat'
p248
F0.012394733720799999
sS'C25K'
p249
F0.0111449717022
sS'Cooking'
p250
F0.035110947652300002
sS'FanTheories'
p251
F0.0074258403444299997
sS'DIY'
p252
F0.0103333135756
sS'cripplingalcoholism'
p253
F0.0083460468455499991
sS'selfimprovement'
p254
F0.0078040106687700004
sS'daddit'
p255
F0.00832159774677
sS'Whatcouldgowrong'
p256
F0.0093610536627800004
sS'talesfromtechsupport'
p257
F0.0078803798747199994
sS'knitting'
p258
F0.0107228554289
sS'AnimalsBeingJerks'
p259
F0.0119013884953
sS'birthcontrol'
p260
F0.0075002798611899998
sS'running'
p261
F0.00781461985131
sS'yoga'
p262
F0.0085180159807000007
sS'catpictures'
p263
F0.0093108169785499992
sS'HumanPorn'
p264
F0.011322856082199999
sS'preppers'
p265
F0.0094056847545199995
sS'breastfeeding'
p266
F0.0087947231660999992
sS'awwwtf'
p267
F0.011198395453799999
sS'PublicFreakout'
p268
F0.0080873617837899994
sS'ArtisanVideos'
p269
F0.010607086436499999
sS'mycology'
p270
F0.0088325652841799995
sS'quotes'
p271
F0.0092293129289300006
sS'woodworking'
p272
F0.0099375251178300001
sS'perfectloops'
p273
F0.00760079312624
sS'Pets'
p274
F0.0121607094867
sS'TalesFromRetail'
p275
F0.0119067827437
sS'hiking'
p276
F0.0077924302106500004
sS'quityourbullshit'
p277
F0.010445445256
sS'offmychest'
p278
F0.0081930738423700005
sS'bigboobproblems'
p279
F0.0121546961326
sS'howto'
p280
F0.0177977703892
sS'bodyweightfitness'
p281
F0.0098229763092900005
sS'zombies'
p282
F0.0082956878850100006
sS'ArcherFX'
p283
F0.00713414061767
sS'firefly'
p284
F0.0075136184334100003
sS'gardening'
p285
F0.0186600176948
sS'whatisthisthing'
p286
F0.0121686419976
sS'NetflixBestOf'
p287
F0.0141673570837
sS'interestingasfuck'
p288
F0.0096756496151399994
sS'Coffee'
p289
F0.0122117285306
sS'humor'
p290
F0.010154346060099999
sS'SkincareAddiction'
p291
F0.0128931592346
sS'ExpectationVsReality'
p292
F0.017909035615299999
sS'lifehacks'
p293
F0.015844428232699999
sS'biology'
p294
F0.0081168831168800006
sS'FloridaMan'
p295
F0.0116683496017
sS'delusionalartists'
p296
F0.0097210017574699999
sS'OkCupid'
p297
F0.0070469638335499997
sS'Frugal'
p298
F0.0300301612974
sS'whatsthisplant'
p299
F0.0080321285140600007
sS'calvinandhobbes'
p300
F0.0073599240265899996
sS'netflix'
p301
F0.0096881024170799995
sS'wheredidthesodago'
p302
F0.010632427062999999
sS'AnimalsBeingBros'
p303
F0.0105947507826
sS'RandomActsOfPizza'
p304
F0.0074785338380599998
sS'marijuanaenthusiasts'
p305
F0.0086016993601200006
sS'TrollXChromosomes'
p306
F0.0114944443519
sS'confession'
p307
F0.0097750485619399995
sS'Damnthatsinteresting'
p308
F0.0090983606557400003
sS'loseit'
p309
F0.012915498598300001
sS'CrazyIdeas'
p310
F0.0110296345676
sS'TinyHouses'
p311
F0.018903591682399998
sS'Bad_Cop_No_Donut'
p312
F0.0090090090090099995
sS'MorbidReality'
p313
F0.0090541594761399998
sS'gif'
p314
F0.0082555838281000004
sS'cats'
p315
F0.010140951660199999
sS'introvert'
p316
F0.0093801590874999993
sS'raisedbynarcissists'
p317
F0.0114934348646
sS'sousvide'
p318
F0.0072150072150100001
sS'happy'
p319
F0.011872526557
sS'spicy'
p320
F0.019434628975299999
sS'snackexchange'
p321
F0.0130057803468
sS'blunderyears'
p322
F0.0099806542384799999
sS'Random_Acts_Of_Amazon'
p323
F0.0101789862003
sS'rage'
p324
F0.00925073637703
sS'comics'
p325
F0.0082418971532599999
sS'behindthegifs'
p326
F0.0079958117176700001
sS'lookatmydog'
p327
F0.0076594813436900002
sS'RealEstate'
p328
F0.0094226940942299994
sS'fullmoviesonyoutube'
p329
F0.011789375582500001
sS'TrueAskReddit'
p330
F0.012241452089499999
sS'Dogtraining'
p331
F0.0105895369053
sS'eatsandwiches'
p332
F0.025544501210000001
sS'bicycling'
p333
F0.0086602906845400004
sS'Survival'
p334
F0.012775330396499999
sS'AskSocialScience'
p335
F0.00754751295808
sS'TheWayWeWere'
p336
F0.011151719613899999
sS'badtattoos'
p337
F0.0088993307703299999
sS'popping'
p338
F0.0078886914307999996
sS'nottheonion'
p339
F0.0076762564003700004
sS'Frugal_Jerk'
p340
F0.0154182727367
sS'Baking'
p341
F0.023168908819100002
sS'alcohol'
p342
F0.0079373478674999998
sS'oddlysatisfying'
p343
F0.0093825772217699995
sS'GirlGamers'
p344
F0.0098214285714300006
sS'urbanexploration'
p345
F0.0076022502660799997
s.