(dp1
S'FancyFollicles'
p2
F0.01205341658
sS'Paleo'
p3
F0.0134268060837
sS'gardening'
p4
F0.0086793056555499997
sS'GradSchool'
p5
F0.0070603337612300003
sS'pettyrevenge'
p6
F0.0072080262346199998
sS'nutrition'
p7
F0.010583996396900001
sS'NetflixBestOf'
p8
F0.00729083555727
sS'ABraThatFits'
p9
F0.0127687085825
sS'Baking'
p10
F0.0095225231309500006
sS'wedding'
p11
F0.0088208820882100004
sS'DecidingToBeBetter'
p12
F0.0089142697959499993
sS'stopsmoking'
p13
F0.0100418966549
sS'secretsanta'
p14
F0.0094607056251900003
sS'BuyItForLife'
p15
F0.0080983582419199996
sS'bigboobproblems'
p16
F0.0097274293241499995
sS'everymanshouldknow'
p17
F0.0075791504461399997
sS'Pets'
p18
F0.0089056807448399996
sS'fatpeoplestories'
p19
F0.0101026045777
sS'UnresolvedMysteries'
p20
F0.0071163366336600004
sS'YouShouldKnow'
p21
F0.0079804517923499994
sS'Fitness'
p22
F0.0080104240995299992
sS'femalefashionadvice'
p23
F0.0150601173622
sS'EatCheapAndHealthy'
p24
F0.017906836055699999
sS'RandomActsofMakeup'
p25
F0.0077686259827800001
sS'CrossStitch'
p26
F0.0070009033423699997
sS'crochet'
p27
F0.011340206185599999
sS'AskCulinary'
p28
F0.0091682315254600008
sS'loseit'
p29
F0.032990872252499998
sS'beyondthebump'
p30
F0.0071177504393700004
sS'yoga'
p31
F0.0098949611813100007
sS'booksuggestions'
p32
F0.0074163686092999998
sS'self'
p33
F0.00774402178538
sS'AskWomen'
p34
F0.0092312486205100002
sS'knitting'
p35
F0.0120372473314
sS'ExpectationVsReality'
p36
F0.0072082996496900002
sS'socialskills'
p37
F0.0085393470466099998
sS'TrollXChromosomes'
p38
F0.0088554497636300009
sS'Parenting'
p39
F0.0091858562979700003
sS'progresspics'
p40
F0.018971452234899999
sS'slowcooking'
p41
F0.012725126994699999
sS'RedditLaqueristas'
p42
F0.010761589404
sS'raisedbynarcissists'
p43
F0.00722111553785
sS'lifehacks'
p44
F0.0070690592713399999
sS'Cooking'
p45
F0.0092037773836300008
sS'dogs'
p46
F0.0096042134613899995
sS'happy'
p47
F0.0092108017584300005
sS'getdisciplined'
p48
F0.012101518292300001
sS'fatlogic'
p49
F0.0107491589399
sS'TrollYChromosome'
p50
F0.0075716010095500004
sS'Anxiety'
p51
F0.0072126472931599997
sS'ketogains'
p52
F0.0086684073107
sS'childfree'
p53
F0.0092859222829800008
sS'MakeupAddiction'
p54
F0.010295205050899999
sS'xxfitness'
p55
F0.031280648325
sS'recipes'
p56
F0.0089035868735700009
sS'sewing'
p57
F0.0081755234837700003
sS'SkincareAddiction'
p58
F0.012459862227999999
sS'budgetfood'
p59
F0.0111449717022
sS'Mommit'
p60
F0.0091958337243099996
sS'somethingimade'
p61
F0.0074345757335400001
sS'Frugal'
p62
F0.010392956839199999
sS'running'
p63
F0.038271743397100003
sS'weddingplanning'
p64
F0.010356439417999999
sS'introvert'
p65
F0.0076289749981100002
sS'LadyBoners'
p66
F0.0090986526250600008
sS'curlyhair'
p67
F0.0104922619568
sS'TheGirlSurvivalGuide'
p68
F0.015942401645699999
sS'90daysgoal'
p69
F0.0142794052701
sS'bodyweightfitness'
p70
F0.012662922538899999
sS'BabyBumps'
p71
F0.00703741846893
sS'ketorecipes'
p72
F0.0165210267613
sS'IWantToLearn'
p73
F0.0079590156435799999
sS'keto'
p74
F0.015582320959400001
sS'xxketo'
p75
F0.017142857142899998
sS'minimalism'
p76
F0.0079252759694300005
sS'vegetarian'
p77
F0.0105514479359
sS'fitmeals'
p78
F0.018165024630500001
sS'howtonotgiveafuck'
p79
F0.0080728179010699994
sS'Dogtraining'
p80
F0.0085925690190200004
sS'crafts'
p81
F0.0077194160093999997
sS'MakeupAddicts'
p82
F0.00711574952562
sS'GetMotivated'
p83
F0.00702291688668
s.