(dp1
S'awwwtf'
p2
F0.0085827925476200002
sS'talesfromcallcenters'
p3
F0.011118598382700001
sS'pettyrevenge'
p4
F0.010789083985600001
sS'livesound'
p5
F0.015294326871800001
sS'fffffffuuuuuuuuuuuu'
p6
F0.0070219029357000001
sS'PleX'
p7
F0.0106968862529
sS'BuyItForLife'
p8
F0.0098430755577099995
sS'woodworking'
p9
F0.0077243256223500003
sS'perfectloops'
p10
F0.0112350660654
sS'everymanshouldknow'
p11
F0.0074923203716199998
sS'smoking'
p12
F0.0070695869143299998
sS'spacex'
p13
F0.00711521657721
sS'firefox'
p14
F0.0077698191089
sS'carporn'
p15
F0.0071141759776500004
sS'TalesFromRetail'
p16
F0.0092016655528699993
sS'arduino'
p17
F0.013631041980299999
sS'quityourbullshit'
p18
F0.0078180230382200004
sS'audioengineering'
p19
F0.0074963559380900003
sS'unixporn'
p20
F0.0099384761003299994
sS'ProtectAndServe'
p21
F0.0072432631514300003
sS'AndroidQuestions'
p22
F0.00761143357792
sS'Piracy'
p23
F0.00880957759205
sS'shittybattlestations'
p24
F0.0298071303331
sS'ProgrammerHumor'
p25
F0.013804102733299999
sS'CCW'
p26
F0.0083277814790099994
sS'nononono'
p27
F0.015963808434300002
sS'MilitaryPorn'
p28
F0.0075721722669200003
sS'linuxquestions'
p29
F0.010513595166200001
sS'YouShouldKnow'
p30
F0.0080817026929799994
sS'shutupandtakemymoney'
p31
F0.0099305376897399992
sS'howto'
p32
F0.0107626076261
sS'HomeNetworking'
p33
F0.0207369596427
sS'geek'
p34
F0.0154977294024
sS'daddit'
p35
F0.0079648031555799997
sS'Stargate'
p36
F0.0085769980506800007
sS'toosoon'
p37
F0.0086164207190300001
sS'amateurradio'
p38
F0.016129032258100001
sS'AskNetsec'
p39
F0.0138200390566
sS'audio'
p40
F0.0087298870249900001
sS'overclocking'
p41
F0.0074404761904800004
sS'AbandonedPorn'
p42
F0.0117904094625
sS'progun'
p43
F0.0078175060874000005
sS'conspiratard'
p44
F0.0073322742270599999
sS'CrappyDesign'
p45
F0.013840234307700001
sS'radiocontrol'
p46
F0.0099306431273600004
sS'privacy'
p47
F0.0123589995096
sS'Enhancement'
p48
F0.0099394987035400003
sS'techsupport'
p49
F0.0097637180238199991
sS'LearnUselessTalents'
p50
F0.0073474001507200003
sS'PHP'
p51
F0.0073838580658400002
sS'hometheater'
p52
F0.011196508207600001
sS'Whatisthis'
p53
F0.0081616402906300005
sS'talesfromtechsupport'
p54
F0.026467315043300001
sS'google'
p55
F0.0081566865292600002
sS'whatisthisthing'
p56
F0.011772024692500001
sS'watercooling'
p57
F0.0073109843081300002
sS'energy'
p58
F0.0083152566883599992
sS'crypto'
p59
F0.0077757685352600001
sS'electricians'
p60
F0.026905829596400001
sS'glitch_art'
p61
F0.010832043804299999
sS'MechanicAdvice'
p62
F0.010699750558
sS'torrents'
p63
F0.0081849805606699997
sS'vmware'
p64
F0.018615751789999999
sS'firstworldanarchists'
p65
F0.0086425889109799994
sS'PerfectTiming'
p66
F0.0092809790922999992
sS'humor'
p67
F0.0080944350758899997
sS'skeptic'
p68
F0.00745495961897
sS'wikipedia'
p69
F0.0076486997210500002
sS'ExpectationVsReality'
p70
F0.00808193966552
sS'firstworldproblems'
p71
F0.0092978208232400005
sS'outside'
p72
F0.0083515811987600001
sS'usenet'
p73
F0.0077285352010600002
sS'lifehacks'
p74
F0.0074912641807500001
sS'electronics'
p75
F0.022184137865400001
sS'guns'
p76
F0.0072562912289299997
sS'AutoDetailing'
p77
F0.010800041941900001
sS'Cyberpunk'
p78
F0.0109090909091
sS'FloridaMan'
p79
F0.0115644490644
sS'delusionalartists'
p80
F0.0077857956703400004
sS'AskElectronics'
p81
F0.017084890549899999
sS'answers'
p82
F0.0084112884207199999
sS'Roadcam'
p83
F0.017862488773599999
sS'GamePhysics'
p84
F0.0103644725101
sS'htpc'
p85
F0.010638297872299999
sS'hardware'
p86
F0.0200744070687
sS'TopGear'
p87
F0.0087479496992900006
sS'ThriftStoreHauls'
p88
F0.00760903671164
sS'WarshipPorn'
p89
F0.0116518995024
sS'computers'
p90
F0.00802675585284
sS'programming'
p91
F0.0076029916119199998
sS'wheredidthesodago'
p92
F0.0103842579498
sS'AnimalsBeingBros'
p93
F0.0071719870622999997
sS'GunPorn'
p94
F0.0071443580584199997
sS'battlestations'
p95
F0.012100909277400001
sS'OutOfTheLoop'
p96
F0.0070489484545600001
sS'xbmc'
p97
F0.0072088023270500002
sS'software'
p98
F0.0103142240345
sS'gamingpc'
p99
F0.010722610722599999
sS'AmIFreeToGo'
p100
F0.0091607166913599998
sS'misc'
p101
F0.0079056679619500005
sS'patientgamers'
p102
F0.0074430823117299996
sS'linuxadmin'
p103
F0.017598994343199999
sS'IdiotsFightingThings'
p104
F0.0146456163923
sS'webhosting'
p105
F0.0081827480395500005
sS'weather'
p106
F0.0075595492796999997
sS'Firearms'
p107
F0.0084929526563099992
sS'linux'
p108
F0.015788074187300001
sS'Multicopter'
p109
F0.0095039406583199999
sS'3Dprinting'
p110
F0.0081314034802399994
sS'SimCity'
p111
F0.0071668015258399996
sS'Damnthatsinteresting'
p112
F0.0084194238383499993
sS'projectcar'
p113
F0.0085167925437899996
sS'ECE'
p114
F0.010900339750800001
sS'networking'
p115
F0.041399458457999999
sS'MechanicalKeyboards'
p116
F0.0110761173431
sS'TinyHouses'
p117
F0.0072914432768600001
sS'chrome'
p118
F0.0073752711496699996
sS'Bad_Cop_No_Donut'
p119
F0.0096792560258100006
sS'ANormalDayInRussia'
p120
F0.014156626506000001
sS'flying'
p121
F0.0077533039647599998
sS'linux4noobs'
p122
F0.011301939058200001
sS'urbanexploration'
p123
F0.012575075075100001
sS'Autos'
p124
F0.0081735770545400006
sS'Portal'
p125
F0.00723170378941
sS'misleadingthumbnails'
p126
F0.010021584952199999
sS'Ubuntu'
p127
F0.0110955792417
sS'HomeImprovement'
p128
F0.0104335047759
sS'admincraft'
p129
F0.0075865339023200003
sS'Pareidolia'
p130
F0.012507314218799999
sS'holdmybeer'
p131
F0.0117327351939
sS'DaystromInstitute'
p132
F0.0107983031238
sS'HVAC'
p133
F0.0098157396245899999
sS'lockpicking'
p134
F0.014135385581900001
sS'teslamotors'
p135
F0.0075196536402000001
sS'mildlyinfuriating'
p136
F0.0091684268168700008
sS'cordcutters'
p137
F0.012961324241300001
sS'somethingimade'
p138
F0.0083595152603199996
sS'Shitty_Car_Mods'
p139
F0.015905009711599999
sS'Plumbing'
p140
F0.0076272591609999997
sS'aviation'
p141
F0.0097082142279299993
sS'BBQ'
p142
F0.0075616565844600003
sS'Welding'
p143
F0.0100260953166
sS'vintageaudio'
p144
F0.0085470085470099998
sS'EDC'
p145
F0.0093597903406999992
sS'hardwareswap'
p146
F0.0083344445926099991
sS'trackers'
p147
F0.0090899482084299994
sS'Chromecast'
p148
F0.0077419354838699998
sS'Justrolledintotheshop'
p149
F0.0239405291501
sS'Perfectfit'
p150
F0.0139229336209
sS'offbeat'
p151
F0.0086607654588300009
sS'softwaregore'
p152
F0.041000622794300001
sS'hacking'
p153
F0.0119902120718
sS'KerbalSpaceProgram'
p154
F0.0078378615506100001
sS'Cartalk'
p155
F0.0093952385295999995
sS'TalesFromThePizzaGuy'
p156
F0.010697787503
sS'NewsOfTheStupid'
p157
F0.0105759611262
sS'audiophile'
p158
F0.0095758354755800003
sS'gadgets'
p159
F0.00705946239479
sS'engineering'
p160
F0.0077735175166799998
sS'homelab'
p161
F0.044875916162999997
sS'TalesFromYourServer'
p162
F0.0078026481714999997
sS'collapse'
p163
F0.0080130381637900008
sS'techsupportmacgyver'
p164
F0.068119085173500002
sS'24hoursupport'
p165
F0.015389497064900001
sS'HighQualityGifs'
p166
F0.0079179863310600007
sS'Python'
p167
F0.00737307773331
sS'CableManagement'
p168
F0.0230840258541
sS'scifi'
p169
F0.0076306486051300002
sS'spaceporn'
p170
F0.0083840000000000008
sS'nonononoyes'
p171
F0.0108291402319
sS'Frugal_Jerk'
p172
F0.010685539827899999
sS'windows8'
p173
F0.0090834983114000001
sS'Whatcouldgowrong'
p174
F0.0117158968066
sS'firefly'
p175
F0.00709481930382
sS'sysadmin'
p176
F0.028951231446700001
sS'raspberry_pi'
p177
F0.015863453815300001
sS'forwardsfromgrandma'
p178
F0.0092473370010499999
sS'AnimalsBeingJerks'
p179
F0.0084604983581199993
sS'netsec'
p180
F0.022627797506
sS'linux_gaming'
p181
F0.0106797196574
sS'CarAV'
p182
F0.0081122843162499993
sS'startrek'
p183
F0.0086332906997999993
sS'oddlysatisfying'
p184
F0.0076419814173400002
sS'MachinePorn'
p185
F0.024033326212300001
sS'windows'
p186
F0.0168276972625
sS'cableporn'
p187
F0.115761261726
sS'techsupportgore'
p188
F0.057645272834599998
sS'HailCorporate'
p189
F0.0091598542302800002
sS'AskEngineers'
p190
F0.00877325669339
sS'DataHoarder'
p191
F0.027351332274600001
sS'microsoft'
p192
F0.011746280344599999
s.