(dp1
S'buildapc'
p2
F0.016545117231200002
sS'computers'
p3
F0.0150650536407
sS'pcgaming'
p4
F0.017719072164899999
sS'watercooling'
p5
F0.075464320625600004
sS'audiophile'
p6
F0.0153996737357
sS'ShouldIbuythisgame'
p7
F0.0070378568590700004
sS'PleX'
p8
F0.0070747132597300004
sS'hardware'
p9
F0.040873460246399998
sS'Justrolledintotheshop'
p10
F0.0088905621036199992
sS'buildapcsales'
p11
F0.035239796140600001
sS'perfectloops'
p12
F0.0071753169098299997
sS'homelab'
p13
F0.016953473550000001
sS'counterstrike'
p14
F0.0076851420586899998
sS'gamingpc'
p15
F0.075870396458000006
sS'carporn'
p16
F0.0093330398415100001
sS'razer'
p17
F0.0090666666666699997
sS'battlefield3'
p18
F0.0118325242718
sS'techsupportmacgyver'
p19
F0.0314641443876
sS'24hoursupport'
p20
F0.0085497660913099998
sS'softwareswap'
p21
F0.0215539274152
sS'Stance'
p22
F0.00729613733906
sS'chrome'
p23
F0.0079141751670799999
sS'linux4noobs'
p24
F0.0071789119461599998
sS'unixporn'
p25
F0.0079307858687800003
sS'MechanicalKeyboards'
p26
F0.031986348618499999
sS'Steam'
p27
F0.0086192630185300007
sS'AndroidQuestions'
p28
F0.0071732053192099998
sS'Autos'
p29
F0.0072286754075500002
sS'shittybattlestations'
p30
F0.029474685048699999
sS'battlefield_4'
p31
F0.0077326948002
sS'SuggestALaptop'
p32
F0.0083333333333300008
sS'misleadingthumbnails'
p33
F0.00707455492498
sS'Rainmeter'
p34
F0.016734624532799999
sS'pcmasterrace'
p35
F0.0110859919968
sS'windows8'
p36
F0.0093624081535899992
sS'HomeNetworking'
p37
F0.0111614364283
sS'wallpapers'
p38
F0.0083235442188299997
sS'talesfromtechsupport'
p39
F0.0089969691907499996
sS'nononono'
p40
F0.0077438802557000001
sS'cablefail'
p41
F0.0230840258541
sS'AutoDetailing'
p42
F0.0087141339001099993
sS'androidthemes'
p43
F0.010102051334899999
sS'hackintosh'
p44
F0.016837899543399999
sS'Battlefield'
p45
F0.010356561621499999
sS'skyrimmods'
p46
F0.0081669068698099999
sS'wallpaper'
p47
F0.0078622238861800007
sS'malelivingspace'
p48
F0.010019228823
sS'CarAV'
p49
F0.0080052493438299999
sS'cordcutters'
p50
F0.0073023158773199998
sS'MachinePorn'
p51
F0.0095187165775400002
sS'Shitty_Car_Mods'
p52
F0.0091498005343499996
sS'networking'
p53
F0.0088563458856299997
sS'htpc'
p54
F0.0119008264463
sS'electronics'
p55
F0.0074215033301600003
sS'RandomActsOfGaming'
p56
F0.0078390593128800003
sS'audio'
p57
F0.0094886663152299999
sS'overclocking'
p58
F0.054290718038499997
sS'EDC'
p59
F0.0078577142050499996
sS'raspberry_pi'
p60
F0.0091318068891400005
sS'TopGear'
p61
F0.0072364202619799997
sS'SkyrimPorn'
p62
F0.0081255771006500006
sS'hardwareswap'
p63
F0.041666666666699999
sS'simracing'
p64
F0.0096370061034399997
sS'techsupportgore'
p65
F0.026007160199200002
sS'windows'
p66
F0.0141382952791
sS'GiftofGames'
p67
F0.0072272682879199997
sS'headphones'
p68
F0.016527495348899999
sS'battlestations'
p69
F0.036506263903500001
sS'Perfectfit'
p70
F0.010308256517
sS'radiocontrol'
p71
F0.0074038306776100004
sS'buildapcforme'
p72
F0.016974025338699999
sS'softwaregore'
p73
F0.0136438243742
sS'techsupport'
p74
F0.0096486738718099992
sS'GameDeals'
p75
F0.0082362965066699999
sS'hometheater'
p76
F0.0118428653957
sS'DataHoarder'
p77
F0.019220405963700001
sS'cableporn'
p78
F0.031696946269799998
sS'androidcirclejerk'
p79
F0.010367892976600001
sS'software'
p80
F0.0079162099622500006
s.