(dp1
S'losangeleskings'
p2
F0.017774343122100002
sS'Torontobluejays'
p3
F0.0170594837262
sS'devils'
p4
F0.0144709074465
sS'nhl'
p5
F0.013290802764500001
sS'SanJoseSharks'
p6
F0.0155505392526
sS'leafs'
p7
F0.0148514851485
sS'Calgary'
p8
F0.037144080496699997
sS'canada'
p9
F0.00737855178735
sS'stlouisblues'
p10
F0.026135105204899998
sS'hawks'
p11
F0.013698630137
sS'Habs'
p12
F0.018237749945099999
sS'rangers'
p13
F0.0152743729964
sS'metacanada'
p14
F0.0093378607809799993
sS'hockey'
p15
F0.0125371802499
sS'EA_NHL'
p16
F0.018485773991300001
sS'DetroitRedWings'
p17
F0.012374978809999999
sS'canucks'
p18
F0.0242252291576
sS'hockeyplayers'
p19
F0.012876523338699999
sS'ColoradoAvalanche'
p20
F0.0201588271228
sS'caps'
p21
F0.011225144323300001
sS'torontoraptors'
p22
F0.0084346802667700001
sS'Flyers'
p23
F0.013022474270100001
sS'wildhockey'
p24
F0.0136864028563
sS'BostonBruins'
p25
F0.022193211488299999
sS'Edmonton'
p26
F0.0072108008591599999
sS'penguins'
p27
F0.014120370370400001
sS'NHLHUT'
p28
F0.0090425531914899993
sS'OttawaSenators'
p29
F0.016826003824099999
s.