(dp1
S'circlebroke'
p2
F0.0071622622869799996
sS'CityPorn'
p3
F0.0073920215040599998
sS'PanicHistory'
p4
F0.0075429305087500002
sS'inthenews'
p5
F0.010130986492
sS'Conservative'
p6
F0.0075565263592899997
sS'PoliticalDiscussion'
p7
F0.0139135959339
sS'Foodforthought'
p8
F0.0128844817786
sS'linguistics'
p9
F0.0080964375674699995
sS'syriancivilwar'
p10
F0.0082716586852399996
sS'TheoryOfReddit'
p11
F0.0114839000225
sS'Habs'
p12
F0.014027795817600001
sS'French'
p13
F0.0072767364939399998
sS'HistoryPorn'
p14
F0.00761699885855
sS'hockey'
p15
F0.0100500375636
sS'MensRights'
p16
F0.0081176094598900007
sS'BasicIncome'
p17
F0.0148770367372
sS'lostgeneration'
p18
F0.0126723438767
sS'Liberal'
p19
F0.0084349857254100002
sS'progressive'
p20
F0.0096186108936400002
sS'Edmonton'
p21
F0.018832391713699999
sS'PropagandaPosters'
p22
F0.011294956900800001
sS'SubredditDrama'
p23
F0.0087527352297600003
sS'UBC'
p24
F0.0079351959001500005
sS'Libertarian'
p25
F0.0076507983441799999
sS'TrueAtheism'
p26
F0.00780257666485
sS'badhistory'
p27
F0.0120734468014
sS'energy'
p28
F0.012682926829300001
sS'POLITIC'
p29
F0.0093437152391500009
sS'changemyview'
p30
F0.0096678433889600002
sS'OneY'
p31
F0.0092744775768999997
sS'halifax'
p32
F0.015745148297300001
sS'Feminism'
p33
F0.00815174792287
sS'canada'
p34
F0.064139612588600001
sS'psychology'
p35
F0.0086854974089499992
sS'skeptic'
p36
F0.0136911553152
sS'canadaguns'
p37
F0.023331701745800001
sS'wikipedia'
p38
F0.0097047113470499994
sS'Torontobluejays'
p39
F0.017835909631399999
sS'DaystromInstitute'
p40
F0.0074090960902800001
sS'vexillology'
p41
F0.0097642840796399993
sS'blackberry'
p42
F0.0098207326578299992
sS'europe'
p43
F0.0073848177714000004
sS'business'
p44
F0.0072359990955000002
sS'Economics'
p45
F0.015918827508499999
sS'answers'
p46
F0.0070771924704499996
sS'PoliticalHumor'
p47
F0.0097581231184500003
sS'saskatoon'
p48
F0.011186770428
sS'Quebec'
p49
F0.035819637589499999
sS'montreal'
p50
F0.023914738757500002
sS'paradoxplaza'
p51
F0.0079563077337999992
sS'TrueReddit'
p52
F0.0140845070423
sS'nhl'
p53
F0.0085605799102500008
sS'Scotland'
p54
F0.0082631981637299994
sS'conspiratard'
p55
F0.0093647031620300008
sS'Documentaries'
p56
F0.0078269651573799996
sS'Calgary'
p57
F0.022497813816700001
sS'environment'
p58
F0.0153530493845
sS'ontario'
p59
F0.078909612625500003
sS'AskHistorians'
p60
F0.0118338321298
sS'privacy'
p61
F0.0080314117437100003
sS'socialism'
p62
F0.014626178632400001
sS'canucks'
p63
F0.0139211136891
sS'collapse'
p64
F0.0098616957306099998
sS'occupywallstreet'
p65
F0.0090896570720299993
sS'londonontario'
p66
F0.0114560850075
sS'MapPorn'
p67
F0.0093224764520400006
sS'NeutralPolitics'
p68
F0.012802275960199999
sS'toronto'
p69
F0.038443597916499997
sS'worldpolitics'
p70
F0.0183032064674
sS'VictoriaBC'
p71
F0.0144324174299
sS'offbeat'
p72
F0.0084622749312799998
sS'metacanada'
p73
F0.078701904391799998
sS'history'
p74
F0.0075872145182399996
sS'urbanplanning'
p75
F0.0130517671213
sS'TrueAskReddit'
p76
F0.0097064579256400003
sS'UofT'
p77
F0.0088349805330900002
sS'Winnipeg'
p78
F0.0155237745997
sS'leafs'
p79
F0.017148014440400001
sS'polandball'
p80
F0.0090742349647599998
sS'politics'
p81
F0.0070028435789099997
sS'PersonalFinanceCanada'
p82
F0.031334841629
sS'Ask_Politics'
p83
F0.0114198705748
sS'AskSocialScience'
p84
F0.0164264518864
sS'CanadianForces'
p85
F0.022036727879799999
sS'vancouver'
p86
F0.026443896868799999
sS'scifi'
p87
F0.0088813559322
sS'startrek'
p88
F0.0076042303994400002
sS'FutureWhatIf'
p89
F0.0085671715917600005
sS'economy'
p90
F0.0113240418118
sS'Anarchism'
p91
F0.0093631379164900008
sS'Futurology'
p92
F0.00768231984419
sS'philosophy'
p93
F0.0076138726772700003
sS'torontoraptors'
p94
F0.0097158124848199991
sS'EnoughLibertarianSpam'
p95
F0.0089385474860300008
sS'law'
p96
F0.0080238009376099994
sS'uwaterloo'
p97
F0.0078394897687999992
sS'ottawa'
p98
F0.0304188565058
sS'HailCorporate'
p99
F0.0071806839601499996
sS'OttawaSenators'
p100
F0.0109204368175
s.