(dp1
S'CombatFootage'
p2
F0.0079883247561300004
sS'canada'
p3
F0.012534121929000001
sS'MilitaryPorn'
p4
F0.0128925790315
sS'ontario'
p5
F0.014185670677
sS'CanadaPolitics'
p6
F0.022036727879799999
sS'WarshipPorn'
p7
F0.0082943749057499995
sS'canadaguns'
p8
F0.036069298494700003
sS'Edmonton'
p9
F0.010654922574200001
sS'VictoriaBC'
p10
F0.0090439276485800007
sS'ottawa'
p11
F0.0115708962542
sS'wargame'
p12
F0.0074999999999999997
sS'metacanada'
p13
F0.016319444444399998
sS'Quebec'
p14
F0.0074231177094399997
sS'leafs'
p15
F0.0070988481114400001
sS'Military'
p16
F0.0131008353494
sS'halifax'
p17
F0.016773733047799999
sS'PersonalFinanceCanada'
p18
F0.0085430257844099997
s.