(dp1
S'Heavymind'
p2
F0.0094525105868100007
sS'COents'
p3
F0.031826448428199997
sS'electronic_cigarette'
p4
F0.0108954662319
sS'Denver'
p5
F0.0092128352970699996
sS'Marijuana'
p6
F0.0326135252821
sS'shrooms'
p7
F0.0194614769395
sS'see'
p8
F0.0243955094991
sS'conspiracy'
p9
F0.0078407612666399999
sS'dubstep'
p10
F0.0070758467164900004
sS'marijuanaenthusiasts'
p11
F0.0129460056836
sS'entwives'
p12
F0.0084526884245099999
sS'DIY_eJuice'
p13
F0.0091217855410000003
sS'festivals'
p14
F0.013513513513500001
sS'cocaine'
p15
F0.0088995790739600008
sS'skateboarding'
p16
F0.0095964173375299999
sS'drunkvapes'
p17
F0.0073929961089499998
sS'StonerPhilosophy'
p18
F0.0088435374149699996
sS'snowboarding'
p19
F0.0083821837506199998
sS'LSD'
p20
F0.022592297801999998
sS'eatsandwiches'
p21
F0.0080105633802800003
sS'eldertrees'
p22
F0.050743801652900003
sS'trapmuzik'
p23
F0.0070111659309300004
sS'Drugs'
p24
F0.023547758284599998
sS'Bad_Cop_No_Donut'
p25
F0.0084914872839999996
sS'bestofworldstar'
p26
F0.0097925823116699999
sS'JoeRogan'
p27
F0.0088947214931499995
sS'mflb'
p28
F0.029943855271400002
sS'DarkNetMarkets'
p29
F0.0163020970596
sS'StonerEngineering'
p30
F0.041841570751500003
sS'RBA'
p31
F0.0137221269297
sS'woahdude'
p32
F0.0079173422568700001
sS'hiphopheads'
p33
F0.0076939278678800002
sS'trailerparkboys'
p34
F0.0118582791034
sS'aves'
p35
F0.010700551747200001
sS'carporn'
p36
F0.0071749586060100004
sS'opiates'
p37
F0.0125450334534
sS'blackpeoplegifs'
p38
F0.0074936340487399998
sS'FloridaMan'
p39
F0.0078199184494199998
sS'shutupandtakemymoney'
p40
F0.0071545752825399999
sS'highdeas'
p41
F0.0102157823413
sS'ploompax'
p42
F0.0123243776189
sS'saplings'
p43
F0.0237326323695
sS'longboarding'
p44
F0.0095173351461600008
sS'trees'
p45
F0.017425920890200002
sS'shroomers'
p46
F0.014088360005499999
sS'microgrowery'
p47
F0.064022435897400004
sS'VapePorn'
p48
F0.0103847295025
sS'Psychonaut'
p49
F0.0183722037125
sS'Shitty_Car_Mods'
p50
F0.0074405258416499996
sS'mycology'
p51
F0.0085347142309200007
sS'gratefuldead'
p52
F0.0105490018149
sS'discgolf'
p53
F0.0076412197386300004
sS'ecigclassifieds'
p54
F0.0116512059369
sS'treesgonewild'
p55
F0.015561694290999999
sS'Colorado'
p56
F0.0080016205813800007
sS'askdrugs'
p57
F0.0121019856656
sS'leaves'
p58
F0.0112175550643
sS'glassheads'
p59
F0.13825191093399999
sS'phish'
p60
F0.0093018795550400008
sS'Coilporn'
p61
F0.013358268768399999
sS'DrugNerds'
p62
F0.017343678685499998
sS'Graffiti'
p63
F0.0089095487119899997
sS'trap'
p64
F0.0102361677929
sS'MDMA'
p65
F0.011929696748899999
sS'DMT'
p66
F0.013284132841300001
sS'vaporents'
p67
F0.065003513703400004
sS'Bombing'
p68
F0.0077110389610400001
s.