(dp1
S'losangeleskings'
p2
F0.016276041666699999
sS'CalgaryFlames'
p3
F0.0242252291576
sS'devils'
p4
F0.011260053619299999
sS'nhl'
p5
F0.030318949343300001
sS'SanJoseSharks'
p6
F0.0140709945635
sS'leafs'
p7
F0.024668141592900001
sS'Calgary'
p8
F0.0083312294874999995
sS'PersonalFinanceCanada'
p9
F0.0085710787314799992
sS'canada'
p10
F0.020833793118700001
sS'canadaguns'
p11
F0.0091708777840200009
sS'stlouisblues'
p12
F0.0274439994066
sS'hawks'
p13
F0.0135740971357
sS'Habs'
p14
F0.021079009433999998
sS'rangers'
p15
F0.014805023132800001
sS'Torontobluejays'
p16
F0.021556886227499999
sS'vancouver'
p17
F0.064323258869899994
sS'hockey'
p18
F0.033133193382199999
sS'EA_NHL'
p19
F0.030205348615099999
sS'DetroitRedWings'
p20
F0.014857563850700001
sS'Seahawks'
p21
F0.011886061367700001
sS'hockeyplayers'
p22
F0.019637692190599999
sS'NHLHUT'
p23
F0.0116337045039
sS'ColoradoAvalanche'
p24
F0.0142239827152
sS'caps'
p25
F0.0100148367953
sS'torontoraptors'
p26
F0.010878433505599999
sS'MLS'
p27
F0.0094203768150700005
sS'Flyers'
p28
F0.0113700966458
sS'wildhockey'
p29
F0.0104591384506
sS'CanadaPolitics'
p30
F0.0139211136891
sS'BostonBruins'
p31
F0.0130310138129
sS'VictoriaBC'
p32
F0.026009254826899999
sS'penguins'
p33
F0.0119787717968
sS'UBC'
p34
F0.018348623853200002
sS'OttawaSenators'
p35
F0.0172555464256
s.