(dp1
S'QuotesPorn'
p2
F0.0070279879284000004
sS'TrueAtheism'
p3
F0.0128797886394
sS'badhistory'
p4
F0.015962924819799999
sS'TrueReddit'
p5
F0.0080545948329899999
sS'badphilosophy'
p6
F0.014021312394799999
sS'Christianity'
p7
F0.046810490201799997
sS'POLITIC'
p8
F0.010276532137500001
sS'Buddhism'
p9
F0.00730724578297
sS'ShitPoliticsSays'
p10
F0.0075095576187900002
sS'changemyview'
p11
F0.0100857286939
sS'askphilosophy'
p12
F0.0126711789706
sS'polandball'
p13
F0.0088697878566199994
sS'exmuslim'
p14
F0.0075566750629700004
sS'philosophy'
p15
F0.0099787078526700004
sS'islam'
p16
F0.018194207836500002
sS'OrthodoxChristianity'
p17
F0.029239766081900001
sS'Israel'
p18
F0.00864433546671
sS'MURICA'
p19
F0.0086698710749699998
sS'syriancivilwar'
p20
F0.0085235083860300005
sS'AskHistorians'
p21
F0.0123819517314
sS'skeptic'
p22
F0.0081378432442299996
sS'lotr'
p23
F0.0078829996888299999
sS'classicalmusic'
p24
F0.0078548986003999996
sS'circlebroke'
p25
F0.010193016699199999
sS'ProtectAndServe'
p26
F0.0074276984670500002
sS'HistoryPorn'
p27
F0.0078055590811000001
sS'religion'
p28
F0.023167993468100001
sS'TumblrInAction'
p29
F0.0075339598949799996
sS'linguistics'
p30
F0.0070006222775400003
sS'Conservative'
p31
F0.020621913496499999
sS'Republican'
p32
F0.0134608572441
sS'vexillology'
p33
F0.0114127498649
sS'texas'
p34
F0.0074084834398600004
sS'MensRights'
p35
F0.0094319594820000009
sS'latin'
p36
F0.0088821215581800003
sS'Anarchism'
p37
F0.0074977947662500004
sS'Judaism'
p38
F0.015974107329299998
sS'forwardsfromgrandma'
p39
F0.0083868034153499992
sS'CrusaderKings'
p40
F0.0076619178738199997
sS'Economics'
p41
F0.00751442686927
sS'DebateAChristian'
p42
F0.029805996472699998
sS'TrueChristian'
p43
F0.0319770773639
sS'DebateAnAtheist'
p44
F0.0135185530487
sS'MapPorn'
p45
F0.0077555597084700001
sS'magicskyfairy'
p46
F0.0097273928185399993
sS'law'
p47
F0.0094531249999999997
sS'pornfree'
p48
F0.0076518412242900001
sS'Reformed'
p49
F0.0127940569542
sS'Sidehugs'
p50
F0.016103059581300001
sS'Liberal'
p51
F0.0081619673521299996
sS'progressive'
p52
F0.0077686259827800001
sS'worldpolitics'
p53
F0.0080944632202599991
sS'DebateReligion'
p54
F0.0285966330956
sS'conspiratard'
p55
F0.0079794214919399996
sS'PropagandaPosters'
p56
F0.0096340741992699992
sS'tolkienfans'
p57
F0.0090272847144700005
sS'socialism'
p58
F0.010428280973299999
sS'SubredditDrama'
p59
F0.0090178655827599999
sS'Libertarian'
p60
F0.012356452232199999
sS'PoliticalDiscussion'
p61
F0.0113136392206
sS'Anarcho_Capitalism'
p62
F0.0110985277463
sS'russia'
p63
F0.0077242524916900004
sS'history'
p64
F0.0087732232379800004
s.