(dp1
S'FancyFollicles'
p2
F0.015781027104099999
sS'awwwtf'
p3
F0.015003551136399999
sS'Awwducational'
p4
F0.01800240032
sS'DoesAnybodyElse'
p5
F0.013425703521999999
sS'pettyrevenge'
p6
F0.0094098936416999995
sS'ABraThatFits'
p7
F0.0091851352490100006
sS'fffffffuuuuuuuuuuuu'
p8
F0.0087234811335400002
sS'uglyduckling'
p9
F0.00833742030407
sS'dadjokes'
p10
F0.0070463042853000004
sS'futurama'
p11
F0.0084235860409099996
sS'perfectloops'
p12
F0.0089977851605800001
sS'Pets'
p13
F0.033893436737000002
sS'RandomActsofMakeup'
p14
F0.010090018795100001
sS'BeardPorn'
p15
F0.0086078273843699996
sS'TalesFromRetail'
p16
F0.00916732206056
sS'BabyBumps'
p17
F0.0072686443682799997
sS'quityourbullshit'
p18
F0.00746932930841
sS'nostalgia'
p19
F0.0149158547387
sS'startrek'
p20
F0.0077231483435299996
sS'harrypotter'
p21
F0.0086680150245599993
sS'HistoryPorn'
p22
F0.0077210084758600004
sS'Gore'
p23
F0.0070786437318599996
sS'nononono'
p24
F0.0071755653118099998
sS'offmychest'
p25
F0.0075069924534299998
sS'Anxiety'
p26
F0.0084672913264000008
sS'YouShouldKnow'
p27
F0.0093754126501999994
sS'childfree'
p28
F0.014503311258300001
sS'webcomics'
p29
F0.0091092146898099999
sS'UnresolvedMysteries'
p30
F0.0072733150153499997
sS'howto'
p31
F0.0080944350758899997
sS'geek'
p32
F0.0084788533360300004
sS'guineapigs'
p33
F0.0073126142595999997
sS'NoStupidQuestions'
p34
F0.0073874876359999999
sS'wedding'
p35
F0.0076624728029499999
sS'pugs'
p36
F0.0073338598668600003
sS'beards'
p37
F0.0078329826832800008
sS'PrettyGirlsUglyFaces'
p38
F0.00796037502211
sS'AbandonedPorn'
p39
F0.0091558967496599992
sS'Rabbits'
p40
F0.0120891575368
sS'creepyPMs'
p41
F0.0104534212696
sS'progressive'
p42
F0.0071581961345699996
sS'actuallesbians'
p43
F0.0075431669514999999
sS'freebies'
p44
F0.00804247677052
sS'CrappyDesign'
p45
F0.0080415115868399997
sS'NewsOfTheWeird'
p46
F0.0080735312383600003
sS'thatHappened'
p47
F0.00716409282352
sS'CatsStandingUp'
p48
F0.019415627676799999
sS'zombies'
p49
F0.0080757207363699995
sS'corgi'
p50
F0.0142549972127
sS'gardening'
p51
F0.0106958446029
sS'whatisthisthing'
p52
F0.0096191283237500001
sS'AskWomen'
p53
F0.0086124652038099998
sS'tea'
p54
F0.0078096753199800003
sS'tumblr'
p55
F0.0080748924087100001
sS'interestingasfuck'
p56
F0.00726108027434
sS'fatpeoplestories'
p57
F0.0073051167857500002
sS'Baking'
p58
F0.0150222159532
sS'popping'
p59
F0.014235035250800001
sS'firstworldanarchists'
p60
F0.0076508479032499997
sS'PerfectTiming'
p61
F0.0101534718323
sS'humor'
p62
F0.0106851795955
sS'entertainment'
p63
F0.0089366007194200004
sS'skeptic'
p64
F0.0076317785362200003
sS'shittyfoodporn'
p65
F0.0106622133727
sS'wikipedia'
p66
F0.0094772003417999996
sS'ExpectationVsReality'
p67
F0.0130190007037
sS'firstworldproblems'
p68
F0.011618034764700001
sS'RoomPorn'
p69
F0.0082422848380300003
sS'foodhacks'
p70
F0.0076018808777399997
sS'lifehacks'
p71
F0.0078299005763400008
sS'memes'
p72
F0.010200139092800001
sS'disney'
p73
F0.0078290951022600003
sS'Damnthatsinteresting'
p74
F0.0087590011369899998
sS'tattoos'
p75
F0.0084646035055800008
sS'facepalm'
p76
F0.010315809994200001
sS'FloridaMan'
p77
F0.0070745143519900001
sS'delusionalartists'
p78
F0.0080791989075999996
sS'answers'
p79
F0.0070233422846499999
sS'lgbt'
p80
F0.0082695885879700004
sS'LadyBoners'
p81
F0.016579650073699999
sS'doctorwho'
p82
F0.0072773073962599999
sS'whatsthisplant'
p83
F0.0073608342278799997
sS'Unexpected'
p84
F0.0071414627798000001
sS'ThriftStoreHauls'
p85
F0.0120265413326
sS'calvinandhobbes'
p86
F0.0077700726877799999
sS'Frugal'
p87
F0.0076989494891400003
sS'recipes'
p88
F0.0090571174284100001
sS'piercing'
p89
F0.0082976903336199996
sS'Hair'
p90
F0.0085054678007300006
sS'itookapicture'
p91
F0.0132518240978
sS'wheredidthesodago'
p92
F0.0083518302546899993
sS'AnimalsBeingBros'
p93
F0.018768958544
sS'MakeupAddicts'
p94
F0.0076129420014000001
sS'whatsthisbug'
p95
F0.0089346083260900006
sS'weddingplanning'
p96
F0.0079474548440100004
sS'drunk'
p97
F0.0079810618870500005
sS'xxfitness'
p98
F0.0072602810766000002
sS'confession'
p99
F0.0080804854679000001
sS'TrollXChromosomes'
p100
F0.0123739842881
sS'RATS'
p101
F0.0080930126524599993
sS'femalefashionadvice'
p102
F0.0089714166492800007
sS'CrossStitch'
p103
F0.0075912760573599997
sS'environment'
p104
F0.0078379275988000006
sS'loseit'
p105
F0.00760985850104
sS'Bad_Cop_No_Donut'
p106
F0.0078612918723000007
sS'EatCheapAndHealthy'
p107
F0.0082512969241499996
sS'MorbidReality'
p108
F0.0079161369251799993
sS'gif'
p109
F0.012983947119900001
sS'cats'
p110
F0.045571728870000001
sS'PenmanshipPorn'
p111
F0.0086645727282599998
sS'shittyreactiongifs'
p112
F0.0077002941685400004
sS'misleadingthumbnails'
p113
F0.0093489600975499992
sS'Cumberbitches'
p114
F0.0075098814229199997
sS'raisedbynarcissists'
p115
F0.0079154714788899991
sS'Pareidolia'
p116
F0.0119702361695
sS'dogs'
p117
F0.0123398008174
sS'happy'
p118
F0.0186785818928
sS'fatlogic'
p119
F0.0072782620727799997
sS'TrollYChromosome'
p120
F0.011645742202999999
sS'Indiemakeupandmore'
p121
F0.0070350618404599998
sS'MakeupAddiction'
p122
F0.011406516779800001
sS'mildlyinfuriating'
p123
F0.0095168486288100002
sS'somethingimade'
p124
F0.0128073770492
sS'germanshepherds'
p125
F0.0071596099246999997
sS'introvert'
p126
F0.0077250512375800001
sS'sailormoon'
p127
F0.0072880705792100001
sS'curlyhair'
p128
F0.0096365638766499999
sS'TheGirlSurvivalGuide'
p129
F0.013290802764500001
sS'ghettoglamourshots'
p130
F0.0098724038372000004
sS'blunderyears'
p131
F0.0094134685010900006
sS'Random_Acts_Of_Amazon'
p132
F0.0074200913242000004
sS'rage'
p133
F0.0081932773109200004
sS'comics'
p134
F0.0075800400842800002
sS'Perfectfit'
p135
F0.0081395348837200003
sS'offbeat'
p136
F0.010535531002800001
sS'standupshots'
p137
F0.0072493401241699998
sS'InteriorDesign'
p138
F0.0074660633484199997
sS'lookatmydog'
p139
F0.0176316416488
sS'NewsOfTheStupid'
p140
F0.0077272727272699997
sS'FoodPorn'
p141
F0.0098711845421500001
sS'Cooking'
p142
F0.0094997448917600001
sS'bigboobproblems'
p143
F0.0118292289493
sS'RandomActsOfPolish'
p144
F0.0092334750109900002
sS'shorthairedhotties'
p145
F0.0087767923133799993
sS'shutupandtakemymoney'
p146
F0.0080929751094
sS'DAE'
p147
F0.0076600209863599998
sS'HighQualityGifs'
p148
F0.0075438851008299999
sS'self'
p149
F0.0101097631427
sS'pitbulls'
p150
F0.0117874736101
sS'TheWayWeWere'
p151
F0.010481133958899999
sS'badtattoos'
p152
F0.011914574747100001
sS'scifi'
p153
F0.0076436478650500003
sS'slowcooking'
p154
F0.0092076186467400008
sS'RedditLaqueristas'
p155
F0.016862981979300001
sS'nonononoyes'
p156
F0.0075085324232100001
sS'Whatcouldgowrong'
p157
F0.0073285398230099998
sS'wallpapers'
p158
F0.0071471301281400001
sS'firefly'
p159
F0.0090278686379699994
sS'knitting'
p160
F0.010489786260700001
sS'notinteresting'
p161
F0.00747973470892
sS'forwardsfromgrandma'
p162
F0.0091689633241500007
sS'AnimalsBeingJerks'
p163
F0.017356426618
sS'sewing'
p164
F0.0105180120957
sS'budgetfood'
p165
F0.0093108169785499992
sS'Images'
p166
F0.0139667371129
sS'progresspics'
p167
F0.0073708798338999997
sS'crochet'
p168
F0.0122129195791
sS'dogpictures'
p169
F0.035535892678699998
sS'cosplay'
p170
F0.0074258488217400003
sS'thesims'
p171
F0.0088563956253000006
sS'oddlysatisfying'
p172
F0.0089736299665899993
sS'GirlGamers'
p173
F0.0077740863787399998
sS'HumanPorn'
p174
F0.0088803088803100002
sS'terriblefacebookmemes'
p175
F0.0071891986673700004
sS'PrettyGirls'
p176
F0.00714786264891
sS'secretsanta'
p177
F0.0085904079574299994
sS'crafts'
p178
F0.0131800088456
sS'SkincareAddiction'
p179
F0.01023160119
s.