(dp1
S'awwwtf'
p2
F0.010401444167499999
sS'RandomActsOfGaming'
p3
F0.0081858894354299994
sS'DoesAnybodyElse'
p4
F0.0072546868767499996
sS'pettyrevenge'
p5
F0.0087155963302800003
sS'dadjokes'
p6
F0.0121820520149
sS'perfectloops'
p7
F0.0139512726283
sS'InternetIsBeautiful'
p8
F0.0079487375085800002
sS'TalesFromRetail'
p9
F0.00720440052573
sS'WouldYouRather'
p10
F0.0071889671361500002
sS'quityourbullshit'
p11
F0.0119422471392
sS'LearnUselessTalents'
p12
F0.0082731815657999998
sS'woahdude'
p13
F0.0081335283072700004
sS'FreeKarma'
p14
F0.0078164397377699993
sS'PerfectTiming'
p15
F0.0117755714616
sS'softwaregore'
p16
F0.01225
sS'NoStupidQuestions'
p17
F0.010159295294800001
sS'3amjokes'
p18
F0.0097393015248400001
sS'toosoon'
p19
F0.0081953778069199998
sS'PrettyGirlsUglyFaces'
p20
F0.0090423699621100008
sS'Braveryjerk'
p21
F0.0084699750244300008
sS'photoshopbattles'
p22
F0.0108870319781
sS'AbandonedPorn'
p23
F0.0078953775520900008
sS'creepyPMs'
p24
F0.0106077420197
sS'holdmybeer'
p25
F0.010950347881099999
sS'techsupportgore'
p26
F0.0089772600808700007
sS'CrappyDesign'
p27
F0.012937100790300001
sS'thatHappened'
p28
F0.0102456486853
sS'montageparodies'
p29
F0.0089556679559699998
sS'corgi'
p30
F0.0074845679012299996
sS'wallpapers'
p31
F0.0075152800299400002
sS'whatisthisthing'
p32
F0.0082652134423299994
sS'SubredditDrama'
p33
F0.0096613736368899999
sS'tumblr'
p34
F0.0085350374228599993
sS'interestingasfuck'
p35
F0.0102045937401
sS'Cinemagraphs'
p36
F0.0081905557877100001
sS'firstworldanarchists'
p37
F0.0124436759929
sS'forwardsfromgrandma'
p38
F0.012021743675499999
sS'no_sob_story'
p39
F0.0122406639004
sS'findareddit'
p40
F0.0086225174924000007
sS'shittyfoodporn'
p41
F0.011196284869099999
sS'ExpectationVsReality'
p42
F0.0107142857143
sS'firstworldproblems'
p43
F0.0072826182328699996
sS'outside'
p44
F0.0133610725844
sS'facepalm'
p45
F0.00837191295791
sS'Enhancement'
p46
F0.00720309205903
sS'glitch_art'
p47
F0.0087469100589499995
sS'ProgrammerHumor'
p48
F0.0071547584043900004
sS'needamod'
p49
F0.0087320018578700004
sS'casualiama'
p50
F0.0087845904385199999
sS'FloridaMan'
p51
F0.0117256763713
sS'delusionalartists'
p52
F0.011324774345499999
sS'whitepeoplegifs'
p53
F0.00840669363153
sS'NotTimAndEric'
p54
F0.0087314545325500002
sS'shittyaskscience'
p55
F0.012013029316
sS'GamePhysics'
p56
F0.012812030075199999
sS'lewronggeneration'
p57
F0.010857166997600001
sS'Unexpected'
p58
F0.012659875679400001
sS'calvinandhobbes'
p59
F0.00748515173704
sS'4chan'
p60
F0.0074165499143800002
sS'DeepIntoYouTube'
p61
F0.0133089067299
sS'itookapicture'
p62
F0.0075141374235000004
sS'wheredidthesodago'
p63
F0.014512268102899999
sS'AnimalsBeingBros'
p64
F0.0195956839886
sS'classic4chan'
p65
F0.010015346094800001
sS'ANormalDayInRussia'
p66
F0.0123408677579
sS'drunk'
p67
F0.0072887759537300003
sS'reactiongifs'
p68
F0.0073752548455900003
sS'AntiJokes'
p69
F0.0087191011236
sS'nostalgia'
p70
F0.0078983994432799999
sS'IdiotsFightingThings'
p71
F0.010562760401399999
sS'conspiratard'
p72
F0.0075277552125599997
sS'marijuanaenthusiasts'
p73
F0.0074999999999999997
sS'ContagiousLaughter'
p74
F0.0094940243493800008
sS'Damnthatsinteresting'
p75
F0.0097329673072100008
sS'FiftyFifty'
p76
F0.0092652838143800001
sS'CrazyIdeas'
p77
F0.010527604357900001
sS'OutOfTheLoop'
p78
F0.013867248364000001
sS'onetruegod'
p79
F0.010906323977000001
sS'MorbidReality'
p80
F0.0073520664303200001
sS'gif'
p81
F0.0070844372768100001
sS'cats'
p82
F0.0180209572794
sS'PenmanshipPorn'
p83
F0.0087312995794100005
sS'shittyreactiongifs'
p84
F0.011066993326
sS'misleadingthumbnails'
p85
F0.019560557341900001
sS'shittyadvice'
p86
F0.0076597781855899999
sS'Pareidolia'
p87
F0.016688961080300001
sS'happy'
p88
F0.0073633531577500001
sS'TrollYChromosome'
p89
F0.0075584949702700004
sS'explainlikeIAmA'
p90
F0.00901306894998
sS'mildlyinfuriating'
p91
F0.0111866670714
sS'oddlysatisfying'
p92
F0.0126263521901
sS'youtubehaiku'
p93
F0.0090905798413699994
sS'Awwducational'
p94
F0.014512560197799999
sS'Shitty_Car_Mods'
p95
F0.0086536186323200003
sS'shittyaskreddit'
p96
F0.0087558542048500002
sS'ghettoglamourshots'
p97
F0.0074902987094999998
sS'blunderyears'
p98
F0.0104957570344
sS'rage'
p99
F0.0089739130434799991
sS'comics'
p100
F0.0080061193268700006
sS'Perfectfit'
p101
F0.0123506947266
sS'nononono'
p102
F0.011348246392400001
sS'behindthegifs'
p103
F0.0155008530344
sS'standupshots'
p104
F0.0070158683514499999
sS'ICanDrawThat'
p105
F0.0074120308964699998
sS'teenagers'
p106
F0.0071872672797499999
sS'polandball'
p107
F0.0087523277467400004
sS'counting'
p108
F0.013546202225399999
sS'techsupportmacgyver'
p109
F0.0083294410711500007
sS'MURICA'
p110
F0.0072284227036100001
sS'HighQualityGifs'
p111
F0.0098060115114000004
sS'self'
p112
F0.0072782281082299999
sS'shittyama'
p113
F0.0120730738681
sS'badtattoos'
p114
F0.0074327770895599998
sS'spaceporn'
p115
F0.0074399729455499998
sS'nonononoyes'
p116
F0.012589073634200001
sS'Whatcouldgowrong'
p117
F0.0112557448331
sS'fifthworldproblems'
p118
F0.00912829772294
sS'notinteresting'
p119
F0.017919564337499999
sS'AnimalsBeingJerks'
p120
F0.016935716344800001
sS'catpictures'
p121
F0.019415627676799999
sS'terriblefacebookmemes'
p122
F0.0121710808263
sS'TumblrInAction'
p123
F0.0081196854421099994
sS'GifSound'
p124
F0.00714815564097
s.