(dp1
S'Shitty_Car_Mods'
p2
F0.0141983146716
sS'Poetry'
p3
F0.0078611202096300001
sS'inthenews'
p4
F0.0146090453846
sS'AndroidGaming'
p5
F0.0100391442262
sS'KitchenConfidential'
p6
F0.0091946792962499992
sS'BuyItForLife'
p7
F0.026450848795900001
sS'SampleSize'
p8
F0.012464632561
sS'everymanshouldknow'
p9
F0.042019201920199999
sS'wiiu'
p10
F0.010667959752700001
sS'shittyaskreddit'
p11
F0.0072205776462100002
sS'RandomActsOfGaming'
p12
F0.0116486921289
sS'financialindependence'
p13
F0.0116389820177
sS'relationships'
p14
F0.035398057495000003
sS'AskMen'
p15
F0.059144736305900003
sS'syriancivilwar'
p16
F0.01039079729
sS'JoeRogan'
p17
F0.0094332559706499994
sS'Showerthoughts'
p18
F0.045399398796000003
sS'duolingo'
p19
F0.0082385564441599998
sS'HistoryPorn'
p20
F0.043819045119399998
sS'picrequests'
p21
F0.0088120053894199992
sS'swoleacceptance'
p22
F0.0082794557560600009
sS'holdmybeer'
p23
F0.0228674123881
sS'ImaginaryMonsters'
p24
F0.010030324236100001
sS'Atlanta'
p25
F0.0077028885832199998
sS'DeepIntoYouTube'
p26
F0.017497767703799998
sS'circlebroke'
p27
F0.0290007455696
sS'YouShouldKnow'
p28
F0.054930085339999997
sS'skyrimmods'
p29
F0.0090880326255100008
sS'horror'
p30
F0.0097511376327199997
sS'UpliftingNews'
p31
F0.0320883881032
sS'PandR'
p32
F0.0100591930857
sS'Jokes'
p33
F0.033095569345399999
sS'3amjokes'
p34
F0.0080904862243100003
sS'Military'
p35
F0.020405027503800001
sS'Steam'
p36
F0.0223708710961
sS'AlienBlue'
p37
F0.0081198596050100005
sS'photoshopbattles'
p38
F0.029269981622999999
sS'IWantToLearn'
p39
F0.032920718149499997
sS'Astronomy'
p40
F0.014851921754
sS'Celebs'
p41
F0.0138076092089
sS'beermoney'
p42
F0.010313614644299999
sS'CrappyDesign'
p43
F0.036205657716199997
sS'askgaybros'
p44
F0.0087223940723700003
sS'Patriots'
p45
F0.0070479188527500002
sS'techsupport'
p46
F0.024667046207500001
sS'Libertarian'
p47
F0.047319907520099999
sS'starcitizen'
p48
F0.00972974655956
sS'Anarcho_Capitalism'
p49
F0.026390361445799999
sS'polyamory'
p50
F0.0093367985369099994
sS'Paleo'
p51
F0.011765537222199999
sS'pcgaming'
p52
F0.0227544617789
sS'EatCheapAndHealthy'
p53
F0.0245441026845
sS'totalwar'
p54
F0.011823151297199999
sS'tea'
p55
F0.0099132361085499995
sS'askphilosophy'
p56
F0.0249635462234
sS'blackpeoplegifs'
p57
F0.0117792699854
sS'redditgetsdrawn'
p58
F0.012113930313099999
sS'polandball'
p59
F0.033651666288800001
sS'POLITIC'
p60
F0.0123886024857
sS'AskAcademia'
p61
F0.0084957115918799994
sS'MechanicAdvice'
p62
F0.0089820359281399999
sS'AmISexy'
p63
F0.0091969296941900001
sS'fatpeoplestories'
p64
F0.028632886508399999
sS'OneY'
p65
F0.018156367914999999
sS'nba'
p66
F0.019657511304600001
sS'fantasyfootball'
p67
F0.0131469814883
sS'forwardsfromgrandma'
p68
F0.0293429249991
sS'LSD'
p69
F0.0085233326230599992
sS'Design'
p70
F0.012952101661800001
sS'frugalmalefashion'
p71
F0.0146798873115
sS'movies'
p72
F0.035653105905800002
sS'skeptic'
p73
F0.046410014170999998
sS'boardgames'
p74
F0.016848393457799999
sS'socialskills'
p75
F0.0269616833961
sS'DebateReligion'
p76
F0.0321269743904
sS'Anticonsumption'
p77
F0.0106916687228
sS'Nexus5'
p78
F0.0085049854178400001
sS'worldnews'
p79
F0.046412400777199998
sS'vexillology'
p80
F0.018539503260199999
sS'tattoos'
p81
F0.015570640164099999
sS'Economics'
p82
F0.047028086218200003
sS'needamod'
p83
F0.0071846413568399997
sS'LetsNotMeet'
p84
F0.0115569384371
sS'titanfall'
p85
F0.0095947042384100008
sS'malelivingspace'
p86
F0.0079573059928499997
sS'answers'
p87
F0.027908185040200002
sS'netsec'
p88
F0.0107234167786
sS'lgbt'
p89
F0.021262897514500001
sS'baseball'
p90
F0.0178546871419
sS'finance'
p91
F0.0092890995260700004
sS'gentlemanboners'
p92
F0.021015852474899999
sS'doctorwho'
p93
F0.020605397520099999
sS'WritingPrompts'
p94
F0.038227644232999999
sS'sanfrancisco'
p95
F0.0099553539281300001
sS'ThriftStoreHauls'
p96
F0.0074359580386500002
sS'environment'
p97
F0.020764528783900001
sS'WarshipPorn'
p98
F0.0083397713991399999
sS'vegetarian'
p99
F0.011396821784800001
sS'personalfinance'
p100
F0.033612421786799997
sS'creepy'
p101
F0.022719639508499999
sS'pics'
p102
F0.0254788660576
sS'howtonotgiveafuck'
p103
F0.022974312596699999
sS'IWantOut'
p104
F0.0145114058158
sS'vinyl'
p105
F0.0082813508281400008
sS'whatsthisbug'
p106
F0.0132112986181
sS'QuotesPorn'
p107
F0.037066347955299998
sS'apple'
p108
F0.022410768270099999
sS'TrueReddit'
p109
F0.080940761123500002
sS'todayilearned'
p110
F0.041438778253900001
sS'Catholicism'
p111
F0.0100857286939
sS'Assistance'
p112
F0.0084729099261700008
sS'AmIFreeToGo'
p113
F0.010496992207999999
sS'jailbreak'
p114
F0.0086821883243500004
sS'AntiJokes'
p115
F0.010008014230100001
sS'findareddit'
p116
F0.019792016102000001
sS'IdiotsFightingThings'
p117
F0.018472732410300001
sS'FinalFantasy'
p118
F0.0077592732778200002
sS'Health'
p119
F0.0145024112231
sS'Firearms'
p120
F0.011921802019
sS'AskScienceFiction'
p121
F0.033453181178699998
sS'ContagiousLaughter'
p122
F0.0162001666898
sS'graphic_design'
p123
F0.0084826467268599992
sS'HIMYM'
p124
F0.0153751266576
sS'FiftyFifty'
p125
F0.024809209675299999
sS'newzealand'
p126
F0.0080600777602200004
sS'eldertrees'
p127
F0.0099449204406399996
sS'AskHistorians'
p128
F0.064195789016700006
sS'Drugs'
p129
F0.025765430457699998
sS'OutOfTheLoop'
p130
F0.065254552211100006
sS'stopsmoking'
p131
F0.0094932672509600007
sS'sports'
p132
F0.024804974410199999
sS'wheredidthesodago'
p133
F0.026399331662500001
sS'ifyoulikeblank'
p134
F0.018359381836599999
sS'firstimpression'
p135
F0.0094177924399600002
sS'WebGames'
p136
F0.0110012875862
sS'musictheory'
p137
F0.008756464504
sS'battlefield_4'
p138
F0.0117174116626
sS'Pareidolia'
p139
F0.0148969090713
sS'hockey'
p140
F0.0169234928359
sS'Filmmakers'
p141
F0.0094760128107799994
sS'Eve'
p142
F0.011011807499400001
sS'depression'
p143
F0.021909549999400001
sS'ftlgame'
p144
F0.0106203234371
sS'LifeProTips'
p145
F0.050422801596600002
sS'TheGirlSurvivalGuide'
p146
F0.0092424105936399995
sS'PoliticalHumor'
p147
F0.015594387603599999
sS'NeutralPolitics'
p148
F0.0247563756998
sS'ghettoglamourshots'
p149
F0.0070632768141100002
sS'popping'
p150
F0.012319245825699999
sS'EDC'
p151
F0.013815779074000001
sS'dwarffortress'
p152
F0.012090376935300001
sS'techsupportgore'
p153
F0.019040732706699998
sS'science'
p154
F0.064892815560600003
sS'firstworldproblems'
p155
F0.0255543515179
sS'Entrepreneur'
p156
F0.020430731801699999
sS'standupshots'
p157
F0.036439720211399997
sS'legaladvice'
p158
F0.029871903915000001
sS'Meditation'
p159
F0.018741258741300001
sS'MMA'
p160
F0.0137364145351
sS'history'
p161
F0.034156131357900001
sS'weightroom'
p162
F0.0088909599254399993
sS'gamernews'
p163
F0.016132298346299999
sS'NewsOfTheStupid'
p164
F0.0082876294942100005
sS'audiophile'
p165
F0.0089160506223900007
sS'awesome'
p166
F0.0091171014721599993
sS'solotravel'
p167
F0.0075448806657700002
sS'india'
p168
F0.0096969293057199996
sS'DecidingToBeBetter'
p169
F0.0201413625259
sS'Glitch_in_the_Matrix'
p170
F0.015292893302500001
sS'gadgets'
p171
F0.025096563933399998
sS'buildapcsales'
p172
F0.010979485697800001
sS'learnprogramming'
p173
F0.0254710441742
sS'Infographics'
p174
F0.0135183068616
sS'TalesFromYourServer'
p175
F0.014199600579
sS'counting'
p176
F0.0105016390943
sS'CampingandHiking'
p177
F0.012437981180499999
sS'SRSsucks'
p178
F0.016546923656199999
sS'HouseOfCards'
p179
F0.018605466012599998
sS'asmr'
p180
F0.013235146106599999
sS'techsupportmacgyver'
p181
F0.010215277514999999
sS'MURICA'
p182
F0.031947014707299999
sS'backpacking'
p183
F0.0077387971698099998
sS'technology'
p184
F0.051413707086499998
sS'travel'
p185
F0.023268964687500001
sS'RealGirls'
p186
F0.014590185660400001
sS'vancouver'
p187
F0.0071410179383700001
sS'scifi'
p188
F0.0309632861828
sS'RedditLaqueristas'
p189
F0.0070859898913199996
sS'spaceporn'
p190
F0.018795744755199999
sS'nyc'
p191
F0.020364564121499999
sS'Pizza'
p192
F0.0076867460710100003
sS'photography'
p193
F0.017305583186699999
sS'economy'
p194
F0.0137881565314
sS'BasicIncome'
p195
F0.026875410292599999
sS'gaming'
p196
F0.028452225663699999
sS'mylittlepony'
p197
F0.0094912036880099998
sS'asktrp'
p198
F0.0094301572973300007
sS'askscience'
p199
F0.063438021122800003
sS'philosophy'
p200
F0.045859370437400002
sS'budgetfood'
p201
F0.0097021177112400006
sS'Images'
p202
F0.0074873590042799998
sS'mac'
p203
F0.0072112460685699997
sS'Xcom'
p204
F0.0071031203680500003
sS'vegan'
p205
F0.0140268539266
sS'GradSchool'
p206
F0.00718051621026
sS'dragonage'
p207
F0.0097767591639000007
sS'law'
p208
F0.0153144660138
sS'GameDeals'
p209
F0.021023736820299999
sS'short'
p210
F0.0101946428923
sS'oculus'
p211
F0.017708095129200001
sS'dating_advice'
p212
F0.0120114555256
sS'CFB'
p213
F0.019066397101500002
sS'Shitstatistssay'
p214
F0.0118318368717
sS'FanTheories'
p215
F0.034761213803500002
sS'listentothis'
p216
F0.0214458785704
sS'tall'
p217
F0.0143325075237
sS'ImGoingToHellForThis'
p218
F0.033900626335299999
sS'manga'
p219
F0.00714624398835
sS'shield'
p220
F0.0084825295986099992
sS'DoesAnybodyElse'
p221
F0.031880950557700002
sS'pettyrevenge'
p222
F0.0334397214566
sS'malehairadvice'
p223
F0.0119490761987
sS'CityPorn'
p224
F0.016628159350300001
sS'electronic_cigarette'
p225
F0.012616921974599999
sS'Guildwars2'
p226
F0.0079544391117800008
sS'washingtondc'
p227
F0.0092131070843799994
sS'PurplePillDebate'
p228
F0.0147490781826
sS'actuallesbians'
p229
F0.0094020373988300005
sS'london'
p230
F0.0104712041885
sS'dataisbeautiful'
p231
F0.062652383420699995
sS'japan'
p232
F0.0128986908005
sS'islam'
p233
F0.015399440357300001
sS'GlobalOffensive'
p234
F0.0102743584688
sS'summonerschool'
p235
F0.010530322253200001
sS'beards'
p236
F0.0145322177857
sS'gaybros'
p237
F0.013551149976
sS'badlinguistics'
p238
F0.011999748696399999
sS'nostalgia'
p239
F0.017471857410899998
sS'Documentaries'
p240
F0.035811014143800002
sS'writing'
p241
F0.028897811457299999
sS'AndroidQuestions'
p242
F0.0123538788523
sS'Bioshock'
p243
F0.0071951736988700001
sS'WTF'
p244
F0.029543846475999998
sS'soccer'
p245
F0.023736777469900001
sS'wallpaper'
p246
F0.0086374351720900008
sS'texas'
p247
F0.0097171318485100005
sS'Gore'
p248
F0.0076770860053499996
sS'MensRights'
p249
F0.052195430741799997
sS'MilitaryPorn'
p250
F0.017722527691400002
sS'Frisson'
p251
F0.023569145189499999
sS'Judaism'
p252
F0.0079484469019399998
sS'childfree'
p253
F0.0306118030799
sS'smallbusiness'
p254
F0.0075860150236500001
sS'GunsAreCool'
p255
F0.0075184829372200003
sS'food'
p256
F0.027212020033400001
sS'whitepeoplegifs'
p257
F0.0116456081595
sS'DebateAnAtheist'
p258
F0.021158801739400001
sS'NoStupidQuestions'
p259
F0.053084133614699998
sS'chicago'
p260
F0.0125574548623
sS'halo'
p261
F0.0115742220972
sS'grammar'
p262
F0.0088499184339299996
sS'creepyPMs'
p263
F0.026609738215400001
sS'asianamerican'
p264
F0.0070582408057099999
sS'WatchItForThePlot'
p265
F0.0129402186152
sS'nfl'
p266
F0.024574735080899999
sS'freebies'
p267
F0.018429303357
sS'Watches'
p268
F0.0079376916065999996
sS'AdviceAnimals'
p269
F0.028432497961599999
sS'SubredditDrama'
p270
F0.076452316894300001
sS'arrow'
p271
F0.0084731487096600007
sS'minimalism'
p272
F0.0264891270091
sS'eu4'
p273
F0.0105196907031
sS'wallpapers'
p274
F0.020148343405200001
sS'aspergers'
p275
F0.0072759892355200003
sS'mildlyinteresting'
p276
F0.036101000761799999
sS'TrueAtheism'
p277
F0.0387290039585
sS'badhistory'
p278
F0.0331927838426
sS'energy'
p279
F0.012362855779899999
sS'TrollXChromosomes'
p280
F0.033753716805099997
sS'Rateme'
p281
F0.014556970273499999
sS'literature'
p282
F0.013280913820799999
sS'malegrooming'
p283
F0.0071369750205899996
sS'TwoXChromosomes'
p284
F0.041223930583000001
sS'Cinemagraphs'
p285
F0.010429093707899999
sS'canada'
p286
F0.029697799647199999
sS'DunderMifflin'
p287
F0.0092051969912200007
sS'psychology'
p288
F0.026433268500499998
sS'space'
p289
F0.036157275189399998
sS'shittyfoodporn'
p290
F0.019734056068400001
sS'malefashionadvice'
p291
F0.030384818295100001
sS'LearnUselessTalents'
p292
F0.023649002689800001
sS'China'
p293
F0.0096077940581900008
sS'leagueoflegends'
p294
F0.0091737040118400007
sS'RoomPorn'
p295
F0.019781887776100002
sS'medicine'
p296
F0.0129787850264
sS'tf2'
p297
F0.0148313071341
sS'DarkSouls2'
p298
F0.010818083372500001
sS'math'
p299
F0.028600076394200001
sS'LetsTalkMusic'
p300
F0.012186464742100001
sS'bestof'
p301
F0.080824516487200002
sS'Cyberpunk'
p302
F0.0168972694992
sS'cars'
p303
F0.017186863066999999
sS'Metal'
p304
F0.0140371485207
sS'LadyBoners'
p305
F0.011584602704599999
sS'Roadcam'
p306
F0.0086592499139800001
sS'GamePhysics'
p307
F0.0147194275188
sS'paradoxplaza'
p308
F0.0141883408072
sS'youtubehaiku'
p309
F0.020877544310599998
sS'dayz'
p310
F0.011547810047199999
sS'CanadaPolitics'
p311
F0.0096678433889600002
sS'Borderlands'
p312
F0.0073575402442600003
sS'recipes'
p313
F0.0127854805519
sS'headphones'
p314
F0.0112719941349
sS'programming'
p315
F0.032149798851900002
sS'Planetside'
p316
F0.0079731027857799994
sS'dogecoin'
p317
F0.020426796371199998
sS'gunpolitics'
p318
F0.00715119673088
sS'whatstheword'
p319
F0.0130192804611
sS'classicalmusic'
p320
F0.012134511149899999
sS'AskUK'
p321
F0.0086767895878500003
sS'misc'
p322
F0.0100217777061
sS'patientgamers'
p323
F0.020980543183400001
sS'rant'
p324
F0.015923145294000001
sS'Buddhism'
p325
F0.015208984084500001
sS'pokemon'
p326
F0.0182020528429
sS'TheLastAirbender'
p327
F0.023599918331099999
sS'OldSchoolCool'
p328
F0.029538575862899999
sS'lego'
p329
F0.0138437352138
sS'ANormalDayInRussia'
p330
F0.016839965884599999
sS'seduction'
p331
F0.020441537203600001
sS'onetruegod'
p332
F0.00722660003844
sS'TheFacebookDelusion'
p333
F0.010175502226500001
sS'Autos'
p334
F0.0092392088927400005
sS'Seattle'
p335
F0.014551285858500001
sS'PenmanshipPorn'
p336
F0.016376050240400002
sS'shittyreactiongifs'
p337
F0.0101366325567
sS'shittyadvice'
p338
F0.0108169872405
sS'explainlikeimfive'
p339
F0.053875664835600003
sS'TheSimpsons'
p340
F0.0144460459617
sS'asktransgender'
p341
F0.011030023094699999
sS'SuggestALaptop'
p342
F0.0098661981348799992
sS'CombatFootage'
p343
F0.016937429057900001
sS'nutrition'
p344
F0.0098393347631400008
sS'TrollYChromosome'
p345
F0.0186769616027
sS'DaystromInstitute'
p346
F0.0104187537568
sS'3DS'
p347
F0.0110592772283
sS'mildlyinfuriating'
p348
F0.041740450290899997
sS'madmen'
p349
F0.0092525093927
sS'raisedbynarcissists'
p350
F0.022088652905399998
sS'BitcoinMarkets'
p351
F0.0087925719185000008
sS'edmproduction'
p352
F0.00811587576341
sS'Awwducational'
p353
F0.0185393871097
sS'skyrim'
p354
F0.024786205243000001
sS'learnpython'
p355
F0.00762745885187
sS'toronto'
p356
F0.014450351976700001
sS'television'
p357
F0.0387821307081
sS'againstmensrights'
p358
F0.010866623644299999
sS'DCcomics'
p359
F0.0092978026477399996
sS'worldpolitics'
p360
F0.040709489668199997
sS'TheRedPill'
p361
F0.030351694234800001
sS'dogs'
p362
F0.0142767516947
sS'PerfectTiming'
p363
F0.0215753088038
sS'sweden'
p364
F0.0074869218832499997
sS'knives'
p365
F0.0076841890865999999
sS'hacking'
p366
F0.0077911602412500001
sS'KerbalSpaceProgram'
p367
F0.021171666821299999
sS'russia'
p368
F0.0101432096846
sS'gallifrey'
p369
F0.014695939935200001
sS'formula1'
p370
F0.0084771033013800005
sS'FoodPorn'
p371
F0.0215753008387
sS'boston'
p372
F0.0121532980388
sS'teenagers'
p373
F0.0206394716958
sS'sysadmin'
p374
F0.017228293867600001
sS'conspiracy'
p375
F0.046119709925299998
sS'Naruto'
p376
F0.0084315806306199999
sS'AnythingGoesNews'
p377
F0.0084147721427800005
sS'collapse'
p378
F0.010409508024400001
sS'Nootropics'
p379
F0.011341802376599999
sS'HighQualityGifs'
p380
F0.0129350283533
sS'self'
p381
F0.042503991631300003
sS'HomeworkHelp'
p382
F0.010043280434999999
sS'IAmA'
p383
F0.032413695992000002
sS'Parenting'
p384
F0.023994334277600001
sS'thatHappened'
p385
F0.040793556709999998
sS'chess'
p386
F0.011100551226
sS'britishproblems'
p387
F0.022898223688
sS'UnresolvedMysteries'
p388
F0.0119762755684
sS'conspiratard'
p389
F0.0344024242849
sS'startrek'
p390
F0.0213438235619
sS'gamegrumps'
p391
F0.0084846036189400002
sS'FutureWhatIf'
p392
F0.015856474386500001
sS'firefly'
p393
F0.012048626744699999
sS'MovieSuggestions'
p394
F0.00827273077071
sS'badphilosophy'
p395
F0.0153890884925
sS'aww'
p396
F0.025437765706700002
sS'Futurology'
p397
F0.057196193598299999
sS'no_sob_story'
p398
F0.0095511944019899993
sS'MLS'
p399
F0.0071850794944999996
sS'germany'
p400
F0.0092964729744999999
sS'INTP'
p401
F0.0110175738061
sS'progresspics'
p402
F0.016840007155099999
sS'Gaming4Gamers'
p403
F0.0127991616923
sS'hearthstone'
p404
F0.015226165622800001
sS'Minecraft'
p405
F0.0228093503982
sS'chemistry'
p406
F0.012061423577399999
sS'windows'
p407
F0.0096398324461800002
sS'newjersey'
p408
F0.0074373061254999996
sS'investing'
p409
F0.0232991883897
sS'TumblrInAction'
p410
F0.064253660103299998
sS'secretsanta'
p411
F0.0104564940331
sS'HailCorporate'
p412
F0.0188282500916
sS'wow'
p413
F0.0132006278925
sS'TalesFromThePizzaGuy'
p414
F0.0076243662864399998
sS'Heavymind'
p415
F0.0126766968583
sS'Psychonaut'
p416
F0.020242243238800001
sS'adventuretime'
p417
F0.015629770714900001
sS'PanicHistory'
p418
F0.0097664901807700006
sS'LucidDreaming'
p419
F0.014888896592399999
sS'fffffffuuuuuuuuuuuu'
p420
F0.0224452951947
sS'PoliticalDiscussion'
p421
F0.051620801812699998
sS'dbz'
p422
F0.0071422257579800003
sS'spacex'
p423
F0.0077218540410399997
sS'Foodforthought'
p424
F0.044306320672700003
sS'help'
p425
F0.00737332625494
sS'languagelearning'
p426
F0.014725694184599999
sS'TheoryOfReddit'
p427
F0.023743497358499999
sS'TheBluePill'
p428
F0.026612136199400001
sS'MachinePorn'
p429
F0.0090937233960199995
sS'printSF'
p430
F0.0079305434696600001
sS'French'
p431
F0.0071273997895499996
sS'harrypotter'
p432
F0.022039757994799999
sS'wicked_edge'
p433
F0.012162230077199999
sS'booksuggestions'
p434
F0.0149940160711
sS'whowouldwin'
p435
F0.042293106694300003
sS'GrandTheftAutoV'
p436
F0.0136543559574
sS'gamedev'
p437
F0.0182005394901
sS'CCW'
p438
F0.0111891991862
sS'Anxiety'
p439
F0.014466888829199999
sS'arresteddevelopment'
p440
F0.0102135218148
sS'shutupandtakemymoney'
p441
F0.019891115411099999
sS'gonewild'
p442
F0.010674845951299999
sS'CrusaderKings'
p443
F0.0129735525375
sS'JusticePorn'
p444
F0.046063024860699998
sS'trees'
p445
F0.0212607236106
sS'smashbros'
p446
F0.0155071974911
sS'geek'
p447
F0.028435605565000001
sS'lostgeneration'
p448
F0.0204965871995
sS'Fitness'
p449
F0.031299772541100002
sS'elderscrollsonline'
p450
F0.0086398518126499999
sS'Conservative'
p451
F0.030787073646500001
sS'homestead'
p452
F0.0072161865842699999
sS'AbandonedPorn'
p453
F0.024117890016499999
sS'motorcycles'
p454
F0.014962971601800001
sS'progressive'
p455
F0.017262861736300001
sS'dadjokes'
p456
F0.027010884983499999
sS'progun'
p457
F0.0108438564843
sS'Marijuana'
p458
F0.0073436312990599996
sS'guns'
p459
F0.020857191588899999
sS'WeAreTheMusicMakers'
p460
F0.0171345817441
sS'privacy'
p461
F0.01485205511
sS'futurama'
p462
F0.015546288573800001
sS'architecture'
p463
F0.0070275947675
sS'nsfw'
p464
F0.015195052987299999
sS'CollegeBasketball'
p465
F0.0120711468334
sS'cringe'
p466
F0.043353353842099998
sS'StarWars'
p467
F0.025434745546
sS'rpg'
p468
F0.018842317889199999
sS'AskWomen'
p469
F0.048520731100199999
sS'EngineeringStudents'
p470
F0.011328721742600001
sS'Christianity'
p471
F0.035068089403199998
sS'Justrolledintotheshop'
p472
F0.019589024887300001
sS'AskScienceDiscussion'
p473
F0.0131475469339
sS'college'
p474
F0.010250276039699999
sS'torrents'
p475
F0.0080186139527699991
sS'roosterteeth'
p476
F0.0077766725659100004
sS'PS3'
p477
F0.00865927223195
sS'Android'
p478
F0.030243114539500002
sS'KarmaCourt'
p479
F0.0071216861518199996
sS'PS4'
p480
F0.013322720182700001
sS'firstworldanarchists'
p481
F0.034827432817900003
sS'nononono'
p482
F0.024970293107999999
sS'cosplay'
p483
F0.010047011839400001
sS'truegaming'
p484
F0.043715770256999999
sS'lotr'
p485
F0.014424310867000001
sS'AmericanHorrorStory'
p486
F0.00726522558077
sS'wikipedia'
p487
F0.019415634895099999
sS'breakingbad'
p488
F0.022429551680199999
sS'outside'
p489
F0.029973742011100001
sS'AskCulinary'
p490
F0.016794158553499999
sS'foodhacks'
p491
F0.012479703961
sS'pcmasterrace'
p492
F0.0256531741651
sS'magicTCG'
p493
F0.0160114259941
sS'AskFeminists'
p494
F0.0154415412601
sS'europe'
p495
F0.0365974555268
sS'StandUpComedy'
p496
F0.011359534980899999
sS'jobs'
p497
F0.019734403953099999
sS'linguistics'
p498
F0.0197782670839
sS'casualiama'
p499
F0.046873820334999997
sS'cscareerquestions'
p500
F0.0129809300769
sS'facepalm'
p501
F0.040220246514400003
sS'NotTimAndEric'
p502
F0.0112486355479
sS'news'
p503
F0.046577044937899999
sS'gamingsuggestions'
p504
F0.0120003726824
sS'Unexpected'
p505
F0.0427431147941
sS'RedditDayOf'
p506
F0.015882481563200001
sS'fitmeals'
p507
F0.0086821939526600007
sS'relationship_advice'
p508
F0.022165064539499998
sS'nosleep'
p509
F0.0136490378023
sS'itookapicture'
p510
F0.016316481634399999
sS'Sherlock'
p511
F0.0138881664499
sS'ukpolitics'
p512
F0.016495311264300001
sS'GetMotivated'
p513
F0.034994980410299997
sS'buildapc'
p514
F0.0209926417544
sS'drunk'
p515
F0.017986701091899999
sS'xxfitness'
p516
F0.0101700035243
sS'reactiongifs'
p517
F0.0375254689805
sS'community'
p518
F0.020490752087500001
sS'ShingekiNoKyojin'
p519
F0.0071951619366800003
sS'Music'
p520
F0.028431620898300002
sS'LearnJapanese'
p521
F0.0077707251394500002
sS'EarthPorn'
p522
F0.028446452466899998
sS'linux'
p523
F0.0213835775242
sS'femalefashionadvice'
p524
F0.012597050294700001
sS'3Dprinting'
p525
F0.0081806342742899996
sS'ainbow'
p526
F0.019339396840600001
sS'chrome'
p527
F0.0086572832886499997
sS'Homebrewing'
p528
F0.0114918002804
sS'Guitar'
p529
F0.017106573705199999
sS'beer'
p530
F0.017449330625400002
sS'California'
p531
F0.0095046251931200001
sS'ireland'
p532
F0.0099097716147300008
sS'bisexual'
p533
F0.0077833915299500003
sS'HomeImprovement'
p534
F0.0093372522312599997
sS'web_design'
p535
F0.0144593116469
sS'confessions'
p536
F0.0089303085723200001
sS'Diablo'
p537
F0.0111775730302
sS'fatlogic'
p538
F0.034271086032900001
sS'hiphopheads'
p539
F0.022474086174499999
sS'MakeupAddiction'
p540
F0.0148031266246
sS'androidapps'
p541
F0.011485552557099999
sS'Aquariums'
p542
F0.00724575323133
sS'somethingimade'
p543
F0.014104325103
sS'TopGear'
p544
F0.0128351620831
sS'MapPorn'
p545
F0.050969976128799999
sS'r4r'
p546
F0.0082076865193299996
sS'aviation'
p547
F0.011286383737
sS'buildapcforme'
p548
F0.0071525993592799998
sS'darksouls'
p549
F0.0120340434939
sS'Chromecast'
p550
F0.0082787800043299994
sS'sex'
p551
F0.038361413539299997
sS'Perfectfit'
p552
F0.010369521627
sS'offbeat'
p553
F0.041669589617700002
sS'softwaregore'
p554
F0.010354035000099999
sS'socialism'
p555
F0.030010438413399999
sS'Ask_Politics'
p556
F0.0201296696511
sS'DotA2'
p557
F0.0132623472929
sS'bodybuilding'
p558
F0.0131935292329
sS'ICanDrawThat'
p559
F0.0080476055539800001
sS'windowsphone'
p560
F0.0077575038631400002
sS'Cooking'
p561
F0.026843628380400001
sS'IASIP'
p562
F0.0111038881178
sS'hardware'
p563
F0.0099860449100199998
sS'exmormon'
p564
F0.012359649898300001
sS'DIY'
p565
F0.027533198614300002
sS'politics'
p566
F0.062992327496599998
sS'electronicmusic'
p567
F0.012673616387599999
sS'assassinscreed'
p568
F0.00992468162328
sS'ShitRedditSays'
p569
F0.019135486075499999
sS'southpark'
p570
F0.020262358259799999
sS'starcraft'
p571
F0.014800476115999999
sS'funny'
p572
F0.023154705454900001
sS'Israel'
p573
F0.012148823082800001
sS'productivity'
p574
F0.0070059880239500003
sS'IndieGaming'
p575
F0.010499511650600001
sS'Python'
p576
F0.0099373591468099997
sS'selfimprovement'
p577
F0.0078738579900600007
sS'Jazz'
p578
F0.0073008086459999998
sS'daddit'
p579
F0.0098718110976500004
sS'watchpeopledie'
p580
F0.019486805147800001
sS'Whatcouldgowrong'
p581
F0.034369556478600002
sS'fifthworldproblems'
p582
F0.01018
sS'talesfromtechsupport'
p583
F0.034757730703700002
sS'Anarchism'
p584
F0.021202760935099998
sS'notinteresting'
p585
F0.024363466831100002
sS'gaymers'
p586
F0.00751919700651
sS'AnimalsBeingJerks'
p587
F0.025705750560100001
sS'DebateAChristian'
p588
F0.020598138245200001
sS'running'
p589
F0.017291787388699999
sS'climbing'
p590
F0.0078769165994199992
sS'Physics'
p591
F0.021185381015300001
sS'thesims'
p592
F0.00743234991364
sS'TrueFilm'
p593
F0.017387334259099999
sS'HumanPorn'
p594
F0.021590806261899999
sS'Fantasy'
p595
F0.017267861298600001
sS'anime'
p596
F0.016768709455599998
sS'Portland'
p597
F0.011768457981199999
sS'AskEngineers'
p598
F0.016288243741900001
sS'drawing'
p599
F0.0081123409646799999
sS'GifSound'
p600
F0.0077513737763399999
sS'FancyFollicles'
p601
F0.010734562109400001
sS'awwwtf'
p602
F0.010452354683200001
sS'DestinyTheGame'
p603
F0.0089213514170900007
sS'Piracy'
p604
F0.0081830817720899996
sS'AskSocialScience'
p605
F0.027440982816799998
sS'PublicFreakout'
p606
F0.021828462474099999
sS'ArtisanVideos'
p607
F0.0151000839866
sS'Bitcoin'
p608
F0.030500826674
sS'rickandmorty'
p609
F0.0154525032092
sS'quotes'
p610
F0.016448569397199998
sS'woodworking'
p611
F0.013630582778499999
sS'perfectloops'
p612
F0.0152615745836
sS'Pets'
p613
F0.0084451431287200004
sS'InternetIsBeautiful'
p614
F0.038168013333499999
sS'startups'
p615
F0.0117981905201
sS'carporn'
p616
F0.0103121344579
sS'TalesFromRetail'
p617
F0.032489653780200002
sS'WouldYouRather'
p618
F0.015538894095599999
sS'quityourbullshit'
p619
F0.035609642663399999
sS'Advice'
p620
F0.017009032051799999
sS'audioengineering'
p621
F0.010354532099000001
sS'learnmath'
p622
F0.0094079764121699997
sS'ProtectAndServe'
p623
F0.022592894422
sS'woahdude'
p624
F0.043381150537799999
sS'Fallout'
p625
F0.020425604649199999
sS'Seahawks'
p626
F0.0076145442687100004
sS'offmychest'
p627
F0.048497542898599998
sS'australia'
p628
F0.021926647790899999
sS'slowcooking'
p629
F0.01546461601
sS'SelfDrivingCars'
p630
F0.0086409395973199993
sS'NSFW_GIF'
p631
F0.012051315278
sS'howto'
p632
F0.014752754758199999
sS'cringepics'
p633
F0.043570825733000002
sS'toosoon'
p634
F0.012223202978099999
sS'Liberal'
p635
F0.013468289978900001
sS'bodyweightfitness'
p636
F0.0155428884438
sS'thewalkingdead'
p637
F0.020738386921399999
sS'gifs'
p638
F0.031050882194500001
sS'Art'
p639
F0.020519959140300002
sS'ConfusedBoners'
p640
F0.0073403759515300003
sS'Paranormal'
p641
F0.0079132886852300004
sS'4chan'
p642
F0.041302482280800003
sS'compsci'
p643
F0.0137891569601
sS'montageparodies'
p644
F0.013051415492800001
sS'ArcherFX'
p645
F0.017167311060399999
sS'getdisciplined'
p646
F0.021703686821799999
sS'google'
p647
F0.014916745612500001
sS'gardening'
p648
F0.014276413690499999
sS'whatisthisthing'
p649
F0.033910076763700003
sS'glitch_art'
p650
F0.0070808678501000002
sS'NetflixBestOf'
p651
F0.032052659860300002
sS'ShouldIbuythisgame'
p652
F0.0146853968414
sS'tumblr'
p653
F0.017353544417399999
sS'interestingasfuck'
p654
F0.045929798357
sS'MarkMyWords'
p655
F0.014940318833600001
sS'PropagandaPosters'
p656
F0.019524868620499999
sS'FeMRADebates'
p657
F0.0137589433132
sS'Coffee'
p658
F0.0139375060214
sS'gameofthrones'
p659
F0.036895973851500001
sS'humor'
p660
F0.0218360783896
sS'mountandblade'
p661
F0.0071787370811599999
sS'AMA'
p662
F0.023109932761199999
sS'SkincareAddiction'
p663
F0.015889537411599999
sS'ExpectationVsReality'
p664
F0.0153503524691
sS'DarkNetMarkets'
p665
F0.0088421052631600001
sS'nonononoyes'
p666
F0.032674169188700003
sS'religion'
p667
F0.0095332550702299998
sS'lifehacks'
p668
F0.0349751225535
sS'SCP'
p669
F0.0077580300648899996
sS'Enhancement'
p670
F0.0124027379629
sS'starbound'
p671
F0.0100968143912
sS'biology'
p672
F0.0120470588235
sS'ProgrammerHumor'
p673
F0.019776655856100001
sS'DeadBedrooms'
p674
F0.0106653873122
sS'business'
p675
F0.022081924538500001
sS'FloridaMan'
p676
F0.023358563633200002
sS'delusionalartists'
p677
F0.0230719445854
sS'OkCupid'
p678
F0.0251233737102
sS'Frugal'
p679
F0.044309763040300001
sS'promos'
p680
F0.031268089556099998
sS'shittyaskscience'
p681
F0.037178028073200003
sS'lewronggeneration'
p682
F0.0285673201361
sS'worldbuilding'
p683
F0.020143079090900001
sS'calvinandhobbes'
p684
F0.010829219760500001
sS'netflix'
p685
F0.013953800023499999
sS'bayarea'
p686
F0.0078045851937999997
sS'masseffect'
p687
F0.013192148595299999
sS'sixwordstories'
p688
F0.0094343450738499993
sS'AnimalsBeingBros'
p689
F0.016891288027699999
sS'classic4chan'
p690
F0.013240978148600001
sS'Games'
p691
F0.042180891845799998
sS'Cynicalbrit'
p692
F0.0159552238806
sS'battlestations'
p693
F0.0162641522661
sS'EnoughLibertarianSpam'
p694
F0.019291483865699999
sS'amiugly'
p695
F0.019373905429099999
sS'asoiaf'
p696
F0.031863173366499999
sS'ShitAmericansSay'
p697
F0.0139551964745
sS'applehelp'
p698
F0.0085937500000000007
sS'Scotland'
p699
F0.0128525196486
sS'intj'
p700
F0.011247249829299999
sS'Animesuggest'
p701
F0.0081206298189500006
sS'marijuanaenthusiasts'
p702
F0.0071100127615599997
sS'ADHD'
p703
F0.0147530247148
sS'confession'
p704
F0.035458657810400002
sS'tifu'
p705
F0.0363559240863
sS'exmuslim'
p706
F0.0078237137369899998
sS'unitedkingdom'
p707
F0.030575587785899999
sS'Damnthatsinteresting'
p708
F0.026957128803999999
sS'DnD'
p709
F0.019400871917799999
sS'loseit'
p710
F0.021997836278400001
sS'CrazyIdeas'
p711
F0.051961626575000003
sS'MechanicalKeyboards'
p712
F0.0118194231097
sS'TinyHouses'
p713
F0.0093826488985599994
sS'Bad_Cop_No_Donut'
p714
F0.034026495643399997
sS'SquaredCircle'
p715
F0.0087776915268399994
sS'philadelphia'
p716
F0.0076261736033699998
sS'MorbidReality'
p717
F0.042906992857200003
sS'gif'
p718
F0.0121067067312
sS'cats'
p719
F0.019241461260900001
sS'introvert'
p720
F0.0139538406195
sS'Ubuntu'
p721
F0.0088324078560000005
sS'Standup'
p722
F0.0075814264896999998
sS'happy'
p723
F0.012799614714899999
sS'explainlikeIAmA'
p724
F0.026636181766200001
sS'misleadingthumbnails'
p725
F0.015894740684
sS'batman'
p726
F0.0139599191246
sS'occupywallstreet'
p727
F0.0096592433592700006
sS'teslamotors'
p728
F0.00825668281394
sS'bindingofisaac'
p729
F0.0077429511950800004
sS'xboxone'
p730
F0.0108157762171
sS'NoFap'
p731
F0.014279890026000001
sS'Austin'
p732
F0.0095491222765100008
sS'blunderyears'
p733
F0.0211271025919
sS'Marvel'
p734
F0.0137169816816
sS'webcomics'
p735
F0.0096250369058200006
sS'pathofexile'
p736
F0.0071065252143600001
sS'rage'
p737
F0.046203880228800003
sS'comics'
p738
F0.035392043909999997
sS'forhire'
p739
F0.0081613406362199999
sS'behindthegifs'
p740
F0.0235502405131
sS'books'
p741
F0.042457054465500001
sS'civ'
p742
F0.028756272127599999
sS'BustyPetite'
p743
F0.0078668475927100006
sS'RealEstate'
p744
F0.0091768225935899995
sS'fullmoviesonyoutube'
p745
F0.0206891996764
sS'iphone'
p746
F0.015611192930800001
sS'videos'
p747
F0.031285715691500002
sS'keto'
p748
F0.017224561043199998
sS'TrueAskReddit'
p749
F0.0421918332218
sS'engineering'
p750
F0.0161253167473
sS'tipofmytongue'
p751
F0.035308452797399997
sS'needadvice'
p752
F0.0141875220303
sS'webdev'
p753
F0.0138590844063
sS'education'
p754
F0.0084358523725800005
sS'bestofworldstar'
p755
F0.00914472186385
sS'DAE'
p756
F0.0083271613587699994
sS'ForeverAlone'
p757
F0.0154388350209
sS'yoga'
p758
F0.0070801792641100002
sS'bicycling'
p759
F0.019634488626999999
sS'Survival'
p760
F0.0086008053481400008
sS'shittyama'
p761
F0.0102562154565
sS'excel'
p762
F0.0081548290116499993
sS'zelda'
p763
F0.011657873991900001
sS'ImaginaryLandscapes'
p764
F0.0092196897752499993
sS'TheWayWeWere'
p765
F0.0102628235668
sS'LosAngeles'
p766
F0.0127721976064
sS'badtattoos'
p767
F0.0086604222420500008
sS'Feminism'
p768
F0.0256535824606
sS'nottheonion'
p769
F0.059178672162399998
sS'Frugal_Jerk'
p770
F0.0093340622405799992
sS'raspberry_pi'
p771
F0.0086464392391099997
sS'SuicideWatch'
p772
F0.0152629428588
sS'bigdickproblems'
p773
F0.011319224245999999
sS'nintendo'
p774
F0.010732267467500001
sS'comicbooks'
p775
F0.018446563316399999
sS'cordcutters'
p776
F0.0179040304582
sS'oddlysatisfying'
p777
F0.037842841032400001
sS'GirlGamers'
p778
F0.0154854404183
sS'cosplaygirls'
p779
F0.0080845659911599997
sS'entertainment'
p780
F0.014354810848200001
sS'youtube'
p781
F0.0080321285140600007
sS'atheism'
p782
F0.051313965040999998
sS'terriblefacebookmemes'
p783
F0.0092703464791999996
sS'PrettyGirls'
p784
F0.0087812374227099997
sS'urbanexploration'
p785
F0.0098224762481500007
sS'gainit'
p786
F0.0124722453511
s.