(dp1
S'AskEngineers'
p2
F0.0075065682472199996
sS'javahelp'
p3
F0.0080962294702800006
sS'EngineeringStudents'
p4
F0.013947075356599999
sS'HomeworkHelp'
p5
F0.039444132509800001
sS'learnmath'
p6
F0.090342124019999998
sS'engineering'
p7
F0.0071100917431200002
sS'compsci'
p8
F0.0105593798035
sS'college'
p9
F0.0092920649776100008
sS'learnprogramming'
p10
F0.011879549161400001
sS'techsupport'
p11
F0.0070502582696700001
sS'AskPhysics'
p12
F0.020193247204400001
sS'statistics'
p13
F0.00887845698541
sS'learnpython'
p14
F0.0079631509095199997
sS'Physics'
p15
F0.014900081804400001
sS'cscareerquestions'
p16
F0.00718132854578
sS'math'
p17
F0.047104963522100002
s.