(dp1
S'NoStupidQuestions'
p2
F0.0090389581845199997
sS'pettyrevenge'
p3
F0.0077471967380199997
sS'polandball'
p4
F0.0096188596369300005
sS'ArtisanVideos'
p5
F0.0088708535837299998
sS'fffffffuuuuuuuuuuuu'
p6
F0.0071070721193100001
sS'Conservative'
p7
F0.0080552885715599997
sS'dadjokes'
p8
F0.0073953371772399997
sS'BuyItForLife'
p9
F0.010013372908400001
sS'woodworking'
p10
F0.0086888860069999994
sS'everymanshouldknow'
p11
F0.011555528164700001
sS'dataisbeautiful'
p12
F0.012978310221300001
sS'InternetIsBeautiful'
p13
F0.0070614344799800003
sS'Foodforthought'
p14
F0.013321106231
sS'TalesFromRetail'
p15
F0.0070184038144499999
sS'TheoryOfReddit'
p16
F0.0084629294755900007
sS'arduino'
p17
F0.0088287885561
sS'quityourbullshit'
p18
F0.0075815771016300004
sS'LearnUselessTalents'
p19
F0.0086756942850599993
sS'Documentaries'
p20
F0.00706841694134
sS'pharmacy'
p21
F0.0085707289200900004
sS'environment'
p22
F0.0134893974386
sS'Psychonaut'
p23
F0.0074170145503200001
sS'woahdude'
p24
F0.0091246079269999992
sS'4chan'
p25
F0.0079103282626099992
sS'premed'
p26
F0.011841072829700001
sS'MensRights'
p27
F0.0082589840620900003
sS'nononono'
p28
F0.0089123029390799999
sS'MilitaryPorn'
p29
F0.0071774760442499998
sS'Frisson'
p30
F0.0076934680947399999
sS'YouShouldKnow'
p31
F0.0111002363276
sS'slowcooking'
p32
F0.0079104348577899997
sS'geology'
p33
F0.0129073212019
sS'learnprogramming'
p34
F0.0070238631247199999
sS'JusticePorn'
p35
F0.0076433288604700004
sS'UpliftingNews'
p36
F0.00705041977828
sS'AbandonedPorn'
p37
F0.0084258433531200008
sS'geek'
p38
F0.0108766522435
sS'nottheonion'
p39
F0.0080750959477799995
sS'lostgeneration'
p40
F0.0070066698106899996
sS'mycology'
p41
F0.010775238646199999
sS'IWantToLearn'
p42
F0.010214142051499999
sS'progressive'
p43
F0.00720201656464
sS'techsupportgore'
p44
F0.010293830217
sS'freebies'
p45
F0.0073645626660399999
sS'PropagandaPosters'
p46
F0.0089820359281399999
sS'guns'
p47
F0.0073909514247899998
sS'comics'
p48
F0.0100659412354
sS'compsci'
p49
F0.0086045228902399996
sS'SubredditDrama'
p50
F0.00977838050034
sS'Cyberpunk'
p51
F0.0082059457938700002
sS'Libertarian'
p52
F0.0094298245613999992
sS'ArcherFX'
p53
F0.0072329077097100002
sS'marijuanaenthusiasts'
p54
F0.0074690074690099998
sS'getdisciplined'
p55
F0.0074470560856399999
sS'TrueAtheism'
p56
F0.0099500163497899998
sS'whatisthisthing'
p57
F0.0114954584548
sS'EatCheapAndHealthy'
p58
F0.0088566827697299996
sS'tea'
p59
F0.0074136008918600001
sS'EngineeringStudents'
p60
F0.0134612760926
sS'linux'
p61
F0.0086788280818099993
sS'Christianity'
p62
F0.0071125946848100002
sS'interestingasfuck'
p63
F0.010943675500299999
sS'AskScienceDiscussion'
p64
F0.0139323498733
sS'college'
p65
F0.0080587293701999997
sS'changemyview'
p66
F0.012061423577399999
sS'classicalmusic'
p67
F0.0077916036748499999
sS'fatpeoplestories'
p68
F0.0080188144621999996
sS'CrappyDesign'
p69
F0.0093739292182700006
sS'MorbidReality'
p70
F0.0080375668887199998
sS'canada'
p71
F0.0072898135973400004
sS'offbeat'
p72
F0.0112930547713
sS'Coffee'
p73
F0.0112136699977
sS'humor'
p74
F0.0106007067138
sS'psychology'
p75
F0.0113097802671
sS'space'
p76
F0.012473739495799999
sS'skeptic'
p77
F0.0166146208664
sS'shittyfoodporn'
p78
F0.0070994201668799998
sS'wikipedia'
p79
F0.013248950139
sS'breakingbad'
p80
F0.00777370459923
sS'firstworldproblems'
p81
F0.0074121453834000003
sS'outside'
p82
F0.0088599655010200007
sS'AskCulinary'
p83
F0.0096567019359600006
sS'RoomPorn'
p84
F0.0077655912256800004
sS'medicine'
p85
F0.015500210172299999
sS'lifehacks'
p86
F0.0096491412474499997
sS'electronics'
p87
F0.012758976851600001
sS'Astronomy'
p88
F0.016091395235799999
sS'medicalschool'
p89
F0.00734624886231
sS'vexillology'
p90
F0.0075308710338300002
sS'math'
p91
F0.022611046171800001
sS'europe'
p92
F0.0088218405804699994
sS'biology'
p93
F0.045082967301100001
sS'AskAcademia'
p94
F0.013613861386100001
sS'jobs'
p95
F0.0075729020320000002
sS'business'
p96
F0.0072802416150100002
sS'linguistics'
p97
F0.00905175104563
sS'FloridaMan'
p98
F0.00792162744914
sS'delusionalartists'
p99
F0.0071431863219499998
sS'AskElectronics'
p100
F0.010062728698399999
sS'BasicIncome'
p101
F0.0072590401935699999
sS'Frugal'
p102
F0.0098862940015000001
sS'answers'
p103
F0.0115927962903
sS'shittyaskscience'
p104
F0.012630879175700001
sS'whatsthisplant'
p105
F0.0079355817481599998
sS'howto'
p106
F0.010057699433599999
sS'youtubehaiku'
p107
F0.0070577014782999999
sS'LifeProTips'
p108
F0.0080424579109200003
sS'minimalism'
p109
F0.0074212814079199999
sS'recipes'
p110
F0.00718495891236
sS'programming'
p111
F0.0076258542246100004
sS'DrugNerds'
p112
F0.020112100230800001
sS'wheredidthesodago'
p113
F0.0093631736917699996
sS'bestof'
p114
F0.010838467772600001
sS'AskPhysics'
p115
F0.0120035446709
sS'ANormalDayInRussia'
p116
F0.0078441558441600008
sS'whatsthisbug'
p117
F0.0091532258064499997
sS'QuotesPorn'
p118
F0.0091115339578500005
sS'TrueReddit'
p119
F0.0139993913308
sS'drunk'
p120
F0.0072706769148599996
sS'robotics'
p121
F0.0073630552633699997
sS'reactiongifs'
p122
F0.0075221399535400002
sS'learnmath'
p123
F0.0105629182522
sS'IdiotsFightingThings'
p124
F0.0084855458075699993
sS'conspiratard'
p125
F0.010866624582899999
sS'Health'
p126
F0.0083163047094000006
sS'ProtectAndServe'
p127
F0.0073038773670000001
sS'ADHD'
p128
F0.0071994566447800001
sS'gardening'
p129
F0.0091810631811299996
sS'3Dprinting'
p130
F0.0088052391172700004
sS'badhistory'
p131
F0.00817003137766
sS'Damnthatsinteresting'
p132
F0.0093058350100599999
sS'HistoryPorn'
p133
F0.0087665364247599999
sS'CrazyIdeas'
p134
F0.010119014972899999
sS'AskHistorians'
p135
F0.0115893639157
sS'Drugs'
p136
F0.0092143462502499995
sS'Bad_Cop_No_Donut'
p137
F0.0088977866755599998
sS'OutOfTheLoop'
p138
F0.010149791274499999
sS'Homebrewing'
p139
F0.0110174102285
sS'futurama'
p140
F0.0074369520960600004
sS'beer'
p141
F0.0088592067602600005
sS'PenmanshipPorn'
p142
F0.0087750398865399995
sS'misleadingthumbnails'
p143
F0.0070362924558200002
sS'energy'
p144
F0.0141124742926
sS'holdmybeer'
p145
F0.0082338410868699995
sS'fatlogic'
p146
F0.0093127490039800007
sS'explainlikeIAmA'
p147
F0.0078293894244800006
sS'Scholar'
p148
F0.0122166989637
sS'unitedkingdom'
p149
F0.0089491627393999996
sS'fifthworldproblems'
p150
F0.0071864111498300002
sS'mildlyinfuriating'
p151
F0.0090397260862699995
sS'somethingimade'
p152
F0.0075441480170300003
sS'Unexpected'
p153
F0.0085975200048900007
sS'Awwducational'
p154
F0.010046327624800001
sS'aviation'
p155
F0.0081373952156999999
sS'NeutralPolitics'
p156
F0.0072452354701499997
sS'ProgrammerHumor'
p157
F0.0072754330122800004
sS'hardware'
p158
F0.0088766775863900003
sS'rage'
p159
F0.0080727613529899996
sS'worldpolitics'
p160
F0.010220647922700001
sS'science'
p161
F0.014263385228999999
sS'Justrolledintotheshop'
p162
F0.010495382031899999
sS'PerfectTiming'
p163
F0.0083490122295399993
sS'standupshots'
p164
F0.0080046478600500001
sS'socialism'
p165
F0.0079558369865200002
sS'knives'
p166
F0.0073050569114899997
sS'civ'
p167
F0.0070488400209900003
sS'KerbalSpaceProgram'
p168
F0.0091940238844800005
sS'history'
p169
F0.00769423387739
sS'AskScienceFiction'
p170
F0.0079347586510899997
sS'Economics'
p171
F0.011779430170100001
sS'Cooking'
p172
F0.010931138254600001
sS'TrueAskReddit'
p173
F0.010297029702999999
sS'PoliticalDiscussion'
p174
F0.0087774294670799995
sS'gadgets'
p175
F0.0076254572959000002
sS'engineering'
p176
F0.0175808150369
sS'conspiracy'
p177
F0.00797756205704
sS'DIY'
p178
F0.00732576306063
sS'Infographics'
p179
F0.0079008309494599995
sS'politics'
p180
F0.0082405922852000005
sS'technology'
p181
F0.0078330076862000008
sS'collapse'
p182
F0.0070884548676600004
sS'techsupportmacgyver'
p183
F0.00872285387716
sS'MURICA'
p184
F0.0083177942131599999
sS'Nootropics'
p185
F0.0123222203029
sS'bicycling'
p186
F0.0087585505638800003
sS'CampingandHiking'
p187
F0.0082744431523399994
sS'Survival'
p188
F0.0074732377297499998
sS'HomeworkHelp'
p189
F0.0119918928049
sS'circlebroke'
p190
F0.00767833069574
sS'scifi'
p191
F0.010124519958100001
sS'britishproblems'
p192
F0.0077173270254299996
sS'spaceporn'
p193
F0.011189332836
sS'nonononoyes'
p194
F0.0089031445786700008
sS'startrek'
p195
F0.0080241804900900004
sS'Whatcouldgowrong'
p196
F0.00945720614221
sS'economy'
p197
F0.0081381360130200007
sS'talesfromtechsupport'
p198
F0.0086345339645899997
sS'firstworldanarchists'
p199
F0.00924583462078
sS'MapPorn'
p200
F0.010665015917900001
sS'notinteresting'
p201
F0.0077472228446999998
sS'facepalm'
p202
F0.0077334467774800002
sS'forwardsfromgrandma'
p203
F0.0082216808769799993
sS'AnimalsBeingJerks'
p204
F0.0084358966287899993
sS'askscience'
p205
F0.0224616007912
sS'Futurology'
p206
F0.0105940556283
sS'philosophy'
p207
F0.0079195945167599997
sS'running'
p208
F0.0072172619047600004
sS'GradSchool'
p209
F0.0173955567975
sS'climbing'
p210
F0.0075504573834800004
sS'Physics'
p211
F0.038591876991600001
sS'oddlysatisfying'
p212
F0.0092614069385999996
sS'MachinePorn'
p213
F0.011536205435699999
sS'HumanPorn'
p214
F0.0081921335165100004
sS'atheism'
p215
F0.0071685976672999996
sS'TumblrInAction'
p216
F0.0088490174539199995
sS'thatHappened'
p217
F0.0070410474033800003
sS'AskEngineers'
p218
F0.0151179941003
sS'self'
p219
F0.0094997160411000002
sS'shutupandtakemymoney'
p220
F0.0092391518932400003
s.