(dp1
S'GTA'
p2
F0.0363535194287
sS'gtaglitches'
p3
F0.0394235239424
sS'assassinscreed'
p4
F0.0074374255065599998
sS'gtaonline'
p5
F0.0386824971275
sS'quityourbullshit'
p6
F0.0079684481648400005
sS'GYBB'
p7
F0.0081829626521200006
sS'xbox360'
p8
F0.0103749425438
sS'CallOfDuty'
p9
F0.0070915698962900004
sS'FanTheories'
p10
F0.0090105334405000004
sS'Glitch_in_the_Matrix'
p11
F0.00739418663947
sS'gtavcustoms'
p12
F0.031854545454499998
sS'GTAV'
p13
F0.037617554858899997
sS'GrandTheftAutoV'
p14
F0.037898640296700002
sS'Fallout'
p15
F0.0072489945331499998
sS'PlayStationPlus'
p16
F0.0072214016084000002
sS'PS3'
p17
F0.0097787435796100001
sS'forza'
p18
F0.0082101806239699999
sS'breakingbad'
p19
F0.0073967597999600003
sS'GamePhysics'
p20
F0.0111328125
sS'RedditDads'
p21
F0.0103378253646
s.