(dp1
S'CrohnsDisease'
p2
F0.0093050881013700005
sS'ABraThatFits'
p3
F0.0077018914939399998
sS'Assistance'
p4
F0.0103706085698
sS'bigboobproblems'
p5
F0.0103750997606
sS'Health'
p6
F0.0095162569389399994
sS'Pets'
p7
F0.0076560135315599997
sS'kratom'
p8
F0.0084275436793400001
sS'RandomActsofMakeup'
p9
F0.0070601524992900001
sS'eldertrees'
p10
F0.00719505340079
sS'migraine'
p11
F0.0294347486325
sS'OpiatesRecovery'
p12
F0.0089306698002399997
sS'pharmacy'
p13
F0.0094247005694099995
sS'raisedbynarcissists'
p14
F0.00775826868109
sS'happy'
p15
F0.0073495208856600002
sS'Anxiety'
p16
F0.0096087171867300005
sS'Fibromyalgia'
p17
F0.076819859107700006
sS'RandomKindness'
p18
F0.0073752273186500003
sS'opiates'
p19
F0.0119912176997
sS'sewing'
p20
F0.0071513706793799999
sS'medicine'
p21
F0.0092492292308999999
sS'BipolarReddit'
p22
F0.0082893745290099994
sS'TheGirlSurvivalGuide'
p23
F0.0082856906123099996
sS'glutenfree'
p24
F0.0090153791762400005
sS'medical'
p25
F0.0101756342347
sS'DrugNerds'
p26
F0.0076142131979699997
sS'crafts'
p27
F0.0073370218907899999
s.