(dp1
S'EatCheapAndHealthy'
p2
F0.00972909502642
sS'solotravel'
p3
F0.012033694344199999
sS'smallbusiness'
p4
F0.0097473487211500003
sS'washingtondc'
p5
F0.0087087704861800001
sS'PleX'
p6
F0.0080758756690799995
sS'HomeImprovement'
p7
F0.0126033337851
sS'StockMarket'
p8
F0.0092772085294900008
sS'BuyItForLife'
p9
F0.015292295780099999
sS'buildapcsales'
p10
F0.0072213752708
sS'jobs'
p11
F0.0091656778100600005
sS'budgetfood'
p12
F0.0070334328933400001
sS'startups'
p13
F0.0075140322288599999
sS'financialindependence'
p14
F0.042195966953900002
sS'finance'
p15
F0.0141892469442
sS'stocks'
p16
F0.013186416185000001
sS'frugalmalefashion'
p17
F0.0141218841816
sS'TinyHouses'
p18
F0.0084786129370300004
sS'investing'
p19
F0.023991198495200001
sS'travel'
p20
F0.0158397878724
sS'RoomPorn'
p21
F0.0070967423981100003
sS'goodyearwelt'
p22
F0.0070281124497999998
sS'nyc'
p23
F0.0077350737249200002
sS'economy'
p24
F0.0076327785434099999
sS'AutoDetailing'
p25
F0.0071594607159500001
sS'YouShouldKnow'
p26
F0.0077155946097999997
sS'slowcooking'
p27
F0.0086880973066900003
sS'business'
p28
F0.0090255411579699997
sS'teslamotors'
p29
F0.0078336848448299998
sS'cscareerquestions'
p30
F0.0073525550128700004
sS'Economics'
p31
F0.00994627236801
sS'legaladvice'
p32
F0.00737081471026
sS'malelivingspace'
p33
F0.0086429653390399999
sS'Ebay'
p34
F0.0076505429417599996
sS'cordcutters'
p35
F0.015888632003499999
sS'Frugal'
p36
F0.018560633849299998
sS'giftcardexchange'
p37
F0.0073976852404200001
sS'backpacking'
p38
F0.0084816357440399993
sS'sanfrancisco'
p39
F0.00704369828353
sS'tmobile'
p40
F0.0116436717442
sS'askcarsales'
p41
F0.0149389320682
sS'beermoney'
p42
F0.014340032591
sS'freebies'
p43
F0.0080355001199299992
sS'Chromecast'
p44
F0.0073096339924299996
sS'personalfinance'
p45
F0.019366361896700001
sS'Watches'
p46
F0.0076157911097299996
sS'Silverbugs'
p47
F0.0072004965859699998
sS'Entrepreneur'
p48
F0.011188680421399999
sS'Flipping'
p49
F0.0174396320429
sS'minimalism'
p50
F0.0073753814852500002
sS'Accounting'
p51
F0.00802074050069
sS'hometheater'
p52
F0.0085113626691599997
sS'IWantOut'
p53
F0.0093052109181100007
sS'RealEstate'
p54
F0.020871475649899999
sS'Cartalk'
p55
F0.0074792471439099999
s.