(dp1
S'Drugs'
p2
F0.0076104125212799996
sS'opiates'
p3
F0.0076690870523
sS'cripplingalcoholism'
p4
F0.0082124983960000005
sS'StonerEngineering'
p5
F0.0078105316200599998
sS'DippingTobacco'
p6
F0.0167269439421
sS'hookah'
p7
F0.0072497661365800003
sS'saplings'
p8
F0.0090631464880299994
sS'cocaine'
p9
F0.00745366639807
sS'PipeTobacco'
p10
F0.0098977770566299993
sS'cigars'
p11
F0.0106789458215
s.