(dp1
S'photoshop'
p2
F0.0146876932591
sS'videography'
p3
F0.0101311084625
sS'design_critiques'
p4
F0.011757021554499999
sS'glitch_art'
p5
F0.0081992574257400003
sS'Filmmakers'
p6
F0.0101587687816
sS'editors'
p7
F0.0165651644336
sS'typography'
p8
F0.0138916063393
sS'graphic_design'
p9
F0.020419693300999998
sS'animation'
p10
F0.0235539176414
sS'Design'
p11
F0.015280391418900001
sS'vfx'
p12
F0.051062573789800003
sS'AfterEffects'
p13
F0.091664629674899994
sS'blender'
p14
F0.010053735482800001
sS'VideoEditing'
p15
F0.0099880143827399993
s.