(dp1
S'PoliticalDiscussion'
p2
F0.0087792325739800003
sS'ShitAmericansSay'
p3
F0.0227867015316
sS'badhistory'
p4
F0.041363335539399998
sS'AskSocialScience'
p5
F0.0104514443315
sS'PanicHistory'
p6
F0.060465116279099999
sS'misc'
p7
F0.0096368955429399997
sS'TrueAskReddit'
p8
F0.0104299911443
sS'polandball'
p9
F0.0076461716530499997
sS'PurplePillDebate'
p10
F0.0101260126013
sS'rant'
p11
F0.0072102640228999997
sS'Hiphopcirclejerk'
p12
F0.019265816193699999
sS'MarkMyWords'
p13
F0.0125470514429
sS'DeepIntoYouTube'
p14
F0.0085877222408599994
sS'askphilosophy'
p15
F0.0071115325352599998
sS'OneY'
p16
F0.010841944773800001
sS'Foodforthought'
p17
F0.0102479089745
sS'KarmaCourt'
p18
F0.0070588235294099999
sS'ShitRedditSays'
p19
F0.0313896457766
sS'ainbow'
p20
F0.010199506836999999
sS'againstmensrights'
p21
F0.0390512697652
sS'SRSsucks'
p22
F0.021048876204099998
sS'forwardsfromgrandma'
p23
F0.016563417019899999
sS'no_sob_story'
p24
F0.025355490834299999
sS'truegaming'
p25
F0.0071940038814200004
sS'ShitRConservativeSays'
p26
F0.023454157782499999
sS'badlinguistics'
p27
F0.025499999999999998
sS'skeptic'
p28
F0.0070131779876700003
sS'quityourbullshit'
p29
F0.0121929352699
sS'OutOfTheLoop'
p30
F0.0091065001570100005
sS'metacanada'
p31
F0.0089810017271200002
sS'wikipedia'
p32
F0.0092005076142100007
sS'Shitstatistssay'
p33
F0.0116044399596
sS'NotTimAndEric'
p34
F0.0094786729857799998
sS'shittyreactiongifs'
p35
F0.0101072353014
sS'conspiratard'
p36
F0.028359450838999999
sS'Frugal_Jerk'
p37
F0.010957427698900001
sS'vexillology'
p38
F0.0091332889354000003
sS'fifthworldproblems'
p39
F0.0076935406315100001
sS'LetsTalkMusic'
p40
F0.0092290217236999997
sS'explainlikeIAmA'
p41
F0.0089817232375999992
sS'shittyadviceanimals'
p42
F0.018742442563500002
sS'badphilosophy'
p43
F0.0389321468298
sS'moviescirclejerk'
p44
F0.0219478737997
sS'circlebroke'
p45
F0.13094677343399999
sS'delusionalartists'
p46
F0.0096963691697899996
sS'answers'
p47
F0.00748422001803
sS'EnoughLibertarianSpam'
p48
F0.032688333646400003
sS'HipHopImages'
p49
F0.0075560187597699998
sS'Gaming4Gamers'
p50
F0.0097889262771500007
sS'shittyaskreddit'
p51
F0.0078856579595900003
sS'magicskyfairy'
p52
F0.054308093994800001
sS'NeutralPolitics'
p53
F0.011865395837400001
sS'SRSGaming'
p54
F0.0342825546033
sS'lewronggeneration'
p55
F0.02658788774
sS'Braveryjerk'
p56
F0.0233853006682
sS'GunsAreCool'
p57
F0.017206477732799999
sS'Sidehugs'
p58
F0.0126033871603
sS'TheoryOfReddit'
p59
F0.033338754269000001
sS'creepyPMs'
p60
F0.0071862498147899998
sS'RedditDayOf'
p61
F0.0099765258215999998
sS'fitnesscirclejerk'
p62
F0.0076149862930200004
sS'thatHappened'
p63
F0.0089249944357899999
sS'TrueFilm'
p64
F0.0077274706138399998
sS'rage'
p65
F0.0074789575093799996
sS'FeMRADebates'
p66
F0.010740842743000001
sS'blackladies'
p67
F0.010077519379800001
sS'PropagandaPosters'
p68
F0.0150033489618
sS'ShitPoliticsSays'
p69
F0.024166099387300001
sS'terriblefacebookmemes'
p70
F0.0120906801008
sS'softwaregore'
p71
F0.0073379044869500004
sS'socialism'
p72
F0.0088673553341300001
sS'Ask_Politics'
p73
F0.00716575523289
sS'SubredditDrama'
p74
F0.019918826100500001
sS'classic4chan'
p75
F0.0085470085470099998
sS'TheBluePill'
p76
F0.032083862769999999
sS'HailCorporate'
p77
F0.0096368550946100001
sS'Anarcho_Capitalism'
p78
F0.00714445188658
sS'androidcirclejerk'
p79
F0.012276785714299999
s.