(dp1
S'asoiaf'
p2
F0.0117931807476
sS'inthenews'
p3
F0.010437939641499999
sS'AndroidGaming'
p4
F0.0071745972967999999
sS'KitchenConfidential'
p5
F0.0074119448698299999
sS'BuyItForLife'
p6
F0.0072738448929400004
sS'SampleSize'
p7
F0.0075963103635400004
sS'everymanshouldknow'
p8
F0.0121364707401
sS'askphilosophy'
p9
F0.0145782714335
sS'AskMen'
p10
F0.010495280424200001
sS'syriancivilwar'
p11
F0.011822581924900001
sS'Showerthoughts'
p12
F0.0082276861421800001
sS'duolingo'
p13
F0.0078477208215099997
sS'HistoryPorn'
p14
F0.0191275998679
sS'holdmybeer'
p15
F0.0110821382008
sS'ImaginaryMonsters'
p16
F0.0093240093240100005
sS'seinfeld'
p17
F0.0079734219269099998
sS'dwarffortress'
p18
F0.0103380183529
sS'YouShouldKnow'
p19
F0.015927444403
sS'moviescirclejerk'
p20
F0.0148354712772
sS'UpliftingNews'
p21
F0.011525292954599999
sS'PandR'
p22
F0.0089820359281399999
sS'Jokes'
p23
F0.0081447517625599999
sS'WhiteRights'
p24
F0.0077780113516899996
sS'3amjokes'
p25
F0.00759149752277
sS'Military'
p26
F0.0092344992334299995
sS'magicskyfairy'
p27
F0.046470891293100003
sS'Steam'
p28
F0.0092031308817600004
sS'AlienBlue'
p29
F0.0071322284365500001
sS'photoshopbattles'
p30
F0.0094284565603599997
sS'IWantToLearn'
p31
F0.0095325696128400004
sS'Celebs'
p32
F0.0071654826705999999
sS'PoliticalDiscussion'
p33
F0.023149366022999999
sS'CrappyDesign'
p34
F0.0213667531267
sS'Cyberpunk'
p35
F0.0129456384324
sS'Libertarian'
p36
F0.016965407765099999
sS'Anarcho_Capitalism'
p37
F0.0167897918066
sS'pcgaming'
p38
F0.0101506004113
sS'EatCheapAndHealthy'
p39
F0.0071441723439500003
sS'totalwar'
p40
F0.0100350687888
sS'gentlemanboners'
p41
F0.0075078412486699999
sS'polandball'
p42
F0.0264514418687
sS'fatpeoplestories'
p43
F0.0126488316161
sS'OneY'
p44
F0.017084665881200001
sS'nba'
p45
F0.0073863371415200003
sS'forwardsfromgrandma'
p46
F0.041153052904200002
sS'no_sob_story'
p47
F0.034886703719499999
sS'Glitch_in_the_Matrix'
p48
F0.0079784478292399992
sS'skeptic'
p49
F0.021346539725900001
sS'socialskills'
p50
F0.0100632176493
sS'DebateReligion'
p51
F0.0146982980918
sS'Anticonsumption'
p52
F0.00811821581684
sS'socialism'
p53
F0.024486383181999999
sS'worldnews'
p54
F0.00841421673089
sS'vexillology'
p55
F0.023875114784199999
sS'Economics'
p56
F0.018039522598299999
sS'needamod'
p57
F0.012654344658299999
sS'LetsNotMeet'
p58
F0.0078947368421099992
sS'legaladvice'
p59
F0.0074452449220499999
sS'answers'
p60
F0.016101545513300002
sS'lgbt'
p61
F0.012973960712699999
sS'baseball'
p62
F0.0102792939958
sS'ainbow'
p63
F0.0212607991361
sS'WritingPrompts'
p64
F0.0077832659781500004
sS'Frugal'
p65
F0.0091347021503999995
sS'WarshipPorn'
p66
F0.0092264017033399995
sS'vegetarian'
p67
F0.0077411671298099997
sS'DeepIntoYouTube'
p68
F0.021096842715100001
sS'cripplingalcoholism'
p69
F0.0076132470498699997
sS'howtonotgiveafuck'
p70
F0.0089124823454900005
sS'IWantOut'
p71
F0.0085454207690899998
sS'HalfLife'
p72
F0.0075311067452499998
sS'QuotesPorn'
p73
F0.016113338263300001
sS'apple'
p74
F0.0077620264931400002
sS'TrueReddit'
p75
F0.028339896656100001
sS'todayilearned'
p76
F0.0074093321239499998
sS'Catholicism'
p77
F0.010193016699199999
sS'confession'
p78
F0.014643545279400001
sS'AntiJokes'
p79
F0.011255217650600001
sS'KingOfTheHill'
p80
F0.0086543356524700008
sS'IdiotsFightingThings'
p81
F0.01173793888
sS'gamernews'
p82
F0.013242908857600001
sS'ContagiousLaughter'
p83
F0.0119425173439
sS'environment'
p84
F0.00944997736532
sS'FiftyFifty'
p85
F0.010467344832699999
sS'AskHistorians'
p86
F0.026280306306799998
sS'Drugs'
p87
F0.0071147413745299998
sS'OutOfTheLoop'
p88
F0.032888352131799997
sS'sports'
p89
F0.0071666329998899998
sS'ifyoulikeblank'
p90
F0.012656951238
sS'misleadingthumbnails'
p91
F0.014028403186699999
sS'WebGames'
p92
F0.0123154340197
sS'Pareidolia'
p93
F0.010543748274900001
sS'tipofmytongue'
p94
F0.0112939569819
sS'ftlgame'
p95
F0.0099591735741699997
sS'LifeProTips'
p96
F0.0083397062313800008
sS'Shitty_Car_Mods'
p97
F0.0079233346904300003
sS'NeutralPolitics'
p98
F0.0196361016033
sS'ghettoglamourshots'
p99
F0.00745767767917
sS'popping'
p100
F0.0073400351045200003
sS'KillLaKill'
p101
F0.0072085179551599999
sS'techsupportgore'
p102
F0.0113651923867
sS'science'
p103
F0.010642488912900001
sS'firstworldproblems'
p104
F0.014106520258100001
sS'movies'
p105
F0.0075520909365199996
sS'standupshots'
p106
F0.017540260539499999
sS'history'
p107
F0.012922771058699999
sS'AskScienceFiction'
p108
F0.016437835526600001
sS'NewsOfTheStupid'
p109
F0.0079524600192299993
sS'programming'
p110
F0.0096923485451999997
sS'DecidingToBeBetter'
p111
F0.0075886352598300002
sS'ShitPoliticsSays'
p112
F0.020232506147999998
sS'learnprogramming'
p113
F0.0077335196832100002
sS'Infographics'
p114
F0.0099264984466200003
sS'arresteddevelopment'
p115
F0.0084989299908300002
sS'counting'
p116
F0.0088609307359300005
sS'SRSsucks'
p117
F0.035320860290300002
sS'HouseOfCards'
p118
F0.012122436609800001
sS'asmr'
p119
F0.0090501832662100001
sS'techsupportmacgyver'
p120
F0.0090363432491300001
sS'MURICA'
p121
F0.015961500773000001
sS'technology'
p122
F0.0092066518675399996
sS'scifi'
p123
F0.011622246562
sS'spaceporn'
p124
F0.00963747128733
sS'nyc'
p125
F0.010395084661
sS'Ask_Politics'
p126
F0.013622291021699999
sS'wheredidthesodago'
p127
F0.0200062303139
sS'BasicIncome'
p128
F0.0122828040743
sS'askscience'
p129
F0.010374985024600001
sS'philosophy'
p130
F0.0140022984334
sS'netsec'
p131
F0.0077166955793500002
sS'Xcom'
p132
F0.0077992058990399996
sS'vegan'
p133
F0.0075430473911500002
sS'law'
p134
F0.010053019348599999
sS'Sidehugs'
p135
F0.0091753774680600007
sS'MachinePorn'
p136
F0.0081079141852600008
sS'oculus'
p137
F0.0083769952479599997
sS'futurebeats'
p138
F0.0086945643335199999
sS'CFB'
p139
F0.0087872070930999999
sS'Shitstatistssay'
p140
F0.012698730126999999
sS'FanTheories'
p141
F0.019837591308500001
sS'listentothis'
p142
F0.0087485503855500007
sS'tall'
p143
F0.00867688513037
sS'ImGoingToHellForThis'
p144
F0.0099197548288199999
sS'help'
p145
F0.0096116878123800008
sS'DoesAnybodyElse'
p146
F0.0097316704459599994
sS'pettyrevenge'
p147
F0.0116335877863
sS'malehairadvice'
p148
F0.0073795534665100004
sS'CityPorn'
p149
F0.014008730078200001
sS'PurplePillDebate'
p150
F0.0171653241273
sS'london'
p151
F0.0070680110715699998
sS'dataisbeautiful'
p152
F0.017847128757300001
sS'japan'
p153
F0.0071145022426099998
sS'MLPLounge'
p154
F0.0073334845392000001
sS'islam'
p155
F0.0101682605011
sS'linguistics'
p156
F0.015620680121600001
sS'badlinguistics'
p157
F0.032844871147
sS'nostalgia'
p158
F0.00856793145655
sS'Documentaries'
p159
F0.0112363972686
sS'writing'
p160
F0.010933900924299999
sS'soccer'
p161
F0.0083394579352300009
sS'MensRights'
p162
F0.020210845127800001
sS'MilitaryPorn'
p163
F0.0116671904463
sS'Frisson'
p164
F0.017144109108800001
sS'Judaism'
p165
F0.0091428571428600006
sS'childfree'
p166
F0.0112345903929
sS'GunsAreCool'
p167
F0.021049451102800001
sS'DebateAnAtheist'
p168
F0.0074245569216
sS'NoStupidQuestions'
p169
F0.020758540822200001
sS'IndieGaming'
p170
F0.0077739952238200004
sS'Braveryjerk'
p171
F0.028470380194499999
sS'Liberal'
p172
F0.0122269171986
sS'creepyPMs'
p173
F0.023538811382200001
sS'asianamerican'
p174
F0.0071590052750600004
sS'WatchItForThePlot'
p175
F0.0090652400059400007
sS'nfl'
p176
F0.0080495807510000007
sS'freebies'
p177
F0.0089254090812500003
sS'PropagandaPosters'
p178
F0.028848320937600001
sS'mashups'
p179
F0.0071235218692099998
sS'shittyadviceanimals'
p180
F0.014867900310199999
sS'SubredditDrama'
p181
F0.067265615923799996
sS'minimalism'
p182
F0.0106534090909
sS'eu4'
p183
F0.0102188965825
sS'wallpapers'
p184
F0.0083216945996299994
sS'mildlyinteresting'
p185
F0.0082524167020600007
sS'TrueAtheism'
p186
F0.015932237571800002
sS'badhistory'
p187
F0.089108217835599995
sS'Anarchism'
p188
F0.015774944130399999
sS'TwoXChromosomes'
p189
F0.010316724193000001
sS'Cinemagraphs'
p190
F0.0114426114426
sS'canada'
p191
F0.0094719629895499997
sS'DunderMifflin'
p192
F0.0071443363015100004
sS'psychology'
p193
F0.0122821382618
sS'space'
p194
F0.0095729877445600003
sS'shittyfoodporn'
p195
F0.016315350720499999
sS'malefashionadvice'
p196
F0.0085560158181999992
sS'LearnUselessTalents'
p197
F0.0111949499433
sS'China'
p198
F0.0078053582729799998
sS'RoomPorn'
p199
F0.010485933503799999
sS'TheLastAirbender'
p200
F0.0091008372770300001
sS'math'
p201
F0.010091393754800001
sS'LetsTalkMusic'
p202
F0.019187793788999999
sS'bestof'
p203
F0.022400993818700001
sS'Metal'
p204
F0.0091273592593799999
sS'Roadcam'
p205
F0.0074893500068699999
sS'GamePhysics'
p206
F0.0158873060425
sS'paradoxplaza'
p207
F0.0178877049633
sS'youtubehaiku'
p208
F0.0182363648621
sS'PoliticalHumor'
p209
F0.0120232807474
sS'CanadaPolitics'
p210
F0.0071622622869799996
sS'punk'
p211
F0.0074636723910200004
sS'dogecoin'
p212
F0.0073141771550700001
sS'whatstheword'
p213
F0.0094976452119300003
sS'classicalmusic'
p214
F0.010511562719
sS'AskUK'
p215
F0.0081916537867099994
sS'misc'
p216
F0.013444951801100001
sS'patientgamers'
p217
F0.0146399893527
sS'rant'
p218
F0.0143543777605
sS'conspiratard'
p219
F0.065402024106199996
sS'tf2'
p220
F0.0108782561124
sS'OldSchoolCool'
p221
F0.0091558731576599998
sS'privacy'
p222
F0.0072216923286600003
sS'ANormalDayInRussia'
p223
F0.0139100932994
sS'onetruegod'
p224
F0.0082481494536499993
sS'TheFacebookDelusion'
p225
F0.0087204427301699992
sS'PenmanshipPorn'
p226
F0.0073807721423200003
sS'shittyreactiongifs'
p227
F0.0153224090232
sS'alternativeart'
p228
F0.0077557755775600002
sS'shittyadvice'
p229
F0.01230394808
sS'explainlikeimfive'
p230
F0.0077482547017499997
sS'ObscureMedia'
p231
F0.0091506751954500004
sS'CombatFootage'
p232
F0.0120488266863
sS'TrollYChromosome'
p233
F0.015676158349000002
sS'DaystromInstitute'
p234
F0.0099139696845600006
sS'mildlyinfuriating'
p235
F0.0157299399081
sS'madmen'
p236
F0.0104285895968
sS'short'
p237
F0.0098503359804500007
sS'indieheads'
p238
F0.0107068172313
sS'Awwducational'
p239
F0.012819788784100001
sS'skyrim'
p240
F0.0097572435395500007
sS'SRSGaming'
p241
F0.036698212408000003
sS'television'
p242
F0.010495932826000001
sS'worldpolitics'
p243
F0.016956470542100002
sS'TheRedPill'
p244
F0.0102040816327
sS'nononono'
p245
F0.016345543087000002
sS'KerbalSpaceProgram'
p246
F0.0086289549376800008
sS'russia'
p247
F0.0083539154438500001
sS'gallifrey'
p248
F0.0111651263422
sS'ShingekiNoKyojin'
p249
F0.0072073127856600002
sS'FoodPorn'
p250
F0.0084290010316700002
sS'bisexual'
p251
F0.00795479889971
sS'teenagers'
p252
F0.0087198639501199996
sS'conspiracy'
p253
F0.0163703909451
sS'collapse'
p254
F0.0070327063209599996
sS'HighQualityGifs'
p255
F0.013033102857499999
sS'self'
p256
F0.0213574316806
sS'britishproblems'
p257
F0.0132359794936
sS'UnresolvedMysteries'
p258
F0.010553032327
sS'nonononoyes'
p259
F0.0136045852491
sS'gamegrumps'
p260
F0.0073205514181600003
sS'FutureWhatIf'
p261
F0.0125577744833
sS'badphilosophy'
p262
F0.043932649506499999
sS'Futurology'
p263
F0.0116218740272
sS'germany'
p264
F0.0073439412484700003
sS'mylittlepony'
p265
F0.0070868728586799996
sS'Gaming4Gamers'
p266
F0.017206349206300001
sS'Minecraft'
p267
F0.0074361762725900001
sS'TumblrInAction'
p268
F0.026644578770299999
sS'HailCorporate'
p269
F0.025803752005
sS'Heavymind'
p270
F0.0098090849242899996
sS'adventuretime'
p271
F0.0078405231247800009
sS'PanicHistory'
p272
F0.054302061967
sS'fffffffuuuuuuuuuuuu'
p273
F0.0085515508744800003
sS'Hiphopcirclejerk'
p274
F0.018475281697299999
sS'teslore'
p275
F0.0093925032313699995
sS'Foodforthought'
p276
F0.026712941052700001
sS'languagelearning'
p277
F0.0084417208604299996
sS'TheoryOfReddit'
p278
F0.052755971976000002
sS'TheBluePill'
p279
F0.065623320795300005
sS'printSF'
p280
F0.0081523869248300001
sS'harrypotter'
p281
F0.0078588096451500007
sS'shittybattlestations'
p282
F0.0096607333029100004
sS'whowouldwin'
p283
F0.015541237113400001
sS'GrandTheftAutoV'
p284
F0.0079514080618400002
sS'TalesFromYourServer'
p285
F0.0077111812127599998
sS'shutupandtakemymoney'
p286
F0.0078229585006699999
sS'CrusaderKings'
p287
F0.0135267808443
sS'JusticePorn'
p288
F0.0126164256157
sS'smashbros'
p289
F0.0070352863581400003
sS'geek'
p290
F0.0099637961444400003
sS'lostgeneration'
p291
F0.0155990957046
sS'Conservative'
p292
F0.019188813962699999
sS'AbandonedPorn'
p293
F0.0117901673235
sS'progressive'
p294
F0.0141815235008
sS'dadjokes'
p295
F0.0107406431207
sS'thatHappened'
p296
F0.031083410156699999
sS'perfectloops'
p297
F0.0114969497888
sS'CollegeBasketball'
p298
F0.0086041097277100003
sS'cringe'
p299
F0.0194159378147
sS'StarWars'
p300
F0.0087108920855799993
sS'rpg'
p301
F0.0084232191180400005
sS'truetf2'
p302
F0.0075512405609499999
sS'AskWomen'
p303
F0.0097635006955900001
sS'TheSimpsons'
p304
F0.011377220825300001
sS'Christianity'
p305
F0.0141299092032
sS'Justrolledintotheshop'
p306
F0.0074828889569900003
sS'glitch_art'
p307
F0.00895638629283
sS'changemyview'
p308
F0.0290007455696
sS'Android'
p309
F0.00808293958438
sS'KarmaCourt'
p310
F0.011019798281699999
sS'againstmensrights'
p311
F0.0447686619366
sS'firstworldanarchists'
p312
F0.015684233999899998
sS'PerfectTiming'
p313
F0.011932078935299999
sS'truegaming'
p314
F0.024669703227999999
sS'lotr'
p315
F0.0076110741128300003
sS'wikipedia'
p316
F0.018734144278900002
sS'breakingbad'
p317
F0.0099390656736599997
sS'outside'
p318
F0.017486476286299998
sS'AskCulinary'
p319
F0.0080118694361999993
sS'pcmasterrace'
p320
F0.0072077773675799997
sS'AskFeminists'
p321
F0.0134277568288
sS'europe'
p322
F0.020502264306299998
sS'StandUpComedy'
p323
F0.0083266719957399999
sS'jobs'
p324
F0.0074656472030900003
sS'casualiama'
p325
F0.016096510124900001
sS'facepalm'
p326
F0.015691801738299999
sS'NotTimAndEric'
p327
F0.018581185011999998
sS'news'
p328
F0.0091655564316599995
sS'gamingsuggestions'
p329
F0.0094057555749299995
sS'Unexpected'
p330
F0.0152020122622
sS'RedditDayOf'
p331
F0.021046018533100001
sS'watchpeopledie'
p332
F0.0118052330082
sS'Sherlock'
p333
F0.0085148514851500004
sS'ukpolitics'
p334
F0.015931921428100002
sS'GetMotivated'
p335
F0.0084904932204699999
sS'drunk'
p336
F0.0095445359863199995
sS'reactiongifs'
p337
F0.0120353949605
sS'community'
p338
F0.011225105612599999
sS'startrek'
p339
F0.0106225014278
sS'malefashion'
p340
F0.0070506286102600003
sS'linux'
p341
F0.0085814663364599999
sS'beer'
p342
F0.0076552310745699997
sS'California'
p343
F0.0074543421542999999
sS'ireland'
p344
F0.0074463007159900002
sS'crappymusic'
p345
F0.0104883081155
sS'fatlogic'
p346
F0.015783862495800001
sS'hiphopheads'
p347
F0.013082384981999999
sS'oddlysatisfying'
p348
F0.012277355856
sS'MapPorn'
p349
F0.021579169495600001
sS'shittyaskreddit'
p350
F0.010473363021600001
sS'Perfectfit'
p351
F0.0092030813279700002
sS'offbeat'
p352
F0.021162974683500001
sS'softwaregore'
p353
F0.014845938375400001
sS'metacanada'
p354
F0.0078046604972700001
sS'Cooking'
p355
F0.0085076294961599994
sS'YMS'
p356
F0.0084192602402800003
sS'IASIP'
p357
F0.0082443223063400004
sS'hardware'
p358
F0.0073159579332399997
sS'electronicmusic'
p359
F0.0083035935126000004
sS'assassinscreed'
p360
F0.0071524362986100003
sS'ShitRedditSays'
p361
F0.068289338361299995
sS'southpark'
p362
F0.0110222748659
sS'Israel'
p363
F0.011511839708599999
sS'Design'
p364
F0.0080437092123199997
sS'Whatcouldgowrong'
p365
F0.013324001348000001
sS'fifthworldproblems'
p366
F0.0138945647732
sS'talesfromtechsupport'
p367
F0.0097549420733000006
sS'literature'
p368
F0.015867131311599999
sS'notinteresting'
p369
F0.016599478302099999
sS'AnimalsBeingJerks'
p370
F0.013125186437300001
sS'DebateAChristian'
p371
F0.00780663564029
sS'Physics'
p372
F0.0078240642842000007
sS'thesims'
p373
F0.0075932481658199996
sS'TrueFilm'
p374
F0.020913557296500001
sS'HumanPorn'
p375
F0.0149385858139
sS'Fantasy'
p376
F0.0082232011747399997
sS'chemistry'
p377
F0.00767833069574
sS'awwwtf'
p378
F0.0085121602288999992
sS'Piracy'
p379
F0.0071428571428599997
sS'PublicFreakout'
p380
F0.0151029362133
sS'ArtisanVideos'
p381
F0.0083050589962999997
sS'Bitcoin'
p382
F0.0094177340511100004
sS'rickandmorty'
p383
F0.0099879663056599999
sS'quotes'
p384
F0.0092788428737099991
sS'futurama'
p385
F0.0086794792312500004
sS'whitepeoplegifs'
p386
F0.012232826992900001
sS'InternetIsBeautiful'
p387
F0.0134362408154
sS'TalesFromRetail'
p388
F0.0105148826031
sS'ShitRConservativeSays'
p389
F0.020297085837399999
sS'WouldYouRather'
p390
F0.0092290306378700008
sS'quityourbullshit'
p391
F0.035916687723400002
sS'ProtectAndServe'
p392
F0.011240310077499999
sS'woahdude'
p393
F0.0105771519913
sS'Fallout'
p394
F0.0108698068331
sS'offmychest'
p395
F0.0121927791083
sS'australia'
p396
F0.011602592013899999
sS'cringepics'
p397
F0.0161334083314
sS'toosoon'
p398
F0.0127921449315
sS'thewalkingdead'
p399
F0.0073587874071700003
sS'ConfusedBoners'
p400
F0.0071679344645999999
sS'4chan'
p401
F0.017538097740400001
sS'montageparodies'
p402
F0.016770430198000001
sS'ArcherFX'
p403
F0.010250226107899999
sS'google'
p404
F0.0071411377677899996
sS'whatisthisthing'
p405
F0.0103741165791
sS'NetflixBestOf'
p406
F0.0124722185907
sS'circlebroke2'
p407
F0.13094677343399999
sS'ShouldIbuythisgame'
p408
F0.0094833815028899995
sS'tumblr'
p409
F0.0126042040605
sS'interestingasfuck'
p410
F0.0126884706034
sS'MarkMyWords'
p411
F0.021528962547699999
sS'FeMRADebates'
p412
F0.015458035065899999
sS'gameofthrones'
p413
F0.010335964086599999
sS'humor'
p414
F0.0130493788496
sS'mountandblade'
p415
F0.0072207277360900003
sS'ExpectationVsReality'
p416
F0.0145091276684
sS'lifehacks'
p417
F0.0091031254063899999
sS'SCP'
p418
F0.010009330732000001
sS'Enhancement'
p419
F0.0140979513914
sS'blackpeoplegifs'
p420
F0.013826654717700001
sS'ProgrammerHumor'
p421
F0.0097459869465499997
sS'business'
p422
F0.0079396850813999997
sS'FloridaMan'
p423
F0.019594869706800001
sS'delusionalartists'
p424
F0.025661668511600001
sS'OkCupid'
p425
F0.0100649647726
sS'Cynicalbrit'
p426
F0.0088206578460100007
sS'promos'
p427
F0.010728804325000001
sS'JonTron'
p428
F0.00809359134722
sS'shittyaskscience'
p429
F0.0144102867278
sS'lewronggeneration'
p430
F0.064330565120500005
sS'worldbuilding'
p431
F0.0127943528374
sS'calvinandhobbes'
p432
F0.0070427350427400004
sS'netflix'
p433
F0.0076836665917799996
sS'masseffect'
p434
F0.0096843615495
sS'sixwordstories'
p435
F0.0082222606889400009
sS'AnimalsBeingBros'
p436
F0.0121760680998
sS'classic4chan'
p437
F0.019987636513499999
sS'Games'
p438
F0.015926171099300002
sS'GameDeals'
p439
F0.0096848497539500002
sS'androidcirclejerk'
p440
F0.010433462961200001
sS'EnoughLibertarianSpam'
p441
F0.053897105525800001
sS'ShitAmericansSay'
p442
F0.034162875746999999
sS'Scotland'
p443
F0.0123306809209
sS'marijuanaenthusiasts'
p444
F0.0070233243735400002
sS'TrollXChromosomes'
p445
F0.014165130493800001
sS'tifu'
p446
F0.0075063796235600002
sS'unitedkingdom'
p447
F0.0149976443491
sS'Damnthatsinteresting'
p448
F0.011244064577399999
sS'CrazyIdeas'
p449
F0.020399330601899999
sS'Bad_Cop_No_Donut'
p450
F0.012865911237
sS'MorbidReality'
p451
F0.021722726545200001
sS'introvert'
p452
F0.0074991848712099999
sS'raisedbynarcissists'
p453
F0.0087530254301899993
sS'happy'
p454
F0.0085194425850399994
sS'explainlikeIAmA'
p455
F0.020435879195499999
sS'batman'
p456
F0.007531632858
sS'occupywallstreet'
p457
F0.00773387998509
sS'HipHopImages'
p458
F0.0124990863241
sS'blunderyears'
p459
F0.017315135465499999
sS'Marvel'
p460
F0.0074490872470299998
sS'webcomics'
p461
F0.00763941940413
sS'rage'
p462
F0.0264807270448
sS'comics'
p463
F0.016949564119400001
sS'behindthegifs'
p464
F0.018320811915099999
sS'books'
p465
F0.0080591493352999994
sS'civ'
p466
F0.0147181206458
sS'findareddit'
p467
F0.013974491975300001
sS'fullmoviesonyoutube'
p468
F0.0125544452985
sS'TrueAskReddit'
p469
F0.025084448892799999
sS'blackladies'
p470
F0.012725987273999999
sS'politics'
p471
F0.0114942528736
sS'bestofworldstar'
p472
F0.0097048390335299998
sS'ForeverAlone'
p473
F0.012591587517
sS'shittyama'
p474
F0.0130262539448
sS'AskSocialScience'
p475
F0.0216372441806
sS'ImaginaryLandscapes'
p476
F0.0085964363863699992
sS'TheWayWeWere'
p477
F0.0104290116141
sS'Feminism'
p478
F0.018501214726200001
sS'nottheonion'
p479
F0.016776597602900001
sS'Frugal_Jerk'
p480
F0.018380440437
sS'bigdickproblems'
p481
F0.0070930512142299996
sS'nintendo'
p482
F0.0075855017974300002
sS'comicbooks'
p483
F0.0096281800391400003
sS'GirlGamers'
p484
F0.0194946261148
sS'entertainment'
p485
F0.010191582145100001
sS'youtube'
p486
F0.0089601509078000002
sS'atheism'
p487
F0.0085129718366899997
sS'terriblefacebookmemes'
p488
F0.020402278134200001
sS'urbanexploration'
p489
F0.0078630897317299997
sS'speedrun'
p490
F0.0075264321127800002
s.