(dp1
S'CivcraftExchange'
p2
F0.20457756428400001
sS'mcservers'
p3
F0.0119533319018
sS'kohi'
p4
F0.022513791561100002
sS'polandball'
p5
F0.0074142724745100003
sS'socialism'
p6
F0.0085476850019800005
sS'dwarffortress'
p7
F0.0077609623593300004
sS'vexillology'
p8
F0.0080222658808100002
sS'civ'
p9
F0.00737133078847
sS'Anarchism'
p10
F0.0089538602101400001
sS'hcfactions'
p11
F0.044154540893100003
sS'EnoughLibertarianSpam'
p12
F0.0072706935123000001
sS'Minecraft'
p13
F0.0108198719902
sS'worldbuilding'
p14
F0.011672587544400001
sS'minerapocalypse'
p15
F0.021545979564599999
sS'feedthebeast'
p16
F0.0073284887301399999
sS'ShotBow'
p17
F0.020477174525599998
sS'Shitstatistssay'
p18
F0.0098922451863599995
sS'SubredditDrama'
p19
F0.0071700961309300003
sS'minecraftsuggestions'
p20
F0.0115704217945
sS'admincraft'
p21
F0.0153238546603
sS'Anarcho_Capitalism'
p22
F0.011406485671199999
sS'paradoxplaza'
p23
F0.00848432556802
s.