(dp1
S'energy'
p2
F0.020473233764099999
sS'PanicHistory'
p3
F0.0076820307281200003
sS'inthenews'
p4
F0.0097769630308599999
sS'Conservative'
p5
F0.016716989469
sS'POLITIC'
p6
F0.015903530234199999
sS'conspiratard'
p7
F0.0073065191175400003
sS'ShitPoliticsSays'
p8
F0.017543859649100001
sS'AnythingGoesNews'
p9
F0.013641900121800001
sS'ShitRConservativeSays'
p10
F0.013519603425
sS'skeptic'
p11
F0.0161528903615
sS'environment'
p12
F0.021178637200699998
sS'weather'
p13
F0.0071669477234399996
sS'911truth'
p14
F0.015645371577600001
sS'Republican'
p15
F0.020803647762900002
sS'economy'
p16
F0.0139636608345
sS'collapse'
p17
F0.019452163557
sS'occupywallstreet'
p18
F0.0094339622641499993
sS'Economics'
p19
F0.0083738943842600003
sS'gunpolitics'
p20
F0.013497652582200001
sS'EnoughLibertarianSpam'
p21
F0.0078707539353800003
sS'lostgeneration'
p22
F0.0080910997902300004
sS'conservatives'
p23
F0.031783681214399999
sS'PoliticalHumor'
p24
F0.0085790048354399996
sS'NeutralPolitics'
p25
F0.0092735703245699994
sS'GunsAreCool'
p26
F0.0089312295325999994
sS'Liberal'
p27
F0.0150799009678
sS'progressive'
p28
F0.011756448499699999
sS'worldpolitics'
p29
F0.0076785526454200004
sS'progun'
p30
F0.0099583559659599998
sS'PoliticalDiscussion'
p31
F0.0095404674829100006
sS'Shitstatistssay'
p32
F0.018691588785000001
sS'Libertarian'
p33
F0.0119740281643
sS'Anarcho_Capitalism'
p34
F0.012916465475600001
sS'WhiteRights'
p35
F0.0088841506752000005
s.