(dp1
S'yiff'
p2
F0.071810699588500004
sS'ConfusedBoners'
p3
F0.0073520091266300004
sS'furry'
p4
F0.0193892389724
sS'mylittlepony'
p5
F0.042333333333299999
sS'mylittleandysonic1'
p6
F0.033003300329999999
sS'rule34'
p7
F0.0239496651106
sS'MLPCCG'
p8
F0.0076004343105299998
sS'MLPLounge'
p9
F0.038200692041499999
sS'hentai'
p10
F0.0243697478992
sS'ploungeafterdark'
p11
F0.039345539540299998
s.