(dp1
S'InfertilityBabies'
p2
F0.0220872446162
sS'TryingForABaby'
p3
F0.042194092826999999
sS'BabyBumps'
p4
F0.067224187841700006
sS'knitting'
p5
F0.0087043856712399996
sS'BackYardChickens'
p6
F0.0092568103676300001
sS'infertility'
p7
F0.0174639331815
sS'braswap'
p8
F0.00775467042651
sS'ABraThatFits'
p9
F0.0095999999999999992
sS'sewing'
p10
F0.0167802831673
sS'predaddit'
p11
F0.0274366344395
sS'breakingmom'
p12
F0.077269010629599996
sS'Mommit'
p13
F0.077464788732399995
sS'Parenting'
p14
F0.0213087001325
sS'namenerds'
p15
F0.058145766345099999
sS'breastfeeding'
p16
F0.137396902032
sS'crochet'
p17
F0.011399075169400001
sS'daddit'
p18
F0.0104510942385
sS'quilting'
p19
F0.0147969717825
sS'beyondthebump'
p20
F0.113157484002
sS'homestead'
p21
F0.0074074074074100002
s.