(dp1
S'shrooms'
p2
F0.0113353263577
sS'LSD'
p3
F0.015751027240899999
sS'Cigarettes'
p4
F0.00745366639807
sS'Drugs'
p5
F0.016670458541000001
sS'MDMA'
p6
F0.028090632039200002
sS'opiates'
p7
F0.0331998665332
sS'OpiatesRecovery'
p8
F0.0088096261280599993
sS'DarkNetMarkets'
p9
F0.013634609612800001
sS'cripplingalcoholism'
p10
F0.0119246057187
sS'askdrugs'
p11
F0.017798413619699999
sS'DrugNerds'
p12
F0.016630116959100001
sS'DMT'
p13
F0.011806130903100001
sS'Psychonaut'
p14
F0.0072010717874300004
sS'CannabisExtracts'
p15
F0.0088995790739600008
s.