(dp1
S'gardening'
p2
F0.00735476406909
sS'TrueReddit'
p3
F0.0075157472800199999
sS'FoodPorn'
p4
F0.0101503759398
sS'NetflixBestOf'
p5
F0.0078888794973700008
sS'beertrade'
p6
F0.0074505992873299997
sS'sushi'
p7
F0.0090124887343899993
sS'KitchenConfidential'
p8
F0.0184109258281
sS'BuyItForLife'
p9
F0.0105058810095
sS'spicy'
p10
F0.011532313313499999
sS'malegrooming'
p11
F0.0091985517173900008
sS'Homebrewing'
p12
F0.0134523761861
sS'Baking'
p13
F0.0102391522268
sS'budgetfood'
p14
F0.0087070499016900001
sS'EatCheapAndHealthy'
p15
F0.010812378309
sS'Foodforthought'
p16
F0.0074758402722899997
sS'Pizza'
p17
F0.0108649520414
sS'rawdenim'
p18
F0.0071799572257900002
sS'Coffee'
p19
F0.016050404709300001
sS'eatsandwiches'
p20
F0.0126435672232
sS'frugalmalefashion'
p21
F0.0083662488725799993
sS'skeptic'
p22
F0.0071548619447800001
sS'travel'
p23
F0.0072805531388799999
sS'drunk'
p24
F0.0122055747934
sS'InteriorDesign'
p25
F0.0092621179376400006
sS'malefashionadvice'
p26
F0.0077536052651399996
sS'Economics'
p27
F0.0072046109510100001
sS'beer'
p28
F0.022238253560000001
sS'PipeTobacco'
p29
F0.0081556565303500007
sS'RoomPorn'
p30
F0.0092380998687200001
sS'tea'
p31
F0.0107335850174
sS'nyc'
p32
F0.0070352557732799997
sS'bourbon'
p33
F0.057951757972200001
sS'cigars'
p34
F0.0101450424031
sS'sousvide'
p35
F0.011577206435100001
sS'AskCulinary'
p36
F0.022163588390499998
sS'ArtisanVideos'
p37
F0.0080228204671099999
sS'Cooking'
p38
F0.0173557182654
sS'TalesFromYourServer'
p39
F0.014543132803599999
sS'slowcooking'
p40
F0.0125375053579
sS'wicked_edge'
p41
F0.00996088657106
sS'tonightsdinner'
p42
F0.012279163012200001
sS'foodhacks'
p43
F0.0114221364221
sS'howto'
p44
F0.0087375300997599992
sS'malelivingspace'
p45
F0.0111169011638
sS'beerporn'
p46
F0.013131872478399999
sS'madmen'
p47
F0.0084943890274300007
sS'Frugal'
p48
F0.0072646918644100004
sS'shutupandtakemymoney'
p49
F0.0076736094561699998
sS'ScotchSwap'
p50
F0.0117409649606
sS'smoking'
p51
F0.0093124856288800007
sS'Scotch'
p52
F0.036458333333300001
sS'BBQ'
p53
F0.011833731105800001
sS'alcohol'
p54
F0.0424316109422
sS'sanfrancisco'
p55
F0.0081061164333100007
sS'showerbeer'
p56
F0.0090867787369400006
sS'Breadit'
p57
F0.0117295562687
sS'fitmeals'
p58
F0.0087940721439600002
sS'recipes'
p59
F0.0155614973262
sS'offbeat'
p60
F0.00758909598689
sS'whiskey'
p61
F0.043566001899300003
sS'wine'
p62
F0.027199670307000001
sS'ArcherFX'
p63
F0.0076650943396200004
sS'Whiskyporn'
p64
F0.0194416749751
sS'shittyfoodporn'
p65
F0.0074622044191799998
sS'bartenders'
p66
F0.108772406301
sS'everymanshouldknow'
p67
F0.0101340539772
s.