(dp1
S'boulder'
p2
F0.037651277454099998
sS'DenverBroncos'
p3
F0.0109034267913
sS'treesgonewild'
p4
F0.0072443577598200002
sS'mflb'
p5
F0.0088998498820500004
sS'Colorado'
p6
F0.073260073260100006
sS'StonerEngineering'
p7
F0.0090552895080500007
sS'ploompax'
p8
F0.0082210550354000003
sS'entwives'
p9
F0.012468300929800001
sS'Marijuana'
p10
F0.020885001957999999
sS'glassheads'
p11
F0.019681939852000001
sS'Denver'
p12
F0.067221788533300006
sS'ColoradoAvalanche'
p13
F0.0098297770318900007
sS'microgrowery'
p14
F0.024864864864899999
sS'see'
p15
F0.0088940448569200005
sS'saplings'
p16
F0.0083068403240699994
sS'snowboarding'
p17
F0.0070320579110700002
sS'CannabisExtracts'
p18
F0.031826448428199997
sS'vaporents'
p19
F0.0143119007332
sS'eldertrees'
p20
F0.0311126532501
s.