(dp1
S'EDC'
p2
F0.0093784636371400006
sS'electronic_cigarette'
p3
F0.077176359910000006
sS'Vaping101'
p4
F0.060311038057900002
sS'Stance'
p5
F0.0072573656845800003
sS'glassheads'
p6
F0.010809708341799999
sS'mflb'
p7
F0.00705605644845
sS'CarAV'
p8
F0.0075012671059299998
sS'vaporents'
p9
F0.024899367452600001
sS'wicked_edge'
p10
F0.0074186222558700003
sS'StonerEngineering'
p11
F0.010967568295000001
sS'Justrolledintotheshop'
p12
F0.0080708714910699992
sS'knives'
p13
F0.0074303852257999996
sS'VapePorn'
p14
F0.16769376629499999
sS'Shitty_Car_Mods'
p15
F0.0096118049209699997
sS'DIY_eJuice'
p16
F0.123349003806
sS'hookah'
p17
F0.0112076455256
sS'knifeclub'
p18
F0.0076262187469800001
sS'CannabisExtracts'
p19
F0.013358268768399999
sS'drunkvapes'
p20
F0.090587715422000004
sS'RBA'
p21
F0.20316159250599999
sS'ecigclassifieds'
p22
F0.15472978853
s.