(dp1
S'Whatisthis'
p2
F0.010429623959399999
sS'whatsthisbug'
p3
F0.0077419354838699998
sS'AbandonedPorn'
p4
F0.0074569013252599996
sS'litecoin'
p5
F0.0078519855595700003
sS'ThriftStoreHauls'
p6
F0.0112736136502
sS'TheWayWeWere'
p7
F0.0080580177276399993
sS'Flipping'
p8
F0.0111817808781
sS'Ebay'
p9
F0.0080315818132300001
sS'Silverbugs'
p10
F0.11410819821199999
sS'preppers'
p11
F0.0088714938029999992
sS'Pmsforsale'
p12
F0.076159704592699995
sS'knives'
p13
F0.0093657574761699999
sS'Pareidolia'
p14
F0.0076950229438800003
sS'vexillology'
p15
F0.0105087174588
sS'whatsthisplant'
p16
F0.0075316672372499997
sS'whatisthisthing'
p17
F0.0104553518628
s.