(dp1
S'cincinnati'
p2
F0.0090213024031499996
sS'asoiaf'
p3
F0.0176220835053
sS'BuyItForLife'
p4
F0.0087555155127399999
sS'everymanshouldknow'
p5
F0.0116436681999
sS'wiiu'
p6
F0.0085262596956599997
sS'Showerthoughts'
p7
F0.0102032039125
sS'HistoryPorn'
p8
F0.015643475759800001
sS'detroitlions'
p9
F0.025258617538499999
sS'Redskins'
p10
F0.0163162257894
sS'Atlanta'
p11
F0.0077600488272700002
sS'YouShouldKnow'
p12
F0.0117612466921
sS'UpliftingNews'
p13
F0.0090618145204800007
sS'PandR'
p14
F0.013526909916499999
sS'Jokes'
p15
F0.0077565684110300001
sS'Military'
p16
F0.0082126750534099995
sS'photoshopbattles'
p17
F0.0091477459690700001
sS'Celebs'
p18
F0.0121448756391
sS'CrappyDesign'
p19
F0.0088086777632299992
sS'Patriots'
p20
F0.023170249642700001
sS'techsupport'
p21
F0.0070730648774799997
sS'Libertarian'
p22
F0.013903622616
sS'Seattle'
p23
F0.0076720537497700003
sS'EatCheapAndHealthy'
p24
F0.0073270737802400001
sS'gentlemanboners'
p25
F0.0138525104217
sS'Chargers'
p26
F0.0133851790922
sS'fatpeoplestories'
p27
F0.0070509210004799996
sS'nba'
p28
F0.082114865164100007
sS'fantasyfootball'
p29
F0.0525401549454
sS'forwardsfromgrandma'
p30
F0.0089145106861600008
sS'frugalmalefashion'
p31
F0.016475850465799999
sS'chicago'
p32
F0.013379329634999999
sS'investing'
p33
F0.01239967634
sS'falcons'
p34
F0.012839700669599999
sS'worldnews'
p35
F0.0131769401406
sS'guns'
p36
F0.0085591050006699997
sS'FloridaMan'
p37
F0.0104880642874
sS'Braves'
p38
F0.016480929210500001
sS'titanfall'
p39
F0.0070268870890199996
sS'baseball'
p40
F0.080481590647900003
sS'TopGear'
p41
F0.0105584058294
sS'survivor'
p42
F0.01077827043
sS'personalfinance'
p43
F0.011232396441000001
sS'lakers'
p44
F0.017782616585000001
sS'pics'
p45
F0.0104936272923
sS'QuotesPorn'
p46
F0.010943500414099999
sS'apple'
p47
F0.0130052813975
sS'TrueReddit'
p48
F0.0141841547611
sS'todayilearned'
p49
F0.0133432241734
sS'IdiotsFightingThings'
p50
F0.0071049017851800003
sS'Louisville'
p51
F0.0126106894371
sS'Browns'
p52
F0.022244869271899999
sS'ContagiousLaughter'
p53
F0.0073972682529099996
sS'HIMYM'
p54
F0.0205647983024
sS'FiftyFifty'
p55
F0.0094566963633699996
sS'AskHistorians'
p56
F0.011373545837400001
sS'OutOfTheLoop'
p57
F0.011902044543
sS'sports'
p58
F0.0326844007726
sS'iphone'
p59
F0.012735227623899999
sS'trailerparkboys'
p60
F0.00704672210533
sS'eagles'
p61
F0.019434161819100002
sS'battlefield_4'
p62
F0.0070089091022400001
sS'hockey'
p63
F0.034352787892199997
sS'tipofmytongue'
p64
F0.0091856461410000003
sS'cordcutters'
p65
F0.013839725334699999
sS'LifeProTips'
p66
F0.0113652180754
sS'Shitty_Car_Mods'
p67
F0.0078051962169800003
sS'AskMen'
p68
F0.0110332332046
sS'science'
p69
F0.0136817872652
sS'firstworldproblems'
p70
F0.0098232329692299995
sS'movies'
p71
F0.015538267102599999
sS'standupshots'
p72
F0.0154877484975
sS'legaladvice'
p73
F0.0076860768607699996
sS'MMA'
p74
F0.012448048656899999
sS'history'
p75
F0.0098204314608300002
sS'gadgets'
p76
F0.0072075330345299999
sS'learnprogramming'
p77
F0.011180167966599999
sS'polandball'
p78
F0.0104931145378
sS'CampingandHiking'
p79
F0.0076626161544000003
sS'HouseOfCards'
p80
F0.0183073854672
sS'MURICA'
p81
F0.0236103865507
sS'NBA2k'
p82
F0.028397363339799999
sS'travel'
p83
F0.0113689018336
sS'RealGirls'
p84
F0.0086342491884500005
sS'scifi'
p85
F0.0072431445017900001
sS'spaceporn'
p86
F0.0072049907740999999
sS'reddevils'
p87
F0.0083730730841700008
sS'wallpapers'
p88
F0.0079065254639700006
sS'gaming'
p89
F0.0107006570579
sS'poker'
p90
F0.0071743029512500002
sS'askscience'
p91
F0.0090243277848900006
sS'discgolf'
p92
F0.00859656137545
sS'oaklandraiders'
p93
F0.0100143616815
sS'CHIBears'
p94
F0.024648354564799999
sS'law'
p95
F0.0089563726690699997
sS'CFB'
p96
F0.17063969217800001
sS'FanTheories'
p97
F0.0089823983729999998
sS'listentothis'
p98
F0.0099648300117199991
sS'tall'
p99
F0.0099438783850099993
sS'ImGoingToHellForThis'
p100
F0.0125398247146
sS'shield'
p101
F0.0077289504400800003
sS'DoesAnybodyElse'
p102
F0.0080048170580499997
sS'pettyrevenge'
p103
F0.00769066893907
sS'CityPorn'
p104
F0.0118225725207
sS'washingtondc'
p105
F0.010688126748600001
sS'nsfw'
p106
F0.0075105617274299997
sS'dataisbeautiful'
p107
F0.017662581364
sS'panthers'
p108
F0.0215293529661
sS'fantasybaseball'
p109
F0.0205258873907
sS'nostalgia'
p110
F0.011880395123300001
sS'Documentaries'
p111
F0.0080573238613600006
sS'WTF'
p112
F0.0108306143621
sS'soccer'
p113
F0.035938327710699998
sS'texas'
p114
F0.0072020287404900001
sS'MensRights'
p115
F0.0088579044494600002
sS'LosAngeles'
p116
F0.0082319971976199998
sS'electronicmusic'
p117
F0.0074308225802599999
sS'food'
p118
F0.011711051504399999
sS'NoStupidQuestions'
p119
F0.0078298635891000008
sS'nyc'
p120
F0.0115799756963
sS'halo'
p121
F0.011719824661199999
sS'LiverpoolFC'
p122
F0.00868386128902
sS'WatchItForThePlot'
p123
F0.0093512565750999994
sS'nfl'
p124
F0.077597420960399996
sS'freebies'
p125
F0.0117167117309
sS'Watches'
p126
F0.0075381001802600003
sS'AdviceAnimals'
p127
F0.011405063532400001
sS'SubredditDrama'
p128
F0.018611078442900001
sS'arrow'
p129
F0.0074578742254700001
sS'mildlyinteresting'
p130
F0.011673111626700001
sS'Saints'
p131
F0.010906559405900001
sS'Madden'
p132
F0.017910031708400002
sS'books'
p133
F0.0099653315990999997
sS'DunderMifflin'
p134
F0.011917659805
sS'entertainment'
p135
F0.0095771541341400004
sS'shittyfoodporn'
p136
F0.010247615860800001
sS'malefashionadvice'
p137
F0.016835789125999999
sS'nyjets'
p138
F0.012862974659199999
sS'RoomPorn'
p139
F0.0102960789544
sS'bestof'
p140
F0.0195268296534
sS'wisconsin'
p141
F0.0076410658307199996
sS'cars'
p142
F0.012030186445699999
sS'loseit'
p143
F0.0073490576003099996
sS'vinyl'
p144
F0.0080029013539700006
sS'youtubehaiku'
p145
F0.0096236975019299998
sS'49ers'
p146
F0.0184816256475
sS'dogecoin'
p147
F0.0087213448802899995
sS'LawSchool'
p148
F0.0088371233129999997
sS'NYKnicks'
p149
F0.014971255189999999
sS'seinfeld'
p150
F0.0096893598490300006
sS'nhl'
p151
F0.016187446855399999
sS'conspiratard'
p152
F0.0091956665421399995
sS'GreenBayPackers'
p153
F0.0300761302046
sS'pokemon'
p154
F0.0087280124257900008
sS'TheLastAirbender'
p155
F0.0077437811354299996
sS'OldSchoolCool'
p156
F0.010581226199199999
sS'hawks'
p157
F0.0112585291888
sS'Autos'
p158
F0.0087980333807700008
sS'Frat'
p159
F0.0108950914341
sS'explainlikeimfive'
p160
F0.0095658550544899992
sS'TheSimpsons'
p161
F0.0128486941958
sS'TrollYChromosome'
p162
F0.0070930232558100003
sS'mildlyinfuriating'
p163
F0.013544981285699999
sS'madmen'
p164
F0.012393910817700001
sS'skyrim'
p165
F0.0074428018754299999
sS'sex'
p166
F0.0071289384125599996
sS'television'
p167
F0.018083561148599998
sS'worldpolitics'
p168
F0.0077950162186599999
sS'nononono'
p169
F0.00842755997041
sS'formula1'
p170
F0.0079630105317199992
sS'FoodPorn'
p171
F0.012276447408300001
sS'boston'
p172
F0.0070208987843199998
sS'teenagers'
p173
F0.0092448673415599994
sS'conspiracy'
p174
F0.011855562513
sS'redsox'
p175
F0.016161616161600001
sS'warriors'
p176
F0.011846356347999999
sS'self'
p177
F0.0088998812050900006
sS'IAmA'
p178
F0.0119515823953
sS'bonnaroo'
p179
F0.0081204836517099997
sS'slowcooking'
p180
F0.0099545734955999998
sS'nonononoyes'
p181
F0.0114551286247
sS'madisonwi'
p182
F0.0072055137844599998
sS'Futurology'
p183
F0.0088778447964400001
sS'NorthCarolina'
p184
F0.0079751883030600001
sS'MLS'
p185
F0.038746254626600002
sS'Games'
p186
F0.012582007099699999
sS'progresspics'
p187
F0.0073856848050399999
sS'Texans'
p188
F0.0145376640269
sS'TumblrInAction'
p189
F0.0127449418512
sS'Fishing'
p190
F0.0086720867208699998
sS'golf'
p191
F0.0248959290696
sS'fffffffuuuuuuuuuuuu'
p192
F0.0078217928846899994
sS'PoliticalDiscussion'
p193
F0.0111896525793
sS'bodybuilding'
p194
F0.0078171188333400008
sS'Foodforthought'
p195
F0.0082889460769599993
sS'harrypotter'
p196
F0.0106640625
sS'whowouldwin'
p197
F0.0094590265870199992
sS'GrandTheftAutoV'
p198
F0.01076595457
sS'bourbon'
p199
F0.0083694295573000007
sS'DetroitRedWings'
p200
F0.010976161738099999
sS'buildapcsales'
p201
F0.00762581409118
sS'arresteddevelopment'
p202
F0.010978866506200001
sS'shutupandtakemymoney'
p203
F0.0075312705727499998
sS'JusticePorn'
p204
F0.0146467286321
sS'trees'
p205
F0.0098968986962499998
sS'smashbros'
p206
F0.0083124848680500001
sS'geek'
p207
F0.0091191307722199993
sS'Fitness'
p208
F0.012668555240799999
sS'beards'
p209
F0.0070533408904799996
sS'AbandonedPorn'
p210
F0.0089824343505999996
sS'vexillology'
p211
F0.0071719641401799998
sS'thatHappened'
p212
F0.013311302253
sS'ClashOfClans'
p213
F0.0088478175383400002
sS'cringe'
p214
F0.0145961252153
sS'FIFA'
p215
F0.0143362262938
sS'StarWars'
p216
F0.013087281236399999
sS'EngineeringStudents'
p217
F0.0085911148268800006
sS'Christianity'
p218
F0.0105488516933
sS'Justrolledintotheshop'
p219
F0.0086912353970299994
sS'college'
p220
F0.0083696997329500006
sS'changemyview'
p221
F0.0120711468334
sS'roosterteeth'
p222
F0.00743293591654
sS'PS3'
p223
F0.0075564097838399999
sS'Android'
p224
F0.012760954581500001
sS'PS4'
p225
F0.012234416981500001
sS'firstworldanarchists'
p226
F0.010663246610500001
sS'PerfectTiming'
p227
F0.010545970965700001
sS'Dodgers'
p228
F0.014380027318299999
sS'truegaming'
p229
F0.0079412706033000005
sS'lotr'
p230
F0.0071507934246900001
sS'breakingbad'
p231
F0.016774346511800001
sS'steelers'
p232
F0.013775759168199999
sS'StandUpComedy'
p233
F0.0081874161477900002
sS'jobs'
p234
F0.0084065815630000006
sS'casualiama'
p235
F0.0097343422070000005
sS'facepalm'
p236
F0.013608496011100001
sS'NASCAR'
p237
F0.022435148399200001
sS'news'
p238
F0.0162968941216
sS'Unexpected'
p239
F0.0121462173209
sS'chicagobulls'
p240
F0.024397370343300001
sS'GetMotivated'
p241
F0.0094110205995599997
sS'drunk'
p242
F0.016763673620600002
sS'reactiongifs'
p243
F0.020082274672100001
sS'community'
p244
F0.0168689087458
sS'Music'
p245
F0.0138031171886
sS'Cardinals'
p246
F0.017864138525399999
sS'EarthPorn'
p247
F0.0115847180315
sS'sportsbook'
p248
F0.0148171377053
sS'bostonceltics'
p249
F0.0151026572513
sS'Homebrewing'
p250
F0.0092524320338700002
sS'TheWire'
p251
F0.0088628942552699992
sS'Gunners'
p252
F0.0104337693978
sS'beer'
p253
F0.021704279196000001
sS'orioles'
p254
F0.015861714330900001
sS'fatlogic'
p255
F0.0094049831241199994
sS'oddlysatisfying'
p256
F0.0117228299709
sS'MapPorn'
p257
F0.023565618817299998
sS'ravens'
p258
F0.0128521997034
sS'Chromecast'
p259
F0.0094334418271099993
sS'offbeat'
p260
F0.013884970376
sS'Cooking'
p261
F0.0115910390353
sS'IASIP'
p262
F0.0128050617656
sS'DIY'
p263
F0.0097185872243200008
sS'technology'
p264
F0.014672127003400001
sS'southpark'
p265
F0.016850115504799999
sS'funny'
p266
F0.0098781324637900007
sS'stlouisblues'
p267
F0.0082755889922799999
sS'chelseafc'
p268
F0.0085330613632499993
sS'Whatcouldgowrong'
p269
F0.0111056268509
sS'notinteresting'
p270
F0.0087450908758799992
sS'AnimalsBeingJerks'
p271
F0.010411961333499999
sS'torontoraptors'
p272
F0.0085038636275399995
sS'running'
p273
F0.0132666831391
sS'dfsports'
p274
F0.0080871296785499994
sS'PublicFreakout'
p275
F0.0086800517109499997
sS'Boxing'
p276
F0.012007038608799999
sS'Bitcoin'
p277
F0.0074716393408100004
sS'rickandmorty'
p278
F0.0080440630203699997
sS'dadjokes'
p279
F0.0087950154081499997
sS'futurama'
p280
F0.0085437423229199998
sS'whitepeoplegifs'
p281
F0.0084874413469500001
sS'InternetIsBeautiful'
p282
F0.0083027069266600004
sS'carporn'
p283
F0.0088041795665600008
sS'minnesotavikings'
p284
F0.020680572364200001
sS'quityourbullshit'
p285
F0.011228533685599999
sS'rangers'
p286
F0.0071071840184400003
sS'woahdude'
p287
F0.0136858949935
sS'hiphopheads'
p288
F0.032359855143099997
sS'Conservative'
p289
F0.012508747375799999
sS'offmychest'
p290
F0.0072625879453999996
sS'gifs'
p291
F0.012502548535400001
sS'cringepics'
p292
F0.016102747402499999
sS'thewalkingdead'
p293
F0.017614091272999999
sS'DenverBroncos'
p294
F0.019590053763399999
sS'holdmybeer'
p295
F0.011001681479699999
sS'4chan'
p296
F0.0125916962868
sS'ArcherFX'
p297
F0.0146424333945
sS'NetflixBestOf'
p298
F0.020096432015400002
sS'NewYorkMets'
p299
F0.010368901557399999
sS'xboxone'
p300
F0.0130242654469
sS'interestingasfuck'
p301
F0.0120015791552
sS'cowboys'
p302
F0.017468175389000001
sS'SFGiants'
p303
F0.015527950310599999
sS'gameofthrones'
p304
F0.0211287612523
sS'humor'
p305
F0.0087118481134299992
sS'KansasCityChiefs'
p306
F0.020267287394100001
sS'aww'
p307
F0.0098018939327299999
sS'Cubs'
p308
F0.016841848950900001
sS'lifehacks'
p309
F0.0109370578149
sS'TagPro'
p310
F0.00850974048808
sS'blackpeoplegifs'
p311
F0.0108128136895
sS'business'
p312
F0.0099897599271800003
sS'Economics'
p313
F0.0124968505921
sS'OkCupid'
p314
F0.0077404195030900003
sS'Frugal'
p315
F0.0132989582483
sS'promos'
p316
F0.0083445020686400001
sS'StLouisRams'
p317
F0.0107164853213
sS'shittyaskscience'
p318
F0.0080496822014600004
sS'lewronggeneration'
p319
F0.0120364346129
sS'netflix'
p320
F0.0097676728657400003
sS'wheredidthesodago'
p321
F0.0101152724411
sS'AnimalsBeingBros'
p322
F0.0075512075817799999
sS'GameDeals'
p323
F0.0094737579707099995
sS'miamidolphins'
p324
F0.012301524917500001
sS'Sneakers'
p325
F0.016075995615600001
sS'TrollXChromosomes'
p326
F0.00818210426938
sS'tifu'
p327
F0.0081330648760700001
sS'Damnthatsinteresting'
p328
F0.010128274974
sS'kansascity'
p329
F0.011700640223699999
sS'CrazyIdeas'
p330
F0.0124473694968
sS'Bad_Cop_No_Donut'
p331
F0.0081331615771299999
sS'SquaredCircle'
p332
F0.015653574484499999
sS'tennis'
p333
F0.0125744073826
sS'MorbidReality'
p334
F0.010456012636499999
sS'NYGiants'
p335
F0.012338180023499999
sS'batman'
p336
F0.0081758141653400004
sS'beerporn'
p337
F0.0075076591590100003
sS'bengals'
p338
F0.0207751937984
sS'HipHopImages'
p339
F0.0108581941488
sS'buffalobills'
p340
F0.0115134777704
sS'Austin'
p341
F0.00760184689166
sS'blunderyears'
p342
F0.0078277886497099998
sS'Marvel'
p343
F0.0084994591253300007
sS'rage'
p344
F0.0116796440489
sS'comics'
p345
F0.0109301444727
sS'behindthegifs'
p346
F0.0093781249155399996
sS'civ'
p347
F0.010541660000400001
sS'fullmoviesonyoutube'
p348
F0.0094598555706599998
sS'videos'
p349
F0.0125096304751
sS'engineering'
p350
F0.0087754394387999993
sS'politics'
p351
F0.021827261554499999
sS'bestofworldstar'
p352
F0.0088275862069000007
sS'bicycling'
p353
F0.0098745519713299996
sS'DestinyTheGame'
p354
F0.0075686271459400002
sS'circlebroke'
p355
F0.0086041097277100003
sS'Seahawks'
p356
F0.0226609766638
sS'nottheonion'
p357
F0.0143888636888
sS'Colts'
p358
F0.016760865328400001
sS'comicbooks'
p359
F0.0091245752681999998
sS'space'
p360
F0.010816393086200001
sS'atheism'
p361
F0.011776421959500001
sS'coys'
p362
F0.0093661270695799999
sS'Michigan'
p363
F0.0088051229806400001
s.