(dp1
S'shield'
p2
F0.057910586055100001
sS'rickandmorty'
p3
F0.0102915130918
sS'masseffect'
p4
F0.0084424207930199995
sS'dbz'
p5
F0.010727707550399999
sS'whitepeoplegifs'
p6
F0.0070577451879000001
sS'quityourbullshit'
p7
F0.0075283335379100003
sS'nostalgia'
p8
F0.0082543677820600004
sS'startrek'
p9
F0.012161614341699999
sS'Screenwriting'
p10
F0.0099940629329100007
sS'Bioshock'
p11
F0.0073016388122699996
sS'ImaginaryMonsters'
p12
F0.00845273683125
sS'arresteddevelopment'
p13
F0.011482084690600001
sS'moviescirclejerk'
p14
F0.0126964933495
sS'horror'
p15
F0.0123789612676
sS'PandR'
p16
F0.015936555891200001
sS'geek'
p17
F0.0086864406779699997
sS'thewalkingdead'
p18
F0.0097011393833500003
sS'progressive'
p19
F0.0071581961345699996
sS'WatchItForThePlot'
p20
F0.012110296857499999
sS'Celebs'
p21
F0.0081206496519699994
sS'dvdcollection'
p22
F0.0115702479339
sS'NewsOfTheWeird'
p23
F0.0073573573573600002
sS'humor'
p24
F0.0075558475689900002
sS'SubredditDrama'
p25
F0.00710241284748
sS'zombies'
p26
F0.0071076011846000001
sS'Supernatural'
p27
F0.0095854301461799993
sS'ArcherFX'
p28
F0.010952331281900001
sS'StarWars'
p29
F0.014735419443200001
sS'NetflixBestOf'
p30
F0.0113543490952
sS'gentlemanboners'
p31
F0.0087630140372999994
sS'TheSimpsons'
p32
F0.0103194588456
sS'MST3K'
p33
F0.0074234457160500004
sS'DCcomics'
p34
F0.054579323191599999
sS'MarkMyWords'
p35
F0.0092603585420899994
sS'xmen'
p36
F0.046467391304299999
sS'PS3'
p37
F0.0094772395019400001
sS'gameofthrones'
p38
F0.0073992900427999999
sS'DunderMifflin'
p39
F0.0078631806565799996
sS'truegaming'
p40
F0.0090084434539700001
sS'entertainment'
p41
F0.0128566180972
sS'lotr'
p42
F0.0105132597011
sS'AmericanHorrorStory'
p43
F0.0074987381930900002
sS'Harmontown'
p44
F0.00753920386007
sS'breakingbad'
p45
F0.00862304539244
sS'powerrangers'
p46
F0.0080055690915400001
sS'GuessTheMovie'
p47
F0.0072663216998800004
sS'marvelheroes'
p48
F0.0083772882407699995
sS'disney'
p49
F0.0086269825469499992
sS'metalgearsolid'
p50
F0.0073154511194900001
sS'blackpeoplegifs'
p51
F0.0071049477829100002
sS'StandUpComedy'
p52
F0.0086607712644700009
sS'transformers'
p53
F0.0102688009665
sS'arrow'
p54
F0.040894380700200003
sS'TMNT'
p55
F0.019412952321800001
sS'celebnsfw'
p56
F0.0076076400129500002
sS'doctorwho'
p57
F0.0098866300853300004
sS'cosplay'
p58
F0.0096558667398900008
sS'PoliticalHumor'
p59
F0.0079382579933800004
sS'calvinandhobbes'
p60
F0.0080416272469299999
sS'netflix'
p61
F0.0123000551572
sS'Sherlock'
p62
F0.013052396047
sS'PlayStationPlus'
p63
F0.0082511058183099995
sS'nintendo'
p64
F0.0075725864758900002
sS'community'
p65
F0.0147530247148
sS'conspiratard'
p66
F0.00710150981679
sS'AskScienceFiction'
p67
F0.0188213151394
sS'TheLastAirbender'
p68
F0.0085271862627999996
sS'HIMYM'
p69
F0.0096974689231699995
sS'CrazyIdeas'
p70
F0.0082160002577600002
sS'lego'
p71
F0.0091143665723299998
sS'futurama'
p72
F0.0100437388628
sS'alternativeart'
p73
F0.014834205933700001
sS'DoctorWhumour'
p74
F0.00711898881302
sS'whowouldwin'
p75
F0.015901314086900001
sS'ObscureMedia'
p76
F0.0076061402295700001
sS'DaystromInstitute'
p77
F0.0085543199315699994
sS'GODZILLA'
p78
F0.019251568245699999
sS'Spiderman'
p79
F0.047093712930000003
sS'batman'
p80
F0.035613385858099998
sS'marvelstudios'
p81
F0.109359605911
sS'madmen'
p82
F0.0077605321507800001
sS'xbox360'
p83
F0.0075400565504200002
sS'IASIP'
p84
F0.0110497237569
sS'Marvel'
p85
F0.0546971094711
sS'webcomics'
p86
F0.0074033149171299998
sS'television'
p87
F0.0086568730325300002
sS'comics'
p88
F0.010909674314100001
sS'movies'
p89
F0.0071005423036099996
sS'standupshots'
p90
F0.0080053368912599999
sS'fullmoviesonyoutube'
p91
F0.011433280115400001
sS'gallifrey'
p92
F0.013508903595600001
sS'gamernews'
p93
F0.0111547085202
sS'awesome'
p94
F0.0073082977288100003
sS'Filmmakers'
p95
F0.0077556440903099998
sS'buffy'
p96
F0.0085049833887
sS'FanTheories'
p97
F0.0211810852037
sS'assassinscreed'
p98
F0.0088659392049900004
sS'southpark'
p99
F0.0087802293456500004
sS'superman'
p100
F0.055598336670300001
sS'HouseOfCards'
p101
F0.0100594710869
sS'deadpool'
p102
F0.023353131749499999
sS'HighQualityGifs'
p103
F0.0097063819461300008
sS'scifi'
p104
F0.013125455745
sS'firefly'
p105
F0.013081815553599999
sS'MovieSuggestions'
p106
F0.0098706939097799994
sS'ActionFigures'
p107
F0.0141367732815
sS'Gaming4Gamers'
p108
F0.00741989881956
sS'comicbooks'
p109
F0.041859765272300002
sS'cordcutters'
p110
F0.0077165194436000003
sS'cosplaygirls'
p111
F0.010400341929000001
sS'TrueFilm'
p112
F0.0138116591928
s.