(dp1
S'buildapc'
p2
F0.011314478471999999
sS'google'
p3
F0.0071730329167400001
sS'pcgaming'
p4
F0.011591369317800001
sS'watercooling'
p5
F0.00881676463072
sS'audiophile'
p6
F0.0070106561974200001
sS'linuxquestions'
p7
F0.0093244529019999994
sS'sysadmin'
p8
F0.0089072289459800006
sS'torrents'
p9
F0.0091743119266099998
sS'linux'
p10
F0.0095393420931200006
sS'gamingpc'
p11
F0.017653005677000001
sS'techsupportmacgyver'
p12
F0.0142668837714
sS'24hoursupport'
p13
F0.015861825872399999
sS'softwareswap'
p14
F0.0070003500175000004
sS'electronics'
p15
F0.0083890010874599994
sS'chrome'
p16
F0.0083691143293799994
sS'linux4noobs'
p17
F0.0101252331468
sS'unixporn'
p18
F0.0070047632390000001
sS'MechanicalKeyboards'
p19
F0.010757625450999999
sS'AndroidQuestions'
p20
F0.0098307737454799999
sS'CableManagement'
p21
F0.0150650536407
sS'shittybattlestations'
p22
F0.012732435650799999
sS'Rainmeter'
p23
F0.0087084767188699997
sS'SuggestALaptop'
p24
F0.015555671556099999
sS'Ubuntu'
p25
F0.010751901696900001
sS'pcmasterrace'
p26
F0.0074342378718599998
sS'windows8'
p27
F0.0099972229936099999
sS'wallpapers'
p28
F0.0073915338985700001
sS'talesfromtechsupport'
p29
F0.0107239819005
sS'buildapcforme'
p30
F0.012799790310600001
sS'cablefail'
p31
F0.00802675585284
sS'buildapcsales'
p32
F0.0109754212398
sS'YouShouldKnow'
p33
F0.0073724795498400003
sS'hackintosh'
p34
F0.0079407093700399993
sS'AskTechnology'
p35
F0.00788880540947
sS'HomeNetworking'
p36
F0.0079281800163200009
sS'cordcutters'
p37
F0.0070053351890500002
sS'geek'
p38
F0.0093898271342800002
sS'mac'
p39
F0.0074805847418900001
sS'homelab'
p40
F0.0086550617524099992
sS'networking'
p41
F0.0093385214007800001
sS'Steam'
p42
F0.0081822792920299998
sS'RandomActsOfGaming'
p43
F0.0073011353265400002
sS'overclocking'
p44
F0.0150866921864
sS'hardware'
p45
F0.021548866198100002
sS'battlestations'
p46
F0.0125873518816
sS'hardwareswap'
p47
F0.0111777376725
sS'techsupportgore'
p48
F0.017348572279499999
sS'windows'
p49
F0.017789941840599999
sS'headphones'
p50
F0.0085313595636899997
sS'cableporn'
p51
F0.0098122537278799993
sS'softwaregore'
p52
F0.0118704146402
sS'techsupport'
p53
F0.0168179156909
sS'hacking'
p54
F0.0132070253077
sS'software'
p55
F0.014258555133100001
sS'raspberry_pi'
p56
F0.0088008800880100008
sS'microsoft'
p57
F0.0090835688332700001
sS'learnprogramming'
p58
F0.0084023290666499998
s.