(dp1
S'awwwtf'
p2
F0.023422360771799999
sS'Heavymind'
p3
F0.0112554766581
sS'GamePhysics'
p4
F0.0168781351431
sS'redheads'
p5
F0.015560370297399999
sS'DoesAnybodyElse'
p6
F0.0104022191401
sS'GWCouples'
p7
F0.0085266868902200005
sS'circlebroke'
p8
F0.0071679344645999999
sS'PublicFreakout'
p9
F0.013058419244000001
sS'skyrim'
p10
F0.0088913990640599998
sS'LucidDreaming'
p11
F0.0074618736383399997
sS'QuotesPorn'
p12
F0.010373530765
sS'uglyduckling'
p13
F0.010942528735599999
sS'rickandmorty'
p14
F0.0079850713882699993
sS'milf'
p15
F0.015563117086
sS'dadjokes'
p16
F0.013799188283000001
sS'futurama'
p17
F0.0094517958412099999
sS'perfectloops'
p18
F0.018651745270500002
sS'everymanshouldknow'
p19
F0.0100298835572
sS'InternetIsBeautiful'
p20
F0.0081001137656400001
sS'AnimalsBeingJerks'
p21
F0.016663113763899999
sS'TalesFromRetail'
p22
F0.0081083037718100003
sS'BDSMGW'
p23
F0.0084407971863999995
sS'patientgamers'
p24
F0.0078531508961299998
sS'TheBluePill'
p25
F0.0092854552049299998
sS'WouldYouRather'
p26
F0.0113864222286
sS'furry'
p27
F0.0078772462460000008
sS'drunk'
p28
F0.0103618366604
sS'cumsluts'
p29
F0.016116554925200002
sS'LearnUselessTalents'
p30
F0.013936710936199999
sS'holdmybeer'
p31
F0.017356893782100001
sS'hugeboobs'
p32
F0.013365983063000001
sS'HistoryPorn'
p33
F0.0091257179323499995
sS'pettyrevenge'
p34
F0.0103697462653
sS'shittybattlestations'
p35
F0.010532892975099999
sS'transpassing'
p36
F0.0073224780807400001
sS'whowouldwin'
p37
F0.01085049529
sS'GrandTheftAutoV'
p38
F0.0076816608996500002
sS'Fallout'
p39
F0.0098610176570200006
sS'ImaginaryMonsters'
p40
F0.0145742776783
sS'DeepIntoYouTube'
p41
F0.017381166869799999
sS'AsianHotties'
p42
F0.010779518914100001
sS'adventuretime'
p43
F0.0088022208680299998
sS'MetalMemes'
p44
F0.0082558360220199994
sS'Gore'
p45
F0.021048315451399999
sS'MensRights'
p46
F0.010415712147600001
sS'nononono'
p47
F0.018429561200899999
sS'pornID'
p48
F0.010448496796499999
sS'Frisson'
p49
F0.0095990279465400005
sS'YouShouldKnow'
p50
F0.0103280049824
sS'childfree'
p51
F0.0079408455232299995
sS'popping'
p52
F0.0144107275023
sS'gonewild'
p53
F0.0078633652680299999
sS'cringepics'
p54
F0.0110710212684
sS'horror'
p55
F0.0081053200373299994
sS'foodhacks'
p56
F0.00832156921019
sS'BDSMcommunity'
p57
F0.0076109292944700003
sS'softwaregore'
p58
F0.0091743119266099998
sS'fffffffuuuuuuuuuuuu'
p59
F0.0109996189508
sS'geek'
p60
F0.0082468129846199993
sS'Jokes'
p61
F0.0078891300852200006
sS'tipofmytongue'
p62
F0.0074053374318800002
sS'NoStupidQuestions'
p63
F0.0120024308721
sS'3amjokes'
p64
F0.0103337125521
sS'toosoon'
p65
F0.016575912876399999
sS'beards'
p66
F0.0083897929462399996
sS'memes'
p67
F0.0078953139849400004
sS'PrettyGirlsUglyFaces'
p68
F0.014832816559099999
sS'freebies'
p69
F0.0076330080127599998
sS'Braveryjerk'
p70
F0.0084383789978099994
sS'photoshopbattles'
p71
F0.0116386033676
sS'AbandonedPorn'
p72
F0.011432900582
sS'firstimpression'
p73
F0.0079462940128800005
sS'creepyPMs'
p74
F0.0142649199418
sS'Pegging'
p75
F0.0098456030431899998
sS'IdiotsFightingThings'
p76
F0.0179149329635
sS'WatchItForThePlot'
p77
F0.023449655478999999
sS'Celebs'
p78
F0.0131254317576
sS'techsupportgore'
p79
F0.012922173274599999
sS'woahdude'
p80
F0.0121908983861
sS'PropagandaPosters'
p81
F0.0079828326180299992
sS'CrappyDesign'
p82
F0.014839263671999999
sS'NewsOfTheWeird'
p83
F0.0092582009372499992
sS'shittyadviceanimals'
p84
F0.0089704110322700002
sS'pornvids'
p85
F0.010171173406099999
sS'montageparodies'
p86
F0.0082591188313800006
sS'zombies'
p87
F0.0096681687832900001
sS'minimalism'
p88
F0.0077939817604800003
sS'nsfw'
p89
F0.01672494418
sS'anal'
p90
F0.013660143383099999
sS'ArcherFX'
p91
F0.0100511953408
sS'cringe'
p92
F0.011718929342100001
sS'spiders'
p93
F0.0070611151692199997
sS'firefly'
p94
F0.0084359182653299999
sS'TrueAtheism'
p95
F0.0070278346522099997
sS'whatisthisthing'
p96
F0.010831058059
sS'glitch_art'
p97
F0.0102837205032
sS'gentlemanboners'
p98
F0.0129345189976
sS'Rateme'
p99
F0.0072490805394199997
sS'watchpeopledie'
p100
F0.020891364902500001
sS'tumblr'
p101
F0.011917613023
sS'burstingout'
p102
F0.013506212857899999
sS'see'
p103
F0.0077667160912200002
sS'MarkMyWords'
p104
F0.0108488770461
sS'changemyview'
p105
F0.0073403759515300003
sS'fatpeoplestories'
p106
F0.0097352636372199999
sS'amiugly'
p107
F0.0081785928212700001
sS'thick'
p108
F0.0176560900716
sS'Cinemagraphs'
p109
F0.0094821298322399997
sS'firstworldanarchists'
p110
F0.016163877248199999
sS'offbeat'
p111
F0.0102236799338
sS'no_sob_story'
p112
F0.0111564896902
sS'Blowjobs'
p113
F0.0116596144805
sS'Glitch_in_the_Matrix'
p114
F0.0087016654180800002
sS'skeptic'
p115
F0.0087231991185000007
sS'shittyfoodporn'
p116
F0.0146599829755
sS'ExpectationVsReality'
p117
F0.014980518608099999
sS'breakingbad'
p118
F0.0084177486089299994
sS'firstworldproblems'
p119
F0.0099468062102700001
sS'outside'
p120
F0.0149199417758
sS'Frugal_Jerk'
p121
F0.010732714138300001
sS'RoomPorn'
p122
F0.00792290228421
sS'randomsexiness'
p123
F0.012763819095499999
sS'lifehacks'
p124
F0.0103513103355
sS'tightdresses'
p125
F0.010293823705800001
sS'SCP'
p126
F0.0081012658227800002
sS'Enhancement'
p127
F0.0075615972812200002
sS'ass'
p128
F0.016788800175
sS'blackpeoplegifs'
p129
F0.014317019722399999
sS'bestof'
p130
F0.0081679927485099994
sS'Cyberpunk'
p131
F0.0102257487707
sS'Bondage'
p132
F0.0097252063779299999
sS'casualiama'
p133
F0.0092771276313199993
sS'FloridaMan'
p134
F0.0151591712986
sS'Metal'
p135
F0.0070481216582200003
sS'delusionalartists'
p136
F0.018117543084400001
sS'answers'
p137
F0.0070908016545199997
sS'boltedontits'
p138
F0.013967409378099999
sS'promos'
p139
F0.0072972856958899998
sS'JonTron'
p140
F0.0072010287183900002
sS'NotTimAndEric'
p141
F0.0118486696231
sS'shittyaskscience'
p142
F0.012309042114
sS'Amateur'
p143
F0.0144676311754
sS'doctorwho'
p144
F0.0070887818306999998
sS'lewronggeneration'
p145
F0.0145586517604
sS'howto'
p146
F0.0090211998195799999
sS'tipofmypenis'
p147
F0.012173148758500001
sS'spaceporn'
p148
F0.0093380484031400004
sS'calvinandhobbes'
p149
F0.0078094186321699998
sS'GWNerdy'
p150
F0.010455104551000001
sS'GoneWildPlus'
p151
F0.0078526793120600007
sS'4chan'
p152
F0.0132397973387
sS'Roadcam'
p153
F0.0089696777266200008
sS'creepy'
p154
F0.0092932559688000006
sS'hardbodies'
p155
F0.014892404161300001
sS'howtonotgiveafuck'
p156
F0.0086545180884799993
sS'wheredidthesodago'
p157
F0.017490016269799999
sS'AnimalsBeingBros'
p158
F0.015502473157200001
sS'quityourbullshit'
p159
F0.018274575496800002
sS'classic4chan'
p160
F0.020653636147800001
sS'GunPorn'
p161
F0.0074117255163199999
sS'OnOff'
p162
F0.0184966838615
sS'OutOfTheLoop'
p163
F0.014105026157199999
sS'girlsinyogapants'
p164
F0.015720656035099999
sS'whatsthisbug'
p165
F0.0075549130252300003
sS'yiff'
p166
F0.0113611049231
sS'bigdickproblems'
p167
F0.0127950735546
sS'wifesharing'
p168
F0.0075397475823599999
sS'StarWars'
p169
F0.0077131428366400004
sS'TinyTits'
p170
F0.0161066370453
sS'pussy'
p171
F0.010739614994900001
sS'incest'
p172
F0.010572337042900001
sS'confession'
p173
F0.0099186483103900006
sS'reactiongifs'
p174
F0.0102418234388
sS'AntiJokes'
p175
F0.0117595818815
sS'findareddit'
p176
F0.011101151485900001
sS'AsiansGoneWild'
p177
F0.0084159087824099994
sS'rant'
p178
F0.0076690509549399996
sS'conspiratard'
p179
F0.0113394378194
sS'startrek'
p180
F0.0074146900987299997
sS'cosplay'
p181
F0.0092225514334599995
sS'TrollXChromosomes'
p182
F0.0076444739242199997
sS'ContagiousLaughter'
p183
F0.012721390579600001
sS'nostalgia'
p184
F0.0114720777207
sS'gonewildcurvy'
p185
F0.0091643150512699997
sS'Damnthatsinteresting'
p186
F0.0138084083344
sS'FiftyFifty'
p187
F0.0281094984384
sS'CrazyIdeas'
p188
F0.013436457385500001
sS'OldSchoolCool'
p189
F0.0079051812010699999
sS'StonerEngineering'
p190
F0.0081694006927699996
sS'Bad_Cop_No_Donut'
p191
F0.0113501105254
sS'ANormalDayInRussia'
p192
F0.017317119755500002
sS'Whatcouldgowrong'
p193
F0.018706969854899998
sS'onetruegod'
p194
F0.0120462181431
sS'TheFacebookDelusion'
p195
F0.0084050430258199998
sS'urbanexploration'
p196
F0.0071174377224199996
sS'MorbidReality'
p197
F0.016315852063299999
sS'gif'
p198
F0.0135495209479
sS'SubredditDrama'
p199
F0.0102031122342
sS'PenmanshipPorn'
p200
F0.0090785766461400005
sS'shittyreactiongifs'
p201
F0.0144439885105
sS'bdsm'
p202
F0.010842736248199999
sS'shittyadvice'
p203
F0.0085192069392800007
sS'MeanJokes'
p204
F0.013027811142899999
sS'BigBoobsGW'
p205
F0.0084997193488899996
sS'fifthworldproblems'
p206
F0.0098541203748400003
sS'confessions'
p207
F0.0075130197216799997
sS'Pareidolia'
p208
F0.016470880726
sS'GTA'
p209
F0.0071182728410499998
sS'happy'
p210
F0.0081362476729000006
sS'CombatFootage'
p211
F0.0078726382085400008
sS'fatlogic'
p212
F0.0120810493878
sS'TrollYChromosome'
p213
F0.011246997161
sS'explainlikeIAmA'
p214
F0.0100810870042
sS'Stacked'
p215
F0.013199520017500001
sS'alternativeart'
p216
F0.012730681930300001
sS'Unexpected'
p217
F0.0197684453925
sS'batman'
p218
F0.0090700509070099997
sS'gamegrumps'
p219
F0.0070548523206800003
sS'treesgonewild'
p220
F0.0078317093160900006
sS'mildlyinfuriating'
p221
F0.014272957060000001
sS'somethingimade'
p222
F0.0083686127793599994
sS'youtubehaiku'
p223
F0.0108038493185
sS'rule34'
p224
F0.032485875706199999
sS'Awwducational'
p225
F0.0108791903858
sS'Shitty_Car_Mods'
p226
F0.0130688291669
sS'BBW'
p227
F0.0075879021053800004
sS'shittyaskreddit'
p228
F0.0080242685194199994
sS'AskMen'
p229
F0.0074861036399500001
sS'ghettoglamourshots'
p230
F0.018148180776999999
sS'blunderyears'
p231
F0.015888427928299999
sS'Boobies'
p232
F0.016422287390000002
sS'webcomics'
p233
F0.0092501122586399996
sS'showerbeer'
p234
F0.0106898279606
sS'rage'
p235
F0.016625373376200001
sS'comics'
p236
F0.0111429077924
sS'sex'
p237
F0.0078445589460399996
sS'AmateurArchives'
p238
F0.0096849723286499996
sS'Perfectfit'
p239
F0.015888072089200001
sS'PerfectTiming'
p240
F0.014787514787500001
sS'behindthegifs'
p241
F0.018619829158299999
sS'standupshots'
p242
F0.0118254921224
sS'conspiracy'
p243
F0.00801496126102
sS'asstastic'
p244
F0.011302943733699999
sS'ObscureMedia'
p245
F0.0072812935003700001
sS'BustyPetite'
p246
F0.017151909105800001
sS'AmISexy'
p247
F0.0086802581234699996
sS'ICanDrawThat'
p248
F0.0082600788117600001
sS'fullmoviesonyoutube'
p249
F0.010307363729200001
sS'TalesFromThePizzaGuy'
p250
F0.0071641235578699999
sS'AskScienceFiction'
p251
F0.0095539747650399999
sS'NewsOfTheStupid'
p252
F0.0096944151738699996
sS'FoodPorn'
p253
F0.0081358573589400008
sS'crappymusic'
p254
F0.0102030299907
sS'awesome'
p255
F0.010303638187300001
sS'MilitaryPorn'
p256
F0.0074497354497400003
sS'ginger'
p257
F0.015991672974999999
sS'FanTheories'
p258
F0.010679534846900001
sS'oddlysatisfying'
p259
F0.015830668386400001
sS'Tgirls'
p260
F0.016839242757000002
sS'celebnsfw'
p261
F0.0156838143036
sS'polandball'
p262
F0.0076581406034599998
sS'hentai'
p263
F0.0144761593195
sS'bestofworldstar'
p264
F0.0116305938535
sS'shorthairedhotties'
p265
F0.0098966924212200002
sS'southpark'
p266
F0.0100386100386
sS'SRSsucks'
p267
F0.0086690464049000004
sS'asmr'
p268
F0.0079758248290899992
sS'ForeverAlone'
p269
F0.0088778838023899995
sS'misleadingthumbnails'
p270
F0.023065329926000001
sS'HighQualityGifs'
p271
F0.013744273219499999
sS'self'
p272
F0.0073965332279399996
sS'shittyama'
p273
F0.010073823438900001
sS'RealGirls'
p274
F0.015220490182600001
sS'ImaginaryLandscapes'
p275
F0.0086556169429099997
sS'GoneMild'
p276
F0.0087580053642799995
sS'Hotchickswithtattoos'
p277
F0.0160203099011
sS'TheWayWeWere'
p278
F0.0090316573556799996
sS'JusticePorn'
p279
F0.011417197672300001
sS'TumblrInAction'
p280
F0.011476498072400001
sS'cosplaygirls'
p281
F0.015761275853500002
sS'Justrolledintotheshop'
p282
F0.0093676814988300008
sS'nottheonion'
p283
F0.0080954695539900007
sS'itookapicture'
p284
F0.0073630398290899998
sS'nonononoyes'
p285
F0.017192073478499999
sS'Pizza'
p286
F0.0074155023027100003
sS'workgonewild'
p287
F0.0074659164682999999
sS'wallpapers'
p288
F0.0099132207158499994
sS'talesfromtechsupport'
p289
F0.0072621315701
sS'awwnime'
p290
F0.0073668134040099998
sS'NSFW_GIF'
p291
F0.019181311615900001
sS'notinteresting'
p292
F0.0146830132726
sS'facepalm'
p293
F0.013354597590099999
sS'forwardsfromgrandma'
p294
F0.016308262166900001
sS'ClopClop'
p295
F0.0073520091266300004
sS'highdeas'
p296
F0.0070386088396600004
sS'tifu'
p297
F0.0075906844536300002
sS'wallpaper'
p298
F0.0072768192048000002
sS'techsupportmacgyver'
p299
F0.0097601573730799994
sS'Images'
p300
F0.010319030011200001
sS'MURICA'
p301
F0.0107852669184
sS'mylittlepony'
p302
F0.0083746898263
sS'interestingasfuck'
p303
F0.014250909455
sS'humor'
p304
F0.0095425365797200002
sS'altgonewild'
p305
F0.0101109256896
sS'whitepeoplegifs'
p306
F0.0167545764815
sS'DAE'
p307
F0.0080117244748400002
sS'MachinePorn'
p308
F0.0074111083354200004
sS'traps'
p309
F0.015969368696300001
sS'offmychest'
p310
F0.0078321129707100007
sS'HumanPorn'
p311
F0.013917238819800001
sS'NSFWFunny'
p312
F0.051181731076300002
sS'curvy'
p313
F0.015811862910300001
sS'terriblefacebookmemes'
p314
F0.0153103677817
sS'PrettyGirls'
p315
F0.0113971574149
sS'nsfw_gifs'
p316
F0.016445370129299999
sS'thatHappened'
p317
F0.0153647329121
sS'EmmaWatson'
p318
F0.0099798725259999995
sS'tall'
p319
F0.00750252488818
sS'HailCorporate'
p320
F0.0113366101157
sS'ImGoingToHellForThis'
p321
F0.017929173505399999
sS'badtattoos'
p322
F0.014050353041900001
sS'shutupandtakemymoney'
p323
F0.010175214455199999
sS'GifSound'
p324
F0.00988272499671
s.