(dp1
S'FancyFollicles'
p2
F0.0072920688028100004
sS'awwwtf'
p3
F0.0104965011663
sS'DoesAnybodyElse'
p4
F0.011936076232099999
sS'pettyrevenge'
p5
F0.013563181004999999
sS'PublicFreakout'
p6
F0.0093658625731000006
sS'uglyduckling'
p7
F0.0091009376723699999
sS'dadjokes'
p8
F0.0071919730564099999
sS'DeepIntoYouTube'
p9
F0.0072992700729900004
sS'everymanshouldknow'
p10
F0.0074043603455399998
sS'Pets'
p11
F0.0081479997328500007
sS'Foodforthought'
p12
F0.0079807085031899996
sS'relationships'
p13
F0.0091009913731100005
sS'TalesFromRetail'
p14
F0.0090129273891500009
sS'TheBluePill'
p15
F0.0103242693035
sS'WouldYouRather'
p16
F0.011908177905300001
sS'quityourbullshit'
p17
F0.010166288737700001
sS'Advice'
p18
F0.012556979444400001
sS'nostalgia'
p19
F0.00807338188814
sS'MMFB'
p20
F0.0122908489981
sS'MensRights'
p21
F0.0082334644588799993
sS'nononono'
p22
F0.0074995427108099999
sS'offmychest'
p23
F0.01920380902
sS'Anxiety'
p24
F0.0078845271369599994
sS'YouShouldKnow'
p25
F0.0091274471671200005
sS'childfree'
p26
F0.0106760418011
sS'popping'
p27
F0.00905781398977
sS'horror'
p28
F0.00727022645773
sS'BDSMcommunity'
p29
F0.0070068545316099998
sS'NoStupidQuestions'
p30
F0.0128400170389
sS'cringepics'
p31
F0.0074034691300600003
sS'toosoon'
p32
F0.0080305319233499994
sS'PrettyGirlsUglyFaces'
p33
F0.0072463768115899998
sS'IWantToLearn'
p34
F0.0092381905888800006
sS'gonewildstories'
p35
F0.0084841139295299996
sS'creepyPMs'
p36
F0.013452769783
sS'quotes'
p37
F0.00746327284154
sS'ConfusedBoners'
p38
F0.0075130197216799997
sS'Paranormal'
p39
F0.0109864146486
sS'NewsOfTheWeird'
p40
F0.011477103179199999
sS'SubredditDrama'
p41
F0.0083282743967200007
sS'cringe'
p42
F0.0074189233987599999
sS'Whatisthis'
p43
F0.0071810420489899999
sS'whatisthisthing'
p44
F0.0088312156438700006
sS'AskWomen'
p45
F0.0096985413290099996
sS'Rateme'
p46
F0.0082201286396800001
sS'sex'
p47
F0.0088807203422599998
sS'MarkMyWords'
p48
F0.0099038186839299994
sS'AmISexy'
p49
F0.0089193825042900004
sS'fatpeoplestories'
p50
F0.0090112719394600006
sS'OneY'
p51
F0.00767008666202
sS'depression'
p52
F0.0087194867618699996
sS'forwardsfromgrandma'
p53
F0.0082239362517200001
sS'humor'
p54
F0.0072777681511000001
sS'psychology'
p55
F0.0070246848739499998
sS'findareddit'
p56
F0.0114632967337
sS'AMA'
p57
F0.0095763203714500002
sS'shittyfoodporn'
p58
F0.0078328163674500004
sS'ExpectationVsReality'
p59
F0.0095658572479799999
sS'socialskills'
p60
F0.0091450546358400001
sS'firstworldproblems'
p61
F0.0102164502165
sS'facepalm'
p62
F0.0095030178502600003
sS'lifehacks'
p63
F0.0070238041465299998
sS'TheWayWeWere'
p64
F0.0085756897837399992
sS'LetsNotMeet'
p65
F0.0132116517218
sS'DeadBedrooms'
p66
F0.0117703744493
sS'casualiama'
p67
F0.010747729852400001
sS'FloridaMan'
p68
F0.0076421040887999997
sS'legaladvice'
p69
F0.0072555364546499999
sS'loseit'
p70
F0.0070031633607199996
sS'answers'
p71
F0.0081589682852999997
sS'delusionalartists'
p72
F0.011035467223000001
sS'LadyBoners'
p73
F0.0077298773218500002
sS'Unexpected'
p74
F0.0076124567473999996
sS'recipes'
p75
F0.0072120234012499999
sS'TalesFromThePizzaGuy'
p76
F0.00820895522388
sS'relationship_advice'
p77
F0.0130126615611
sS'watchpeopledie'
p78
F0.0081327939275100004
sS'sixwordstories'
p79
F0.0075986260018699996
sS'whatstheword'
p80
F0.0073060205308400003
sS'IWantOut'
p81
F0.0074584857866600001
sS'amiugly'
p82
F0.0095778808650099998
sS'TrueReddit'
p83
F0.0072500932487899999
sS'confession'
p84
F0.048764629388800003
sS'misc'
p85
F0.0074431703882499997
sS'rant'
p86
F0.017141153674200001
sS'incest'
p87
F0.0076990237320399999
sS'RandomKindness'
p88
F0.0070324518350300003
sS'TrollXChromosomes'
p89
F0.0076299159050600002
sS'tifu'
p90
F0.0073093670777099997
sS'FiftyFifty'
p91
F0.00769507926704
sS'CrazyIdeas'
p92
F0.0091560148671899991
sS'Bad_Cop_No_Donut'
p93
F0.0092973890893700006
sS'OutOfTheLoop'
p94
F0.0095847347710400002
sS'EatCheapAndHealthy'
p95
F0.0071428571428599997
sS'MorbidReality'
p96
F0.0118923528854
sS'firstimpression'
p97
F0.0090628218331599997
sS'shittyadvice'
p98
F0.0090782122904999995
sS'raisedbynarcissists'
p99
F0.0107626185486
sS'happy'
p100
F0.0098886660673499997
sS'fatlogic'
p101
F0.0082628903807999993
sS'TrollYChromosome'
p102
F0.0074037781044200002
sS'misleadingthumbnails'
p103
F0.0071031899780399999
sS'mildlyinfuriating'
p104
F0.0078073289608300003
sS'Thetruthishere'
p105
F0.0083509513742100003
sS'introvert'
p106
F0.0082267594046799997
sS'TheGirlSurvivalGuide'
p107
F0.00720106120902
sS'shittyaskreddit'
p108
F0.0099184916036499995
sS'AskMen'
p109
F0.0096717665296200007
sS'ghettoglamourshots'
p110
F0.0098004900244999995
sS'blunderyears'
p111
F0.0114775725594
sS'rage'
p112
F0.0102898183743
sS'thatHappened'
p113
F0.0096516824127200005
sS'TheRedPill'
p114
F0.0090307641415799996
sS'offbeat'
p115
F0.0082912867723000001
sS'Glitch_in_the_Matrix'
p116
F0.0094089124913400001
sS'Needafriend'
p117
F0.0072138505931399997
sS'changemyview'
p118
F0.0089303085723200001
sS'fullmoviesonyoutube'
p119
F0.0077867902665099999
sS'NewsOfTheStupid'
p120
F0.0113131740326
sS'TrueAskReddit'
p121
F0.0086044071353600007
sS'FanTheories'
p122
F0.0075363005050500002
sS'AnythingGoesNews'
p123
F0.0073231185218599996
sS'TalesFromYourServer'
p124
F0.0089132444209699992
sS'asktrp'
p125
F0.0072609923356199996
sS'ForeverAlone'
p126
F0.0112713610471
sS'self'
p127
F0.014997154240199999
sS'shittyama'
p128
F0.0096205649195699999
sS'Parenting'
p129
F0.0081033727551499991
sS'badtattoos'
p130
F0.0104596556141
sS'Gore'
p131
F0.0081740187799800006
sS'UnresolvedMysteries'
p132
F0.0091243674283099999
sS'howtonotgiveafuck'
p133
F0.0102931666307
sS'Whatcouldgowrong'
p134
F0.0077915026469400003
sS'notinteresting'
p135
F0.0071477317625099996
sS'DAE'
p136
F0.0119866378463
sS'AnimalsBeingJerks'
p137
F0.0080721914766100009
sS'SuicideWatch'
p138
F0.0075811904518
sS'short'
p139
F0.0083310937919900008
sS'dating_advice'
p140
F0.0074044225054100002
sS'HumanPorn'
p141
F0.0075682992862400001
sS'ImGoingToHellForThis'
p142
F0.00721345777925
sS'needadvice'
p143
F0.0132807516093
s.