(dp1
S'climateskeptics'
p2
F0.031783681214399999
sS'NewsOfTheStupid'
p3
F0.00851788756388
sS'AmIFreeToGo'
p4
F0.0086071987480399997
sS'inthenews'
p5
F0.014378478664200001
sS'Conservative'
p6
F0.035372920900099997
sS'POLITIC'
p7
F0.0212615166549
sS'PoliticalDiscussion'
p8
F0.016065547433499999
sS'ShitPoliticsSays'
p9
F0.036954585930500002
sS'Firearms'
p10
F0.0070735881346300003
sS'AnythingGoesNews'
p11
F0.0138067061144
sS'badhistory'
p12
F0.0073588593767999998
sS'Israel'
p13
F0.00768027307638
sS'ShitRConservativeSays'
p14
F0.041173686701400002
sS'religion'
p15
F0.0079011345218799999
sS'Shitstatistssay'
p16
F0.016793893129800001
sS'TrueChristian'
p17
F0.010477894198800001
sS'911truth'
p18
F0.00881834215168
sS'SRSsucks'
p19
F0.00819508295023
sS'FutureWhatIf'
p20
F0.0075361105296200001
sS'economy'
p21
F0.0115059221658
sS'PanicHistory'
p22
F0.0084947332653800001
sS'BasicIncome'
p23
F0.0079519879970000006
sS'collapse'
p24
F0.0081252477209699994
sS'occupywallstreet'
p25
F0.0092964824120600007
sS'Economics'
p26
F0.0082367137086199992
sS'DebateAChristian'
p27
F0.0091352009744200009
sS'gunpolitics'
p28
F0.019461077844300002
sS'DebateAnAtheist'
p29
F0.0070934256055399996
sS'EnoughLibertarianSpam'
p30
F0.0104887770086
sS'lostgeneration'
p31
F0.0096749811035499993
sS'PoliticalHumor'
p32
F0.0139042502765
sS'NeutralPolitics'
p33
F0.0152671755725
sS'GunsAreCool'
p34
F0.0124280084874
sS'Republican'
p35
F0.069957601453700002
sS'Liberal'
p36
F0.0302540415704
sS'progressive'
p37
F0.019800214056399999
sS'worldpolitics'
p38
F0.0085492638133900008
sS'progun'
p39
F0.018982676004400002
sS'socialism'
p40
F0.0092583568852899999
sS'Ask_Politics'
p41
F0.0117212936835
sS'Libertarian'
p42
F0.0148716210491
sS'Anarcho_Capitalism'
p43
F0.0115193403662
sS'WhiteRights'
p44
F0.011969532100099999
s.