(dp1
S'incremental_games'
p2
F0.051996187652200002
sS'patientgamers'
p3
F0.0071817991193100002
sS'perfectloops'
p4
F0.0080130583172599995
sS'counting'
p5
F0.0119561308882
sS'homestuck'
p6
F0.00962089107777
sS'techsupportmacgyver'
p7
F0.0070075266026500002
sS'quityourbullshit'
p8
F0.00715952055346
sS'OutOfTheLoop'
p9
F0.0078374191196600006
sS'outside'
p10
F0.0086147821830600008
sS'mindcrack'
p11
F0.0073773987206800003
sS'Portal'
p12
F0.00961663417804
sS'misleadingthumbnails'
p13
F0.010462835137699999
sS'WebGames'
p14
F0.01227154047
sS'SCP'
p15
F0.0096695226438200006
sS'Enhancement'
p16
F0.0082423038728899993
sS'talesfromtechsupport'
p17
F0.0070814600852599999
sS'explainlikeIAmA'
p18
F0.0070621468926599998
sS'notinteresting'
p19
F0.0079947976436400003
sS'Terraria'
p20
F0.010949967965500001
sS'bindingofisaac'
p21
F0.0087320868983500003
sS'classic4chan'
p22
F0.0071994240460800003
sS'shittyaskscience'
p23
F0.0071936652798299996
sS'GamePhysics'
p24
F0.0096247642583099993
sS'ftlgame'
p25
F0.0093212237093700002
sS'Minecraft'
p26
F0.0079676985195200004
sS'Cubers'
p27
F0.00813124108417
sS'techsupportgore'
p28
F0.0072373540855999998
sS'feedthebeast'
p29
F0.0086064607403900008
sS'Perfectfit'
p30
F0.0075024857633599999
sS'CrappyDesign'
p31
F0.00739232314216
sS'behindthegifs'
p32
F0.0092027711715399994
sS'softwaregore'
p33
F0.0111059262716
sS'wheredidthesodago'
p34
F0.0085573616755200005
sS'minecraftsuggestions'
p35
F0.0090493334630700004
sS'speedrun'
p36
F0.0087826485413199998
s.