(dp1
S'FancyFollicles'
p2
F0.013305378598499999
sS'awwwtf'
p3
F0.0101165603695
sS'MapPorn'
p4
F0.0076640209713800004
sS'Justrolledintotheshop'
p5
F0.0089994842702400008
sS'DoesAnybodyElse'
p6
F0.0095414852356800004
sS'pettyrevenge'
p7
F0.0097245730112299998
sS'CityPorn'
p8
F0.0089821896011900004
sS'Shitty_Car_Mods'
p9
F0.0089610841961899994
sS'fffffffuuuuuuuuuuuu'
p10
F0.0106110501281
sS'rickandmorty'
p11
F0.0074569402229000001
sS'dadjokes'
p12
F0.010518607283099999
sS'goldenretrievers'
p13
F0.012530315278900001
sS'futurama'
p14
F0.0119407020232
sS'perfectloops'
p15
F0.010086541330899999
sS'everymanshouldknow'
p16
F0.0075639527334099999
sS'Pets'
p17
F0.011844331641300001
sS'carporn'
p18
F0.0086344265332599993
sS'TalesFromRetail'
p19
F0.010216905604199999
sS'AnimalsBeingJerks'
p20
F0.018074722315699999
sS'quityourbullshit'
p21
F0.0118737742913
sS'LearnUselessTalents'
p22
F0.0083429085277499995
sS'holdmybeer'
p23
F0.010101749505900001
sS'harrypotter'
p24
F0.010743353228399999
sS'HistoryPorn'
p25
F0.0096082626944300007
sS'woahdude'
p26
F0.0086625027655299995
sS'Fallout'
p27
F0.0075416127448800002
sS'ImaginaryMonsters'
p28
F0.00744269127717
sS'adventuretime'
p29
F0.0107084284658
sS'gentlemanboners'
p30
F0.0122799119648
sS'MensRights'
p31
F0.0071959145775299998
sS'nononono'
p32
F0.010238471055
sS'offmychest'
p33
F0.0071398410809600001
sS'arresteddevelopment'
p34
F0.00917202221252
sS'childfree'
p35
F0.0111278011097
sS'food'
p36
F0.0079081330649900007
sS'cringepics'
p37
F0.0088020751040200004
sS'JusticePorn'
p38
F0.0083438923786200003
sS'UpliftingNews'
p39
F0.00786791584961
sS'PandR'
p40
F0.0106920455881
sS'geek'
p41
F0.010284463895
sS'spaceporn'
p42
F0.0088212927756700001
sS'wedding'
p43
F0.00806576702342
sS'toosoon'
p44
F0.0075954708488599997
sS'pugs'
p45
F0.0112117678716
sS'beards'
p46
F0.0104110085099
sS'PrettyGirlsUglyFaces'
p47
F0.0093279471171499994
sS'photoshopbattles'
p48
F0.0085745885108299991
sS'AbandonedPorn'
p49
F0.010297520122500001
sS'Rabbits'
p50
F0.0120089873712
sS'creepyPMs'
p51
F0.011343430008
sS'masseffect'
p52
F0.0070856314666500001
sS'WatchItForThePlot'
p53
F0.0084498541394199995
sS'Celebs'
p54
F0.0089288492051099993
sS'techsupportgore'
p55
F0.010162461112999999
sS'freebies'
p56
F0.010113326638899999
sS'CrappyDesign'
p57
F0.0122389285164
sS'thatHappened'
p58
F0.0098358713041399991
sS'CatsStandingUp'
p59
F0.0074845679012299996
sS'minimalism'
p60
F0.0072384542884099999
sS'whitepeoplegifs'
p61
F0.0111126354781
sS'ArcherFX'
p62
F0.010569993448399999
sS'StarWars'
p63
F0.0082493285430299997
sS'gardening'
p64
F0.0091540875803299993
sS'whatisthisthing'
p65
F0.0089093635237600007
sS'AskWomen'
p66
F0.0083818363956799993
sS'NetflixBestOf'
p67
F0.0097021008071900006
sS'tea'
p68
F0.0079232435778399998
sS'TheSimpsons'
p69
F0.010516212494300001
sS'redditgetsdrawn'
p70
F0.0075005314141699999
sS'tumblr'
p71
F0.013135558968600001
sS'interestingasfuck'
p72
F0.010753384725000001
sS'fatpeoplestories'
p73
F0.0095320623916800001
sS'Cinemagraphs'
p74
F0.0097477064220200006
sS'firstworldanarchists'
p75
F0.011313623591999999
sS'offbeat'
p76
F0.0107505643341
sS'gameofthrones'
p77
F0.00743972196076
sS'humor'
p78
F0.0098936564203000003
sS'entertainment'
p79
F0.0073452776812700004
sS'lotr'
p80
F0.0074367394243800003
sS'shittyfoodporn'
p81
F0.0123944673972
sS'ExpectationVsReality'
p82
F0.012213555837700001
sS'breakingbad'
p83
F0.0085656609744099999
sS'firstworldproblems'
p84
F0.011251871939099999
sS'outside'
p85
F0.0083807117287899996
sS'RoomPorn'
p86
F0.0122933079387
sS'foodhacks'
p87
F0.00902634897458
sS'catpictures'
p88
F0.0142549972127
sS'lifehacks'
p89
F0.010799230500199999
sS'memes'
p90
F0.0077777777777799997
sS'disney'
p91
F0.0113666684455
sS'SubredditDrama'
p92
F0.0090037009077399994
sS'tattoos'
p93
F0.0103416290039
sS'blackpeoplegifs'
p94
F0.0107470852602
sS'bestof'
p95
F0.0073272405018200001
sS'FloridaMan'
p96
F0.010353134129499999
sS'loseit'
p97
F0.0084124411514999997
sS'AnimalCrossing'
p98
F0.0093749999999999997
sS'delusionalartists'
p99
F0.010170174202000001
sS'lgbt'
p100
F0.0080258302583000006
sS'DunderMifflin'
p101
F0.0071056371387999999
sS'LadyBoners'
p102
F0.016718379266300001
sS'shittyaskscience'
p103
F0.0074459429473100001
sS'doctorwho'
p104
F0.0096237000243899994
sS'wallpaper'
p105
F0.0074257425742599997
sS'lewronggeneration'
p106
F0.0076878276062900004
sS'BuyItForLife'
p107
F0.00801547816473
sS'youtubehaiku'
p108
F0.0081292585846299992
sS'ThriftStoreHauls'
p109
F0.0077114722980199998
sS'calvinandhobbes'
p110
F0.0105912884899
sS'Frugal'
p111
F0.0088940933740400008
sS'recipes'
p112
F0.0081604103520600008
sS'4chan'
p113
F0.0076257818874100004
sS'itookapicture'
p114
F0.0109616702124
sS'wheredidthesodago'
p115
F0.013349556752999999
sS'AnimalsBeingBros'
p116
F0.0216874135546
sS'Images'
p117
F0.0083647324792800008
sS'Dachshund'
p118
F0.010796221322500001
sS'Whatcouldgowrong'
p119
F0.010608904181
sS'whatsthisbug'
p120
F0.0072388383181600001
sS'QuotesPorn'
p121
F0.010541578493600001
sS'weddingplanning'
p122
F0.0088384558362300004
sS'drunk'
p123
F0.0090384132563399999
sS'xxfitness'
p124
F0.0077774177121399998
sS'puppy101'
p125
F0.011822125813399999
sS'ANormalDayInRussia'
p126
F0.0090528848908500003
sS'reactiongifs'
p127
F0.0110127062569
sS'cosplay'
p128
F0.0127098697631
sS'community'
p129
F0.0084462538737300006
sS'KingOfTheHill'
p130
F0.0071391258923900001
sS'IdiotsFightingThings'
p131
F0.010235683166200001
sS'conspiratard'
p132
F0.0082107423879599992
sS'startrek'
p133
F0.0070660522273399999
sS'TrollXChromosomes'
p134
F0.014156386627
sS'Unexpected'
p135
F0.0110137357018
sS'ContagiousLaughter'
p136
F0.0085294265215000008
sS'femalefashionadvice'
p137
F0.0077501709596499999
sS'nostalgia'
p138
F0.014102941657699999
sS'TheLastAirbender'
p139
F0.0072958140535899999
sS'Damnthatsinteresting'
p140
F0.012121911798699999
sS'HIMYM'
p141
F0.0074443314859099999
sS'FiftyFifty'
p142
F0.0078794615289599999
sS'CrazyIdeas'
p143
F0.0090990238705400007
sS'OldSchoolCool'
p144
F0.0070809463977700004
sS'lego'
p145
F0.0079556499514000008
sS'OutOfTheLoop'
p146
F0.0087572358516599998
sS'EatCheapAndHealthy'
p147
F0.0101278122431
sS'onetruegod'
p148
F0.0076390890746600004
sS'GamePhysics'
p149
F0.0090403337969399995
sS'MorbidReality'
p150
F0.0077461269365300001
sS'gif'
p151
F0.0121919584955
sS'cats'
p152
F0.0158829714623
sS'PenmanshipPorn'
p153
F0.0120156348019
sS'shittyreactiongifs'
p154
F0.0089408032302300006
sS'misleadingthumbnails'
p155
F0.010192724503500001
sS'ketorecipes'
p156
F0.0079158861562600002
sS'raisedbynarcissists'
p157
F0.0070582725630599997
sS'Pareidolia'
p158
F0.0128392837031
sS'dogs'
p159
F0.017902813299200002
sS'keto'
p160
F0.00755108084098
sS'happy'
p161
F0.013026676639199999
sS'fatlogic'
p162
F0.010932811480799999
sS'TrollYChromosome'
p163
F0.013884696649600001
sS'alternativeart'
p164
F0.0080515297906599993
sS'MakeupAddiction'
p165
F0.010894758025300001
sS'batman'
p166
F0.0093891939529500007
sS'mildlyinfuriating'
p167
F0.0120751935127
sS'somethingimade'
p168
F0.0109247154546
sS'germanshepherds'
p169
F0.0099990385539899997
sS'TopGear'
p170
F0.0083637061193200003
sS'Awwducational'
p171
F0.0202734012975
sS'TheGirlSurvivalGuide'
p172
F0.0095828312388800008
sS'ghettoglamourshots'
p173
F0.0094137455992699993
sS'blunderyears'
p174
F0.0128194592818
sS'Marvel'
p175
F0.0081773812986800001
sS'showerbeer'
p176
F0.0077781039037300003
sS'rage'
p177
F0.0111244337863
sS'comics'
p178
F0.010897326749500001
sS'popping'
p179
F0.0107840752453
sS'Perfectfit'
p180
F0.0099714106408199995
sS'PerfectTiming'
p181
F0.013636556134299999
sS'behindthegifs'
p182
F0.0137034901769
sS'standupshots'
p183
F0.0123100199436
sS'lookatmydog'
p184
F0.018807897445499999
sS'fullmoviesonyoutube'
p185
F0.0072338959696899999
sS'FoodPorn'
p186
F0.0134621792736
sS'awesome'
p187
F0.0075295236585599997
sS'Cooking'
p188
F0.0095676172953099992
sS'Aquariums'
p189
F0.0072158749248299996
sS'IASIP'
p190
F0.0085429520645500003
sS'polandball'
p191
F0.00723475013857
sS'YouShouldKnow'
p192
F0.0093304471150299998
sS'Dogtraining'
p193
F0.012953367875600001
sS'shorthairedhotties'
p194
F0.0077489933905600002
sS'southpark'
p195
F0.0091931897381399997
sS'shutupandtakemymoney'
p196
F0.0110586533963
sS'TalesFromYourServer'
p197
F0.0073783172676400001
sS'hardbodies'
p198
F0.0078725160307299997
sS'MURICA'
p199
F0.0107100010906
sS'eatsandwiches'
p200
F0.0072157826053600004
sS'HighQualityGifs'
p201
F0.0107071713147
sS'self'
p202
F0.0075602116859300001
sS'pitbulls'
p203
F0.011171960569600001
sS'zelda'
p204
F0.0074735755720800002
sS'badtattoos'
p205
F0.0097470854303400006
sS'talesfromtechsupport'
p206
F0.00796485076727
sS'scifi'
p207
F0.0070336391437299996
sS'slowcooking'
p208
F0.0097565551855200005
sS'RedditLaqueristas'
p209
F0.014031931639299999
sS'nottheonion'
p210
F0.0070204998595900002
sS'nonononoyes'
p211
F0.0111375535459
sS'Autos'
p212
F0.00723713968502
sS'wallpapers'
p213
F0.0093782154931599995
sS'firefly'
p214
F0.0094296750738499992
sS'Baking'
p215
F0.0109319321133
sS'notinteresting'
p216
F0.0093836058885500007
sS'facepalm'
p217
F0.01171029942
sS'forwardsfromgrandma'
p218
F0.0102503542749
sS'aww'
p219
F0.0083944197527499997
sS'sewing'
p220
F0.0075521022438499999
sS'mylittlepony'
p221
F0.0081556732007399997
sS'progresspics'
p222
F0.0109544628383
sS'crochet'
p223
F0.0086414138132700005
sS'dogpictures'
p224
F0.0245533001094
sS'comicbooks'
p225
F0.0081441782261499999
sS'thesims'
p226
F0.0078777128547599991
sS'oddlysatisfying'
p227
F0.011859533833000001
sS'GirlGamers'
p228
F0.0075365320446400003
sS'cosplaygirls'
p229
F0.010307536329800001
sS'HumanPorn'
p230
F0.0105404799282
sS'terriblefacebookmemes'
p231
F0.0072078631234100002
sS'PrettyGirls'
p232
F0.0081408671531099999
sS'TumblrInAction'
p233
F0.0092607615790699996
sS'secretsanta'
p234
F0.0081693040010299995
sS'crafts'
p235
F0.0088456758535000006
sS'tall'
p236
F0.0073608137044999999
sS'ImGoingToHellForThis'
p237
F0.0079623841345099998
sS'SkincareAddiction'
p238
F0.00894673691898
sS'EmmaWatson'
p239
F0.0084064597006100004
s.