(dp1
S'HalfLife'
p2
F0.018191214470300001
sS'truetf2'
p3
F0.0079092517431599996
sS'pcgaming'
p4
F0.013815912929299999
sS'MechanicalKeyboards'
p5
F0.013926652961099999
sS'ShouldIbuythisgame'
p6
F0.0096924794478800008
sS'hardware'
p7
F0.0081090063143900003
sS'sgsflair'
p8
F0.0070856438693800003
sS'battlestations'
p9
F0.0126532571229
sS'starcraft'
p10
F0.0083718576784200006
sS'gamingpc'
p11
F0.013171385755999999
sS'gamernews'
p12
F0.0077936727682899999
sS'ContagiousLaughter'
p13
F0.0086468276249299994
sS'airsoft'
p14
F0.0071237127944700001
sS'bestofworldstar'
p15
F0.0070169842915200004
sS'Portal'
p16
F0.0089988751406099993
sS'tf2'
p17
F0.011763139204500001
sS'GlobalOffensive'
p18
F0.032623857261799998
sS'techsupportmacgyver'
p19
F0.0087195600942699993
sS'truegaming'
p20
F0.0084831829858400005
sS'quityourbullshit'
p21
F0.0076415021887700002
sS'ANormalDayInRussia'
p22
F0.0081438530197400008
sS'outside'
p23
F0.0082763084889999998
sS'CableManagement'
p24
F0.0076851420586899998
sS'shittybattlestations'
p25
F0.0119760479042
sS'battlefield_4'
p26
F0.0082080779242599995
sS'Rainmeter'
p27
F0.0081376258119799996
sS'pcmasterrace'
p28
F0.0093414514995200006
sS'esports'
p29
F0.0131459065469
sS'GlobalOffensiveTrade'
p30
F0.028186499907999998
sS'Whatcouldgowrong'
p31
F0.0072864252522799999
sS'arma'
p32
F0.012881307948199999
sS'CombatFootage'
p33
F0.0075666586596199997
sS'GTA'
p34
F0.0093015665796299992
sS'paydaytheheist'
p35
F0.0115286286238
sS'buildapcsales'
p36
F0.0082072425998699992
sS'GiftofGames'
p37
F0.0113571834185
sS'battlefield3'
p38
F0.013587862620900001
sS'titanfall'
p39
F0.0076443639462999997
sS'CallOfDuty'
p40
F0.0084330575857400007
sS'tf2trade'
p41
F0.0098478853424799999
sS'ftlgame'
p42
F0.0073353184690200003
sS'softwaregore'
p43
F0.0084632143455699999
sS'Games'
p44
F0.0072637129141400001
sS'gmod'
p45
F0.011710794297400001
sS'playrust'
p46
F0.0123900685098
sS'GamePhysics'
p47
F0.011000967118000001
sS'Twitch'
p48
F0.0095682041216900004
sS'Steam'
p49
F0.016168868853999999
sS'RandomActsOfGaming'
p50
F0.0117625300536
sS'lewronggeneration'
p51
F0.0071041948579200001
sS'overclocking'
p52
F0.0074618298702799997
sS'Battlefield'
p53
F0.0133299154063
sS'youtubehaiku'
p54
F0.0079546692818999992
sS'dayz'
p55
F0.011532691586399999
sS'techsupportgore'
p56
F0.0094659560988300008
sS'TF2fashionadvice'
p57
F0.0074441687344900002
sS'nononono'
p58
F0.0072467156014800003
sS'4chan'
p59
F0.0075491866252499996
sS'SteamGameSwap'
p60
F0.0112910097997
sS'montageparodies'
p61
F0.0134936579807
sS'classic4chan'
p62
F0.0098598435462800005
sS'DeepIntoYouTube'
p63
F0.0081976054363100005
sS'GameDeals'
p64
F0.0074370397308800001
sS'wallpapers'
p65
F0.0080778984940000007
sS'speedrun'
p66
F0.0086092251697300008
s.