(dp1
S'TagPro'
p2
F0.0116648209671
sS'HomeworkHelp'
p3
F0.0070567102899700002
sS'RandomActsOfGaming'
p4
F0.012639223490799999
sS'help'
p5
F0.00760425183974
sS'DoesAnybodyElse'
p6
F0.0074705741052100002
sS'pettyrevenge'
p7
F0.0090528813136000006
sS'cringepics'
p8
F0.0080447708989200006
sS'LucidDreaming'
p9
F0.0077988712160099996
sS'fffffffuuuuuuuuuuuu'
p10
F0.0074061315880099999
sS'dogemarket'
p11
F0.0070956691950100001
sS'dadjokes'
p12
F0.013882289050299999
sS'SampleSize'
p13
F0.0091947417570600008
sS'perfectloops'
p14
F0.013316071758800001
sS'everymanshouldknow'
p15
F0.0078516759039299992
sS'dataisbeautiful'
p16
F0.010827173530400001
sS'InternetIsBeautiful'
p17
F0.012187453211600001
sS'MLPLounge'
p18
F0.0073233542571999998
sS'TalesFromRetail'
p19
F0.0070153210858500004
sS'TheoryOfReddit'
p20
F0.0118841082582
sS'WouldYouRather'
p21
F0.0079883805373999993
sS'quityourbullshit'
p22
F0.014144425859900001
sS'LearnUselessTalents'
p23
F0.0116589625064
sS'Showerthoughts'
p24
F0.0080284411334699997
sS'shittybattlestations'
p25
F0.0076792498585400003
sS'whowouldwin'
p26
F0.0104193936855
sS'woahdude'
p27
F0.010286956447300001
sS'FreeKarma'
p28
F0.0116652957452
sS'AlienBlue'
p29
F0.0070629782224799998
sS'Frisson'
p30
F0.010122263292599999
sS'YouShouldKnow'
p31
F0.0089366629745199992
sS'misc'
p32
F0.0070270270270299997
sS'JusticePorn'
p33
F0.0072373414290400001
sS'softwaregore'
p34
F0.0156597892237
sS'patientgamers'
p35
F0.0083173384517000008
sS'nottheonion'
p36
F0.0076923076923099999
sS'NoStupidQuestions'
p37
F0.0123420511314
sS'3amjokes'
p38
F0.010964536577
sS'toosoon'
p39
F0.0078648412467199995
sS'Steam'
p40
F0.00852000891324
sS'Braveryjerk'
p41
F0.0094181275643400002
sS'photoshopbattles'
p42
F0.0112909790329
sS'AbandonedPorn'
p43
F0.0071951944022699997
sS'techsupportgore'
p44
F0.0097684388066999993
sS'freebies'
p45
F0.00771835293261
sS'nononono'
p46
F0.0112927839547
sS'CrappyDesign'
p47
F0.014344102257
sS'thatHappened'
p48
F0.0126577216101
sS'futurama'
p49
F0.0080289961460800006
sS'montageparodies'
p50
F0.010951090831299999
sS'minimalism'
p51
F0.0076447312819300003
sS'DeepIntoYouTube'
p52
F0.012895195419500001
sS'fifthworldproblems'
p53
F0.0114240865091
sS'cringe'
p54
F0.0081974617226000003
sS'mildlyinteresting'
p55
F0.0076472455487300002
sS'google'
p56
F0.00725478816019
sS'whatisthisthing'
p57
F0.0087831013130700002
sS'glitch_art'
p58
F0.0085512660855100002
sS'SubredditDrama'
p59
F0.012773178190500001
sS'tumblr'
p60
F0.0090726220288199991
sS'interestingasfuck'
p61
F0.011168988096200001
sS'MarkMyWords'
p62
F0.0115189546978
sS'changemyview'
p63
F0.0105016390943
sS'KarmaCourt'
p64
F0.0122246918569
sS'Cinemagraphs'
p65
F0.0071830568720400003
sS'notinteresting'
p66
F0.023769457299099999
sS'firstworldanarchists'
p67
F0.0160556257901
sS'forwardsfromgrandma'
p68
F0.011910525806099999
sS'no_sob_story'
p69
F0.0112802148612
sS'space'
p70
F0.0082648835788499998
sS'shittyfoodporn'
p71
F0.0083807333898099998
sS'ExpectationVsReality'
p72
F0.0076250697414900004
sS'breakingbad'
p73
F0.0086809875314499997
sS'firstworldproblems'
p74
F0.0091032664661999992
sS'outside'
p75
F0.017480697492799999
sS'mindcrack'
p76
F0.010805238440700001
sS'facepalm'
p77
F0.0099178505542299993
sS'lifehacks'
p78
F0.0074428027216900004
sS'pcmasterrace'
p79
F0.0077879234167899996
sS'vexillology'
p80
F0.0128531432935
sS'CatsStandingUp'
p81
F0.013546202225399999
sS'Enhancement'
p82
F0.0119844357977
sS'bestof'
p83
F0.011913566674
sS'ProgrammerHumor'
p84
F0.0127452778287
sS'CookieClicker'
p85
F0.0119561308882
sS'needamod'
p86
F0.015980986723499999
sS'casualiama'
p87
F0.013030450839699999
sS'FloridaMan'
p88
F0.0095568157949999996
sS'delusionalartists'
p89
F0.0089676854094700009
sS'answers'
p90
F0.0091215182124299993
sS'promos'
p91
F0.0089693687595200008
sS'CrazyIdeas'
p92
F0.016292200917499999
sS'NotTimAndEric'
p93
F0.0072917999232399999
sS'shittyaskscience'
p94
F0.016465256797600001
sS'GamePhysics'
p95
F0.0104475970527
sS'lewronggeneration'
p96
F0.012967382657100001
sS'worldbuilding'
p97
F0.0076327116212300001
sS'WritingPrompts'
p98
F0.0088829516189000007
sS'RedditDayOf'
p99
F0.0086014390869199996
sS'4chan'
p100
F0.0115827148566
sS'math'
p101
F0.0108084738435
sS'dogecoin'
p102
F0.0096120342669000006
sS'wheredidthesodago'
p103
F0.014225053078599999
sS'classic4chan'
p104
F0.0123269896194
sS'ANormalDayInRussia'
p105
F0.0091343037303299995
sS'QuotesPorn'
p106
F0.0075265819760299999
sS'TrueReddit'
p107
F0.0078824224251500003
sS'reactiongifs'
p108
F0.0080917997534500005
sS'AntiJokes'
p109
F0.011895321173699999
sS'findareddit'
p110
F0.011776
sS'incremental_games'
p111
F0.0097141051966500008
sS'IdiotsFightingThings'
p112
F0.010123310537900001
sS'conspiratard'
p113
F0.0098265316354200008
sS'ContagiousLaughter'
p114
F0.0104579877389
sS'tf2'
p115
F0.0089712918660300005
sS'Damnthatsinteresting'
p116
F0.011163774530900001
sS'FiftyFifty'
p117
F0.0101979453771
sS'csshelp'
p118
F0.0078773238105200004
sS'MechanicalKeyboards'
p119
F0.0081331331331300008
sS'AskHistorians'
p120
F0.0075695789580999999
sS'lego'
p121
F0.0072118904671299999
sS'chrome'
p122
F0.0072578516759000001
sS'Minecraft'
p123
F0.0115345091542
sS'OutOfTheLoop'
p124
F0.017811209822100001
sS'onetruegod'
p125
F0.0093492894539999993
sS'MorbidReality'
p126
F0.0073699919641799999
sS'PenmanshipPorn'
p127
F0.0097599447922299999
sS'shittyreactiongifs'
p128
F0.0094924882278199993
sS'misleadingthumbnails'
p129
F0.014529604068300001
sS'shittyadvice'
p130
F0.0081838884144599996
sS'Rainmeter'
p131
F0.0070229202579299996
sS'Pareidolia'
p132
F0.0099849936511600002
sS'holdmybeer'
p133
F0.0097582777757100007
sS'explainlikeIAmA'
p134
F0.0164980650418
sS'Unexpected'
p135
F0.0131871623769
sS'WebGames'
p136
F0.0153544135175
sS'mildlyinfuriating'
p137
F0.013170608434500001
sS'ftlgame'
p138
F0.0075305115554399997
sS'oddlysatisfying'
p139
F0.013761150681100001
sS'youtubehaiku'
p140
F0.012048192771100001
sS'Awwducational'
p141
F0.0086572438162500001
sS'shittyaskreddit'
p142
F0.010952128599200001
sS'blunderyears'
p143
F0.0074213049822799996
sS'Cubers'
p144
F0.0081317340923000008
sS'rage'
p145
F0.0098858974646399995
sS'comics'
p146
F0.0097106472945399994
sS'Perfectfit'
p147
F0.0113439306358
sS'PerfectTiming'
p148
F0.010297729329099999
sS'behindthegifs'
p149
F0.0154788924194
sS'standupshots'
p150
F0.0096244377026899995
sS'civ'
p151
F0.0101816778054
sS'KerbalSpaceProgram'
p152
F0.0110878272633
sS'Glitch_in_the_Matrix'
p153
F0.0096913914455899995
sS'ICanDrawThat'
p154
F0.0073898494143900002
sS'fullmoviesonyoutube'
p155
F0.00743314567206
sS'AskScienceFiction'
p156
F0.0079804161566700005
sS'teenagers'
p157
F0.0112142566743
sS'TrueAskReddit'
p158
F0.0082837173181500006
sS'FanTheories'
p159
F0.0079284177143499994
sS'tipofmytongue'
p160
F0.0098858371939100007
sS'learnprogramming'
p161
F0.0078577532997799997
sS'polandball'
p162
F0.013427014796500001
sS'techsupportmacgyver'
p163
F0.0071587433972800001
sS'MURICA'
p164
F0.010535363999
sS'HighQualityGifs'
p165
F0.0089045483664299992
sS'self'
p166
F0.0095945612544200004
sS'shittyama'
p167
F0.015286171347300001
sS'circlebroke'
p168
F0.0088609307359300005
sS'TumblrInAction'
p169
F0.010306945876
sS'spaceporn'
p170
F0.0094118870573599994
sS'nonononoyes'
p171
F0.013369933796200001
sS'Whatcouldgowrong'
p172
F0.0106652587117
sS'wallpapers'
p173
F0.0084917466181999995
sS'talesfromtechsupport'
p174
F0.0109022308992
sS'MapPorn'
p175
F0.0107027724049
sS'GiftofGames'
p176
F0.010450218309399999
sS'Portal'
p177
F0.0073034240728399999
sS'AnimalsBeingJerks'
p178
F0.0077204388459999997
sS'askscience'
p179
F0.0085120254998600001
sS'Futurology'
p180
F0.0075450024149199997
sS'nerdcubed'
p181
F0.0077176212489200001
sS'Terraria'
p182
F0.0073778664008000002
sS'Physics'
p183
F0.0078388076179999999
sS'Jokes'
p184
F0.0080096990897200009
sS'youtube'
p185
F0.0081597329541900007
sS'HumanPorn'
p186
F0.0072946582423900003
sS'terriblefacebookmemes'
p187
F0.0089960689446600007
sS'sixwordstories'
p188
F0.0089335566722499992
sS'minecraftsuggestions'
p189
F0.0096990988238899994
sS'HailCorporate'
p190
F0.0085606500290199995
sS'ImGoingToHellForThis'
p191
F0.0084662976229199997
sS'GifSound'
p192
F0.0080778410134000004
s.