(dp1
S'breastfeeding'
p2
F0.0113756868794
sS'IDAP'
p3
F0.010886632471500001
sS'awwwtf'
p4
F0.0115751983163
sS'Awwducational'
p5
F0.0148511775306
sS'DoesAnybodyElse'
p6
F0.0085051104193700003
sS'pettyrevenge'
p7
F0.0112903743144
sS'ABraThatFits'
p8
F0.0166848588804
sS'adventuretime'
p9
F0.0086991434689499998
sS'ArtisanVideos'
p10
F0.0074281941234699998
sS'randomactsofamazon'
p11
F0.0071428571428599997
sS'BuyItForLife'
p12
F0.0084963303083999998
sS'woodworking'
p13
F0.0112886356259
sS'Pets'
p14
F0.015033151710099999
sS'entwives'
p15
F0.013547076089399999
sS'RandomActsofMakeup'
p16
F0.016590027950599998
sS'BeardPorn'
p17
F0.0074649759689100004
sS'TalesFromRetail'
p18
F0.0107735867166
sS'BabyBumps'
p19
F0.015306122449000001
sS'TheWayWeWere'
p20
F0.0098393211771100001
sS'buffy'
p21
F0.0074103745243300004
sS'Anticonsumption'
p22
F0.0082150858849900001
sS'harrypotter'
p23
F0.013466306062700001
sS'booksuggestions'
p24
F0.0089808067330399994
sS'offmychest'
p25
F0.0084921265483199997
sS'Anxiety'
p26
F0.0102145887392
sS'RandomActsOfPolish'
p27
F0.015196015834500001
sS'childfree'
p28
F0.0125523012552
sS'AnimalCrossing'
p29
F0.0073628204439199997
sS'food'
p30
F0.0071779102004399997
sS'recipes'
p31
F0.017154288572099999
sS'horror'
p32
F0.0076276914164299997
sS'UnresolvedMysteries'
p33
F0.0072220981311900004
sS'howto'
p34
F0.015284119736200001
sS'AbandonedPorn'
p35
F0.0079357004781799995
sS'xxketo'
p36
F0.0131182270024
sS'pugs'
p37
F0.0071565366394499997
sS'NoStupidQuestions'
p38
F0.0076649001467099997
sS'wedding'
p39
F0.015339284166699999
sS'makeupexchange'
p40
F0.0111242819367
sS'mycology'
p41
F0.0072972473674499999
sS'PrettyGirlsUglyFaces'
p42
F0.0076829761423400002
sS'homestead'
p43
F0.012254443405100001
sS'Rabbits'
p44
F0.0115929583512
sS'IWantToLearn'
p45
F0.00962873393345
sS'Art'
p46
F0.0086926906796799992
sS'creepyPMs'
p47
F0.010678652258499999
sS'penpals'
p48
F0.0074299725091
sS'freebies'
p49
F0.013343384847300001
sS'CrappyDesign'
p50
F0.0081616481774999996
sS'minimalism'
p51
F0.0091251735766700003
sS'corgi'
p52
F0.0088456758535000006
sS'getdisciplined'
p53
F0.0071579632340999996
sS'Paleo'
p54
F0.0092502154553300003
sS'gardening'
p55
F0.021683014971599999
sS'BackYardChickens'
p56
F0.0092139024959200008
sS'AskWomen'
p57
F0.011506140917900001
sS'NetflixBestOf'
p58
F0.00765513871546
sS'Cumberbitches'
p59
F0.0079842629021100002
sS'redditgetsdrawn'
p60
F0.0119610393731
sS'Paranormal'
p61
F0.0070272449743699998
sS'tumblr'
p62
F0.0076255030713799996
sS'interestingasfuck'
p63
F0.0077148791665299999
sS'TwoXChromosomes'
p64
F0.0099309220141799992
sS'fatpeoplestories'
p65
F0.0073139740291900002
sS'Baking'
p66
F0.0315691116599
sS'Feminism'
p67
F0.0072394481628200004
sS'cosplay'
p68
F0.0113776898343
sS'psychology'
p69
F0.0081519994864899994
sS'shittyfoodporn'
p70
F0.0094948491994499996
sS'InteriorDesign'
p71
F0.016563292923599999
sS'ExpectationVsReality'
p72
F0.0164376356105
sS'RandomKindness'
p73
F0.014009627128399999
sS'LearnUselessTalents'
p74
F0.0087522681182599996
sS'AskCulinary'
p75
F0.0120170286145
sS'RoomPorn'
p76
F0.0087623220153300006
sS'foodhacks'
p77
F0.013246961205300001
sS'lifehacks'
p78
F0.011269823416900001
sS'disney'
p79
F0.015633980917299999
sS'tattoos'
p80
F0.010548694067599999
sS'facepalm'
p81
F0.0077266209972899997
sS'tonightsdinner'
p82
F0.0085598116841400004
sS'OnceUponATime'
p83
F0.0075548749361900001
sS'LetsNotMeet'
p84
F0.0082366348943199996
sS'delusionalartists'
p85
F0.0099478410496300004
sS'Random_Acts_Of_Pizza'
p86
F0.0070916518923899996
sS'PolishGauntlet'
p87
F0.0085922955749700002
sS'Frugal'
p88
F0.014368882166600001
sS'LadyBoners'
p89
F0.0189048239896
sS'doctorwho'
p90
F0.0088001276702499992
sS'whatsthisplant'
p91
F0.012692527096399999
sS'keto'
p92
F0.0087231546191899999
sS'ThriftStoreHauls'
p93
F0.023725720245100002
sS'Breadit'
p94
F0.0103053067514
sS'fitmeals'
p95
F0.0105944673337
sS'vegetarian'
p96
F0.0087336244541499995
sS'piercing'
p97
F0.0118897637795
sS'Hair'
p98
F0.0145498117083
sS'itookapicture'
p99
F0.0092037267549299993
sS'AnimalsBeingBros'
p100
F0.0102880658436
sS'MakeupAddicts'
p101
F0.014132020423
sS'learnart'
p102
F0.0091094202122000006
sS'whatstheword'
p103
F0.0070661896243299997
sS'whatsthisbug'
p104
F0.0092860754838400006
sS'weddingplanning'
p105
F0.018685207027100002
sS'ChronicPain'
p106
F0.0073370218907899999
sS'xxfitness'
p107
F0.016220238095199999
sS'Assistance'
p108
F0.0124197261602
sS'confession'
p109
F0.0081886162783500003
sS'nostalgia'
p110
F0.011266550937699999
sS'Health'
p111
F0.0070481158776799996
sS'TrollXChromosomes'
p112
F0.015536464997299999
sS'RATS'
p113
F0.0098868616858599993
sS'femalefashionadvice'
p114
F0.02132135777
sS'BeautyBoxes'
p115
F0.0142348754448
sS'whatisthisthing'
p116
F0.0125597147151
sS'CrossStitch'
p117
F0.042007517134599999
sS'loseit'
p118
F0.0133773281123
sS'TinyHouses'
p119
F0.0109717868339
sS'OutOfTheLoop'
p120
F0.0070264743631599999
sS'EatCheapAndHealthy'
p121
F0.017587542486800001
sS'cats'
p122
F0.014944524115
sS'PenmanshipPorn'
p123
F0.0143210385329
sS'catpictures'
p124
F0.0131800088456
sS'alternativeart'
p125
F0.00769157724812
sS'ketorecipes'
p126
F0.012027604337800001
sS'raisedbynarcissists'
p127
F0.0120080053369
sS'Calligraphy'
p128
F0.0095720101221299994
sS'Pareidolia'
p129
F0.0097322130206099998
sS'dogs'
p130
F0.0133445173097
sS'happy'
p131
F0.0145015924646
sS'TrollYChromosome'
p132
F0.0108736407949
sS'Indiemakeupandmore'
p133
F0.0142871721604
sS'MakeupAddiction'
p134
F0.0195050365452
sS'snackexchange'
p135
F0.0109319992588
sS'mildlyinfuriating'
p136
F0.0083376992740099992
sS'DumpsterDiving'
p137
F0.0106749694207
sS'somethingimade'
p138
F0.053073190456900003
sS'HomeImprovement'
p139
F0.0080092227413399997
sS'namenerds'
p140
F0.0095369412846100007
sS'parrots'
p141
F0.00756461441479
sS'sailormoon'
p142
F0.0083446098331100005
sS'curlyhair'
p143
F0.015145140934
sS'TheGirlSurvivalGuide'
p144
F0.024945020421000001
sS'ghettoglamourshots'
p145
F0.0094099694811799993
sS'blunderyears'
p146
F0.0109452736318
sS'bettafish'
p147
F0.0071790043544800002
sS'Random_Acts_Of_Amazon'
p148
F0.015991970558700001
sS'glutenfree'
p149
F0.0074657394150100002
sS'Flipping'
p150
F0.0077093414254100004
sS'offbeat'
p151
F0.0082318942114
sS'findareddit'
p152
F0.010159456368200001
sS'lookatmydog'
p153
F0.0098822539949499997
sS'ICanDrawThat'
p154
F0.0084933530280600009
sS'TryingForABaby'
p155
F0.0081440697407699995
sS'C25K'
p156
F0.0077194160093999997
sS'FoodPorn'
p157
F0.0089198352560999998
sS'ferrets'
p158
F0.0070879384911100001
sS'Cooking'
p159
F0.014305096041699999
sS'Aquariums'
p160
F0.0083592326653099992
sS'bigboobproblems'
p161
F0.016894844159599999
sS'DIY'
p162
F0.012005795901499999
sS'tea'
p163
F0.0119400971398
sS'YouShouldKnow'
p164
F0.00924879251875
sS'Dogtraining'
p165
F0.0110420979986
sS'SkincareAddiction'
p166
F0.0167745092708
sS'shutupandtakemymoney'
p167
F0.0097885142113100006
sS'TalesFromYourServer'
p168
F0.0086373598040499992
sS'breakingmom'
p169
F0.0136395547087
sS'yoga'
p170
F0.0099706744868000002
sS'self'
p171
F0.0094971284493599994
sS'pitbulls'
p172
F0.0089930945880799997
sS'Parenting'
p173
F0.014412451361899999
sS'badtattoos'
p174
F0.013355592654400001
sS'popping'
p175
F0.0124143835616
sS'slowcooking'
p176
F0.016774647180000001
sS'RedditLaqueristas'
p177
F0.033586079517800002
sS'Design'
p178
F0.0083090298794900007
sS'firefly'
p179
F0.0080088035703399993
sS'knitting'
p180
F0.0368377792722
sS'quilting'
p181
F0.026905829596400001
sS'tattoo'
p182
F0.0080130966741299992
sS'AnimalsBeingJerks'
p183
F0.0096204120045999993
sS'birthcontrol'
p184
F0.0086947187634199997
sS'sewing'
p185
F0.062610750147699998
sS'budgetfood'
p186
F0.016606558752000001
sS'Mommit'
p187
F0.0194605358436
sS'Teachers'
p188
F0.0076720892235600004
sS'progresspics'
p189
F0.0104649689598
sS'crochet'
p190
F0.050604898200100001
sS'dogpictures'
p191
F0.0120857699805
sS'beyondthebump'
p192
F0.013548988059999999
sS'thesims'
p193
F0.010702678471400001
sS'oddlysatisfying'
p194
F0.0072612662812600003
sS'GirlGamers'
p195
F0.012349529096200001
sS'HumanPorn'
p196
F0.0079470198675500002
sS'drawing'
p197
F0.0118554327808
sS'secretsanta'
p198
F0.019948432623200001
sS'FancyFollicles'
p199
F0.0279729322012
sS'AsianBeauty'
p200
F0.0092674751059799998
sS'painting'
p201
F0.011574074074100001
sS'AmericanHorrorStory'
p202
F0.0087724679467500004
s.