(dp1
S'awwwtf'
p2
F0.0104727707959
sS'Heavymind'
p3
F0.0081567514850599994
sS'PublicFreakout'
p4
F0.0208290997765
sS'cringepics'
p5
F0.010600205383199999
sS'uglyduckling'
p6
F0.007066741447
sS'dadjokes'
p7
F0.0070125169657700003
sS'Hiphopcirclejerk'
p8
F0.011507671781199999
sS'perfectloops'
p9
F0.0087379378466699992
sS'Metalcore'
p10
F0.0090821112186400006
sS'Bass'
p11
F0.0079911209766900006
sS'TheBluePill'
p12
F0.0088187908081100008
sS'NewsOfTheWeird'
p13
F0.0085849615156899997
sS'audioengineering'
p14
F0.0096186184166300003
sS'LearnUselessTalents'
p15
F0.0080468178493100003
sS'shittybattlestations'
p16
F0.011083342388399999
sS'badtattoos'
p17
F0.016240526359600001
sS'holdmybeer'
p18
F0.0089308282079400003
sS'MetalMemes'
p19
F0.010801925560600001
sS'nononono'
p20
F0.0138157894737
sS'YMS'
p21
F0.0110288563227
sS'beatles'
p22
F0.0084912626138300001
sS'electronicmusic'
p23
F0.0078765999343600006
sS'horror'
p24
F0.00861129278395
sS'JusticePorn'
p25
F0.0084180094383700006
sS'synthesizers'
p26
F0.0088805503439600003
sS'NoStupidQuestions'
p27
F0.0075674631287400004
sS'3amjokes'
p28
F0.0088733216579100008
sS'toosoon'
p29
F0.0088804912612199995
sS'Djent'
p30
F0.0089467901428299992
sS'magicskyfairy'
p31
F0.014093739757499999
sS'Braveryjerk'
p32
F0.0140248743054
sS'creepyPMs'
p33
F0.0116892520948
sS'IdiotsFightingThings'
p34
F0.011215559157199999
sS'ConfusedBoners'
p35
F0.0102030299907
sS'PropagandaPosters'
p36
F0.0099678122728700004
sS'CrappyDesign'
p37
F0.015399886557
sS'WeAreTheMusicMakers'
p38
F0.011777489572
sS'shittyadviceanimals'
p39
F0.012101210120999999
sS'Frisson'
p40
F0.0098900338889300003
sS'montageparodies'
p41
F0.012258206100900001
sS'Cyberpunk'
p42
F0.0073372632635100004
sS'DeepIntoYouTube'
p43
F0.037307576214900003
sS'fifthworldproblems'
p44
F0.0072827125119400002
sS'cringe'
p45
F0.0205825196701
sS'gamemusic'
p46
F0.0079561337490600004
sS'badhistory'
p47
F0.0085269294353100007
sS'shittyreactiongifs'
p48
F0.0105499658103
sS'SubredditDrama'
p49
F0.0095922314767300006
sS'MarkMyWords'
p50
F0.0160566706021
sS'classicalmusic'
p51
F0.00745383703202
sS'fatpeoplestories'
p52
F0.0070507251219699999
sS'firstworldanarchists'
p53
F0.00951601908657
sS'offbeat'
p54
F0.0077997744643500001
sS'no_sob_story'
p55
F0.0123195619711
sS'trapmuzik'
p56
F0.0074978204010500002
sS'findareddit'
p57
F0.0086928782199500003
sS'skeptic'
p58
F0.0074721058211699998
sS'poppunkers'
p59
F0.0082983193277299996
sS'shittyfoodporn'
p60
F0.0119754453054
sS'ExpectationVsReality'
p61
F0.0105742513121
sS'outside'
p62
F0.0075956908106999997
sS'facepalm'
p63
F0.00988506128406
sS'Hardcore'
p64
F0.0079559363525100006
sS'vexillology'
p65
F0.0086179633143599992
sS'trap'
p66
F0.0071379230946399998
sS'LetsTalkMusic'
p67
F0.0127994748933
sS'blackpeoplegifs'
p68
F0.0100408441116
sS'StandUpComedy'
p69
F0.0074869204401900001
sS'casualiama'
p70
F0.0070505072702600003
sS'FloridaMan'
p71
F0.011841027901999999
sS'Metal'
p72
F0.00987839101964
sS'delusionalartists'
p73
F0.035383159886500003
sS'whitepeoplegifs'
p74
F0.013801297870399999
sS'JonTron'
p75
F0.0097520489677400003
sS'vinyl'
p76
F0.0080030814003300005
sS'drums'
p77
F0.0081614146452100005
sS'shittyaskscience'
p78
F0.0071722420699399997
sS'GamePhysics'
p79
F0.013252530634
sS'lewronggeneration'
p80
F0.026177769598799999
sS'youtubehaiku'
p81
F0.015637700793499999
sS'ThriftStoreHauls'
p82
F0.0080858459910800005
sS'BlackMetal'
p83
F0.0096153846153799998
sS'punk'
p84
F0.0126525484566
sS'watchpeopledie'
p85
F0.0101134344677
sS'wheredidthesodago'
p86
F0.012185440977999999
sS'AnimalsBeingBros'
p87
F0.0074099252209400002
sS'quityourbullshit'
p88
F0.015814335592499999
sS'classic4chan'
p89
F0.0139768915393
sS'mashups'
p90
F0.0086283844093999994
sS'ANormalDayInRussia'
p91
F0.0109325224443
sS'HalfLife'
p92
F0.0072463768115899998
sS'ShitAmericansSay'
p93
F0.0076638477801300002
sS'AntiJokes'
p94
F0.0079806783576600003
sS'KingOfTheHill'
p95
F0.0089171974522299999
sS'NotTimAndEric'
p96
F0.041797715610000001
sS'rant'
p97
F0.0090082286704200008
sS'conspiratard'
p98
F0.0156100478469
sS'ContagiousLaughter'
p99
F0.0138024524
sS'nostalgia'
p100
F0.0096370416866699993
sS'MorbidReality'
p101
F0.0112764213507
sS'FiftyFifty'
p102
F0.0085776330075999999
sS'CrazyIdeas'
p103
F0.00971217237498
sS'Bad_Cop_No_Donut'
p104
F0.0073556624722400004
sS'OutOfTheLoop'
p105
F0.010211121843500001
sS'onetruegod'
p106
F0.0107589984351
sS'TheFacebookDelusion'
p107
F0.0095166541447499996
sS'Guitar'
p108
F0.0079369117272999994
sS'ifyoulikeblank'
p109
F0.0118681318681
sS'misleadingthumbnails'
p110
F0.0123594669049
sS'shittyadvice'
p111
F0.0096321438400100001
sS'musictheory'
p112
F0.0079152850572299996
sS'Pareidolia'
p113
F0.0090787529030899993
sS'ObscureMedia'
p114
F0.0187456926258
sS'fatlogic'
p115
F0.0085057471264400001
sS'makinghiphop'
p116
F0.0070921985815599999
sS'mildlyinfuriating'
p117
F0.0086594866383200002
sS'Unexpected'
p118
F0.0087041906600499996
sS'indieheads'
p119
F0.0071987091969700004
sS'HipHopImages'
p120
F0.0084685236200400006
sS'Shitty_Car_Mods'
p121
F0.0088312059780500003
sS'shittyaskreddit'
p122
F0.012341153470199999
sS'ghettoglamourshots'
p123
F0.017164179104500001
sS'blunderyears'
p124
F0.023239951278899999
sS'rage'
p125
F0.018899591360199999
sS'thatHappened'
p126
F0.013273864145600001
sS'Perfectfit'
p127
F0.0084690553745899993
sS'PerfectTiming'
p128
F0.0081498782487700004
sS'behindthegifs'
p129
F0.0092466113270999999
sS'softwaregore'
p130
F0.0113396117624
sS'fullmoviesonyoutube'
p131
F0.0112681827494
sS'NewsOfTheStupid'
p132
F0.0116325711994
sS'badphilosophy'
p133
F0.0070880094506800004
sS'FanTheories'
p134
F0.0077499464782699997
sS'explainlikeIAmA'
p135
F0.0080225313646799992
sS'bestofworldstar'
p136
F0.0143235106286
sS'SRSsucks'
p137
F0.0096166175150699997
sS'techsupportmacgyver'
p138
F0.0070215980801700004
sS'Roadcam'
p139
F0.0074415975885499999
sS'eatsandwiches'
p140
F0.00701605187626
sS'shittyama'
p141
F0.014137176213100001
sS'circlebroke'
p142
F0.0104883081155
sS'TheWayWeWere'
p143
F0.0075385494003400002
sS'DaftPunk'
p144
F0.0075187969924800004
sS'progmetal'
p145
F0.0091872791519400001
sS'nonononoyes'
p146
F0.0074618872505299999
sS'Frugal_Jerk'
p147
F0.0096053997923200001
sS'Whatcouldgowrong'
p148
F0.0100362339679
sS'guitarpedals'
p149
F0.0079021433210700008
sS'notinteresting'
p150
F0.011536668738299999
sS'forwardsfromgrandma'
p151
F0.0201863354037
sS'edmproduction'
p152
F0.00763554371221
sS'PostHardcore'
p153
F0.0080616266571100006
sS'EnoughLibertarianSpam'
p154
F0.0077754348972100002
sS'glitch_art'
p155
F0.011707756388600001
sS'futurebeats'
p156
F0.0100523386226
sS'HumanPorn'
p157
F0.0080639506345999996
sS'TimAndEric'
p158
F0.014322610941500001
sS'terriblefacebookmemes'
p159
F0.024542345604499999
sS'TumblrInAction'
p160
F0.0099138100158300008
sS'postrock'
p161
F0.0070527600705300002
sS'listentothis'
p162
F0.0080443766713099996
sS'HailCorporate'
p163
F0.0103470981093
sS'GifSound'
p164
F0.0075688767786900001
s.