(dp1
S'awwwtf'
p2
F0.0072866065232499999
sS'Heavymind'
p3
F0.0070521861777200004
sS'NoStupidQuestions'
p4
F0.0073778051029799998
sS'DoesAnybodyElse'
p5
F0.0081632653061200003
sS'pettyrevenge'
p6
F0.0073635765943499999
sS'PublicFreakout'
p7
F0.0092622912476000002
sS'KitchenConfidential'
p8
F0.015717092337900002
sS'DeepIntoYouTube'
p9
F0.0084832765980400009
sS'everymanshouldknow'
p10
F0.0071515785801499997
sS'Foodforthought'
p11
F0.0083446765698100001
sS'TheoryOfReddit'
p12
F0.0076697951357400001
sS'TheBluePill'
p13
F0.0074553806762600004
sS'quityourbullshit'
p14
F0.0089302898494900002
sS'nostalgia'
p15
F0.0081843936903200007
sS'HistoryPorn'
p16
F0.0079295154185000001
sS'holdmybeer'
p17
F0.010570236439500001
sS'alcoholism'
p18
F0.0185578693866
sS'MensRights'
p19
F0.0071797728468400001
sS'nononono'
p20
F0.0084372363363599996
sS'Anxiety'
p21
F0.0079297407912700003
sS'TalesFromYourServer'
p22
F0.0115801014115
sS'childfree'
p23
F0.0087727912533999992
sS'JusticePorn'
p24
F0.0073081776705400002
sS'lostgeneration'
p25
F0.0072403995967400001
sS'toosoon'
p26
F0.0112266112266
sS'creepyPMs'
p27
F0.00741975550762
sS'4chan'
p28
F0.0077537515457399998
sS'SubredditDrama'
p29
F0.0083336526303699997
sS'whitepeoplegifs'
p30
F0.0085024464586500002
sS'cringe'
p31
F0.0072198845738200004
sS'whatisthisthing'
p32
F0.0076951097350000004
sS'EatCheapAndHealthy'
p33
F0.0070479585223599999
sS'NetflixBestOf'
p34
F0.0087414047493100007
sS'TheSimpsons'
p35
F0.0077703629216600003
sS'offbeat'
p36
F0.011116452349500001
sS'Justrolledintotheshop'
p37
F0.0070017708759000001
sS'fatpeoplestories'
p38
F0.0089348394919900008
sS'kratom'
p39
F0.0086483815171699997
sS'depression'
p40
F0.0070518471031300002
sS'firstworldanarchists'
p41
F0.0073777568479699998
sS'forwardsfromgrandma'
p42
F0.0099311649414099996
sS'no_sob_story'
p43
F0.0074384494499700003
sS'humor'
p44
F0.0071424319980999997
sS'alcohol'
p45
F0.015509103169299999
sS'skeptic'
p46
F0.0077570401015499999
sS'shittyfoodporn'
p47
F0.015399916583799999
sS'wikipedia'
p48
F0.0078029375764999999
sS'ExpectationVsReality'
p49
F0.0081627006087399995
sS'AskCulinary'
p50
F0.0088510542338500007
sS'facepalm'
p51
F0.0072837093622299997
sS'foodhacks'
p52
F0.0081200216533899999
sS'blackpeoplegifs'
p53
F0.0076226415094300002
sS'StandUpComedy'
p54
F0.0086914919065500008
sS'tonightsdinner'
p55
F0.0083825265643399996
sS'casualiama'
p56
F0.0079246091240099993
sS'FloridaMan'
p57
F0.012113520996799999
sS'delusionalartists'
p58
F0.0087931909137000004
sS'Random_Acts_Of_Pizza'
p59
F0.00711096411444
sS'Frugal'
p60
F0.0076791686402800001
sS'answers'
p61
F0.0072118655599400002
sS'lewronggeneration'
p62
F0.0077959494958099998
sS'recipes'
p63
F0.0072490032620500001
sS'punk'
p64
F0.0087712366653500008
sS'DrugNerds'
p65
F0.0105629576281
sS'watchpeopledie'
p66
F0.011935828876999999
sS'wheredidthesodago'
p67
F0.0072796505767700002
sS'classic4chan'
p68
F0.0080724070450099994
sS'ANormalDayInRussia'
p69
F0.0086206896551700007
sS'TrueReddit'
p70
F0.00826660998134
sS'drunk'
p71
F0.033395368072799997
sS'AmIFreeToGo'
p72
F0.0070205297308799999
sS'misc'
p73
F0.0076384468491399998
sS'NotTimAndEric'
p74
F0.00889271371199
sS'IdiotsFightingThings'
p75
F0.0089797365156300008
sS'conspiratard'
p76
F0.0091281770975700002
sS'confession'
p77
F0.0111493374108
sS'cocaine'
p78
F0.0119246057187
sS'CrazyIdeas'
p79
F0.0084038768249300004
sS'eldertrees'
p80
F0.0070062644246599998
sS'Drugs'
p81
F0.014532048531199999
sS'Bad_Cop_No_Donut'
p82
F0.0108667304182
sS'OutOfTheLoop'
p83
F0.0078126733991800007
sS'OpiatesRecovery'
p84
F0.0086828746994400009
sS'stopsmoking'
p85
F0.00789384144267
sS'MorbidReality'
p86
F0.012574390478
sS'beer'
p87
F0.0089438339438300003
sS'shittyadvice'
p88
F0.0096216041397200001
sS'ObscureMedia'
p89
F0.0078382369646700003
sS'fatlogic'
p90
F0.0079640652557300008
sS'spicy'
p91
F0.00985915492958
sS'collapse'
p92
F0.0078284182305600001
sS'opiates'
p93
F0.022747097899799999
sS'trailerparkboys'
p94
F0.0119208277103
sS'Cigarettes'
p95
F0.0082124983960000005
sS'Psychonaut'
p96
F0.0078607253086399997
sS'shittyaskreddit'
p97
F0.0072194719471899999
sS'ghettoglamourshots'
p98
F0.0087863811092799993
sS'blunderyears'
p99
F0.0101087249528
sS'showerbeer'
p100
F0.018939393939400001
sS'rage'
p101
F0.0089331410226599992
sS'thatHappened'
p102
F0.0082368930439399995
sS'TheRedPill'
p103
F0.00772979331205
sS'firstworldproblems'
p104
F0.0096013450732299992
sS'standupshots'
p105
F0.0091766882516199997
sS'fullmoviesonyoutube'
p106
F0.0090805362745999992
sS'NewsOfTheStupid'
p107
F0.0075732264172
sS'stopdrinking'
p108
F0.035186280307499998
sS'FoodPorn'
p109
F0.00732532801706
sS'Cooking'
p110
F0.0089216634429400005
sS'IASIP'
p111
F0.0090443889087200007
sS'conspiracy'
p112
F0.00785646225482
sS'YouShouldKnow'
p113
F0.0074511347238599996
sS'bestofworldstar'
p114
F0.0082426376440499997
sS'SRSsucks'
p115
F0.0079732787415099995
sS'DAE'
p116
F0.00710388139607
sS'ForeverAlone'
p117
F0.0091113330005000003
sS'MURICA'
p118
F0.0076884467968599997
sS'eatsandwiches'
p119
F0.0125716398595
sS'self'
p120
F0.0105514346501
sS'shittyama'
p121
F0.0071137399088799999
sS'circlebroke'
p122
F0.0076132470498699997
sS'badtattoos'
p123
F0.0090707964601800008
sS'Gore'
p124
F0.0073421439060200001
sS'slowcooking'
p125
F0.010174797808500001
sS'howtonotgiveafuck'
p126
F0.0091341895482699997
sS'nonononoyes'
p127
F0.0075312955863900003
sS'Frugal_Jerk'
p128
F0.0115809024364
sS'Whatcouldgowrong'
p129
F0.0088193142983099999
sS'Anarchism'
p130
F0.0080068407960199994
sS'AnimalsBeingJerks'
p131
F0.00796898556967
sS'budgetfood'
p132
F0.0083460468455499991
sS'askdrugs'
p133
F0.0089496581727799996
sS'HumanPorn'
p134
F0.0073692903881600004
sS'Pizza'
p135
F0.0078207739307499993
sS'HailCorporate'
p136
F0.00933190189116
sS'ImGoingToHellForThis'
p137
F0.0085237526723499994
sS'bartenders'
p138
F0.0087698783910199994
s.