(dp1
S'breastfeeding'
p2
F0.020638368984
sS'FancyFollicles'
p3
F0.0243531202435
sS'awwwtf'
p4
F0.0075811251239899999
sS'Awwducational'
p5
F0.010578160855200001
sS'DoesAnybodyElse'
p6
F0.0078758669331099995
sS'pettyrevenge'
p7
F0.0089507858486599992
sS'ABraThatFits'
p8
F0.0194020575848
sS'adventuretime'
p9
F0.0072688199228899998
sS'actuallesbians'
p10
F0.0077028328181200003
sS'Supernatural'
p11
F0.0074207061639699999
sS'Pets'
p12
F0.013863488879700001
sS'entwives'
p13
F0.0098131722966600006
sS'RandomActsofMakeup'
p14
F0.015546875
sS'TalesFromRetail'
p15
F0.0115576266494
sS'BabyBumps'
p16
F0.0240086741016
sS'nostalgia'
p17
F0.0088257004396799996
sS'harrypotter'
p18
F0.014368743945800001
sS'booksuggestions'
p19
F0.0092024539877299995
sS'offmychest'
p20
F0.0078306042934600008
sS'Anxiety'
p21
F0.010081188195
sS'RandomActsOfPolish'
p22
F0.013408757594799999
sS'childfree'
p23
F0.0130318826524
sS'xxketo'
p24
F0.0149831529142
sS'wedding'
p25
F0.0115911485774
sS'makeupexchange'
p26
F0.0081831772759500005
sS'clothdiaps'
p27
F0.011399075169400001
sS'Rabbits'
p28
F0.012066251967300001
sS'creepyPMs'
p29
F0.010855432251799999
sS'penpals'
p30
F0.0078475336322900002
sS'freebies'
p31
F0.0099911738746700004
sS'corgi'
p32
F0.0086414138132700005
sS'Paleo'
p33
F0.0081003396916599999
sS'gardening'
p34
F0.018174400059299999
sS'BackYardChickens'
p35
F0.0070846273291900004
sS'AskWomen'
p36
F0.013292783374499999
sS'tea'
p37
F0.014435615939800001
sS'redditgetsdrawn'
p38
F0.0104592450108
sS'TwoXChromosomes'
p39
F0.011328817013
sS'fatpeoplestories'
p40
F0.0087830469509899995
sS'Baking'
p41
F0.023350011913299999
sS'LongDistance'
p42
F0.0075302083941400002
sS'popping'
p43
F0.0116418148473
sS'cosplay'
p44
F0.0087203718643200003
sS'shittyfoodporn'
p45
F0.0087453255204500008
sS'InteriorDesign'
p46
F0.00723598028819
sS'ExpectationVsReality'
p47
F0.0111810745601
sS'RandomKindness'
p48
F0.010398724082899999
sS'AskCulinary'
p49
F0.0091047787784800001
sS'foodhacks'
p50
F0.0081190798376200007
sS'lifehacks'
p51
F0.0077720207253899999
sS'disney'
p52
F0.0098411871908399996
sS'tattoos'
p53
F0.0087128093926400006
sS'facepalm'
p54
F0.0073482675761600003
sS'AnimalCrossing'
p55
F0.0108153489061
sS'lgbt'
p56
F0.0071370494172899998
sS'LadyBoners'
p57
F0.017512945914800002
sS'doctorwho'
p58
F0.0104178113805
sS'whatsthisplant'
p59
F0.0102124960355
sS'keto'
p60
F0.00966313574871
sS'ThriftStoreHauls'
p61
F0.012489108335799999
sS'Breadit'
p62
F0.0097552910052900003
sS'Frugal'
p63
F0.0125573633709
sS'vegetarian'
p64
F0.0083409956653100002
sS'piercing'
p65
F0.011590782898399999
sS'Hair'
p66
F0.0101175420324
sS'AnimalsBeingBros'
p67
F0.0070835108649300003
sS'neopets'
p68
F0.0070095298101899997
sS'MakeupAddicts'
p69
F0.010540391725000001
sS'whatsthisbug'
p70
F0.0092059838895299992
sS'weddingplanning'
p71
F0.014092383402300001
sS'xxfitness'
p72
F0.017220059537399999
sS'Assistance'
p73
F0.0094179488583499994
sS'SkincareAddiction'
p74
F0.017820906394699999
sS'TrollXChromosomes'
p75
F0.018459992544699998
sS'RATS'
p76
F0.010072941993699999
sS'femalefashionadvice'
p77
F0.0173532518485
sS'BeautyBoxes'
p78
F0.012148621087200001
sS'whatisthisthing'
p79
F0.0103468345153
sS'CrossStitch'
p80
F0.036149056779099999
sS'loseit'
p81
F0.013810879433699999
sS'EatCheapAndHealthy'
p82
F0.015526228235599999
sS'cats'
p83
F0.0155129518513
sS'PenmanshipPorn'
p84
F0.010523335378200001
sS'catpictures'
p85
F0.0122129195791
sS'Indiemakeupandmore'
p86
F0.0120617841027
sS'Cumberbitches'
p87
F0.0074338675419999998
sS'raisedbynarcissists'
p88
F0.0144797582279
sS'dogs'
p89
F0.0122317596567
sS'happy'
p90
F0.010654397966
sS'fatlogic'
p91
F0.0074816814500600001
sS'TrollYChromosome'
p92
F0.010945859716300001
sS'MakeupAddiction'
p93
F0.021124797948800001
sS'ketorecipes'
p94
F0.0124770859204
sS'snackexchange'
p95
F0.0076555023923399997
sS'mildlyinfuriating'
p96
F0.0073194914265699998
sS'breakingmom'
p97
F0.018333620244399999
sS'somethingimade'
p98
F0.0228529971887
sS'namenerds'
p99
F0.010868519765300001
sS'parrots'
p100
F0.0077491760933499996
sS'sailormoon'
p101
F0.00860520094563
sS'curlyhair'
p102
F0.0177886034839
sS'TheGirlSurvivalGuide'
p103
F0.023667631534099998
sS'blunderyears'
p104
F0.0074680799807299997
sS'bettafish'
p105
F0.0070519098922599997
sS'Random_Acts_Of_Amazon'
p106
F0.015434508437900001
sS'fitmeals'
p107
F0.0084801043705200006
sS'recipes'
p108
F0.014531408075
sS'TryingForABaby'
p109
F0.0118383060635
sS'C25K'
p110
F0.011340206185599999
sS'nursing'
p111
F0.0089142091152800002
sS'Cooking'
p112
F0.0130695060092
sS'Aquariums'
p113
F0.0080478947884999995
sS'bigboobproblems'
p114
F0.017688777638699998
sS'DIY'
p115
F0.0071877894411900003
sS'TalesFromYourServer'
p116
F0.0100587243444
sS'Dogtraining'
p117
F0.011259580817999999
sS'yoga'
p118
F0.0093774420422000002
sS'self'
p119
F0.0073904111416500003
sS'pitbulls'
p120
F0.0098226273761599994
sS'Parenting'
p121
F0.018099816034700001
sS'badtattoos'
p122
F0.010983555693499999
sS'slowcooking'
p123
F0.015015708741499999
sS'RedditLaqueristas'
p124
F0.032842124180099998
sS'firefly'
p125
F0.0074680533274300003
sS'knitting'
p126
F0.10473762481399999
sS'quilting'
p127
F0.021372570078399999
sS'AnimalsBeingJerks'
p128
F0.0078820322506499996
sS'birthcontrol'
p129
F0.0082502266545800007
sS'sewing'
p130
F0.044350426727
sS'budgetfood'
p131
F0.0098468271334800003
sS'Mommit'
p132
F0.024130589070299999
sS'Teachers'
p133
F0.0076640486445400001
sS'progresspics'
p134
F0.010174100964
sS'dogpictures'
p135
F0.010101010101000001
sS'beyondthebump'
p136
F0.022628827483200002
sS'thesims'
p137
F0.011051419800499999
sS'GirlGamers'
p138
F0.012918876227
sS'drawing'
p139
F0.0076726342711000003
sS'secretsanta'
p140
F0.0183565593465
sS'crafts'
p141
F0.050604898200100001
sS'AmericanHorrorStory'
p142
F0.0081012096326699996
s.