(dp1
S'breastfeeding'
p2
F0.0079008309494599995
sS'TryingForABaby'
p3
F0.0074270557029200001
sS'C25K'
p4
F0.0070009033423699997
sS'gardening'
p5
F0.00707421249333
sS'ABraThatFits'
p6
F0.0105648110524
sS'Baking'
p7
F0.0127785058978
sS'crochet'
p8
F0.036149056779099999
sS'Pets'
p9
F0.0083965109643800006
sS'TrollXChromosomes'
p10
F0.0082187972407100005
sS'tea'
p11
F0.0074443786481700001
sS'knitting'
p12
F0.028320778106200001
sS'femalefashionadvice'
p13
F0.0087891069720799995
sS'BeautyBoxes'
p14
F0.0084059300015300008
sS'RandomActsofMakeup'
p15
F0.010246913580200001
sS'quilting'
p16
F0.025114653854599999
sS'breakingmom'
p17
F0.0115356885364
sS'BabyBumps'
p18
F0.0088002149670800001
sS'beyondthebump'
p19
F0.0076049943246300003
sS'SkincareAddiction'
p20
F0.0072223363964700003
sS'Indiemakeupandmore'
p21
F0.010030978020400001
sS'RedditLaqueristas'
p22
F0.0162733475003
sS'xxfitness'
p23
F0.0083473421830600001
sS'disney'
p24
F0.0074637180373199998
sS'bigboobproblems'
p25
F0.011788896504499999
sS'RandomActsOfPolish'
p26
F0.0095594347464700007
sS'slowcooking'
p27
F0.0075775375939800002
sS'MakeupAddiction'
p28
F0.0087966169124900004
sS'sewing'
p29
F0.030924479166699999
sS'AnimalCrossing'
p30
F0.0070128031911500001
sS'Mommit'
p31
F0.010387040929899999
sS'somethingimade'
p32
F0.0135968921389
sS'xxketo'
p33
F0.0071151358344100002
sS'weddingplanning'
p34
F0.01093062092
sS'LadyBoners'
p35
F0.0093285186140499993
sS'curlyhair'
p36
F0.0089958394242699996
sS'TheGirlSurvivalGuide'
p37
F0.012638835695099999
sS'wedding'
p38
F0.0087729559012799992
sS'entwives'
p39
F0.0078767123287700001
sS'catpictures'
p40
F0.0075912760573599997
sS'Random_Acts_Of_Amazon'
p41
F0.0089278264497299996
sS'makeupexchange'
p42
F0.00768649193548
sS'ThriftStoreHauls'
p43
F0.0076689567023500004
sS'infertility'
p44
F0.0075136612021899996
sS'PolishGauntlet'
p45
F0.00739418663947
sS'recipes'
p46
F0.0070656934306600003
sS'GirlGamers'
p47
F0.0074375095844200004
sS'piercing'
p48
F0.0076406814661799998
sS'secretsanta'
p49
F0.010868750468499999
sS'FancyFollicles'
p50
F0.0115491447785
sS'crafts'
p51
F0.042007517134599999
sS'MakeupAddicts'
p52
F0.0086661642803299993
sS'lookatmydog'
p53
F0.0077351485148500002
sS'sailormoon'
p54
F0.0077519379845000002
s.