(dp1
S'Paleo'
p2
F0.048330265579799997
sS'weightroom'
p3
F0.039759707685599999
sS'steroids'
p4
F0.0100645936608
sS'xxfitness'
p5
F0.0174962158312
sS'bjj'
p6
F0.0104954048616
sS'BuyItForLife'
p7
F0.0085316270079300004
sS'everymanshouldknow'
p8
F0.0077803921568600004
sS'bodybuilding'
p9
F0.019341936693400001
sS'hardbodies'
p10
F0.0143532085402
sS'triathlon'
p11
F0.0071890726096299996
sS'yoga'
p12
F0.0081808530568899997
sS'frugalmalefashion'
p13
F0.0080899377911699995
sS'bicycling'
p14
F0.0078616352201299998
sS'JoeRogan'
p15
F0.0084472804618700003
sS'malefashionadvice'
p16
F0.0075911925618700003
sS'swoleacceptance'
p17
F0.015049370105500001
sS'ketorecipes'
p18
F0.0074284094130999999
sS'fatlogic'
p19
F0.0083033770442000002
sS'powerlifting'
p20
F0.026501067953500001
sS'ketogains'
p21
F0.011622276029099999
sS'loseit'
p22
F0.0090597870288099992
sS'leangains'
p23
F0.0153290529695
sS'running'
p24
F0.012277097125999999
sS'Supplements'
p25
F0.0135277440259
sS'weightlifting'
p26
F0.070320855614999997
sS'progresspics'
p27
F0.010114052076600001
sS'Fitness'
p28
F0.016083335894
sS'Military'
p29
F0.0106726925083
sS'bodyweightfitness'
p30
F0.020371229698399999
sS'EDC'
p31
F0.0074060150375899999
sS'keto'
p32
F0.011022938324599999
sS'fitnesscirclejerk'
p33
F0.0152405618089
sS'gainit'
p34
F0.0128112507826
sS'fitmeals'
p35
F0.0120663650075
sS'Entrepreneur'
p36
F0.0080406730955199998
sS'Coffee'
p37
F0.0076133213602500001
sS'Libertarian'
p38
F0.00706160531697
sS'MMA'
p39
F0.0095609163005299994
sS'nutrition'
p40
F0.0144666583882
s.