(dp1
S'FancyFollicles'
p2
F0.0110982192403
sS'gallifrey'
p3
F0.00760229559514
sS'ABraThatFits'
p4
F0.0092916484477499998
sS'TheGirlSurvivalGuide'
p5
F0.0113222806308
sS'tumblr'
p6
F0.0071587013510800001
sS'Supernatural'
p7
F0.0101885780677
sS'TrollXChromosomes'
p8
F0.0080029549372100002
sS'femalefashionadvice'
p9
F0.0083729244084900008
sS'RandomActsofMakeup'
p10
F0.012061254912599999
sS'BeardPorn'
p11
F0.0076679446574400003
sS'harrypotter'
p12
F0.0091607843137300003
sS'Indiemakeupandmore'
p13
F0.0078895463510799992
sS'RedditLaqueristas'
p14
F0.011237256719199999
sS'disney'
p15
F0.0072658577345100003
sS'firefly'
p16
F0.0074680225629600002
sS'bigboobproblems'
p17
F0.0116861435726
sS'knitting'
p18
F0.00780702632369
sS'MakeupAddiction'
p19
F0.0089053029738900003
sS'OnceUponATime'
p20
F0.00999666777741
sS'sewing'
p21
F0.00745327370714
sS'LadyBoners'
p22
F0.029346597332099999
sS'curlyhair'
p23
F0.008056640625
sS'crochet'
p24
F0.0074338675419999998
sS'doctorwho'
p25
F0.0089312443867900007
sS'catpictures'
p26
F0.0075098814229199997
sS'DoctorWhumour'
p27
F0.014135556361
sS'Sherlock'
p28
F0.0540293040293
sS'crafts'
p29
F0.0079842629021100002
sS'MakeupAddicts'
p30
F0.0097998619737799993
s.