(dp1
S'breastfeeding'
p2
F0.0099607606399000001
sS'FancyFollicles'
p3
F0.0547741411956
sS'awwwtf'
p4
F0.0073603211776500001
sS'pettyrevenge'
p5
F0.0077504296786299999
sS'ABraThatFits'
p6
F0.033076165462900001
sS'uglyduckling'
p7
F0.010765661252900001
sS'actuallesbians'
p8
F0.0089453592387899999
sS'Pets'
p9
F0.0117290192113
sS'RandomActsofMakeup'
p10
F0.026657812351799998
sS'relationships'
p11
F0.0072984058522600004
sS'TalesFromRetail'
p12
F0.0076897035353299999
sS'BabyBumps'
p13
F0.0120371431847
sS'TheBluePill'
p14
F0.0099458826970899999
sS'harrypotter'
p15
F0.0100375341219
sS'badtattoos'
p16
F0.0108135204812
sS'malehairadvice'
p17
F0.0076443057722300001
sS'offmychest'
p18
F0.0078690671031100001
sS'Anxiety'
p19
F0.010748173650199999
sS'TalesFromYourServer'
p20
F0.0097016413050699992
sS'childfree'
p21
F0.0114909043827
sS'recipes'
p22
F0.011341674295600001
sS'vegan'
p23
F0.0073311223599199999
sS'xxketo'
p24
F0.0169764875647
sS'wedding'
p25
F0.012950804928500001
sS'makeupexchange'
p26
F0.0214155382695
sS'beards'
p27
F0.0070418067626700004
sS'PrettyGirlsUglyFaces'
p28
F0.010945524964199999
sS'Rabbits'
p29
F0.0078298781030299996
sS'creepyPMs'
p30
F0.0115548938374
sS'freebies'
p31
F0.0075093390256899999
sS'Paleo'
p32
F0.010272153019699999
sS'gardening'
p33
F0.0103133994244
sS'AskWomen'
p34
F0.017062838314899999
sS'tea'
p35
F0.0102777777778
sS'redditgetsdrawn'
p36
F0.0095681489805700005
sS'tumblr'
p37
F0.0073831009023799998
sS'TwoXChromosomes'
p38
F0.011675919768599999
sS'fatpeoplestories'
p39
F0.0075447972335699999
sS'Baking'
p40
F0.016945705958100001
sS'LongDistance'
p41
F0.0076830571886699998
sS'Feminism'
p42
F0.0093913289083500003
sS'shittyfoodporn'
p43
F0.0077589998115199996
sS'InteriorDesign'
p44
F0.0098308515252299999
sS'ExpectationVsReality'
p45
F0.0107092341887
sS'AskCulinary'
p46
F0.0090293453724599997
sS'foodhacks'
p47
F0.00748055056852
sS'disney'
p48
F0.0086115992970099992
sS'tattoos'
p49
F0.0089557110508200009
sS'transtimelines'
p50
F0.0082731298065700006
sS'Frugal'
p51
F0.010081365917799999
sS'LadyBoners'
p52
F0.021231671554299999
sS'keto'
p53
F0.0095545513234299995
sS'ThriftStoreHauls'
p54
F0.0097980801059299998
sS'braswap'
p55
F0.0131486921248
sS'vegetarian'
p56
F0.0105069407163
sS'piercing'
p57
F0.016729539117600001
sS'Hair'
p58
F0.031111513068600001
sS'BeardPorn'
p59
F0.010427864975300001
sS'MakeupAddicts'
p60
F0.0307187017002
sS'amiugly'
p61
F0.0076395780921799999
sS'weddingplanning'
p62
F0.016887586031100001
sS'xxfitness'
p63
F0.030184604309099999
sS'confession'
p64
F0.0079258168603699997
sS'TrollXChromosomes'
p65
F0.019871891864599998
sS'femalefashionadvice'
p66
F0.038627508483799998
sS'BeautyBoxes'
p67
F0.016059839401599999
sS'CrossStitch'
p68
F0.0089958394242699996
sS'loseit'
p69
F0.013661531054399999
sS'EatCheapAndHealthy'
p70
F0.016885100908600001
sS'AustralianMakeup'
p71
F0.0075663777686100003
sS'cats'
p72
F0.011281759575299999
sS'PenmanshipPorn'
p73
F0.010771332492600001
sS'catpictures'
p74
F0.0096365638766499999
sS'firstimpression'
p75
F0.0085593980810400004
sS'Cumberbitches'
p76
F0.008056640625
sS'raisedbynarcissists'
p77
F0.012382685651099999
sS'dogs'
p78
F0.0104428543802
sS'happy'
p79
F0.0115663322185
sS'nutrition'
p80
F0.0081288686703000004
sS'TrollYChromosome'
p81
F0.013592339863500001
sS'Cooking'
p82
F0.0092882962679200001
sS'Indiemakeupandmore'
p83
F0.023080241587600001
sS'MakeupAddiction'
p84
F0.032978367933999997
sS'ketorecipes'
p85
F0.011985373781099999
sS'SkincareAddiction'
p86
F0.037517551249599997
sS'breakingmom'
p87
F0.011207709228000001
sS'somethingimade'
p88
F0.0104610808131
sS'namenerds'
p89
F0.0098158022297599994
sS'introvert'
p90
F0.00706713780919
sS'Awwducational'
p91
F0.0096649074839399995
sS'TheGirlSurvivalGuide'
p92
F0.044867571485
sS'AskMen'
p93
F0.0073478270624399997
sS'ghettoglamourshots'
p94
F0.00836341227221
sS'blunderyears'
p95
F0.011521144168800001
sS'Random_Acts_Of_Amazon'
p96
F0.00842004381161
sS'glutenfree'
p97
F0.0093437869186999995
sS'lookatmydog'
p98
F0.0074848651623599998
sS'fitmeals'
p99
F0.0110366874715
sS'TryingForABaby'
p100
F0.0076151335670299998
sS'C25K'
p101
F0.0104922619568
sS'fatlogic'
p102
F0.0073765583319700002
sS'entwives'
p103
F0.01319229855
sS'buffy'
p104
F0.0073398343294500002
sS'blackladies'
p105
F0.010264858699799999
sS'bigboobproblems'
p106
F0.0279031596225
sS'RandomActsOfPolish'
p107
F0.013930213686799999
sS'Dogtraining'
p108
F0.0087948657000199992
sS'shorthairedhotties'
p109
F0.0098090733928899998
sS'yoga'
p110
F0.0130018248175
sS'Parenting'
p111
F0.0098359625416400004
sS'transpassing'
p112
F0.0086719282860800006
sS'popping'
p113
F0.0088283900147899993
sS'slowcooking'
p114
F0.0103629588034
sS'RedditLaqueristas'
p115
F0.034033884831300001
sS'knitting'
p116
F0.0174334874555
sS'birthcontrol'
p117
F0.0149795733091
sS'sewing'
p118
F0.018200117420100002
sS'budgetfood'
p119
F0.0099541244698299995
sS'Mommit'
p120
F0.014451951952000001
sS'progresspics'
p121
F0.013861029676500001
sS'crochet'
p122
F0.0177886034839
sS'dogpictures'
p123
F0.011098482316
sS'beyondthebump'
p124
F0.0097325734327000004
sS'thesims'
p125
F0.0091827364554599999
sS'GirlGamers'
p126
F0.0123837022778
sS'HumanPorn'
p127
F0.0096070410313599999
sS'secretsanta'
p128
F0.0072453908429099996
sS'crafts'
p129
F0.015145140934
sS'tall'
p130
F0.0088075880758800001
sS'AsianBeauty'
p131
F0.018212092829599999
sS'AmericanHorrorStory'
p132
F0.0079420107154099997
s.