(dp1
S'awwwtf'
p2
F0.011592550361100001
sS'DoesAnybodyElse'
p3
F0.028664921465999998
sS'pettyrevenge'
p4
F0.0091468598048200008
sS'PublicFreakout'
p5
F0.0077750611246900003
sS'fffffffuuuuuuuuuuuu'
p6
F0.0085058197714200003
sS'inthenews'
p7
F0.0072191154041700003
sS'dadjokes'
p8
F0.0081466395111999997
sS'futurama'
p9
F0.0072448660481600003
sS'perfectloops'
p10
F0.0092944964871199999
sS'everymanshouldknow'
p11
F0.0083110500831100002
sS'Pets'
p12
F0.0080728780921300002
sS'Foodforthought'
p13
F0.0071437523499199998
sS'LucidDreaming'
p14
F0.0076480701962399998
sS'TheoryOfReddit'
p15
F0.00849826680085
sS'FutureWhatIf'
p16
F0.0091538842157300009
sS'WouldYouRather'
p17
F0.014548669721099999
sS'quityourbullshit'
p18
F0.0093962415034000001
sS'Advice'
p19
F0.00970251716247
sS'LearnUselessTalents'
p20
F0.0091140439131200002
sS'MMFB'
p21
F0.0093446601941700007
sS'woahdude'
p22
F0.0073410031249499996
sS'FreeKarma'
p23
F0.0083387380709700008
sS'MensRights'
p24
F0.0071118765148599997
sS'nononono'
p25
F0.0085898002257899994
sS'offmychest'
p26
F0.0090924870155000004
sS'Anxiety'
p27
F0.0083600142298099998
sS'YouShouldKnow'
p28
F0.010937668791200001
sS'childfree'
p29
F0.0078328100205899993
sS'whitepeoplegifs'
p30
F0.0075520833333300001
sS'howto'
p31
F0.0091952384346699993
sS'AbandonedPorn'
p32
F0.0071552471812699999
sS'geek'
p33
F0.0074559889540899999
sS'tipofmytongue'
p34
F0.0079811536265000007
sS'NoStupidQuestions'
p35
F0.0144492998628
sS'3amjokes'
p36
F0.0087033160735899995
sS'toosoon'
p37
F0.0085593296693399993
sS'PrettyGirlsUglyFaces'
p38
F0.00702420503085
sS'IWantToLearn'
p39
F0.0114375091647
sS'creepyPMs'
p40
F0.0075596503661699999
sS'quotes'
p41
F0.0114163396361
sS'ConfusedBoners'
p42
F0.0080117244748400002
sS'techsupportgore'
p43
F0.0076468543621800002
sS'freebies'
p44
F0.0079726192873
sS'PropagandaPosters'
p45
F0.0071786803028800004
sS'CrappyDesign'
p46
F0.0097870210754599993
sS'NewsOfTheWeird'
p47
F0.011454595639
sS'thatHappened'
p48
F0.0088279804943700007
sS'Enhancement'
p49
F0.0076855725265100004
sS'zombies'
p50
F0.0072598659717099997
sS'DeepIntoYouTube'
p51
F0.00958357102111
sS'fifthworldproblems'
p52
F0.00913087588772
sS'Whatisthis'
p53
F0.0073250135648400003
sS'whatisthisthing'
p54
F0.010314089699899999
sS'AskWomen'
p55
F0.0074116080024299999
sS'Paranormal'
p56
F0.0074112263968599996
sS'tumblr'
p57
F0.0073944794010900004
sS'POLITIC'
p58
F0.0071870853604599997
sS'interestingasfuck'
p59
F0.0086093954707099993
sS'MarkMyWords'
p60
F0.0141205247943
sS'changemyview'
p61
F0.0083271613587699994
sS'firstworldanarchists'
p62
F0.0099545320024799992
sS'PerfectTiming'
p63
F0.0094628039015899994
sS'no_sob_story'
p64
F0.0082760228464900006
sS'humor'
p65
F0.0095545431536299998
sS'psychology'
p66
F0.0080029101491499999
sS'Glitch_in_the_Matrix'
p67
F0.0097804139323599999
sS'skeptic'
p68
F0.0079771518613399994
sS'shittyfoodporn'
p69
F0.0089441320574800004
sS'wikipedia'
p70
F0.0098436595251900003
sS'ExpectationVsReality'
p71
F0.0121987503719
sS'socialskills'
p72
F0.0113074204947
sS'firstworldproblems'
p73
F0.014013921113699999
sS'outside'
p74
F0.0083337370996700005
sS'GuessTheMovie'
p75
F0.0074249767969499997
sS'lifehacks'
p76
F0.0098631805828899993
sS'memes'
p77
F0.0093657574761699999
sS'facepalm'
p78
F0.0088722397476300001
sS'casualiama'
p79
F0.0109830063931
sS'FloridaMan'
p80
F0.0086385205012800004
sS'delusionalartists'
p81
F0.0083978558665900004
sS'answers'
p82
F0.016528318519099999
sS'shittyaskscience'
p83
F0.0087970266584700002
sS'lewronggeneration'
p84
F0.0074610392477199999
sS'Unexpected'
p85
F0.0086801544605399992
sS'ThriftStoreHauls'
p86
F0.0084431181308700001
sS'relationship_advice'
p87
F0.0075316826771300001
sS'cripplingalcoholism'
p88
F0.00710388139607
sS'watchpeopledie'
p89
F0.0074153012743699998
sS'wheredidthesodago'
p90
F0.0089195687582399995
sS'AnimalsBeingBros'
p91
F0.0082188178052500001
sS'Images'
p92
F0.010152784623
sS'whatstheword'
p93
F0.0103092783505
sS'NSFWFunny'
p94
F0.0076019350380100003
sS'QuotesPorn'
p95
F0.0075609322184700001
sS'TrueReddit'
p96
F0.0070478627114999998
sS'drunk'
p97
F0.0083394141561599997
sS'confession'
p98
F0.011769347097099999
sS'misc'
p99
F0.0122197176415
sS'AntiJokes'
p100
F0.0103896103896
sS'findareddit'
p101
F0.015977153442399999
sS'rant'
p102
F0.0151047317032
sS'conspiratard'
p103
F0.0077760497667200001
sS'Health'
p104
F0.0070453000432599997
sS'ContagiousLaughter'
p105
F0.0081397421424800002
sS'nostalgia'
p106
F0.012428680452100001
sS'Damnthatsinteresting'
p107
F0.0080055690915400001
sS'FiftyFifty'
p108
F0.0076231744503299998
sS'CrazyIdeas'
p109
F0.0127899965089
sS'Bad_Cop_No_Donut'
p110
F0.0084603899923100002
sS'OutOfTheLoop'
p111
F0.0108957736227
sS'Whatcouldgowrong'
p112
F0.00886058032555
sS'TheFacebookDelusion'
p113
F0.0088214537755799995
sS'MorbidReality'
p114
F0.0089071599862999996
sS'gif'
p115
F0.0097416610148600008
sS'PenmanshipPorn'
p116
F0.0070565654284699998
sS'ifyoulikeblank'
p117
F0.0088576108718099993
sS'misleadingthumbnails'
p118
F0.010671059227999999
sS'shittyadvice'
p119
F0.0103481539946
sS'MeanJokes'
p120
F0.0087410723803399999
sS'confessions'
p121
F0.0119866378463
sS'Pareidolia'
p122
F0.010408163265300001
sS'dogs'
p123
F0.0077434079145800002
sS'happy'
p124
F0.0116431490477
sS'explainlikeIAmA'
p125
F0.0090045841519299993
sS'firstimpression'
p126
F0.0097050282744899994
sS'mildlyinfuriating'
p127
F0.0099435759874199996
sS'somethingimade'
p128
F0.0090899425898399999
sS'introvert'
p129
F0.0111251580278
sS'shittyaskreddit'
p130
F0.0111455819832
sS'AskMen'
p131
F0.00726974396372
sS'ghettoglamourshots'
p132
F0.0083224706708099998
sS'blunderyears'
p133
F0.0099033136205799992
sS'webcomics'
p134
F0.0075538079470199998
sS'rage'
p135
F0.0091385054735799998
sS'worldpolitics'
p136
F0.0070858372948200002
sS'AMA'
p137
F0.010160444026599999
sS'Perfectfit'
p138
F0.0087984358336300004
sS'offbeat'
p139
F0.0094496942746000005
sS'behindthegifs'
p140
F0.0070454893551800003
sS'standupshots'
p141
F0.0072749550101500002
sS'lookatmydog'
p142
F0.0084525357607300004
sS'AmISexy'
p143
F0.0080459053202799995
sS'fullmoviesonyoutube'
p144
F0.0078101681424700004
sS'AskScienceFiction'
p145
F0.0076944678461099997
sS'NewsOfTheStupid'
p146
F0.0098725318670300002
sS'awesome'
p147
F0.0104430379747
sS'DecidingToBeBetter'
p148
F0.0070487281642700001
sS'TrueAskReddit'
p149
F0.0094435339108699997
sS'Frisson'
p150
F0.0075313249800100001
sS'Infographics'
p151
F0.0076530612244899996
sS'AnythingGoesNews'
p152
F0.0112557634934
sS'southpark'
p153
F0.0075729589952
sS'shutupandtakemymoney'
p154
F0.0083056478405300008
sS'TalesFromYourServer'
p155
F0.0071538068472200003
sS'ForeverAlone'
p156
F0.0096287934125799998
sS'softwaregore'
p157
F0.0078517301195999995
sS'self'
p158
F0.013069764685000001
sS'shittyama'
p159
F0.013591217982199999
sS'TheWayWeWere'
p160
F0.0085340823160899998
sS'badtattoos'
p161
F0.0078459343794600005
sS'Gore'
p162
F0.0080252006300199994
sS'itookapicture'
p163
F0.0078918612651299996
sS'nonononoyes'
p164
F0.0078571679118899992
sS'Frugal_Jerk'
p165
F0.0071654117075500004
sS'Dreams'
p166
F0.0088279707283100001
sS'sixwordstories'
p167
F0.0072508295440599996
sS'notinteresting'
p168
F0.0098490322090000002
sS'forwardsfromgrandma'
p169
F0.0110218775962
sS'AnimalsBeingJerks'
p170
F0.0071317138399800001
sS'highdeas'
p171
F0.00771586037967
sS'wallpaper'
p172
F0.0070933963857499997
sS'howtonotgiveafuck'
p173
F0.0105959489521
sS'techsupportmacgyver'
p174
F0.00748490261121
sS'socialanxiety'
p175
F0.0079389006130000002
sS'dogpictures'
p176
F0.0082274296628199999
sS'catpictures'
p177
F0.0076600209863599998
sS'oddlysatisfying'
p178
F0.0088100171155800003
sS'entertainment'
p179
F0.0078092889436899996
sS'HumanPorn'
p180
F0.0074419863338099999
sS'terriblefacebookmemes'
p181
F0.0110544217687
sS'HailCorporate'
p182
F0.0074286225722699998
sS'ImGoingToHellForThis'
p183
F0.0081147598621800002
sS'needadvice'
p184
F0.012283145498300001
s.