(dp1
S'Piracy'
p2
F0.020256410256400001
sS'PleX'
p3
F0.039296543359599999
sS'BuyItForLife'
p4
F0.0092285750241200004
sS'firefox'
p5
F0.0113181504486
sS'flashlight'
p6
F0.0077048797571799997
sS'arduino'
p7
F0.0090522313750299992
sS'unixporn'
p8
F0.017081371889699999
sS'shittybattlestations'
p9
F0.0142376391406
sS'archlinux'
p10
F0.0115234959593
sS'buildapcsales'
p11
F0.0124012533651
sS'HomeNetworking'
p12
F0.0331365454199
sS'geek'
p13
F0.010775862069000001
sS'LinuxActionShow'
p14
F0.0119856172593
sS'amateurradio'
p15
F0.0087298870249900001
sS'AskNetsec'
p16
F0.0149384885764
sS'overclocking'
p17
F0.012578616352200001
sS'trackers'
p18
F0.028430902111300001
sS'crypto'
p19
F0.013888888888900001
sS'radiocontrol'
p20
F0.0076038575667700002
sS'compsci'
p21
F0.0072585642205899997
sS'Enhancement'
p22
F0.00745909528393
sS'Cyberpunk'
p23
F0.0076641579783200001
sS'hometheater'
p24
F0.017870282770900001
sS'google'
p25
F0.0080471553049699992
sS'watercooling'
p26
F0.014319809069199999
sS'electricians'
p27
F0.0074013157894700001
sS'torrents'
p28
F0.0246942072467
sS'vmware'
p29
F0.0228000753721
sS'usenet'
p30
F0.038461538461500001
sS'Nexus7'
p31
F0.0085506626763599998
sS'electronics'
p32
F0.013075965130799999
sS'hackintosh'
p33
F0.00913022585296
sS'AskTechnology'
p34
F0.0075109534738199996
sS'AskElectronics'
p35
F0.0102788279773
sS'Roku'
p36
F0.0087047353760399994
sS'emulation'
p37
F0.0083404014701699992
sS'htpc'
p38
F0.038024304194399998
sS'headphones'
p39
F0.0071530122623100004
sS'programming'
p40
F0.0078016277990999999
sS'linux_gaming'
p41
F0.0121038183179
sS'battlestations'
p42
F0.0126116045411
sS'xbmc'
p43
F0.0232762406675
sS'software'
p44
F0.014433551198300001
sS'gamingpc'
p45
F0.014707394836999999
sS'linuxquestions'
p46
F0.0172105190693
sS'linuxadmin'
p47
F0.0230568984753
sS'webhosting'
p48
F0.0102249488753
sS'linux'
p49
F0.017469651638599999
sS'Multicopter'
p50
F0.0084734715160999993
sS'3Dprinting'
p51
F0.0073185786085899996
sS'networking'
p52
F0.023254069462199999
sS'MechanicalKeyboards'
p53
F0.0110638921454
sS'privacy'
p54
F0.016862489121
sS'chrome'
p55
F0.0075786282682800002
sS'linux4noobs'
p56
F0.016330092246299999
sS'Ubuntu'
p57
F0.0137733142037
sS'cablefail'
p58
F0.027351332274600001
sS'tasker'
p59
F0.0070842054419600004
sS'lockpicking'
p60
F0.0092030185901000004
sS'cordcutters'
p61
F0.017615325333
sS'thinkpad'
p62
F0.0076976906927899999
sS'learnpython'
p63
F0.0075824175824200004
sS'ProgrammerHumor'
p64
F0.0107091172214
sS'sysadmin'
p65
F0.020647089756700002
sS'hardwareswap'
p66
F0.012233509801100001
sS'techsupportgore'
p67
F0.018204088528500001
sS'Chromecast'
p68
F0.0089678109039100003
sS'Justrolledintotheshop'
p69
F0.0078226857887899997
sS'softwaregore'
p70
F0.0138842234912
sS'hacking'
p71
F0.0099823321554800004
sS'audiophile'
p72
F0.010977701543699999
sS'hardware'
p73
F0.0256690792796
sS'homelab'
p74
F0.097605893186000006
sS'netsec'
p75
F0.021122348518799999
sS'24hoursupport'
p76
F0.0076137418755800003
sS'Python'
p77
F0.0086746624424800002
sS'CableManagement'
p78
F0.019220405963700001
sS'windows8'
p79
F0.0082590456213899998
sS'talesfromtechsupport'
p80
F0.0120358389688
sS'raspberry_pi'
p81
F0.0176984809401
sS'techsupportmacgyver'
p82
F0.023668639053300002
sS'mac'
p83
F0.0071927374301699997
sS'MachinePorn'
p84
F0.0106782445435
sS'windows'
p85
F0.015951882845200001
sS'microsoft'
p86
F0.0098331346841500009
sS'cableporn'
p87
F0.0281837160752
s.