(dp1
S'Smite'
p2
F0.017571085302400001
sS'starbound'
p3
F0.00769735403455
sS'Guildwars2'
p4
F0.0073813406574499999
sS'summonerschool'
p5
F0.012598142351299999
sS'heroesofthestorm'
p6
F0.0255264554946
sS'Diablo'
p7
F0.0072642156664900004
sS'marvelheroes'
p8
F0.0078969957081500008
sS'esports'
p9
F0.0076562114102199999
sS'leagueoflegends'
p10
F0.007740947166
sS'Rift'
p11
F0.0070647974390099996
sS'LeagueofLegendsMeta'
p12
F0.0130441871841
sS'TeamRedditTeams'
p13
F0.0074104151862800002
sS'Cynicalbrit'
p14
F0.013263563356200001
sS'hearthstone'
p15
F0.0087607959154500006
sS'Twitch'
p16
F0.0086173695359100001
sS'TeraOnline'
p17
F0.0077058134997999997
sS'pathofexile'
p18
F0.0102363024394
sS'strife'
p19
F0.043771338527500002
sS'Warframe'
p20
F0.010207286432199999
sS'DotA2'
p21
F0.00724077708916
sS'MMORPG'
p22
F0.0088045040728300002
sS'LeagueOfMemes'
p23
F0.0087644088787299998
sS'WildStar'
p24
F0.0110476190476
s.