(dp1
S'ShitAmericansSay'
p2
F0.014405144694500001
sS'HumanPorn'
p3
F0.0070175438596499998
sS'fcbayern'
p4
F0.0112320718853
sS'linux'
p5
F0.0093141678483900005
sS'polandball'
p6
F0.013869896464199999
sS'linguistics'
p7
F0.010484686839
sS'techsupportmacgyver'
p8
F0.0070373588184199998
sS'languagelearning'
p9
F0.0129679471495
sS'AskHistorians'
p10
F0.0072866256049299999
sS'badlinguistics'
p11
F0.0082043343653299995
sS'ANormalDayInRussia'
p12
F0.0079365079365100004
sS'duolingo'
p13
F0.0086820209815499996
sS'HistoryPorn'
p14
F0.0070096548075700002
sS'archlinux'
p15
F0.0072377788324599996
sS'vexillology'
p16
F0.0099301784328899995
sS'europe'
p17
F0.030539051195999999
sS'borussiadortmund'
p18
F0.0125583064227
sS'translator'
p19
F0.0077886538259099997
sS'linux_gaming'
p20
F0.0080926039746
sS'germany'
p21
F0.140535372849
sS'MapPorn'
p22
F0.0099310076766099993
sS'Switzerland'
p23
F0.0169604256734
sS'ProgrammerHumor'
p24
F0.0094156014938699996
sS'worldpolitics'
p25
F0.0071217963256999996
sS'privacy'
p26
F0.0078245837503399997
sS'berlin'
p27
F0.049072228185899999
sS'PropagandaPosters'
p28
F0.0118529024415
sS'russia'
p29
F0.0071273015244499999
sS'IWantOut'
p30
F0.0072864120425999998
s.