(dp1
S'NoStupidQuestions'
p2
F0.0095447409733099998
sS'circlebroke'
p3
F0.0074245569216
sS'PublicFreakout'
p4
F0.00711162366056
sS'zen'
p5
F0.0073138297872299999
sS'inthenews'
p6
F0.0084562438544700004
sS'Conservative'
p7
F0.010538506079899999
sS'PurplePillDebate'
p8
F0.0073835414149599999
sS'PoliticalDiscussion'
p9
F0.020606968902199999
sS'everymanshouldknow'
p10
F0.0080633652062200006
sS'dataisbeautiful'
p11
F0.0071006260143800003
sS'askphilosophy'
p12
F0.025293908086900001
sS'Foodforthought'
p13
F0.0112691668206
sS'islam'
p14
F0.016534490498300001
sS'linguistics'
p15
F0.0087902523933899995
sS'ShitRConservativeSays'
p16
F0.0070037581141099998
sS'TheBluePill'
p17
F0.0075793462813799999
sS'quityourbullshit'
p18
F0.0078755660563100006
sS'ProtectAndServe'
p19
F0.0074842660316400004
sS'writing'
p20
F0.0073069559668200003
sS'environment'
p21
F0.0088313822140099994
sS'whowouldwin'
p22
F0.0070465516284699999
sS'collapse'
p23
F0.0083821334251899995
sS'TrueChristian'
p24
F0.018644293514400001
sS'MensRights'
p25
F0.0107312440646
sS'exmormon'
p26
F0.0133880644143
sS'YouShouldKnow'
p27
F0.0094039699714099992
sS'childfree'
p28
F0.0078085894483899999
sS'SelfDrivingCars'
p29
F0.0077576112412199999
sS'JusticePorn'
p30
F0.0071316702091999999
sS'geek'
p31
F0.0079858030168599992
sS'spaceporn'
p32
F0.0087817528142900003
sS'lostgeneration'
p33
F0.0080652997764999994
sS'grammar'
p34
F0.0080477990488999999
sS'magicskyfairy'
p35
F0.0114728237487
sS'IWantToLearn'
p36
F0.0079513340039299996
sS'Liberal'
p37
F0.015944195316400001
sS'progressive'
p38
F0.015756529246699999
sS'conspiratard'
p39
F0.0148421950526
sS'PropagandaPosters'
p40
F0.0086658413484399996
sS'comics'
p41
F0.0074305014289399998
sS'Enhancement'
p42
F0.00781176470588
sS'Libertarian'
p43
F0.0117096018735
sS'Anarcho_Capitalism'
p44
F0.010069648401400001
sS'TrueAtheism'
p45
F0.084276809566199998
sS'badhistory'
p46
F0.013506916192
sS'HPMOR'
p47
F0.0095296649246799994
sS'Christianity'
p48
F0.0288929801639
sS'POLITIC'
p49
F0.0085296939972299996
sS'AskScienceDiscussion'
p50
F0.013686336100499999
sS'changemyview'
p51
F0.021158801739400001
sS'FeMRADebates'
p52
F0.0076876695809500002
sS'OneY'
p53
F0.0078545780969499993
sS'Feminism'
p54
F0.0089877370706099996
sS'firstworldanarchists'
p55
F0.0073111075663300001
sS'forwardsfromgrandma'
p56
F0.0096054702338999997
sS'humor'
p57
F0.0078501668933099993
sS'psychology'
p58
F0.0088061927419899998
sS'space'
p59
F0.0080659394966300004
sS'skeptic'
p60
F0.037059175134500001
sS'wikipedia'
p61
F0.0097290343330399993
sS'DebateReligion'
p62
F0.17095997034800001
sS'religion'
p63
F0.0270078180526
sS'outside'
p64
F0.0075227348473999997
sS'Astronomy'
p65
F0.010083513764300001
sS'math'
p66
F0.0091339939681200008
sS'AskFeminists'
p67
F0.0094363682733999994
sS'biology'
p68
F0.0084317032040499996
sS'bestof'
p69
F0.0085412589693400001
sS'FloridaMan'
p70
F0.0074982147107800004
sS'answers'
p71
F0.011117445838099999
sS'BasicIncome'
p72
F0.013036287576599999
sS'lgbt'
p73
F0.0085140137493400006
sS'conservatives'
p74
F0.0070934256055399996
sS'shittyaskscience'
p75
F0.0087154626612600001
sS'ainbow'
p76
F0.0083836351441999996
sS'worldbuilding'
p77
F0.0087910635203900002
sS'PoliticalHumor'
p78
F0.0103916866507
sS'TheoryOfReddit'
p79
F0.010897712559300001
sS'howtonotgiveafuck'
p80
F0.0071477584629500001
sS'QuotesPorn'
p81
F0.0085050416484
sS'ShitAmericansSay'
p82
F0.0087917310205499997
sS'TrueReddit'
p83
F0.0118566618567
sS'Catholicism'
p84
F0.0135185530487
sS'AmIFreeToGo'
p85
F0.0096965548710900001
sS'AntiJokes'
p86
F0.0070253103647400002
sS'Judaism'
p87
F0.0096432015429100005
sS'rant'
p88
F0.0077307134804299998
sS'Buddhism'
p89
F0.0092676311030700006
sS'Documentaries'
p90
F0.0071754865355299997
sS'rpg'
p91
F0.0080279684060599998
sS'exmuslim'
p92
F0.017777254532600002
sS'CrazyIdeas'
p93
F0.0080614923134599992
sS'AskHistorians'
p94
F0.010502035278199999
sS'privacy'
p95
F0.0071564062769400002
sS'Bad_Cop_No_Donut'
p96
F0.011527120007099999
sS'OutOfTheLoop'
p97
F0.0086699995496099993
sS'TheFacebookDelusion'
p98
F0.035014492753600003
sS'SubredditDrama'
p99
F0.0097643359086900007
sS'introvert'
p100
F0.0070141097789699998
sS'explainlikeIAmA'
p101
F0.010120328313000001
sS'DaystromInstitute'
p102
F0.0080883156629099999
sS'occupywallstreet'
p103
F0.0081045751633999994
sS'NeutralPolitics'
p104
F0.0125693160813
sS'rage'
p105
F0.0073986804901
sS'worldpolitics'
p106
F0.0114422565194
sS'science'
p107
F0.0085900931022099992
sS'offbeat'
p108
F0.0089479309818300008
sS'socialism'
p109
F0.0119553474973
sS'Meditation'
p110
F0.0074979336403399998
sS'history'
p111
F0.0073852244752900002
sS'AskScienceFiction'
p112
F0.0111104969322
sS'NewsOfTheStupid'
p113
F0.0072879330943800003
sS'Economics'
p114
F0.0090720923063400006
sS'TrueAskReddit'
p115
F0.0122685361579
sS'FanTheories'
p116
F0.0081808040325599997
sS'conspiracy'
p117
F0.0081827108411799999
sS'politics'
p118
F0.0084077899264000007
sS'AnythingGoesNews'
p119
F0.0082655301562700005
sS'SRSsucks'
p120
F0.0085401038661299996
sS'self'
p121
F0.0070572453413399999
sS'AskSocialScience'
p122
F0.0097165991902799995
sS'TumblrInAction'
p123
F0.0072237558370499997
sS'scifi'
p124
F0.0114406495337
sS'nottheonion'
p125
F0.0074070942375199997
sS'Ask_Politics'
p126
F0.0103990326481
sS'FutureWhatIf'
p127
F0.00949216896061
sS'talesfromtechsupport'
p128
F0.0081735086224799993
sS'Anarchism'
p129
F0.010058881256099999
sS'badphilosophy'
p130
F0.0234385404182
sS'askscience'
p131
F0.011669323503
sS'Futurology'
p132
F0.0091225138791600005
sS'philosophy'
p133
F0.020082475609299998
sS'DebateAChristian'
p134
F0.186551724138
sS'EnoughLibertarianSpam'
p135
F0.0106862977915
sS'law'
p136
F0.0075790574091799999
sS'Physics'
p137
F0.010701621074
sS'startrek'
p138
F0.0081283330466199993
sS'truegaming'
p139
F0.0074227305913800003
sS'Sidehugs'
p140
F0.00703082747431
sS'atheism'
p141
F0.018632662674099999
sS'Shitstatistssay'
p142
F0.0074573354366800002
sS'HailCorporate'
p143
F0.0076402153151600002
sS'exjw'
p144
F0.00964295022153
s.