(dp1
S'circlebroke'
p2
F0.00780663564029
sS'PublicFreakout'
p3
F0.0077318394370100001
sS'inthenews'
p4
F0.00783456317755
sS'Conservative'
p5
F0.016761331996900001
sS'quotes'
p6
F0.0074163643692100002
sS'PoliticalDiscussion'
p7
F0.019073083779000001
sS'askphilosophy'
p8
F0.021391261089499999
sS'Foodforthought'
p9
F0.0094328568080600007
sS'islam'
p10
F0.019116397621100002
sS'linguistics'
p11
F0.0089518229166700002
sS'TheoryOfReddit'
p12
F0.0097241516173799999
sS'badlinguistics'
p13
F0.0082707723628999991
sS'quityourbullshit'
p14
F0.0070564900636999996
sS'ProtectAndServe'
p15
F0.0083595700792500009
sS'writing'
p16
F0.0071235263010499998
sS'environment'
p17
F0.0076499189627200004
sS'whowouldwin'
p18
F0.0081506235227000005
sS'TrueChristian'
p19
F0.057396523696399998
sS'MensRights'
p20
F0.0101209577882
sS'exmormon'
p21
F0.01079525009
sS'YouShouldKnow'
p22
F0.0085988343221599997
sS'mormon'
p23
F0.0073456702924100002
sS'spaceporn'
p24
F0.0077026875070300002
sS'DebateAnAtheist'
p25
F0.186551724138
sS'NoStupidQuestions'
p26
F0.0105466474538
sS'grammar'
p27
F0.0072150072150100001
sS'magicskyfairy'
p28
F0.0095042383765700008
sS'IWantToLearn'
p29
F0.0072837912594500001
sS'Republican'
p30
F0.0085352077318899995
sS'Liberal'
p31
F0.0137993439656
sS'progressive'
p32
F0.010981400870600001
sS'conspiratard'
p33
F0.012979254914700001
sS'PropagandaPosters'
p34
F0.0074237737516599997
sS'thatHappened'
p35
F0.0070272485146500004
sS'MarkMyWords'
p36
F0.0077458574369999996
sS'SubredditDrama'
p37
F0.0094593819870399994
sS'Libertarian'
p38
F0.0127055306428
sS'Anarcho_Capitalism'
p39
F0.0099072181160600008
sS'TrueAtheism'
p40
F0.058579390489699998
sS'badhistory'
p41
F0.013061411549
sS'Christianity'
p42
F0.057409561301500003
sS'POLITIC'
p43
F0.010234205865
sS'AskScienceDiscussion'
p44
F0.0105749486653
sS'changemyview'
p45
F0.020598138245200001
sS'Feminism'
p46
F0.0103522645579
sS'forwardsfromgrandma'
p47
F0.0096749024707399999
sS'psychology'
p48
F0.0072463768115899998
sS'space'
p49
F0.0075143503218000002
sS'skeptic'
p50
F0.025656833918199999
sS'wikipedia'
p51
F0.0070831135558699996
sS'DebateReligion'
p52
F0.16146868250499999
sS'religion'
p53
F0.0348329329548
sS'Astronomy'
p54
F0.0078818893006299996
sS'math'
p55
F0.0074009396698700002
sS'AskFeminists'
p56
F0.00960648148148
sS'bestof'
p57
F0.0076464646464599996
sS'casualiama'
p58
F0.0073243142344100003
sS'FloridaMan'
p59
F0.0072690101652600004
sS'answers'
p60
F0.0092885508514500004
sS'lgbt'
p61
F0.0074502052607600001
sS'conservatives'
p62
F0.0091352009744200009
sS'shittyaskscience'
p63
F0.0085330428467700007
sS'ainbow'
p64
F0.0079315219098499996
sS'worldbuilding'
p65
F0.0095495382295699999
sS'PoliticalHumor'
p66
F0.0083110167143800005
sS'TheBluePill'
p67
F0.0081729697600099998
sS'QuotesPorn'
p68
F0.0084706280970700005
sS'ShitAmericansSay'
p69
F0.0070399653417100002
sS'TrueReddit'
p70
F0.00986787875933
sS'Catholicism'
p71
F0.029805996472699998
sS'AmIFreeToGo'
p72
F0.0082472074329300003
sS'Judaism'
p73
F0.015369305616999999
sS'rant'
p74
F0.0087081629562299999
sS'Buddhism'
p75
F0.0085931396917799992
sS'exmuslim'
p76
F0.012750455373399999
sS'CrazyIdeas'
p77
F0.0078632166041899994
sS'AskHistorians'
p78
F0.0117008828848
sS'Bad_Cop_No_Donut'
p79
F0.0098630372986500004
sS'OutOfTheLoop'
p80
F0.0083591331269300007
sS'TheFacebookDelusion'
p81
F0.029181645168099998
sS'explainlikeIAmA'
p82
F0.00988689985769
sS'NeutralPolitics'
p83
F0.0089445438282599998
sS'Reformed'
p84
F0.020212606677600001
sS'rage'
p85
F0.0077033404275000002
sS'worldpolitics'
p86
F0.0095339888841399992
sS'science'
p87
F0.0078396816372899997
sS'offbeat'
p88
F0.0072017379400600001
sS'socialism'
p89
F0.012332220481
sS'latterdaysaints'
p90
F0.0079113924050599992
sS'Meditation'
p91
F0.0071569456184800003
sS'history'
p92
F0.0080392254467599993
sS'AskScienceFiction'
p93
F0.0100481252314
sS'NewsOfTheStupid'
p94
F0.0078551167357600003
sS'Economics'
p95
F0.0077749925648999997
sS'TrueAskReddit'
p96
F0.010324801032500001
sS'FanTheories'
p97
F0.00751398880895
sS'conspiracy'
p98
F0.0091313551720399993
sS'AnythingGoesNews'
p99
F0.0078390078390100006
sS'politics'
p100
F0.0082453348763199992
sS'Ask_Politics'
p101
F0.0085855806274099996
sS'Israel'
p102
F0.0071273359408999997
sS'self'
p103
F0.0071819425444599998
sS'AskSocialScience'
p104
F0.0088884730538899993
sS'OrthodoxChristianity'
p105
F0.0120173049191
sS'TumblrInAction'
p106
F0.0074966156675399997
sS'scifi'
p107
F0.0076171874999999998
sS'nottheonion'
p108
F0.00724692446572
sS'FutureWhatIf'
p109
F0.0084443000974299999
sS'BasicIncome'
p110
F0.0091743119266099998
sS'badphilosophy'
p111
F0.020060060060099999
sS'askscience'
p112
F0.0098970899601200004
sS'Futurology'
p113
F0.0077079755581300003
sS'philosophy'
p114
F0.0179584120983
sS'EnoughLibertarianSpam'
p115
F0.0088773411280699994
sS'Physics'
p116
F0.0095731230056000007
sS'Sidehugs'
p117
F0.0162136385312
sS'atheism'
p118
F0.0174085117193
sS'Shitstatistssay'
p119
F0.0074607666580899998
sS'HailCorporate'
p120
F0.0072216812723099998
sS'exjw'
p121
F0.0090823307383800008
s.