(dp1
S'Heavymind'
p2
F0.0075449416087100003
sS'NoStupidQuestions'
p3
F0.014086531551
sS'DoesAnybodyElse'
p4
F0.0087272384187199997
sS'pettyrevenge'
p5
F0.00839594804247
sS'circlebroke'
p6
F0.0146982980918
sS'PublicFreakout'
p7
F0.0092204526403999992
sS'PanicHistory'
p8
F0.0083479336287699997
sS'zen'
p9
F0.010773010773
sS'fffffffuuuuuuuuuuuu'
p10
F0.0076232751133800004
sS'inthenews'
p11
F0.010118553197900001
sS'Conservative'
p12
F0.0186166262316
sS'PurplePillDebate'
p13
F0.0095971113644999998
sS'quotes'
p14
F0.0098179586827599995
sS'PoliticalDiscussion'
p15
F0.027936206168100001
sS'DeepIntoYouTube'
p16
F0.0073280989769199997
sS'everymanshouldknow'
p17
F0.0107599626301
sS'dataisbeautiful'
p18
F0.0106043948398
sS'InternetIsBeautiful'
p19
F0.0071530547664999996
sS'Foodforthought'
p20
F0.0164880890461
sS'StonerPhilosophy'
p21
F0.0079482439926100001
sS'islam'
p22
F0.037828436548900002
sS'TalesFromRetail'
p23
F0.00855351132015
sS'UFOs'
p24
F0.0078027896699400003
sS'languagelearning'
p25
F0.0086212282126600006
sS'literature'
p26
F0.00926947693666
sS'ShitRConservativeSays'
p27
F0.0088396553653399997
sS'badlinguistics'
p28
F0.013262074426
sS'WouldYouRather'
p29
F0.0078912757562499998
sS'quityourbullshit'
p30
F0.011482916519900001
sS'Advice'
p31
F0.0074176366147199998
sS'paradoxplaza'
p32
F0.0073689956331900001
sS'LearnUselessTalents'
p33
F0.00775879002161
sS'ProtectAndServe'
p34
F0.0094713443510200009
sS'writing'
p35
F0.0115177139525
sS'environment'
p36
F0.011269679465399999
sS'booksuggestions'
p37
F0.0082437106173299992
sS'whowouldwin'
p38
F0.012222364873499999
sS'woahdude'
p39
F0.0074067796610199996
sS'collapse'
p40
F0.0088143062971399993
sS'TrueChristian'
p41
F0.026594223620199999
sS'dwarffortress'
p42
F0.0071135272685200002
sS'scifi'
p43
F0.0126320275165
sS'MensRights'
p44
F0.0149124077023
sS'nononono'
p45
F0.0083119936190799992
sS'offmychest'
p46
F0.0088957525015299996
sS'australia'
p47
F0.0073420690358399999
sS'Judaism'
p48
F0.024870743447999999
sS'childfree'
p49
F0.0092988035741300001
sS'linguistics'
p50
F0.0130835973006
sS'mormon'
p51
F0.0096205237840700005
sS'JusticePorn'
p52
F0.010271716479099999
sS'UpliftingNews'
p53
F0.0085305779166199996
sS'vegan'
p54
F0.0071695760598500004
sS'geek'
p55
F0.0091156294419400003
sS'spaceporn'
p56
F0.0091253615238899993
sS'DebateAnAtheist'
p57
F0.17095997034800001
sS'lostgeneration'
p58
F0.0095758210518399993
sS'cringepics'
p59
F0.0071088027176100001
sS'Military'
p60
F0.0074337542237199999
sS'magicskyfairy'
p61
F0.012136888181499999
sS'occult'
p62
F0.0131415819489
sS'IWantToLearn'
p63
F0.0102429031314
sS'Republican'
p64
F0.0086744639376199993
sS'grammar'
p65
F0.0081444759206799992
sS'creepyPMs'
p66
F0.0071625011333100001
sS'progressive'
p67
F0.016051884880399998
sS'IdiotsFightingThings'
p68
F0.0074592314419500002
sS'firstworldproblems'
p69
F0.0084023574386700006
sS'FeMRADebates'
p70
F0.0090553611854300008
sS'conspiratard'
p71
F0.021634263996500001
sS'PropagandaPosters'
p72
F0.0138252254916
sS'Marijuana'
p73
F0.0071687236715700002
sS'comics'
p74
F0.0097852546335299995
sS'Frisson'
p75
F0.0091205211726400007
sS'dadjokes'
p76
F0.0081781456301100001
sS'Psychonaut'
p77
F0.0113214069657
sS'Libertarian'
p78
F0.0169553146483
sS'fifthworldproblems'
p79
F0.0080331061343699994
sS'cringe'
p80
F0.0079188430436099994
sS'YouShouldKnow'
p81
F0.012024345588600001
sS'StarWars'
p82
F0.0079213755806699995
sS'TrueAtheism'
p83
F0.080582940420100002
sS'whatisthisthing'
p84
F0.0077140209873099996
sS'AskWomen'
p85
F0.0077225923682600001
sS'NetflixBestOf'
p86
F0.0075160594002800004
sS'askphilosophy'
p87
F0.039866401364399999
sS'ShouldIbuythisgame'
p88
F0.0071579705577799997
sS'Christianity'
p89
F0.0511521763331
sS'POLITIC'
p90
F0.012311901504800001
sS'interestingasfuck'
p91
F0.00967030845227
sS'MarkMyWords'
p92
F0.0085702843412100004
sS'changemyview'
p93
F0.0321269743904
sS'classicalmusic'
p94
F0.0084460532164899998
sS'fatpeoplestories'
p95
F0.0075589807186899997
sS'OneY'
p96
F0.0099299065420599998
sS'CrappyDesign'
p97
F0.0086698608259200005
sS'Feminism'
p98
F0.0133729569094
sS'firstworldanarchists'
p99
F0.0097751951345600007
sS'offbeat'
p100
F0.012601865076
sS'humor'
p101
F0.0099298154406000008
sS'psychology'
p102
F0.013631311062999999
sS'space'
p103
F0.0104507406103
sS'skeptic'
p104
F0.038474885052499998
sS'lotr'
p105
F0.0078919844062000002
sS'Showerthoughts'
p106
F0.0072223594196099998
sS'wikipedia'
p107
F0.010961377264799999
sS'socialskills'
p108
F0.0094914963064799997
sS'religion'
p109
F0.055595344673200001
sS'outside'
p110
F0.012340531977
sS'socialism'
p111
F0.018867924528299999
sS'facepalm'
p112
F0.0096647679521899999
sS'worldnews'
p113
F0.0077408760406099996
sS'lifehacks'
p114
F0.0079639889196699998
sS'Astronomy'
p115
F0.0108627858628
sS'books'
p116
F0.0076307492484500002
sS'vexillology'
p117
F0.0095266807356000002
sS'math'
p118
F0.011084869724199999
sS'AskFeminists'
p119
F0.010344196265099999
sS'europe'
p120
F0.0097171706204900003
sS'biology'
p121
F0.0083606662807899999
sS'bestof'
p122
F0.012689499166599999
sS'jobs'
p123
F0.0070615362444200001
sS'DnD'
p124
F0.0080034924330600003
sS'casualiama'
p125
F0.010572309801200001
sS'FloridaMan'
p126
F0.0087030888419399998
sS'legaladvice'
p127
F0.0073692322512300002
sS'delusionalartists'
p128
F0.0094003562240299997
sS'answers'
p129
F0.012873778454
sS'BasicIncome'
p130
F0.014466681658
sS'AskMen'
p131
F0.0100488148116
sS'Frugal'
p132
F0.0079573022804499995
sS'promos'
p133
F0.0083180070222400003
sS'shittyaskscience'
p134
F0.0114403554857
sS'news'
p135
F0.00757625112653
sS'doctorwho'
p136
F0.00755628775398
sS'lewronggeneration'
p137
F0.0090577624256399994
sS'worldbuilding'
p138
F0.014402383842799999
sS'WritingPrompts'
p139
F0.0075620537232200004
sS'PoliticalHumor'
p140
F0.0123938489787
sS'TheoryOfReddit'
p141
F0.013798701298700001
sS'RedditDayOf'
p142
F0.0087549391802899997
sS'lgbt'
p143
F0.0126397444673
sS'syriancivilwar'
p144
F0.010604621715700001
sS'Anarcho_Capitalism'
p145
F0.015543347179400001
sS'vegetarian'
p146
F0.0071994715984100002
sS'TheBluePill'
p147
F0.012494422133
sS'programming'
p148
F0.0076637777693700001
sS'Liberal'
p149
F0.0143923720428
sS'Paranormal'
p150
F0.0080738786279700003
sS'howtonotgiveafuck'
p151
F0.010084279242
sS'wheredidthesodago'
p152
F0.0078269191332299998
sS'ukpolitics'
p153
F0.010039395094699999
sS'whatstheword'
p154
F0.0082987551867200002
sS'history'
p155
F0.0118400529376
sS'GetMotivated'
p156
F0.0070637795073300001
sS'INTP'
p157
F0.0076094759511800003
sS'Whatcouldgowrong'
p158
F0.0088219361828400008
sS'QuotesPorn'
p159
F0.0146813220958
sS'ShitAmericansSay'
p160
F0.0082486758704500007
sS'TrueReddit'
p161
F0.017424583520900001
sS'Catholicism'
p162
F0.0285966330956
sS'AmIFreeToGo'
p163
F0.0092733097285399996
sS'Scotland'
p164
F0.0079139732978900004
sS'patientgamers'
p165
F0.0092151675485000004
sS'printSF'
p166
F0.0071948072260900001
sS'rant'
p167
F0.0101434293836
sS'Buddhism'
p168
F0.0185630588961
sS'Health'
p169
F0.0077495666360799997
sS'Documentaries'
p170
F0.010060124965599999
sS'rpg'
p171
F0.0096865227671400003
sS'linux'
p172
F0.00793879077259
sS'confession'
p173
F0.010027427964700001
sS'exmuslim'
p174
F0.028406607814
sS'ainbow'
p175
F0.013243261320299999
sS'badhistory'
p176
F0.0268292682927
sS'Damnthatsinteresting'
p177
F0.0084418534221699995
sS'HistoryPorn'
p178
F0.010347013475700001
sS'CrazyIdeas'
p179
F0.0126209146586
sS'eldertrees'
p180
F0.0075970159468899999
sS'AskHistorians'
p181
F0.019321597252
sS'privacy'
p182
F0.0082419453715699992
sS'Bad_Cop_No_Donut'
p183
F0.013973077225900001
sS'OutOfTheLoop'
p184
F0.0137102234259
sS'HPMOR'
p185
F0.0073819920981499998
sS'TheFacebookDelusion'
p186
F0.028952088137299999
sS'Enhancement'
p187
F0.0075040069940300004
sS'MorbidReality'
p188
F0.01149503315
sS'SubredditDrama'
p189
F0.017362584644899998
sS'ifyoulikeblank'
p190
F0.0071654056220899999
sS'misleadingthumbnails'
p191
F0.0075640364449000002
sS'shittyadvice'
p192
F0.0071207846298500001
sS'raisedbynarcissists'
p193
F0.0074125550150599996
sS'explainlikeimfive'
p194
F0.0080358085818799992
sS'CombatFootage'
p195
F0.0081688223281100002
sS'fatlogic'
p196
F0.00867186290198
sS'explainlikeIAmA'
p197
F0.0126931213539
sS'DaystromInstitute'
p198
F0.0073445405581900004
sS'unitedkingdom'
p199
F0.0090509506099000006
sS'occupywallstreet'
p200
F0.0088470851182700008
sS'mildlyinfuriating'
p201
F0.0074335869612799999
sS'oddlysatisfying'
p202
F0.0071643914501499997
sS'Unexpected'
p203
F0.0088555007184400007
sS'Awwducational'
p204
F0.0080296479308200001
sS'skyrim'
p205
F0.0071997501171299997
sS'polandball'
p206
F0.00908801481867
sS'NeutralPolitics'
p207
F0.013769670958499999
sS'ProgrammerHumor'
p208
F0.0074741701472900001
sS'Reformed'
p209
F0.0098462219271999996
sS'getdisciplined'
p210
F0.0078861991514800004
sS'rage'
p211
F0.0115766262404
sS'worldpolitics'
p212
F0.017822792761
sS'science'
p213
F0.012019610053
sS'TheRedPill'
p214
F0.0088495575221199992
sS'PerfectTiming'
p215
F0.0080149501661100006
sS'behindthegifs'
p216
F0.0076455256298899998
sS'standupshots'
p217
F0.010451306413300001
sS'AskScienceDiscussion'
p218
F0.011902780089900001
sS'findareddit'
p219
F0.0090997330745000004
sS'civ'
p220
F0.0082418231196099995
sS'latterdaysaints'
p221
F0.010491177873199999
sS'Meditation'
p222
F0.0132516815581
sS'LifeProTips'
p223
F0.0070773970979399999
sS'Glitch_in_the_Matrix'
p224
F0.0088064649813499995
sS'ForeverAlone'
p225
F0.0074989210185600003
sS'fullmoviesonyoutube'
p226
F0.0081141934661599999
sS'gallifrey'
p227
F0.0081413292183299991
sS'AskScienceFiction'
p228
F0.0143533870204
sS'NewsOfTheStupid'
p229
F0.0083798882681599997
sS'Economics'
p230
F0.013903493398799999
sS'Anticonsumption'
p231
F0.0073710073710100002
sS'badphilosophy'
p232
F0.045573294629900001
sS'arabs'
p233
F0.0098173964264700007
sS'Infographics'
p234
F0.0073973429951699997
sS'india'
p235
F0.0072924123121000002
sS'DecidingToBeBetter'
p236
F0.0081917475728200007
sS'TrueAskReddit'
p237
F0.016733808490900001
sS'FanTheories'
p238
F0.0125455281263
sS'exmormon'
p239
F0.0156307953161
sS'conspiracy'
p240
F0.0146747981566
sS'learnprogramming'
p241
F0.007542601732
sS'politics'
p242
F0.0125982183373
sS'AnythingGoesNews'
p243
F0.0087695006000200002
sS'ShitRedditSays'
p244
F0.0091867762178900001
sS'SRSsucks'
p245
F0.0095335376234300002
sS'Israel'
p246
F0.0149678738318
sS'MURICA'
p247
F0.0089057974147199997
sS'Fantasy'
p248
F0.0070724467734300002
sS'technology'
p249
F0.00795440970831
sS'self'
p250
F0.011225695563399999
sS'AskSocialScience'
p251
F0.013699690402500001
sS'OrthodoxChristianity'
p252
F0.0079420696098999998
sS'Parenting'
p253
F0.0078368982381699995
sS'TumblrInAction'
p254
F0.0122538020444
sS'chess'
p255
F0.0075358452817600001
sS'nottheonion'
p256
F0.0107471767993
sS'watchpeopledie'
p257
F0.0092206790123500002
sS'nonononoyes'
p258
F0.0089920731898399994
sS'Ask_Politics'
p259
F0.0129744042365
sS'CrusaderKings'
p260
F0.0079115638885900001
sS'FutureWhatIf'
p261
F0.0122736768802
sS'economy'
p262
F0.0079571417316600009
sS'talesfromtechsupport'
p263
F0.0093383539537400008
sS'canada'
p264
F0.0071597621367900004
sS'Anarchism'
p265
F0.0139589750311
sS'MapPorn'
p266
F0.0106892671772
sS'forwardsfromgrandma'
p267
F0.0138130570722
sS'AnimalsBeingJerks'
p268
F0.0078094108343200004
sS'askscience'
p269
F0.0143212726814
sS'Futurology'
p270
F0.0124725823826
sS'philosophy'
p271
F0.032278909471399997
sS'DebateAChristian'
p272
F0.16146868250499999
sS'shutupandtakemymoney'
p273
F0.0076485831313199996
sS'introvert'
p274
F0.0088045392291100002
sS'EnoughLibertarianSpam'
p275
F0.013857416768299999
sS'law'
p276
F0.0083762444215600002
sS'Physics'
p277
F0.0120392468841
sS'startrek'
p278
F0.0091561870749599997
sS'truegaming'
p279
F0.0107949790795
sS'Sidehugs'
p280
F0.0105617455896
sS'AskEngineers'
p281
F0.0070076292738100003
sS'LucidDreaming'
p282
F0.0088229495268100002
sS'TrueFilm'
p283
F0.0071965979718700002
sS'entertainment'
p284
F0.0071749316673200003
sS'HumanPorn'
p285
F0.0090119793383899999
sS'IWantOut'
p286
F0.00735203262078
sS'atheism'
p287
F0.023314346271
sS'AMA'
p288
F0.0078927896078300006
sS'Shitstatistssay'
p289
F0.0073471008737099998
sS'thatHappened'
p290
F0.010167029774899999
sS'HailCorporate'
p291
F0.0095975868924400003
sS'ImGoingToHellForThis'
p292
F0.0079938838740799996
sS'needadvice'
p293
F0.0074031890660599996
sS'exjw'
p294
F0.0088175236680900007
s.