(dp1
S'inthenews'
p2
F0.0085736554949299992
sS'BuyItForLife'
p3
F0.016364366508300001
sS'everymanshouldknow'
p4
F0.025158232880599998
sS'askphilosophy'
p5
F0.0118231105885
sS'financialindependence'
p6
F0.0154771041187
sS'relationships'
p7
F0.0088369747621300006
sS'NeutralPolitics'
p8
F0.0081011821112700003
sS'freelance'
p9
F0.0083948104807900006
sS'JoeRogan'
p10
F0.0091837351217400002
sS'Showerthoughts'
p11
F0.0079396277273599998
sS'HistoryPorn'
p12
F0.011978820639800001
sS'holdmybeer'
p13
F0.0099971937701700004
sS'YouShouldKnow'
p14
F0.022226029912100001
sS'UpliftingNews'
p15
F0.0118606024808
sS'vegan'
p16
F0.0083686176836900005
sS'photoshopbattles'
p17
F0.0070369375247899997
sS'IWantToLearn'
p18
F0.033968345799400002
sS'CrappyDesign'
p19
F0.0094623121817999992
sS'Cyberpunk'
p20
F0.011270739612099999
sS'Libertarian'
p21
F0.0092867400670200006
sS'Anarcho_Capitalism'
p22
F0.0070426963465999998
sS'Paleo'
p23
F0.0148868297129
sS'EatCheapAndHealthy'
p24
F0.0209441128595
sS'tea'
p25
F0.0084819110264800004
sS'fatpeoplestories'
p26
F0.0096986491167300008
sS'OneY'
p27
F0.011472723015699999
sS'depression'
p28
F0.0125363440698
sS'forwardsfromgrandma'
p29
F0.0079000223164499995
sS'frugalmalefashion'
p30
F0.0088510354041399994
sS'findareddit'
p31
F0.015324780867200001
sS'investing'
p32
F0.012549861920799999
sS'InteriorDesign'
p33
F0.0078120341105600002
sS'socialskills'
p34
F0.038050193872800002
sS'DebateReligion'
p35
F0.0081917475728200007
sS'Anticonsumption'
p36
F0.015668909137399999
sS'worldnews'
p37
F0.0073577086180900003
sS'FloridaMan'
p38
F0.0085865894838399997
sS'legaladvice'
p39
F0.0094830440334900002
sS'malelivingspace'
p40
F0.0099915104812899995
sS'answers'
p41
F0.012653994091100001
sS'Supplements'
p42
F0.0083892617449699992
sS'WritingPrompts'
p43
F0.0094971239206300007
sS'ThriftStoreHauls'
p44
F0.0078150981044199999
sS'leaves'
p45
F0.010829125697600001
sS'personalfinance'
p46
F0.01061159288
sS'IWantOut'
p47
F0.013823251417799999
sS'QuotesPorn'
p48
F0.0201134215501
sS'TrueReddit'
p49
F0.0220609450252
sS'confession'
p50
F0.0119926199262
sS'IdiotsFightingThings'
p51
F0.0085356226564
sS'Health'
p52
F0.0136642909806
sS'ContagiousLaughter'
p53
F0.010150839578799999
sS'graphic_design'
p54
F0.00823523467893
sS'environment'
p55
F0.011786332179899999
sS'eldertrees'
p56
F0.0076972833117699997
sS'AskHistorians'
p57
F0.012504299120500001
sS'Drugs'
p58
F0.0084870781503300005
sS'OutOfTheLoop'
p59
F0.015428500041600001
sS'stopsmoking'
p60
F0.0101723179544
sS'wheredidthesodago'
p61
F0.0088436731165599993
sS'ifyoulikeblank'
p62
F0.0102680293097
sS'firstimpression'
p63
F0.0070038463746499996
sS'Pareidolia'
p64
F0.0095263157894700003
sS'tipofmytongue'
p65
F0.0085880816810000003
sS'cordcutters'
p66
F0.0090742624618500006
sS'LifeProTips'
p67
F0.014456051493099999
sS'TheGirlSurvivalGuide'
p68
F0.011902197328699999
sS'AskMen'
p69
F0.015240597799299999
sS'EDC'
p70
F0.0081306905466700004
sS'beermoney'
p71
F0.0090201627166600004
sS'science'
p72
F0.0121378010612
sS'firstworldproblems'
p73
F0.010264721772
sS'Entrepreneur'
p74
F0.0180285451966
sS'standupshots'
p75
F0.0120581433763
sS'Meditation'
p76
F0.035937576921199997
sS'history'
p77
F0.0092905015022
sS'AskScienceFiction'
p78
F0.0097025752629699997
sS'NewsOfTheStupid'
p79
F0.0073057878074500003
sS'awesome'
p80
F0.00958257713249
sS'solotravel'
p81
F0.0107936507937
sS'Glitch_in_the_Matrix'
p82
F0.0103364309497
sS'gadgets'
p83
F0.0076019565691499997
sS'learnprogramming'
p84
F0.012200435729800001
sS'Infographics'
p85
F0.0095962468012499996
sS'BasicIncome'
p86
F0.015023275497200001
sS'CampingandHiking'
p87
F0.0096140576843500008
sS'HouseOfCards'
p88
F0.0073214199701399996
sS'hardbodies'
p89
F0.0070796460176999997
sS'backpacking'
p90
F0.0079071915041000005
sS'needadvice'
p91
F0.0113500597372
sS'scifi'
p92
F0.0102430504159
sS'spaceporn'
p93
F0.0109268666731
sS'nyc'
p94
F0.0087522053481900002
sS'economy'
p95
F0.0092414608901399999
sS'asmr'
p96
F0.0093205574912900001
sS'askscience'
p97
F0.01047101793
sS'philosophy'
p98
F0.013820539266199999
sS'budgetfood'
p99
F0.0126248612653
sS'GradSchool'
p100
F0.0074287774972999999
sS'dating_advice'
p101
F0.012992771939199999
sS'listentothis'
p102
F0.0088173547935600002
sS'ImGoingToHellForThis'
p103
F0.0075022533269700001
sS'travel'
p104
F0.0121491766499
sS'DoesAnybodyElse'
p105
F0.0112664302107
sS'pettyrevenge'
p106
F0.010609527771999999
sS'malehairadvice'
p107
F0.0097320296940100002
sS'CityPorn'
p108
F0.0083655705996099998
sS'zen'
p109
F0.014756258234500001
sS'DeepIntoYouTube'
p110
F0.0074555184558399998
sS'dataisbeautiful'
p111
F0.0121079383446
sS'japan'
p112
F0.0077519379845000002
sS'linguistics'
p113
F0.0077022653721700004
sS'pornfree'
p114
F0.010288697788700001
sS'nostalgia'
p115
F0.0082383160005000001
sS'Documentaries'
p116
F0.012495641055400001
sS'writing'
p117
F0.0154254863313
sS'askseddit'
p118
F0.010841883140500001
sS'MensRights'
p119
F0.0110945287641
sS'Frisson'
p120
F0.017956234949200001
sS'electronicmusic'
p121
F0.0079163810829299998
sS'childfree'
p122
F0.0113027783531
sS'smallbusiness'
p123
F0.0109402720284
sS'NoStupidQuestions'
p124
F0.016771724448399999
sS'martialarts'
p125
F0.0074603907091199996
sS'occult'
p126
F0.0074512213857700002
sS'creepyPMs'
p127
F0.0088539975799100008
sS'freebies'
p128
F0.0099755770355300002
sS'PropagandaPosters'
p129
F0.0076071922544999997
sS'SubredditDrama'
p130
F0.010594138030599999
sS'minimalism'
p131
F0.023429765702300001
sS'wallpapers'
p132
F0.0078577102008399995
sS'TrueAtheism'
p133
F0.013350684403300001
sS'energy'
p134
F0.0088332719911700004
sS'ADHD'
p135
F0.012534493241699999
sS'Anarchism'
p136
F0.0079007468674799994
sS'books'
p137
F0.0096760710553800006
sS'malegrooming'
p138
F0.0120990836197
sS'TwoXChromosomes'
p139
F0.0076231224671200002
sS'Cinemagraphs'
p140
F0.0085791592423899998
sS'canada'
p141
F0.0083016799154199995
sS'psychology'
p142
F0.025029595805900001
sS'entertainment'
p143
F0.0073115860517400004
sS'shittyfoodporn'
p144
F0.0072209436133499998
sS'malefashionadvice'
p145
F0.010557944361
sS'LearnUselessTalents'
p146
F0.014858065128600001
sS'RoomPorn'
p147
F0.0121052414872
sS'Astronomy'
p148
F0.0084926744474799996
sS'math'
p149
F0.0080570987086600009
sS'LetsTalkMusic'
p150
F0.00728623473105
sS'bestof'
p151
F0.016281756336499999
sS'LadyBoners'
p152
F0.0070027040144200001
sS'youtubehaiku'
p153
F0.0070632452047699997
sS'PoliticalHumor'
p154
F0.0076521490381199998
sS'recipes'
p155
F0.0098707507082199993
sS'weightroom'
p156
F0.0087153772683899993
sS'programming'
p157
F0.0081609837898300001
sS'howtonotgiveafuck'
p158
F0.039628274268099999
sS'resumes'
p159
F0.0081034867296099992
sS'whatstheword'
p160
F0.0094062316284499996
sS'classicalmusic'
p161
F0.0072821376986000001
sS'misc'
p162
F0.0072055137844599998
sS'patientgamers'
p163
F0.0092655559333600004
sS'Buddhism'
p164
F0.022482490730400002
sS'OldSchoolCool'
p165
F0.0081473684210500007
sS'privacy'
p166
F0.0085013202807999993
sS'ANormalDayInRussia'
p167
F0.0091762811913100005
sS'seduction'
p168
F0.0214182431618
sS'PenmanshipPorn'
p169
F0.011129863613599999
sS'gentlemanboners'
p170
F0.0082508650100399997
sS'explainlikeimfive'
p171
F0.0084924900352700006
sS'dogs'
p172
F0.0080841024217599994
sS'nutrition'
p173
F0.0138067061144
sS'TrollYChromosome'
p174
F0.0079316368443399995
sS'collapse'
p175
F0.0101329955668
sS'mildlyinfuriating'
p176
F0.0086947730259800005
sS'Psychonaut'
p177
F0.0179155827809
sS'sex'
p178
F0.0089262094976099993
sS'television'
p179
F0.0077974177471700004
sS'worldpolitics'
p180
F0.0122448979592
sS'TheRedPill'
p181
F0.0129708383961
sS'nononono'
p182
F0.0100288278046
sS'FoodPorn'
p183
F0.0082484439945700004
sS'conspiracy'
p184
F0.0107329353132
sS'AnythingGoesNews'
p185
F0.0073510556457800002
sS'Nootropics'
p186
F0.0172475745598
sS'self'
p187
F0.0169263269078
sS'Parenting'
p188
F0.010635231727
sS'britishproblems'
p189
F0.0071886185219700001
sS'UnresolvedMysteries'
p190
F0.0095244102434699999
sS'conspiratard'
p191
F0.0087358446960899994
sS'startrek'
p192
F0.0078291553333799998
sS'getdisciplined'
p193
F0.063292418043099999
sS'MovieSuggestions'
p194
F0.0072997544628
sS'Futurology'
p195
F0.0143143761093
sS'INTP'
p196
F0.00996880509969
sS'progresspics'
p197
F0.011100501313
sS'skeptic'
p198
F0.014980353634599999
sS'TumblrInAction'
p199
F0.0086781227720800005
sS'HailCorporate'
p200
F0.010701083079300001
sS'Heavymind'
p201
F0.012299431853699999
sS'Awwducational'
p202
F0.0119438317103
sS'PoliticalDiscussion'
p203
F0.0115480338477
sS'bodybuilding'
p204
F0.0082866120386899996
sS'Foodforthought'
p205
F0.024868123587
sS'languagelearning'
p206
F0.010520059435400001
sS'TheoryOfReddit'
p207
F0.0112895893317
sS'TheBluePill'
p208
F0.0093457943925200002
sS'wicked_edge'
p209
F0.00843624978257
sS'booksuggestions'
p210
F0.011098424297800001
sS'whowouldwin'
p211
F0.00750412727
sS'ProgrammerHumor'
p212
F0.0073308191025000004
sS'piano'
p213
F0.0076320132013199997
sS'Anxiety'
p214
F0.0151879699248
sS'TalesFromYourServer'
p215
F0.0072242289524900001
sS'shutupandtakemymoney'
p216
F0.0106873937333
sS'photography'
p217
F0.0084149145471400007
sS'JusticePorn'
p218
F0.010235278479299999
sS'geek'
p219
F0.010431741437499999
sS'lostgeneration'
p220
F0.0131300296485
sS'Fitness'
p221
F0.011166526091899999
sS'beards'
p222
F0.0075834616613899997
sS'homestead'
p223
F0.0087998786223599992
sS'AbandonedPorn'
p224
F0.0094049783685499991
sS'progressive'
p225
F0.0091189991709999998
sS'dadjokes'
p226
F0.0096959999999999998
sS'WeAreTheMusicMakers'
p227
F0.0089798850574699992
sS'thatHappened'
p228
F0.0084027135368499994
sS'cringe'
p229
F0.0084245998315099994
sS'AskWomen'
p230
F0.0132052971819
sS'Christianity'
p231
F0.0088539490179700003
sS'changemyview'
p232
F0.0201413625259
sS'Android'
p233
F0.0070469920710000003
sS'firstworldanarchists'
p234
F0.0093054651527200005
sS'PerfectTiming'
p235
F0.0096018641275999999
sS'truegaming'
p236
F0.0096627561991300005
sS'wikipedia'
p237
F0.0114998776609
sS'breakingbad'
p238
F0.00709799989445
sS'outside'
p239
F0.0114669670878
sS'AskCulinary'
p240
F0.0104577648904
sS'foodhacks'
p241
F0.0104757209761
sS'europe'
p242
F0.0073585854575299999
sS'StandUpComedy'
p243
F0.0080584235708900005
sS'jobs'
p244
F0.015295154185
sS'LucidDreaming'
p245
F0.012583693432700001
sS'casualiama'
p246
F0.011170635255900001
sS'cscareerquestions'
p247
F0.0084298806847700001
sS'facepalm'
p248
F0.0083915011122199998
sS'news'
p249
F0.0072395102907200004
sS'Unexpected'
p250
F0.010685608400200001
sS'RedditDayOf'
p251
F0.010706482155899999
sS'fitmeals'
p252
F0.0152796042332
sS'relationship_advice'
p253
F0.0089348210977100006
sS'watchpeopledie'
p254
F0.0077588779468799997
sS'GetMotivated'
p255
F0.023195477075600001
sS'drunk'
p256
F0.00740136547641
sS'xxfitness'
p257
F0.010917415037900001
sS'reactiongifs'
p258
F0.0083817245535200008
sS'MMFB'
p259
F0.010064701653499999
sS'EarthPorn'
p260
F0.0085474162191000007
sS'femalefashionadvice'
p261
F0.0101300878184
sS'Guitar'
p262
F0.0076825454380600004
sS'ketorecipes'
p263
F0.0098870056497200008
sS'HomeImprovement'
p264
F0.0076005489285299998
sS'web_design'
p265
F0.0085716176859899993
sS'fatlogic'
p266
F0.0096824754778000004
sS'androidapps'
p267
F0.0071042791857100001
sS'somethingimade'
p268
F0.0103588765603
sS'keto'
p269
F0.010605040400199999
sS'MapPorn'
p270
F0.0091009672008299999
sS'Flipping'
p271
F0.0097804527734099995
sS'offbeat'
p272
F0.0144427087615
sS'socialism'
p273
F0.0097451694203299997
sS'vegetarian'
p274
F0.0094641178314000002
sS'C25K'
p275
F0.0089142697959499993
sS'stopdrinking'
p276
F0.011061946902699999
sS'Cooking'
p277
F0.012484562703500001
sS'FanTheories'
p278
F0.0086724720099499997
sS'DIY'
p279
F0.00917554467799
sS'webdev'
p280
F0.0082479625568700008
sS'technology'
p281
F0.0091677801977400001
sS'finance'
p282
F0.0079320113314399997
sS'productivity'
p283
F0.036044507130500003
sS'selfimprovement'
p284
F0.0501967713437
sS'asktrp'
p285
F0.0072278073460799999
sS'daddit'
p286
F0.0073553272038900004
sS'itookapicture'
p287
F0.0078609846917700003
sS'Whatcouldgowrong'
p288
F0.010186285165400001
sS'talesfromtechsupport'
p289
F0.0086365268070199997
sS'literature'
p290
F0.0099778270509999992
sS'notinteresting'
p291
F0.0083254432074199997
sS'AnimalsBeingJerks'
p292
F0.010249654596299999
sS'running'
p293
F0.011271165024
sS'Physics'
p294
F0.0093651918598800007
sS'TrueFilm'
p295
F0.0092529342358600008
sS'HumanPorn'
p296
F0.0134999736329
sS'AskEngineers'
p297
F0.0082055711509400001
sS'drawing'
p298
F0.0072813096314200002
sS'FancyFollicles'
p299
F0.0080793383366499997
sS'circlebroke'
p300
F0.0075886352598300002
sS'PublicFreakout'
p301
F0.0097177794873899992
sS'ArtisanVideos'
p302
F0.0103533757838
sS'Bitcoin'
p303
F0.0070482751881200002
sS'rickandmorty'
p304
F0.0073461181565099998
sS'quotes'
p305
F0.018328350448500001
sS'woodworking'
p306
F0.0078935200475600004
sS'InternetIsBeautiful'
p307
F0.0108989042735
sS'startups'
p308
F0.0119189054536
sS'TalesFromRetail'
p309
F0.0082054295983199996
sS'hiking'
p310
F0.0076383154417800003
sS'WouldYouRather'
p311
F0.0071301247771799999
sS'quityourbullshit'
p312
F0.010731740661
sS'Advice'
p313
F0.0089077493596399996
sS'audioengineering'
p314
F0.0076641965282699996
sS'ProtectAndServe'
p315
F0.0085799090993399999
sS'woahdude'
p316
F0.010362606853799999
sS'Conservative'
p317
F0.0074276043625399997
sS'offmychest'
p318
F0.013379665444999999
sS'ketogains'
p319
F0.0074906367041200003
sS'slowcooking'
p320
F0.013153787845000001
sS'howto'
p321
F0.014655030462699999
sS'cringepics'
p322
F0.0079104010025100001
sS'bodyweightfitness'
p323
F0.018247166159799998
sS'Art'
p324
F0.0079169653710699991
sS'4chan'
p325
F0.0076036643647999997
sS'gardening'
p326
F0.010352856887
sS'whatisthisthing'
p327
F0.0112755611237
sS'NetflixBestOf'
p328
F0.0115209727686
sS'interestingasfuck'
p329
F0.0135927590273
sS'MarkMyWords'
p330
F0.0099121423744100001
sS'Coffee'
p331
F0.0091110851536000004
sS'humor'
p332
F0.011419168245700001
sS'AMA'
p333
F0.0071722956698600003
sS'SkincareAddiction'
p334
F0.0114394419784
sS'ExpectationVsReality'
p335
F0.0095120166601000006
sS'nonononoyes'
p336
F0.0123400085737
sS'lifehacks'
p337
F0.015674182565699999
sS'DeadBedrooms'
p338
F0.0079866697311
sS'business'
p339
F0.011781169655399999
sS'marketing'
p340
F0.0089113519983999995
sS'Economics'
p341
F0.014180652460900001
sS'delusionalartists'
p342
F0.0099767209843700001
sS'OkCupid'
p343
F0.010275278756200001
sS'Frugal'
p344
F0.0194279696247
sS'promos'
p345
F0.0081782134596299991
sS'shittyaskscience'
p346
F0.0080778542151099999
sS'worldbuilding'
p347
F0.0077519379845000002
sS'calvinandhobbes'
p348
F0.0080759788086300008
sS'DrugNerds'
p349
F0.00743971267317
sS'sixwordstories'
p350
F0.0072382177899299998
sS'AnimalsBeingBros'
p351
F0.010380267214799999
sS'classic4chan'
p352
F0.0071090047393400002
sS'amiugly'
p353
F0.0076131153213899998
sS'intj'
p354
F0.0097916143610299999
sS'TrollXChromosomes'
p355
F0.0093005539067100001
sS'unitedkingdom'
p356
F0.0084944048830100007
sS'Damnthatsinteresting'
p357
F0.011031033975599999
sS'loseit'
p358
F0.0140559201791
sS'CrazyIdeas'
p359
F0.0144156752974
sS'TinyHouses'
p360
F0.0116047517682
sS'Bad_Cop_No_Donut'
p361
F0.0115912286702
sS'MorbidReality'
p362
F0.012332511165899999
sS'cats'
p363
F0.0071781469282500001
sS'introvert'
p364
F0.016943873419299999
sS'raisedbynarcissists'
p365
F0.0130105508447
sS'happy'
p366
F0.017079568638899999
sS'explainlikeIAmA'
p367
F0.010374325062200001
sS'misleadingthumbnails'
p368
F0.0076502732240400001
sS'occupywallstreet'
p369
F0.00749806084633
sS'NoFap'
p370
F0.010118756018
sS'blunderyears'
p371
F0.0081132737839799997
sS'webcomics'
p372
F0.0070886438493500004
sS'rage'
p373
F0.0091778780745899995
sS'comics'
p374
F0.0098972481398399998
sS'forhire'
p375
F0.0089025663570900006
sS'behindthegifs'
p376
F0.0080043583941000005
sS'RealEstate'
p377
F0.0077450270240200002
sS'infp'
p378
F0.0081326998953200006
sS'fullmoviesonyoutube'
p379
F0.0121855831378
sS'Design'
p380
F0.0093652950310599992
sS'TrueAskReddit'
p381
F0.0188879707236
sS'engineering'
p382
F0.0070627848725000001
sS'politics'
p383
F0.0095296194074899997
sS'DAE'
p384
F0.0070487281642700001
sS'ForeverAlone'
p385
F0.012597853698999999
sS'yoga'
p386
F0.0145443196005
sS'bicycling'
p387
F0.0073699726258199998
sS'Survival'
p388
F0.0092007304396700008
sS'AskSocialScience'
p389
F0.011232698021600001
sS'TheWayWeWere'
p390
F0.0087855297157600001
sS'Feminism'
p391
F0.00848946135831
sS'nottheonion'
p392
F0.0092300377890500006
sS'Frugal_Jerk'
p393
F0.0074233716475100003
sS'SuicideWatch'
p394
F0.0082595686323399999
sS'socialanxiety'
p395
F0.010415200563
sS'oddlysatisfying'
p396
F0.0106896320622
sS'space'
p397
F0.0093845518380799992
sS'atheism'
p398
F0.0082224673891900003
sS'urbanexploration'
p399
F0.0077480629842500001
sS'gainit'
p400
F0.0125988023952
s.