(dp1
S'Morrowind'
p2
F0.0070210631895699996
sS'truegaming'
p3
F0.0081170991350600005
sS'Metroid'
p4
F0.0076365772469200004
sS'darksouls'
p5
F0.042662481272699997
sS'PlayStationPlus'
p6
F0.01110998889
sS'rpg_gamers'
p7
F0.010296010296
sS'TwoBestFriendsPlay'
p8
F0.0072186210960500001
sS'shittydarksouls'
p9
F0.042737689687200001
sS'Trophies'
p10
F0.0084057158868000009
sS'patientgamers'
p11
F0.0075464971180700001
sS'Megaten'
p12
F0.0088762983947100003
sS'FinalFantasy'
p13
F0.0090115070012500003
sS'MonsterHunter'
p14
F0.0077840679336800001
sS'thelastofus'
p15
F0.0082191780821900002
sS'PS3'
p16
F0.0155831099196
sS'vita'
p17
F0.0072369373281199996
sS'metalgearsolid'
p18
F0.011756629194199999
sS'DarkSouls2'
p19
F0.028239343844300002
sS'Berserk'
p20
F0.0121739130435
sS'JRPG'
p21
F0.0114837530993
s.