(dp1
S'LifeProTips'
p2
F0.0074527634898900004
sS'pettyrevenge'
p3
F0.0073489771018399996
sS'CityPorn'
p4
F0.0074377930039700004
sS'KitchenConfidential'
p5
F0.0071183900663700003
sS'BuyItForLife'
p6
F0.0088644062430699999
sS'everymanshouldknow'
p7
F0.0079794387495899996
sS'dataisbeautiful'
p8
F0.0071331658629000001
sS'skiing'
p9
F0.0152027906492
sS'hiking'
p10
F0.0074911043136299997
sS'ProtectAndServe'
p11
F0.0072369561449099999
sS'environment'
p12
F0.0084830339321399998
sS'woahdude'
p13
F0.0073624118130999998
sS'CCW'
p14
F0.0074460163812400003
sS'boulder'
p15
F0.053281726097300003
sS'YouShouldKnow'
p16
F0.0085802886520999991
sS'childfree'
p17
F0.0076829647205000004
sS'Jeep'
p18
F0.0084828871236600004
sS'JusticePorn'
p19
F0.0073573378395900002
sS'trees'
p20
F0.0075722460720099999
sS'geek'
p21
F0.0084106227317200001
sS'DenverBroncos'
p22
F0.041505195169899999
sS'AbandonedPorn'
p23
F0.0084400814078799992
sS'motorcycles'
p24
F0.0072458076424600001
sS'nfl'
p25
F0.0086501839777900005
sS'Marijuana'
p26
F0.0116477812243
sS'minimalism'
p27
F0.0075028264072099999
sS'gardening'
p28
F0.0079071503716000007
sS'whatisthisthing'
p29
F0.0078378267471000008
sS'EatCheapAndHealthy'
p30
F0.0085174250907699995
sS'NetflixBestOf'
p31
F0.00878851110838
sS'freebies'
p32
F0.0076084117032399999
sS'interestingasfuck'
p33
F0.0071004269537800003
sS'offbeat'
p34
F0.0103893378109
sS'camping'
p35
F0.0082156322097799994
sS'chicago'
p36
F0.0071217371951800001
sS'investing'
p37
F0.0072415102052700003
sS'AskCulinary'
p38
F0.0071709972998099999
sS'lifehacks'
p39
F0.0079932428256500009
sS'guns'
p40
F0.0079484920934499992
sS'bestof'
p41
F0.0074188413487000001
sS'jobs'
p42
F0.0077815835855099998
sS'Economics'
p43
F0.0078105584549300004
sS'legaladvice'
p44
F0.0075251408113499998
sS'Frugal'
p45
F0.0110858174275
sS'Libertarian'
p46
F0.010217464238899999
sS'personalfinance'
p47
F0.0083321950553199992
sS'snowboarding'
p48
F0.014617407192800001
sS'PoliticalDiscussion'
p49
F0.00752712999307
sS'TrueReddit'
p50
F0.0094690133967400003
sS'drunk'
p51
F0.0074598814515000004
sS'AmIFreeToGo'
p52
F0.0070298769771499998
sS'subaru'
p53
F0.010886242419799999
sS'startrek'
p54
F0.0071403692093300001
sS'EarthPorn'
p55
F0.0081047791870800003
sS'Damnthatsinteresting'
p56
F0.0072262367982200001
sS'HistoryPorn'
p57
F0.0073759803826199998
sS'eldertrees'
p58
F0.012031768610699999
sS'TinyHouses'
p59
F0.0071370942717100001
sS'Drugs'
p60
F0.0070656986010299997
sS'Bad_Cop_No_Donut'
p61
F0.0089359411448100001
sS'Homebrewing'
p62
F0.0099901088031700003
sS'beer'
p63
F0.011985478618300001
sS'HomeImprovement'
p64
F0.0072906982433800002
sS'dogs'
p65
F0.0075855017974300002
sS'holdmybeer'
p66
F0.0076851420586899998
sS'cordcutters'
p67
F0.0094441031941000005
sS'MapPorn'
p68
F0.0074459776099999996
sS'Shitty_Car_Mods'
p69
F0.0081103947253300009
sS'Colorado'
p70
F0.12346938775500001
sS'science'
p71
F0.0071350681125000003
sS'Justrolledintotheshop'
p72
F0.0088777381067299994
sS'firstworldproblems'
p73
F0.0071324599708900002
sS'Entrepreneur'
p74
F0.00745933077635
sS'RealEstate'
p75
F0.0079785865033199996
sS'COents'
p76
F0.067221788533300006
sS'Cooking'
p77
F0.0092285695717200002
sS'sysadmin'
p78
F0.0074854012129999996
sS'conspiracy'
p79
F0.0085427634846500008
sS'DIY'
p80
F0.0078441008581300008
sS'politics'
p81
F0.0092207822698000003
sS'technology'
p82
F0.0070785429273800002
sS'southpark'
p83
F0.0072119773598699997
sS'shutupandtakemymoney'
p84
F0.0080761904761899993
sS'MURICA'
p85
F0.0073558117076600003
sS'backpacking'
p86
F0.0083501755132400005
sS'bicycling'
p87
F0.0107078039927
sS'CampingandHiking'
p88
F0.0122188161133
sS'travel'
p89
F0.0087547046309900001
sS'slowcooking'
p90
F0.0078235538909699996
sS'spaceporn'
p91
F0.0070884044402800004
sS'phish'
p92
F0.0082633432674099998
sS'Whatcouldgowrong'
p93
F0.0071170055138599997
sS'ColoradoAvalanche'
p94
F0.022648371631699998
sS'microgrowery'
p95
F0.0093265434571199995
sS'MTB'
p96
F0.0079979751961499999
sS'climbing'
p97
F0.0071882391133000004
sS'space'
p98
F0.0076147852405200004
sS'skeptic'
p99
F0.0078963508126299996
sS'CannabisExtracts'
p100
F0.0092128352970699996
sS'vaporents'
p101
F0.0070120589548900002
s.