(dp1
S'GlobalOffensive'
p2
F0.0072450178164300003
sS'Bravenewbies'
p3
F0.0084857056268300007
sS'heroesofthestorm'
p4
F0.010543763524999999
sS'allthingszerg'
p5
F0.023671974073599999
sS'Eve'
p6
F0.010603588907
sS'StarcraftCirclejerk'
p7
F0.024183583406900001
sS'Cynicalbrit'
p8
F0.0080184575816000005
sS'nl_Kripparrian'
p9
F0.018974831993699998
sS'esports'
p10
F0.0091783216783200006
sS'hearthstone'
p11
F0.0070562378299199998
sS'AllThingsTerran'
p12
F0.020639417239999999
sS'Twitch'
p13
F0.0150314012149
sS'speedrun'
p14
F0.0093840768600600005
sS'itmejp'
p15
F0.01248049922
sS'allthingsprotoss'
p16
F0.0183062955797
sS'starcraft'
p17
F0.04497277324
s.