(dp1
S'losangeleskings'
p2
F0.0211882010802
sS'CalgaryFlames'
p3
F0.0144709074465
sS'NYGiants'
p4
F0.026415094339600001
sS'nhl'
p5
F0.023353688727499999
sS'SanJoseSharks'
p6
F0.016214025131700002
sS'leafs'
p7
F0.0126339969372
sS'newjersey'
p8
F0.033101757253799997
sS'stlouisblues'
p9
F0.0502814258912
sS'hawks'
p10
F0.0124869927159
sS'Habs'
p11
F0.013026958567000001
sS'rangers'
p12
F0.023702031602699999
sS'rutgers'
p13
F0.0118569131833
sS'nyjets'
p14
F0.023381581040200002
sS'NewYorkMets'
p15
F0.0211251945742
sS'EA_NHL'
p16
F0.023265592151399998
sS'DetroitRedWings'
p17
F0.0124051371862
sS'hockey'
p18
F0.019685446356099999
sS'hockeyplayers'
p19
F0.018202502844100001
sS'ColoradoAvalanche'
p20
F0.0146123026161
sS'caps'
p21
F0.0152859960552
sS'Flyers'
p22
F0.018476156959400001
sS'wildhockey'
p23
F0.0148560817084
sS'BostonBruins'
p24
F0.0117720922932
sS'penguins'
p25
F0.017123287671199999
sS'NHLHUT'
p26
F0.012768674186000001
sS'NYKnicks'
p27
F0.00779833151977
sS'canucks'
p28
F0.011260053619299999
sS'OttawaSenators'
p29
F0.0094707520891399999
s.