(dp1
S'pathofexile'
p2
F0.0112
sS'Borderlands'
p3
F0.00729997118432
sS'wow'
p4
F0.0096987129844700003
sS'heroesofthestorm'
p5
F0.0154028436019
sS'diablo3'
p6
F0.059865997621599998
sS'Diablo'
p7
F0.065112008029600002
sS'hearthstone'
p8
F0.0096800703310099996
sS'marvelheroes'
p9
F0.0091426599965499997
sS'WildStar'
p10
F0.0108900274038
sS'starcraft'
p11
F0.0073423782920999997
s.