(dp1
S'GWCouples'
p2
F0.0134070823063
sS'pussy'
p3
F0.0086069271881700007
sS'RandomActsOfBlowJob'
p4
F0.026181090780699998
sS'snapchat'
p5
F0.083238022620400004
sS'BBWGW'
p6
F0.0101644667184
sS'incest'
p7
F0.0072916059032799999
sS'gonewildcurvy'
p8
F0.0206519284334
sS'gonewildaudio'
p9
F0.010466452901
sS'Amateur'
p10
F0.01171835022
sS'RealGirls'
p11
F0.0111680817055
sS'GoneMild'
p12
F0.017891939769700001
sS'TinyTits'
p13
F0.0072632944228300002
sS'Hotwife'
p14
F0.0094575973944599993
sS'AsiansGoneWild'
p15
F0.0150588235294
sS'asstastic'
p16
F0.014458183234300001
sS'BigBoobsGW'
p17
F0.0161328588375
sS'Boobies'
p18
F0.0072474633878100003
sS'treesgonewild'
p19
F0.010870971916700001
sS'cumsluts'
p20
F0.0108463107617
sS'gonewild'
p21
F0.016728000383799999
sS'dirtykikpals'
p22
F0.084061253100399996
sS'NSFW_GIF'
p23
F0.0075687693654100004
sS'altgonewild'
p24
F0.0115843270869
sS'Kikpals'
p25
F0.027076547231299999
sS'nsfw_gifs'
p26
F0.0072356816300099998
sS'wifesharing'
p27
F0.014999999999999999
sS'r4r'
p28
F0.019420161557999999
sS'penis'
p29
F0.0131491646058
sS'milf'
p30
F0.0090437558185900001
sS'TributeMe'
p31
F0.0124888492417
sS'gonewildstories'
p32
F0.0085804887147900005
sS'tipofmypenis'
p33
F0.0074498776613200002
sS'GoneWildPlus'
p34
F0.0186468720655
sS'dirtypenpals'
p35
F0.040317424498900002
sS'workgonewild'
p36
F0.0108624334767
sS'MassiveCock'
p37
F0.00951380737629
sS'GWNerdy'
p38
F0.013124684502800001
sS'BustyPetite'
p39
F0.0084413889130600002
sS'ladybonersgw'
p40
F0.0105782514308
s.