(dp1
S'Vaping101'
p2
F0.065151733064900005
sS'electronic_cigarette'
p3
F0.064593906489699995
sS'vaporents'
p4
F0.0205404750364
sS'StonerEngineering'
p5
F0.0071710290426700001
sS'Coilporn'
p6
F0.123349003806
sS'hookah'
p7
F0.0076574021554199996
sS'VapePorn'
p8
F0.089647550042999999
sS'CannabisExtracts'
p9
F0.0091217855410000003
sS'drunkvapes'
p10
F0.070309896701099994
sS'RBA'
p11
F0.15236796429499999
sS'ecigclassifieds'
p12
F0.131896472322
s.