(dp1
S'postrock'
p2
F0.0128547579299
sS'ToolBand'
p3
F0.0094323732524799996
sS'Bass'
p4
F0.0112127957787
sS'progrockmusic'
p5
F0.0136095876498
sS'Luthier'
p6
F0.0071942446043200001
sS'poppunkers'
p7
F0.0074572127139400004
sS'audioengineering'
p8
F0.0115589804386
sS'Metal'
p9
F0.020139303482599999
sS'Metalcore'
p10
F0.049204301075300001
sS'Guitar'
p11
F0.011873595134200001
sS'WeAreTheMusicMakers'
p12
F0.00843201231807
sS'BlackMetal'
p13
F0.0091386794608200005
sS'PostHardcore'
p14
F0.0214698596201
sS'guitarpedals'
p15
F0.0091358964598400004
sS'drums'
p16
F0.0147345245152
sS'musictheory'
p17
F0.0082510313789200002
sS'crappymusic'
p18
F0.0089467901428299992
sS'progmetal'
p19
F0.092066508313499995
sS'Hardcore'
p20
F0.014745828482700001
sS'MetalMemes'
p21
F0.020548909218899999
sS'mathrock'
p22
F0.013698630137
s.