(dp1
S'Heavymind'
p2
F0.0089983022071300003
sS'unitedkingdom'
p3
F0.0078457105360800004
sS'audiophile'
p4
F0.0091139546113000007
sS'FL_Studio'
p5
F0.0158227848101
sS'dubstep'
p6
F0.049063670412
sS'ContagiousLaughter'
p7
F0.0070029673590500004
sS'festivals'
p8
F0.010989010989
sS'Drugs'
p9
F0.0082962962963
sS'MDMA'
p10
F0.011531607086700001
sS'deadmau5'
p11
F0.014952780692500001
sS'audioengineering'
p12
F0.012918379330599999
sS'edmproduction'
p13
F0.033656062701699997
sS'Techno'
p14
F0.020157623522300001
sS'DrugNerds'
p15
F0.0081157852022199998
sS'britishproblems'
p16
F0.0075676422820400002
sS'Graffiti'
p17
F0.0119787546615
sS'glitch_art'
p18
F0.0098841534700800007
sS'electronicmusic'
p19
F0.036016686630000003
sS'Beatmatch'
p20
F0.029834553837799999
sS'ableton'
p21
F0.0132953466287
sS'skrillex'
p22
F0.0119464797706
sS'synthesizers'
p23
F0.0096481939051700008
sS'realdubstep'
p24
F0.050732039496100001
sS'NotTimAndEric'
p25
F0.0079236864374200005
sS'Psychonaut'
p26
F0.0081938192301900005
sS'aves'
p27
F0.0194742900998
sS'GamePhysics'
p28
F0.0077519379845000002
sS'DJs'
p29
F0.040827203922800002
sS'youtubehaiku'
p30
F0.0071904528855899997
sS'House'
p31
F0.0281631520533
sS'futurebeats'
p32
F0.027318417639399999
sS'EDM'
p33
F0.0171049101154
sS'WeAreTheMusicMakers'
p34
F0.012754222681799999
sS'hardstyle'
p35
F0.016020506247999999
sS'Monstercat'
p36
F0.0148011100833
sS'trap'
p37
F0.0234146341463
sS'Cyberpunk'
p38
F0.0090079123554499992
sS'trance'
p39
F0.021510245669600001
sS'DeepIntoYouTube'
p40
F0.0090655111465900006
s.