(dp1
S'FancyFollicles'
p2
F0.0125552389212
sS'awwwtf'
p3
F0.0071149873766400001
sS'Awwducational'
p4
F0.0101016103155
sS'DoesAnybodyElse'
p5
F0.0072023895553299999
sS'pettyrevenge'
p6
F0.0089310895929299999
sS'ABraThatFits'
p7
F0.010766167686700001
sS'goldenretrievers'
p8
F0.0136882948911
sS'woodworking'
p9
F0.0085725327618299992
sS'everymanshouldknow'
p10
F0.00755116910644
sS'Pets'
p11
F0.030409506164999999
sS'Foodforthought'
p12
F0.0072059381264599999
sS'relationships'
p13
F0.0073480741677900002
sS'TalesFromRetail'
p14
F0.0091262822780299995
sS'BabyBumps'
p15
F0.010385836517200001
sS'Equestrian'
p16
F0.0092950265572200007
sS'booksuggestions'
p17
F0.0075337034099900004
sS'Assistance'
p18
F0.0075371057513900002
sS'offmychest'
p19
F0.0075083210774799999
sS'Anxiety'
p20
F0.0088495575221199992
sS'YouShouldKnow'
p21
F0.010599008398300001
sS'childfree'
p22
F0.0135901049006
sS'recipes'
p23
F0.0146362670273
sS'howto'
p24
F0.010115694469700001
sS'xxketo'
p25
F0.0092442801016900007
sS'wedding'
p26
F0.0113524991833
sS'bodyweightfitness'
p27
F0.0082997862929299997
sS'homestead'
p28
F0.0107337673764
sS'IWantToLearn'
p29
F0.0096128751631099994
sS'freebies'
p30
F0.0084553440702800006
sS'corgi'
p31
F0.012953367875600001
sS'Paleo'
p32
F0.0109786526199
sS'gardening'
p33
F0.0158962318617
sS'BackYardChickens'
p34
F0.0081124932395900008
sS'AskWomen'
p35
F0.0099837444161400002
sS'NetflixBestOf'
p36
F0.0078952281880999998
sS'tea'
p37
F0.00726454516233
sS'TrollXChromosomes'
p38
F0.0085044562697899999
sS'MechanicAdvice'
p39
F0.0088490857721600005
sS'TwoXChromosomes'
p40
F0.0082366784333500007
sS'Baking'
p41
F0.011290221413800001
sS'camping'
p42
F0.0091166517024700005
sS'skeptic'
p43
F0.0075827306596499998
sS'SkincareAddiction'
p44
F0.0131750552288
sS'InteriorDesign'
p45
F0.012819652325700001
sS'AskCulinary'
p46
F0.0126536138305
sS'RoomPorn'
p47
F0.0070316646028700004
sS'foodhacks'
p48
F0.0089217788228800003
sS'lifehacks'
p49
F0.0091797911873999997
sS'tattoos'
p50
F0.0072289156626499998
sS'jobs'
p51
F0.00862970711297
sS'legaladvice'
p52
F0.0084122755081900008
sS'PlantedTank'
p53
F0.00710815188051
sS'Frugal'
p54
F0.012901950820100001
sS'LadyBoners'
p55
F0.0084786552630600007
sS'whatsthisplant'
p56
F0.0089570468887800007
sS'BuyItForLife'
p57
F0.0119401927438
sS'keto'
p58
F0.0087796312554900002
sS'LifeProTips'
p59
F0.0077764003155600002
sS'fitmeals'
p60
F0.0108077759843
sS'vegetarian'
p61
F0.0083938774070700002
sS'personalfinance'
p62
F0.0078108890556800002
sS'relationship_advice'
p63
F0.0079658302189000007
sS'Hair'
p64
F0.0083756140774699991
sS'AnimalsBeingBros'
p65
F0.0098427423916700001
sS'Dachshund'
p66
F0.0072448979591800003
sS'whatsthisbug'
p67
F0.0072576695311500003
sS'weddingplanning'
p68
F0.016004283674399999
sS'hiking'
p69
F0.0083287499017799995
sS'xxfitness'
p70
F0.016139878950900001
sS'puppy101'
p71
F0.089658621983200001
sS'Health'
p72
F0.0082533897850899998
sS'ADHD'
p73
F0.0082329623418199993
sS'RATS'
p74
F0.00848750715239
sS'femalefashionadvice'
p75
F0.0154406866011
sS'whatisthisthing'
p76
F0.0082528224652800002
sS'loseit'
p77
F0.0111195943697
sS'TinyHouses'
p78
F0.0070921985815599999
sS'Bad_Cop_No_Donut'
p79
F0.00706340829748
sS'EatCheapAndHealthy'
p80
F0.014791194436999999
sS'MorbidReality'
p81
F0.00743811168682
sS'cats'
p82
F0.0081272215639800003
sS'ketorecipes'
p83
F0.010313816741100001
sS'raisedbynarcissists'
p84
F0.0106929878676
sS'dogs'
p85
F0.090105229464200007
sS'nutrition'
p86
F0.0086824696802599993
sS'MakeupAddiction'
p87
F0.0110876230208
sS'cordcutters'
p88
F0.0085552581933000006
sS'somethingimade'
p89
F0.0090102773475999997
sS'germanshepherds'
p90
F0.0249766815214
sS'namenerds'
p91
F0.0075676827968500001
sS'curlyhair'
p92
F0.0087948657000199992
sS'TheGirlSurvivalGuide'
p93
F0.0153082580877
sS'offbeat'
p94
F0.0071230368738699999
sS'lookatmydog'
p95
F0.032981397687299997
sS'RealEstate'
p96
F0.010868890131
sS'HomeImprovement'
p97
F0.014918360155100001
sS'TryingForABaby'
p98
F0.0074579160451699999
sS'C25K'
p99
F0.0085925690190200004
sS'Cooking'
p100
F0.0126579316799
sS'Aquariums'
p101
F0.010632780083000001
sS'bigboobproblems'
p102
F0.0086925027164100003
sS'DIY'
p103
F0.0087859736811300004
sS'TalesFromYourServer'
p104
F0.0090920336467099992
sS'CampingandHiking'
p105
F0.010537936571699999
sS'shutupandtakemymoney'
p106
F0.00748346675948
sS'yoga'
p107
F0.0092941998602400003
sS'self'
p108
F0.0079923098050000002
sS'pitbulls'
p109
F0.0343129591996
sS'Parenting'
p110
F0.0104524323175
sS'slowcooking'
p111
F0.015047082807500001
sS'RedditLaqueristas'
p112
F0.0109241760774
sS'getdisciplined'
p113
F0.0073298429319399996
sS'knitting'
p114
F0.0104919399666
sS'AnimalsBeingJerks'
p115
F0.010021133001599999
sS'sewing'
p116
F0.011673151751
sS'budgetfood'
p117
F0.0105895369053
sS'Mommit'
p118
F0.0075162570728799999
sS'running'
p119
F0.0086327516565900004
sS'Teachers'
p120
F0.0071200922221500004
sS'progresspics'
p121
F0.00762960385705
sS'crochet'
p122
F0.011259580817999999
sS'dogpictures'
p123
F0.034190755125399999
sS'beyondthebump'
p124
F0.0079770261646500001
sS'secretsanta'
p125
F0.0084334186519700004
sS'crafts'
p126
F0.0110420979986
sS'needadvice'
p127
F0.0078971733565699996
s.