(dp1
S'GlobalOffensive'
p2
F0.0109133727108
sS'indiegameswap'
p3
F0.014200763291
sS'RandomActsOfGaming'
p4
F0.011137656045
sS'GiftofGames'
p5
F0.0098561534363299994
sS'heroesofthestorm'
p6
F0.0086619467626500007
sS'GameTrade'
p7
F0.011111111111100001
sS'learndota2'
p8
F0.023397606889699999
sS'tf2trade'
p9
F0.025303643724699999
sS'dota2loungebets'
p10
F0.066240698803
sS'sgsflair'
p11
F0.029233278955999999
sS'SteamGameSwap'
p12
F0.033101391650100002
sS'DotA2'
p13
F0.0439736850389
sS'hearthstone'
p14
F0.0080721171343500001
sS'GameDeals'
p15
F0.0078405523079299998
sS'Twitch'
p16
F0.0071406932964000001
sS'GlobalOffensiveTrade'
p17
F0.033831174189299998
sS'Steam'
p18
F0.014676034348199999
sS'tf2'
p19
F0.0077012981592000001
s.