(dp1
S'learndota2'
p2
F0.017597028057499998
sS'Dota2Trade'
p3
F0.066240698803
sS'sgsflair'
p4
F0.0077433628318600003
sS'SteamGameSwap'
p5
F0.0091019852361500005
sS'DotA2'
p6
F0.022759545597999999
sS'GlobalOffensiveTrade'
p7
F0.0082345944462199998
s.