(dp1
S'Heavymind'
p2
F0.0074999999999999997
sS'livesound'
p3
F0.0130955457913
sS'postrock'
p4
F0.0080770425597999993
sS'woodworking'
p5
F0.0074520936834600003
sS'DeepIntoYouTube'
p6
F0.0082476055338800008
sS'everymanshouldknow'
p7
F0.0082634510620099993
sS'carporn'
p8
F0.0076460005535599999
sS'Bass'
p9
F0.0293596693683
sS'audioengineering'
p10
F0.032742429568599997
sS'nostalgia'
p11
F0.0071636307974900001
sS'woahdude'
p12
F0.0084904001540700002
sS'piano'
p13
F0.0099901413079199995
sS'MetalMemes'
p14
F0.0140320733104
sS'PerfectTiming'
p15
F0.0081928838951299994
sS'beatles'
p16
F0.0084341767510100005
sS'IWantToLearn'
p17
F0.0073201283958300003
sS'progrockmusic'
p18
F0.011299915038199999
sS'Djent'
p19
F0.0147345245152
sS'beards'
p20
F0.0080610704417900005
sS'AbandonedPorn'
p21
F0.00716121924348
sS'dadjokes'
p22
F0.0076514678325999997
sS'CrappyDesign'
p23
F0.0077239833337400003
sS'WeAreTheMusicMakers'
p24
F0.032548372581399997
sS'minimalism'
p25
F0.0071071705017200001
sS'cringe'
p26
F0.0083919006610099992
sS'TheSimpsons'
p27
F0.0071326676176900004
sS'interestingasfuck'
p28
F0.0071718263102699999
sS'mathrock'
p29
F0.0115074798619
sS'skateboarding'
p30
F0.0112288896874
sS'radiohead'
p31
F0.0092769440654800004
sS'marchingband'
p32
F0.0084083074077200004
sS'firstworldanarchists'
p33
F0.0078108357594300001
sS'nononono'
p34
F0.0083940886699499992
sS'poppunkers'
p35
F0.0111429905918
sS'breakingbad'
p36
F0.0075412045195399997
sS'malefashionadvice'
p37
F0.0070728607159000001
sS'lifehacks'
p38
F0.0070069023216899999
sS'Hardcore'
p39
F0.0087223791327500008
sS'LetsTalkMusic'
p40
F0.0093349686563100002
sS'tattoos'
p41
F0.0085086986249300004
sS'StandUpComedy'
p42
F0.0075912760573599997
sS'facepalm'
p43
F0.0073072375003799999
sS'Metal'
p44
F0.022046353872200001
sS'NotTimAndEric'
p45
F0.0086173347417599997
sS'vinyl'
p46
F0.015489813005900001
sS'pinkfloyd'
p47
F0.0097584948048300008
sS'lewronggeneration'
p48
F0.0075949367088600003
sS'RedHotChiliPeppers'
p49
F0.0074576839282699996
sS'Unexpected'
p50
F0.0075991776441000003
sS'headphones'
p51
F0.00749864277959
sS'punk'
p52
F0.0122017190599
sS'progmetal'
p53
F0.024090352731700002
sS'guitarpedals'
p54
F0.016687183695799999
sS'snowboarding'
p55
F0.0071932557500200001
sS'drunk'
p56
F0.0078118064802499996
sS'Luthier'
p57
F0.0076830110497199998
sS'Music'
p58
F0.0089842357186799993
sS'ContagiousLaughter'
p59
F0.0085235083860300005
sS'singing'
p60
F0.0080560702489300001
sS'longboarding'
p61
F0.0080620291642799994
sS'CrazyIdeas'
p62
F0.0078551167357600003
sS'Guitar'
p63
F0.025421612910500001
sS'Autos'
p64
F0.00701807918224
sS'beer'
p65
F0.0075169606512899998
sS'ifyoulikeblank'
p66
F0.0086580086580100007
sS'trailerparkboys'
p67
F0.0075114678899099998
sS'musictheory'
p68
F0.0193969917648
sS'holdmybeer'
p69
F0.0083387444038099997
sS'mildlyinfuriating'
p70
F0.0075691578240800004
sS'oddlysatisfying'
p71
F0.00751085359613
sS'youtubehaiku'
p72
F0.0089169549075
sS'Shitty_Car_Mods'
p73
F0.00763837087871
sS'Metalcore'
p74
F0.019036954087299999
sS'blunderyears'
p75
F0.0080853325235299995
sS'offbeat'
p76
F0.0070467648943
sS'Blink182'
p77
F0.0076401407846200002
sS'audiophile'
p78
F0.0096983758700700008
sS'crappymusic'
p79
F0.0081614146452100005
sS'ToolBand'
p80
F0.0131093492425
sS'Jazz'
p81
F0.022553516819600002
sS'nonononoyes'
p82
F0.0080288920725899993
sS'Whatcouldgowrong'
p83
F0.0077292771144000004
sS'notinteresting'
p84
F0.0076219026054800002
sS'edmproduction'
p85
F0.0085182963407299996
sS'PostHardcore'
p86
F0.0127123749849
sS'synthesizers'
p87
F0.0086640995260699998
sS'guitarlessons'
p88
F0.0097848819838699998
sS'drumcorps'
p89
F0.0133928571429
sS'TimAndEric'
p90
F0.0075235999716099997
sS'listentothis'
p91
F0.011565150347
s.