(dp1
S'Vaping101'
p2
F0.052701212789400001
sS'electronic_cigarette'
p3
F0.028942624902199999
sS'Coilporn'
p4
F0.090587715422000004
sS'hookah'
p5
F0.0074046184738999999
sS'VapePorn'
p6
F0.090511969246899998
sS'glassheads'
p7
F0.0070332480818399998
sS'DIY_eJuice'
p8
F0.070309896701099994
sS'CannabisExtracts'
p9
F0.0073929961089499998
sS'vaporents'
p10
F0.0134065463881
sS'RBA'
p11
F0.089615699100599994
sS'ecigclassifieds'
p12
F0.073954626334500007
s.