(dp1
S'Heavymind'
p2
F0.010763347967699999
sS'DoesAnybodyElse'
p3
F0.0089560186866099994
sS'fffffffuuuuuuuuuuuu'
p4
F0.0082024086831499997
sS'perfectloops'
p5
F0.0084143605085999999
sS'everymanshouldknow'
p6
F0.0070143944682700002
sS'carporn'
p7
F0.0091872522110399996
sS'battlefield3'
p8
F0.00870924519875
sS'Stance'
p9
F0.0071347031963499997
sS'MDMA'
p10
F0.0121079626671
sS'audioengineering'
p11
F0.0115766885024
sS'outside'
p12
F0.0085206277442100003
sS'StonerEngineering'
p13
F0.0089683325086600003
sS'Rainmeter'
p14
F0.0070098007399200003
sS'woahdude'
p15
F0.0101970806676
sS'hiphopheads'
p16
F0.0080759803921600006
sS'nononono'
p17
F0.0095070422535200004
sS'Frisson'
p18
F0.0093409444732699999
sS'YouShouldKnow'
p19
F0.0085351028264600004
sS'shutupandtakemymoney'
p20
F0.0101781170483
sS'JusticePorn'
p21
F0.0072353389185099998
sS'trees'
p22
F0.0070179910176700003
sS'geek'
p23
F0.00856065929854
sS'realdubstep'
p24
F0.0556172154396
sS'toosoon'
p25
F0.0070438199747900002
sS'photoshopbattles'
p26
F0.0073482134655999997
sS'DJs'
p27
F0.029394324438799999
sS'holdmybeer'
p28
F0.0095492311741000001
sS'techsupportgore'
p29
F0.0083917569577200007
sS'freebies'
p30
F0.00742128660127
sS'CrappyDesign'
p31
F0.0073129472999300003
sS'WeAreTheMusicMakers'
p32
F0.015081799591000001
sS'4chan'
p33
F0.0093818317642000004
sS'hardstyle'
p34
F0.0162980209546
sS'Monstercat'
p35
F0.024910139597099999
sS'montageparodies'
p36
F0.011090360580399999
sS'Cyberpunk'
p37
F0.0095278650130399996
sS'whitepeoplegifs'
p38
F0.0078496327236100005
sS'ArcherFX'
p39
F0.0070609399595200004
sS'cringe'
p40
F0.0081757445362900007
sS'MechanicalKeyboards'
p41
F0.0070877303512400002
sS'see'
p42
F0.0079117079981399999
sS'skateboarding'
p43
F0.0082745317021199992
sS'Android'
p44
F0.0071828574073199997
sS'festivals'
p45
F0.0128822893107
sS'Cinemagraphs'
p46
F0.0070188679245300001
sS'firstworldanarchists'
p47
F0.0089199979784700002
sS'PerfectTiming'
p48
F0.0092701397049199993
sS'LSD'
p49
F0.010606581814
sS'humor'
p50
F0.0091324200913200006
sS'shittyfoodporn'
p51
F0.0070341047503000003
sS'breakingbad'
p52
F0.0072848602808299997
sS'firstworldproblems'
p53
F0.0085711908130100007
sS'LearnUselessTalents'
p54
F0.0084037972713599998
sS'facepalm'
p55
F0.0077247523813999998
sS'lifehacks'
p56
F0.00746301709629
sS'trap'
p57
F0.054970375246900002
sS'blackpeoplegifs'
p58
F0.0085335882031699999
sS'glitch_art'
p59
F0.0110544217687
sS'Beatmatch'
p60
F0.020863162200899999
sS'LucidDreaming'
p61
F0.0087952120738999991
sS'FloridaMan'
p62
F0.0071682684649300001
sS'FiftyFifty'
p63
F0.0088649356536600003
sS'skrillex'
p64
F0.035908983171399997
sS'delusionalartists'
p65
F0.0072996506595800004
sS'NotTimAndEric'
p66
F0.0075452061922699999
sS'shittyaskscience'
p67
F0.0076105794589700002
sS'GamePhysics'
p68
F0.0097531070612500003
sS'lewronggeneration'
p69
F0.0083199999999999993
sS'TopGear'
p70
F0.0071380683834800004
sS'headphones'
p71
F0.0088419638859899997
sS'DeepIntoYouTube'
p72
F0.010819787630200001
sS'watchpeopledie'
p73
F0.00779680090025
sS'wheredidthesodago'
p74
F0.0092740645986600003
sS'quityourbullshit'
p75
F0.0079150860811199996
sS'Images'
p76
F0.0070933290826500003
sS'mashups'
p77
F0.0118421052632
sS'battlestations'
p78
F0.0094164344227700009
sS'ANormalDayInRussia'
p79
F0.0073463537000499997
sS'drunk'
p80
F0.0082504012841100004
sS'reactiongifs'
p81
F0.0075963002860199996
sS'nostalgia'
p82
F0.0072261072261100004
sS'IdiotsFightingThings'
p83
F0.0081739414745800008
sS'ContagiousLaughter'
p84
F0.0091762252346200002
sS'Damnthatsinteresting'
p85
F0.0076492390189999999
sS'longboarding'
p86
F0.0076708507670899999
sS'CrazyIdeas'
p87
F0.0082600899497299995
sS'DnB'
p88
F0.049063670412
sS'Drugs'
p89
F0.0126599071354
sS'OutOfTheLoop'
p90
F0.0082895530100799992
sS'seduction'
p91
F0.0074692719823500004
sS'gif'
p92
F0.0080038676407400006
sS'Techno'
p93
F0.0115363283417
sS'ifyoulikeblank'
p94
F0.0078969684121299993
sS'misleadingthumbnails'
p95
F0.0088657902781999996
sS'aves'
p96
F0.027310758544500002
sS'Pareidolia'
p97
F0.0072442600923099997
sS'shittyreactiongifs'
p98
F0.0070695553021699999
sS'androidthemes'
p99
F0.0070938042411899998
sS'Unexpected'
p100
F0.0088956665395899994
sS'ableton'
p101
F0.0137817546025
sS'mildlyinfuriating'
p102
F0.0075231481481500004
sS'oddlysatisfying'
p103
F0.0089345891298699999
sS'youtubehaiku'
p104
F0.010822060353799999
sS'edmproduction'
p105
F0.041155301282599997
sS'Psychonaut'
p106
F0.0106402245767
sS'Shitty_Car_Mods'
p107
F0.0090794124323100005
sS'Metalcore'
p108
F0.0072215422276600003
sS'Autos'
p109
F0.00746585221006
sS'rage'
p110
F0.0078754331488200009
sS'House'
p111
F0.015756193635299998
sS'interestingasfuck'
p112
F0.0078118616091100001
sS'EDM'
p113
F0.038951044811500003
sS'offbeat'
p114
F0.0081048456630499997
sS'behindthegifs'
p115
F0.0073800738007400004
sS'fullmoviesonyoutube'
p116
F0.0071600106733100003
sS'audiophile'
p117
F0.010043875878800001
sS'awesome'
p118
F0.0078322385042999994
sS'FL_Studio'
p119
F0.015235765124600001
sS'hardware'
p120
F0.0072384428223800003
sS'conspiracy'
p121
F0.0072368536333200003
sS'electronicmusic'
p122
F0.049112087072800001
sS'techsupportmacgyver'
p123
F0.0077173605211000003
sS'HighQualityGifs'
p124
F0.0085286458333300001
sS'trance'
p125
F0.016027067937000001
sS'self'
p126
F0.0072158418023100003
sS'DaftPunk'
p127
F0.0107798165138
sS'spaceporn'
p128
F0.0078930751420799999
sS'howtonotgiveafuck'
p129
F0.0076919132352199996
sS'nonononoyes'
p130
F0.0094061172196800002
sS'Whatcouldgowrong'
p131
F0.0087274849457499998
sS'wallpapers'
p132
F0.0114731390026
sS'notinteresting'
p133
F0.0080802451936500003
sS'AnimalsBeingJerks'
p134
F0.0074787419321800004
sS'wallpaper'
p135
F0.0091652566271899997
sS'CarAV'
p136
F0.0075383648927600001
sS'CannabisExtracts'
p137
F0.0070758467164900004
sS'futurebeats'
p138
F0.025883795381799999
sS'Graffiti'
p139
F0.0088944231966599993
sS'listentothis'
p140
F0.0095511579998799993
sS'ImGoingToHellForThis'
p141
F0.0079333759712600007
sS'deadmau5'
p142
F0.019224962254699999
s.