(dp1
S'Whatisthis'
p2
F0.00780014757036
sS'awwwtf'
p3
F0.0092376182526400005
sS'TalesFromThePizzaGuy'
p4
F0.0072821846553999996
sS'gardening'
p5
F0.0100561695959
sS'BackYardChickens'
p6
F0.0081049787726699997
sS'BuyItForLife'
p7
F0.0097403937430399993
sS'crafts'
p8
F0.0106749694207
sS'pettyrevenge'
p9
F0.00763796751174
sS'PublicFreakout'
p10
F0.0070377817758499996
sS'AmIFreeToGo'
p11
F0.0081549439347599999
sS'Glitch_in_the_Matrix'
p12
F0.0071214131117800002
sS'IdiotsFightingThings'
p13
F0.0071369179600900001
sS'gamecollecting'
p14
F0.0093637270703799992
sS'TheWayWeWere'
p15
F0.0089738587592700005
sS'BasicIncome'
p16
F0.0071216617210700002
sS'budgetfood'
p17
F0.012699522311500001
sS'nostalgia'
p18
F0.0071663984057600003
sS'financialindependence'
p19
F0.0088012139605499994
sS'whatisthisthing'
p20
F0.0079246194733000007
sS'Silverbugs'
p21
F0.00729348343111
sS'techsupportmacgyver'
p22
F0.0083480652131200008
sS'eFreebies'
p23
F0.0084388185654000001
sS'Bad_Cop_No_Donut'
p24
F0.0082266465462700004
sS'shittyfoodporn'
p25
F0.0073374173675300001
sS'EatCheapAndHealthy'
p26
F0.011007927519800001
sS'ExpectationVsReality'
p27
F0.0081287186792899993
sS'HailCorporate'
p28
F0.0091762252346200002
sS'shittybattlestations'
p29
F0.0074563011856699996
sS'slowcooking'
p30
F0.0081534772182299993
sS'foodhacks'
p31
F0.0093314093314100007
sS'lifehacks'
p32
F0.0073745239308200001
sS'Frugal_Jerk'
p33
F0.019277474195500001
sS'Anarchy101'
p34
F0.011792452830199999
sS'Assistance'
p35
F0.0076625445717299996
sS'nononono'
p36
F0.0077560560985999996
sS'Anarchism'
p37
F0.0130236174555
sS'YouShouldKnow'
p38
F0.0073609979490299998
sS'collapse'
p39
F0.0097230406599900007
sS'Hammocks'
p40
F0.0077160493827199998
sS'RandomKindness'
p41
F0.0071637289094199997
sS'mturk'
p42
F0.0083087149187600004
sS'occupywallstreet'
p43
F0.00889586603872
sS'sewing'
p44
F0.0082517328638999996
sS'snackexchange'
p45
F0.0094428706326700005
sS'malelivingspace'
p46
F0.0081197933143499993
sS'vegan'
p47
F0.0082278481012700005
sS'Ebay'
p48
F0.013607594936699999
sS'somethingimade'
p49
F0.0105672647042
sS'Frugal'
p50
F0.0126620169426
sS'minimalism'
p51
F0.0083394428152500002
sS'lostgeneration'
p52
F0.0084776119403000005
sS'delusionalartists'
p53
F0.0078114743337299999
sS'mycology'
p54
F0.012870884704
sS'ghettoglamourshots'
p55
F0.0078459343794600005
sS'whatsthisplant'
p56
F0.0074815299728800003
sS'homestead'
p57
F0.0134357005758
sS'howto'
p58
F0.0084168336673300006
sS'Random_Acts_Of_Amazon'
p59
F0.0084069657716400008
sS'AbandonedPorn'
p60
F0.0074335198099499998
sS'techsupportgore'
p61
F0.0072731755424100004
sS'ThriftStoreHauls'
p62
F0.033591513722799997
sS'lockpicking'
p63
F0.0096005486027799999
sS'Anticonsumption'
p64
F0.024502297090399999
sS'Pareidolia'
p65
F0.0072843159572000002
sS'TinyHouses'
p66
F0.0147160266728
sS'freebies'
p67
F0.014401868350500001
sS'beermoney'
p68
F0.011663376996200001
sS'NewsOfTheWeird'
p69
F0.0073568050446699996
sS'preppers'
p70
F0.0098980203959200003
sS'Graffiti'
p71
F0.0083378895571400002
sS'LearnUselessTalents'
p72
F0.0082100736300300004
sS'Flipping'
p73
F0.040281855548999997
sS'findareddit'
p74
F0.0080048725311099994
sS'urbanexploration'
p75
F0.011078140455
sS'Survival'
p76
F0.012926391382399999
s.