(dp1
S'getdisciplined'
p2
F0.0085444003661900008
sS'ShitAmericansSay'
p3
F0.0087619047619000006
sS'badhistory'
p4
F0.0109507640068
sS'latin'
p5
F0.011031255223100001
sS'EatCheapAndHealthy'
p6
F0.0070539242765500004
sS'AskSocialScience'
p7
F0.0087728682999899995
sS'CityPorn'
p8
F0.0073416003454899997
sS'French'
p9
F0.028774504184300002
sS'Scotland'
p10
F0.0086013173188700005
sS'TrueAskReddit'
p11
F0.0073552673204699999
sS'TEFL'
p12
F0.0083110715345799998
sS'SampleSize'
p13
F0.0071903649110200002
sS'changemyview'
p14
F0.0082385564441599998
sS'classicalmusic'
p15
F0.0071752577319600004
sS'Infographics'
p16
F0.0070759625390200004
sS'polandball'
p17
F0.0135148305773
sS'Korean'
p18
F0.0080420661923900003
sS'solotravel'
p19
F0.0081394320092000004
sS'linguistics'
p20
F0.033501778027299998
sS'AskUK'
p21
F0.0071819058848799997
sS'languagelearning'
p22
F0.086562744927299998
sS'AskHistorians'
p23
F0.0093812759635800002
sS'badlinguistics'
p24
F0.0292965690114
sS'travel'
p25
F0.0086666821983600005
sS'circlebroke'
p26
F0.0078477208215099997
sS'wikipedia'
p27
F0.0078878912478000003
sS'LearnJapanese'
p28
F0.0135263859783
sS'france'
p29
F0.0085898353614899999
sS'LearnUselessTalents'
p30
F0.0075925150953499998
sS'conlangs'
p31
F0.022386744226999999
sS'PenmanshipPorn'
p32
F0.0071359251013300004
sS'britishproblems'
p33
F0.00702388817414
sS'vexillology'
p34
F0.018222879838
sS'math'
p35
F0.0070881394734499999
sS'europe'
p36
F0.014737479195
sS'explainlikeIAmA'
p37
F0.0072247135027399996
sS'YouShouldKnow'
p38
F0.0075220520590899998
sS'ireland'
p39
F0.0083179297597000008
sS'ChineseLanguage'
p40
F0.0132963179427
sS'CrusaderKings'
p41
F0.0070816753220500003
sS'de'
p42
F0.0086820209815499996
sS'answers'
p43
F0.0079804921303500004
sS'translator'
p44
F0.011870994852400001
sS'germany'
p45
F0.0157613761546
sS'NoStupidQuestions'
p46
F0.0077798679973200002
sS'russian'
p47
F0.0139512508018
sS'ainbow'
p48
F0.0070169283396200001
sS'lewronggeneration'
p49
F0.0073021951110900001
sS'worldbuilding'
p50
F0.0093284861787499996
sS'IWantToLearn'
p51
F0.010003449465299999
sS'MapPorn'
p52
F0.0121206225681
sS'grammar'
p53
F0.0106034821312
sS'RedditDayOf'
p54
F0.0078672270718799994
sS'HumanPorn'
p55
F0.0071972033723999998
sS'PropagandaPosters'
p56
F0.010156878519699999
sS'IWantOut'
p57
F0.0150200803213
sS'findareddit'
p58
F0.0092628629252000001
sS'socialism'
p59
F0.0078364057019200007
sS'Spanish'
p60
F0.0373041187075
sS'whatstheword'
p61
F0.00710693199213
sS'OutOfTheLoop'
p62
F0.0077900779007800004
sS'paradoxplaza'
p63
F0.0090760201992599997
s.