(dp1
S'fullmoviesonyoutube'
p2
F0.0083740017746200008
sS'NetflixBestOf'
p3
F0.0078948167491600003
sS'PlayStationPlus'
p4
F0.0072660337144
sS'MST3K'
p5
F0.0071684587813600001
sS'DCcomics'
p6
F0.0084426548902499995
sS'gamecollecting'
p7
F0.016468508997399999
sS'xmen'
p8
F0.0079070517992600002
sS'PS3'
p9
F0.0079795896211100007
sS'superman'
p10
F0.0106721587718
sS'ActionFigures'
p11
F0.011572980633
sS'nostalgia'
p12
F0.00797529223191
sS'Screenwriting'
p13
F0.0082958866228799999
sS'GuessTheMovie'
p14
F0.016516913319200001
sS'batman'
p15
F0.0076692777754999997
sS'disney'
p16
F0.0085125119248599997
sS'ObscureMedia'
p17
F0.0098735492811400007
sS'YMS'
p18
F0.00825309491059
sS'MovieSuggestions'
p19
F0.012694748990200001
sS'arresteddevelopment'
p20
F0.0071645081289599998
sS'GODZILLA'
p21
F0.0102700646634
sS'TMNT'
p22
F0.0134920634921
sS'Spiderman'
p23
F0.0071047957371200001
sS'moviescirclejerk'
p24
F0.017098888572199999
sS'horror'
p25
F0.017839980778499999
sS'marvelstudios'
p26
F0.0096065028634800004
sS'comicbookmovies'
p27
F0.0115702479339
sS'comicbooks'
p28
F0.0081159948933100003
sS'Marvel'
p29
F0.0085002328830900004
sS'Random_Acts_Of_Amazon'
p30
F0.0077887197851400003
sS'ThriftStoreHauls'
p31
F0.0083896926633000007
sS'netflix'
p32
F0.0089568280886099996
sS'TrueFilm'
p33
F0.019884009942
sS'hometheater'
p34
F0.0112821594264
s.