(dp1
S'PJRP_Community'
p2
F0.012077294686
sS'TheNarutoWorld'
p3
F0.024390243902400001
sS'PotterPlayRP'
p4
F0.014662756598200001
sS'GLRP_EastBlue'
p5
F0.073529411764700001
sS'HogwartsRP'
p6
F0.0140845070423
sS'randomsuperpowers'
p7
F0.022727272727300001
sS'PercyJacksonRP'
p8
F0.0134158926729
s.