(dp1
S'asoiaf'
p2
F0.023378888032799999
sS'Aquariums'
p3
F0.0090360613457400006
sS'milf'
p4
F0.0079225270924600001
sS'BuyItForLife'
p5
F0.018599299306199999
sS'everymanshouldknow'
p6
F0.023871033533300001
sS'wiiu'
p7
F0.0091504419111100004
sS'skiing'
p8
F0.010883835981399999
sS'golf'
p9
F0.0092004792475099996
sS'relationships'
p10
F0.0249950039237
sS'AskMen'
p11
F0.031931028977400001
sS'Showerthoughts'
p12
F0.074894962547499999
sS'HistoryPorn'
p13
F0.054202975760099997
sS'picrequests'
p14
F0.0107547465326
sS'holdmybeer'
p15
F0.0282712209864
sS'ImaginaryMonsters'
p16
F0.0081646238790800008
sS'BMW'
p17
F0.0075612423242600001
sS'YouShouldKnow'
p18
F0.029243654902699999
sS'geology'
p19
F0.0080930453170999991
sS'Jeep'
p20
F0.0074534394713099998
sS'UpliftingNews'
p21
F0.051045609083299998
sS'PandR'
p22
F0.0085201751316799999
sS'Jokes'
p23
F0.059664879950399999
sS'Military'
p24
F0.016903359889200002
sS'Steam'
p25
F0.0250119777398
sS'AlienBlue'
p26
F0.0084661677840500004
sS'photoshopbattles'
p27
F0.055946974967399997
sS'IWantToLearn'
p28
F0.011601010958000001
sS'Celebs'
p29
F0.022518289818100001
sS'CrappyDesign'
p30
F0.032241272993699999
sS'techsupport'
p31
F0.023771629381600001
sS'Libertarian'
p32
F0.0186346487203
sS'starcitizen'
p33
F0.0087484113581399996
sS'Paleo'
p34
F0.0072361322965900001
sS'pcgaming'
p35
F0.019844001785399999
sS'EatCheapAndHealthy'
p36
F0.015980042392500001
sS'gentlemanboners'
p37
F0.036284018760200001
sS'Denver'
p38
F0.0081047791870800003
sS'MechanicAdvice'
p39
F0.0082614045312800009
sS'fatpeoplestories'
p40
F0.015810341843000002
sS'nba'
p41
F0.028463067396300001
sS'fantasyfootball'
p42
F0.016624370149699998
sS'forwardsfromgrandma'
p43
F0.0131820716512
sS'frugalmalefashion'
p44
F0.011808783849699999
sS'Glitch_in_the_Matrix'
p45
F0.0108267624908
sS'skeptic'
p46
F0.015823808496899999
sS'Warthunder'
p47
F0.0071753955140099997
sS'boardgames'
p48
F0.00802076746431
sS'socialskills'
p49
F0.0105802537825
sS'Nexus5'
p50
F0.0091023497164099999
sS'worldnews'
p51
F0.081876227413099995
sS'vexillology'
p52
F0.0104335707058
sS'tattoos'
p53
F0.0246473742496
sS'Economics'
p54
F0.0154152777043
sS'ExposurePorn'
p55
F0.0102073524992
sS'LetsNotMeet'
p56
F0.0071290820849799997
sS'legaladvice'
p57
F0.017381372328100001
sS'answers'
p58
F0.0093137952292899999
sS'lgbt'
p59
F0.0084079295473500001
sS'baseball'
p60
F0.022468870414599999
sS'doctorwho'
p61
F0.0189096563802
sS'TopGear'
p62
F0.018803975597099998
sS'sanfrancisco'
p63
F0.0075242421677299996
sS'ThriftStoreHauls'
p64
F0.0074016582743299999
sS'Frugal'
p65
F0.0351716681913
sS'WarshipPorn'
p66
F0.00752251317181
sS'personalfinance'
p67
F0.047600009871399999
sS'creepy'
p68
F0.066706698259200004
sS'pics'
p69
F0.066150401914500001
sS'howtonotgiveafuck'
p70
F0.0106640412944
sS'thewalkingdead'
p71
F0.025097563329999999
sS'IWantOut'
p72
F0.0083219345149799992
sS'vinyl'
p73
F0.010044420584099999
sS'whatsthisbug'
p74
F0.012826274538000001
sS'QuotesPorn'
p75
F0.0257978368273
sS'apple'
p76
F0.026608779032600002
sS'hiking'
p77
F0.0112233666169
sS'todayilearned'
p78
F0.077607863004200001
sS'confession'
p79
F0.0143574899884
sS'jailbreak'
p80
F0.0105293009795
sS'findareddit'
p81
F0.0073832728381300001
sS'IdiotsFightingThings'
p82
F0.01713440825
sS'gamernews'
p83
F0.0085406542394999996
sS'ContagiousLaughter'
p84
F0.013423253404399999
sS'graphic_design'
p85
F0.0073170050548800004
sS'HIMYM'
p86
F0.0116345635776
sS'FiftyFifty'
p87
F0.026600985221699999
sS'AskHistorians'
p88
F0.027051469188299999
sS'Drugs'
p89
F0.021173726945700001
sS'OutOfTheLoop'
p90
F0.0330295011271
sS'sports'
p91
F0.080231732267599998
sS'ifyoulikeblank'
p92
F0.0073144860028599998
sS'misleadingthumbnails'
p93
F0.0141248039542
sS'trailerparkboys'
p94
F0.0074086853177700003
sS'battlefield_4'
p95
F0.018538108543899999
sS'Pareidolia'
p96
F0.015463722636
sS'hockey'
p97
F0.026580716294900001
sS'Filmmakers'
p98
F0.0089226285775999992
sS'Eve'
p99
F0.0092685908768000008
sS'cordcutters'
p100
F0.011660372630799999
sS'LifeProTips'
p101
F0.069765078130499994
sS'Shitty_Car_Mods'
p102
F0.021102160719799999
sS'FanTheories'
p103
F0.0116930656998
sS'popping'
p104
F0.013540097474499999
sS'EDC'
p105
F0.0128233317795
sS'techsupportgore'
p106
F0.018469249386399999
sS'science'
p107
F0.090772915482700001
sS'firstworldproblems'
p108
F0.018087510453899999
sS'Entrepreneur'
p109
F0.0137969677529
sS'standupshots'
p110
F0.025215156689300001
sS'Meditation'
p111
F0.0097376201034700006
sS'MMA'
p112
F0.0123119569446
sS'history'
p113
F0.040459646825900003
sS'AskScienceFiction'
p114
F0.010209864355999999
sS'audiophile'
p115
F0.0085725622641200008
sS'solotravel'
p116
F0.0071837413466400001
sS'india'
p117
F0.0071914532690899998
sS'DecidingToBeBetter'
p118
F0.0085474162191000007
sS'gadgets'
p119
F0.047902591440400002
sS'buildapcsales'
p120
F0.0099444759596400006
sS'learnprogramming'
p121
F0.014856266768899999
sS'polandball'
p122
F0.025621297859000001
sS'CampingandHiking'
p123
F0.021401427379700001
sS'Pizza'
p124
F0.0072455345034699997
sS'HouseOfCards'
p125
F0.0096372616118799992
sS'hardbodies'
p126
F0.00815552939149
sS'techsupportmacgyver'
p127
F0.0072536461146699999
sS'MURICA'
p128
F0.038247438446200002
sS'backpacking'
p129
F0.0125280156313
sS'travel'
p130
F0.035295818370000002
sS'RealGirls'
p131
F0.025891170602599999
sS'vancouver'
p132
F0.0077723777412299997
sS'scifi'
p133
F0.020165559325400002
sS'spaceporn'
p134
F0.029148783977099999
sS'nyc'
p135
F0.014823330106500001
sS'wheredidthesodago'
p136
F0.027935720972199998
sS'gaming'
p137
F0.067646706714500002
sS'asmr'
p138
F0.0100529388303
sS'askscience'
p139
F0.062879901960799997
sS'philosophy'
p140
F0.0236092333884
sS'dogpictures'
p141
F0.0092088024759300006
sS'MachinePorn'
p142
F0.010558483026099999
sS'oculus'
p143
F0.0139530639502
sS'CFB'
p144
F0.0223888584157
sS'listentothis'
p145
F0.030137617063599999
sS'tall'
p146
F0.011859385443600001
sS'ImGoingToHellForThis'
p147
F0.044106990757800002
sS'cableporn'
p148
F0.0077113131430099997
sS'DoesAnybodyElse'
p149
F0.021479306899199999
sS'pettyrevenge'
p150
F0.021737313632400002
sS'malehairadvice'
p151
F0.0080326777720000006
sS'CityPorn'
p152
F0.027876960761200002
sS'electronic_cigarette'
p153
F0.0142623410316
sS'diablo3'
p154
F0.0081574047776800003
sS'london'
p155
F0.0077861120058899998
sS'dataisbeautiful'
p156
F0.064581742541899995
sS'japan'
p157
F0.0089604070717600008
sS'islam'
p158
F0.00716712829445
sS'GlobalOffensive'
p159
F0.015677631956900001
sS'beards'
p160
F0.019852989978099998
sS'gaybros'
p161
F0.0095245384425700005
sS'nostalgia'
p162
F0.021258193350299999
sS'Documentaries'
p163
F0.043829022241399999
sS'writing'
p164
F0.014496554097800001
sS'AndroidQuestions'
p165
F0.0093190093370300008
sS'WTF'
p166
F0.060535264011199998
sS'soccer'
p167
F0.036147928445599997
sS'wallpaper'
p168
F0.0092810785752899996
sS'Gore'
p169
F0.0080822295543400008
sS'MensRights'
p170
F0.019853623676499999
sS'MilitaryPorn'
p171
F0.022218860671600001
sS'Frisson'
p172
F0.0115054803655
sS'electronicmusic'
p173
F0.0127822202329
sS'childfree'
p174
F0.017156150043600001
sS'food'
p175
F0.075755098805599996
sS'NoStupidQuestions'
p176
F0.019006578570100002
sS'halo'
p177
F0.013490567507400001
sS'creepyPMs'
p178
F0.017620559535899999
sS'WatchItForThePlot'
p179
F0.0130826594623
sS'nfl'
p180
F0.0342129920221
sS'freebies'
p181
F0.0140364188164
sS'Watches'
p182
F0.0085756796970099993
sS'AdviceAnimals'
p183
F0.064805894758799998
sS'SubredditDrama'
p184
F0.029982791491399999
sS'minimalism'
p185
F0.019581855843800001
sS'wallpapers'
p186
F0.026862006603500001
sS'mildlyinteresting'
p187
F0.085527746911900002
sS'TrueAtheism'
p188
F0.0104488376824
sS'badhistory'
p189
F0.00742929181142
sS'perfectloops'
p190
F0.013453000247700001
sS'books'
p191
F0.0834455896729
sS'TwoXChromosomes'
p192
F0.048031079767000003
sS'Cinemagraphs'
p193
F0.011528616370600001
sS'canada'
p194
F0.0277021958789
sS'DunderMifflin'
p195
F0.0087515561418799997
sS'psychology'
p196
F0.0085185009712399999
sS'space'
p197
F0.064484629037000002
sS'shittyfoodporn'
p198
F0.0232778229756
sS'malefashionadvice'
p199
F0.032838924159700002
sS'LearnUselessTalents'
p200
F0.012888621980000001
sS'leagueoflegends'
p201
F0.014708174452100001
sS'RoomPorn'
p202
F0.028775666508600001
sS'memes'
p203
F0.0080362206692400004
sS'Astronomy'
p204
F0.0165560123234
sS'DarkSouls2'
p205
F0.00987826429814
sS'math'
p206
F0.0111739658836
sS'ass'
p207
F0.0088957168089500004
sS'bestof'
p208
F0.073153070217299998
sS'Cyberpunk'
p209
F0.010769116802800001
sS'cars'
p210
F0.024799828424400001
sS'Metal'
p211
F0.011719408216199999
sS'LadyBoners'
p212
F0.015074811564900001
sS'Roadcam'
p213
F0.0079733509439800006
sS'GamePhysics'
p214
F0.0119877412965
sS'youtubehaiku'
p215
F0.0170108320479
sS'dayz'
p216
F0.017815167635799999
sS'recipes'
p217
F0.0097000881826199998
sS'headphones'
p218
F0.0103245600427
sS'programming'
p219
F0.019281714948499999
sS'49ers'
p220
F0.0072809206360999997
sS'dogecoin'
p221
F0.024155328831600001
sS'snowboarding'
p222
F0.0110500807754
sS'nhl'
p223
F0.0070062079134500001
sS'patientgamers'
p224
F0.010228841002
sS'Buddhism'
p225
F0.0073531515550299999
sS'GreenBayPackers'
p226
F0.0071260460250999998
sS'pokemon'
p227
F0.0213639933149
sS'tf2'
p228
F0.0123024014406
sS'longboarding'
p229
F0.0070406478855299997
sS'OldSchoolCool'
p230
F0.078673880295200005
sS'lego'
p231
F0.015740404407299999
sS'ANormalDayInRussia'
p232
F0.0151913138305
sS'seduction'
p233
F0.0118615708298
sS'europe'
p234
F0.024986001671699998
sS'Autos'
p235
F0.0133223055237
sS'Seattle'
p236
F0.016817748091599999
sS'PenmanshipPorn'
p237
F0.016927610978099999
sS'shittyreactiongifs'
p238
F0.0082363491042400008
sS'explainlikeimfive'
p239
F0.089179538763799998
sS'dogs'
p240
F0.0133727258591
sS'CombatFootage'
p241
F0.012729090926100001
sS'TrollYChromosome'
p242
F0.012555316377300001
sS'3DS'
p243
F0.0079925636395499992
sS'mildlyinfuriating'
p244
F0.049030862436200001
sS'nsfw_gifs'
p245
F0.0092193518249199993
sS'redditgetsdrawn'
p246
F0.014226162906099999
sS'Awwducational'
p247
F0.016482473130500001
sS'skyrim'
p248
F0.029932611392399999
sS'sex'
p249
F0.0310372726258
sS'toronto'
p250
F0.0115027294612
sS'Battlefield'
p251
F0.0073254919616599998
sS'television'
p252
F0.089858828974800006
sS'worldpolitics'
p253
F0.0197324681541
sS'TheRedPill'
p254
F0.0129283774553
sS'newzealand'
p255
F0.0093535822628400007
sS'PerfectTiming'
p256
F0.026072398189999998
sS'sweden'
p257
F0.0088496358374900008
sS'knives'
p258
F0.0078375898455399998
sS'KerbalSpaceProgram'
p259
F0.0187358287919
sS'Boobies'
p260
F0.0072896896216300003
sS'formula1'
p261
F0.014826086594999999
sS'FoodPorn'
p262
F0.037070309200799997
sS'boston'
p263
F0.0084595959596000005
sS'teenagers'
p264
F0.022223892221300001
sS'sysadmin'
p265
F0.0139941061207
sS'conspiracy'
p266
F0.038466136438800001
sS'HighQualityGifs'
p267
F0.012609470517199999
sS'self'
p268
F0.021409290520099999
sS'IAmA'
p269
F0.061371091471199998
sS'Parenting'
p270
F0.0138367054993
sS'depression'
p271
F0.016186676789300001
sS'britishproblems'
p272
F0.016355257225900002
sS'UnresolvedMysteries'
p273
F0.0070027334807900004
sS'conspiratard'
p274
F0.0116629597632
sS'firefly'
p275
F0.0094527925281499992
sS'aww'
p276
F0.085058559812699996
sS'Futurology'
p277
F0.064432300225500005
sS'MLS'
p278
F0.0078293440526200006
sS'Games'
p279
F0.034335592853099998
sS'progresspics'
p280
F0.023549972178900001
sS'hearthstone'
p281
F0.0131721121688
sS'Minecraft'
p282
F0.028362886051899999
sS'chicago'
p283
F0.011167651378
sS'investing'
p284
F0.0154175983385
sS'TumblrInAction'
p285
F0.037558027609600003
sS'secretsanta'
p286
F0.013772440013100001
sS'Fishing'
p287
F0.0113683245473
sS'HailCorporate'
p288
F0.0091649496559499995
sS'vaporents'
p289
F0.0071503602823300002
sS'Heavymind'
p290
F0.0094016928844700004
sS'Psychonaut'
p291
F0.0122628183789
sS'Justrolledintotheshop'
p292
F0.026047194579899999
sS'photocritique'
p293
F0.011770970011600001
sS'adventuretime'
p294
F0.013635220125800001
sS'fffffffuuuuuuuuuuuu'
p295
F0.023308182493500001
sS'PoliticalDiscussion'
p296
F0.01032913654
sS'bodybuilding'
p297
F0.0115805580408
sS'Foodforthought'
p298
F0.012326699463300001
sS'harrypotter'
p299
F0.0195046589099
sS'wicked_edge'
p300
F0.0092830749166799998
sS'booksuggestions'
p301
F0.00715295835044
sS'whowouldwin'
p302
F0.016256434179600002
sS'GrandTheftAutoV'
p303
F0.0209398698455
sS'gamedev'
p304
F0.0093499184067700001
sS'Anxiety'
p305
F0.0088229887874499997
sS'arresteddevelopment'
p306
F0.0082958635239800006
sS'shutupandtakemymoney'
p307
F0.0153535715887
sS'photography'
p308
F0.030888913410199999
sS'JusticePorn'
p309
F0.049694839431199997
sS'trees'
p310
F0.0469330885487
sS'smashbros'
p311
F0.0137316339396
sS'geek'
p312
F0.023304087669800001
sS'Fitness'
p313
F0.048942548220999998
sS'elderscrollsonline'
p314
F0.0101447089548
sS'Conservative'
p315
F0.010242334368000001
sS'AbandonedPorn'
p316
F0.038076031405400002
sS'motorcycles'
p317
F0.023221684443000001
sS'dadjokes'
p318
F0.021111935019200001
sS'guns'
p319
F0.023683151476499999
sS'WeAreTheMusicMakers'
p320
F0.0126289044986
sS'thatHappened'
p321
F0.032478167943399999
sS'futurama'
p322
F0.015177218749699999
sS'ClashOfClans'
p323
F0.0084498834498799996
sS'DeepIntoYouTube'
p324
F0.011882696225099999
sS'cringe'
p325
F0.040638935340000001
sS'StarWars'
p326
F0.032628818265999997
sS'AskWomen'
p327
F0.024706781326200002
sS'TheSimpsons'
p328
F0.013581479962200001
sS'Christianity'
p329
F0.015966817206399999
sS'see'
p330
F0.0077770762784800003
sS'changemyview'
p331
F0.028446452466899998
sS'roosterteeth'
p332
F0.0096240366182899998
sS'skateboarding'
p333
F0.0084855260384699999
sS'PS3'
p334
F0.0074474805804900001
sS'Android'
p335
F0.036328413860599998
sS'PS4'
p336
F0.020107972321299999
sS'firstworldanarchists'
p337
F0.034217449707100001
sS'nononono'
p338
F0.020633345362699999
sS'cosplay'
p339
F0.0101397835327
sS'truegaming'
p340
F0.0156053768058
sS'camping'
p341
F0.0101719778417
sS'lotr'
p342
F0.0146063281825
sS'wow'
p343
F0.020229892066599999
sS'wikipedia'
p344
F0.0097032183465000001
sS'breakingbad'
p345
F0.023022828611399999
sS'outside'
p346
F0.0176260477806
sS'AskCulinary'
p347
F0.0088997807300400002
sS'foodhacks'
p348
F0.0077908320493099998
sS'pcmasterrace'
p349
F0.040216966769499998
sS'magicTCG'
p350
F0.0104139926318
sS'CollegeBasketball'
p351
F0.0115847180315
sS'TheLastAirbender'
p352
F0.017223744428599998
sS'jobs'
p353
F0.011378657888599999
sS'LucidDreaming'
p354
F0.0094054571918099992
sS'casualiama'
p355
F0.027162566155000002
sS'facepalm'
p356
F0.043436129915400003
sS'celebnsfw'
p357
F0.0075051019435100003
sS'NotTimAndEric'
p358
F0.0073203511480899996
sS'news'
p359
F0.087724646414499993
sS'environment'
p360
F0.013732514500200001
sS'Unexpected'
p361
F0.050644592396100002
sS'relationship_advice'
p362
F0.0123688985264
sS'nosleep'
p363
F0.025735247532299999
sS'itookapicture'
p364
F0.029315646985600002
sS'Sherlock'
p365
F0.0084360207032500006
sS'GunPorn'
p366
F0.0071749316673200003
sS'GetMotivated'
p367
F0.061005269558200001
sS'buildapc'
p368
F0.025400790205499998
sS'drunk'
p369
F0.019390535272699998
sS'reactiongifs'
p370
F0.058206045887399999
sS'community'
p371
F0.015215231788099999
sS'Music'
p372
F0.073214389627900001
sS'startrek'
p373
F0.014070924472900001
sS'linux'
p374
F0.0129401781926
sS'Homebrewing'
p375
F0.012105117947299999
sS'Guitar'
p376
F0.016622493220799998
sS'beer'
p377
F0.018729468677999999
sS'ireland'
p378
F0.0083978264449200007
sS'HomeImprovement'
p379
F0.0070929305249300004
sS'web_design'
p380
F0.0110966335386
sS'Diablo'
p381
F0.0106562014366
sS'fatlogic'
p382
F0.021947272335899999
sS'hiphopheads'
p383
F0.022319708332100001
sS'MakeupAddiction'
p384
F0.016702376924899998
sS'androidapps'
p385
F0.0083180954429700003
sS'movies'
p386
F0.079626538747
sS'somethingimade'
p387
F0.013914260526599999
sS'WritingPrompts'
p388
F0.0323190789474
sS'MapPorn'
p389
F0.054287440932599997
sS'r4r'
p390
F0.0071429737628399999
sS'aviation'
p391
F0.014617135836399999
sS'darksouls'
p392
F0.0085949420511000005
sS'Chromecast'
p393
F0.0081153867008899993
sS'Perfectfit'
p394
F0.010206065318800001
sS'offbeat'
p395
F0.027494565886100001
sS'socialism'
p396
F0.0080048560263999997
sS'DotA2'
p397
F0.014929612306500001
sS'windowsphone'
p398
F0.0080233024610600005
sS'Cooking'
p399
F0.023754683373300001
sS'IASIP'
p400
F0.0096246838268099991
sS'hardware'
p401
F0.0070659710757400001
sS'exmormon'
p402
F0.0073216794276599996
sS'DIY'
p403
F0.063918626016299995
sS'webdev'
p404
F0.0090945305679600002
sS'assassinscreed'
p405
F0.0076697156809000001
sS'technology'
p406
F0.080305938329599993
sS'southpark'
p407
F0.018421902350300001
sS'starcraft'
p408
F0.0119180160053
sS'funny'
p409
F0.058111209209899997
sS'astrophotography'
p410
F0.0101311614759
sS'watchpeopledie'
p411
F0.018295699494699998
sS'Whatcouldgowrong'
p412
F0.036599563424699999
sS'talesfromtechsupport'
p413
F0.0250734795388
sS'notinteresting'
p414
F0.022591692917799999
sS'AnimalsBeingJerks'
p415
F0.031391641533800002
sS'running'
p416
F0.017378406675299999
sS'MTB'
p417
F0.0085568677136600001
sS'climbing'
p418
F0.0113938331577
sS'Physics'
p419
F0.0105548290678
sS'HumanPorn'
p420
F0.020249295119500001
sS'Fantasy'
p421
F0.010136891353300001
sS'titanfall'
p422
F0.010494260950999999
sS'Portland'
p423
F0.013520094206800001
sS'AskEngineers'
p424
F0.0074052439679299998
sS'drawing'
p425
F0.0083133954588200006
sS'EmmaWatson'
p426
F0.0070705196441300001
sS'FancyFollicles'
p427
F0.0088933502394999992
sS'awwwtf'
p428
F0.0083816073539299991
sS'PublicFreakout'
p429
F0.015649115250700001
sS'ArtisanVideos'
p430
F0.0129125753621
sS'Bitcoin'
p431
F0.023406959733299999
sS'rickandmorty'
p432
F0.0119785395566
sS'quotes'
p433
F0.0074356289747199997
sS'woodworking'
p434
F0.017938718663000001
sS'whitepeoplegifs'
p435
F0.0100240421902
sS'InternetIsBeautiful'
p436
F0.054655125089499997
sS'startups'
p437
F0.0074069518152700001
sS'carporn'
p438
F0.023090212310699999
sS'TalesFromRetail'
p439
F0.021278394895599999
sS'TrueReddit'
p440
F0.032909562154400003
sS'quityourbullshit'
p441
F0.023319639739799999
sS'Advice'
p442
F0.0088972982486999995
sS'audioengineering'
p443
F0.0071269529248500002
sS'ProtectAndServe'
p444
F0.0115037656211
sS'woahdude'
p445
F0.073510890884700003
sS'Fallout'
p446
F0.019248826291099998
sS'offmychest'
p447
F0.029610399152600001
sS'australia'
p448
F0.0205746296487
sS'slowcooking'
p449
F0.012296465222300001
sS'gifs'
p450
F0.095605862768200003
sS'NSFW_GIF'
p451
F0.018842615241400001
sS'howto'
p452
F0.0096675022466099995
sS'cringepics'
p453
F0.056508735344999998
sS'toosoon'
p454
F0.0077788136580800001
sS'bodyweightfitness'
p455
F0.0093019427066199992
sS'RandomActsOfGaming'
p456
F0.0093778377506800008
sS'DenverBroncos'
p457
F0.0070195572132199999
sS'Art'
p458
F0.053050178693200001
sS'Paranormal'
p459
F0.00771071771137
sS'4chan'
p460
F0.045357462738000003
sS'montageparodies'
p461
F0.0132943258686
sS'ArcherFX'
p462
F0.0132115375962
sS'gonewildcurvy'
p463
F0.0079720423802000003
sS'getdisciplined'
p464
F0.0093267215188700004
sS'google'
p465
F0.010285936657
sS'gardening'
p466
F0.017767562182099999
sS'whatisthisthing'
p467
F0.031144940844300001
sS'MechanicalKeyboards'
p468
F0.011760710943299999
sS'NetflixBestOf'
p469
F0.023258792079500001
sS'xboxone'
p470
F0.016315873184200001
sS'tumblr'
p471
F0.016890001864800001
sS'interestingasfuck'
p472
F0.056300603767299999
sS'PropagandaPosters'
p473
F0.0076637364145100001
sS'Coffee'
p474
F0.0121545785792
sS'gameofthrones'
p475
F0.044880369327500003
sS'humor'
p476
F0.0129921039368
sS'AMA'
p477
F0.016209627291599998
sS'SkincareAddiction'
p478
F0.012709553505799999
sS'ExpectationVsReality'
p479
F0.011304761904800001
sS'nonononoyes'
p480
F0.034546865539299997
sS'lifehacks'
p481
F0.034310848204400002
sS'Enhancement'
p482
F0.00797078033352
sS'starbound'
p483
F0.0073447074901900004
sS'blackpeoplegifs'
p484
F0.0097644036979700009
sS'ProgrammerHumor'
p485
F0.010445135976200001
sS'business'
p486
F0.0128494559775
sS'FloridaMan'
p487
F0.0162171723284
sS'delusionalartists'
p488
F0.012696856765
sS'OkCupid'
p489
F0.013620704078600001
sS'Cynicalbrit'
p490
F0.0090319847489900001
sS'promos'
p491
F0.038971818298799997
sS'shittyaskscience'
p492
F0.030404390251600001
sS'whatsthisplant'
p493
F0.0072957665354700003
sS'lewronggeneration'
p494
F0.0137302786465
sS'worldbuilding'
p495
F0.0090398768398900001
sS'calvinandhobbes'
p496
F0.00880055950577
sS'netflix'
p497
F0.0105263157895
sS'masseffect'
p498
F0.00921386753192
sS'anime'
p499
F0.0169087780496
sS'AnimalsBeingBros'
p500
F0.018229682678999999
sS'classic4chan'
p501
F0.0078416547927100001
sS'GameDeals'
p502
F0.017767499186399999
sS'battlestations'
p503
F0.023237708260699999
sS'amiugly'
p504
F0.0142159775553
sS'applehelp'
p505
F0.0071532738919300003
sS'Scotland'
p506
F0.0089072841366399994
sS'subaru'
p507
F0.0116614209428
sS'marijuanaenthusiasts'
p508
F0.0074805984478800002
sS'TrollXChromosomes'
p509
F0.033008599107399998
sS'tifu'
p510
F0.066895197779099996
sS'unitedkingdom'
p511
F0.020529473717799999
sS'Damnthatsinteresting'
p512
F0.027756812672599999
sS'DnD'
p513
F0.010856601369099999
sS'loseit'
p514
F0.019371731514900001
sS'CrazyIdeas'
p515
F0.0265013151711
sS'TinyHouses'
p516
F0.0076614481409000004
sS'Bad_Cop_No_Donut'
p517
F0.0195533701383
sS'SquaredCircle'
p518
F0.0086052882324900003
sS'flying'
p519
F0.0070378644779600001
sS'gopro'
p520
F0.0098929903512800007
sS'MorbidReality'
p521
F0.028666974169699998
sS'gif'
p522
F0.0139592019059
sS'cats'
p523
F0.033068839802699999
sS'raisedbynarcissists'
p524
F0.010702963182099999
sS'happy'
p525
F0.0095994039773099997
sS'explainlikeIAmA'
p526
F0.0079847031919599992
sS'batman'
p527
F0.012388974746499999
sS'Rateme'
p528
F0.013814154001100001
sS'NoFap'
p529
F0.0132155273892
sS'Austin'
p530
F0.0084052122888800002
sS'blunderyears'
p531
F0.0166899833367
sS'Marvel'
p532
F0.0118515412036
sS'gonewild'
p533
F0.027614568522400001
sS'rage'
p534
F0.030955472389799999
sS'comics'
p535
F0.0311538249624
sS'nsfw'
p536
F0.029196487263
sS'behindthegifs'
p537
F0.0196384634242
sS'civ'
p538
F0.019373999396699999
sS'BustyPetite'
p539
F0.0109295660428
sS'fullmoviesonyoutube'
p540
F0.0160642570281
sS'iphone'
p541
F0.019942172901500001
sS'videos'
p542
F0.071795537281499996
sS'keto'
p543
F0.0149583969585
sS'TrueAskReddit'
p544
F0.0086513459773599997
sS'engineering'
p545
F0.011199081836700001
sS'tipofmytongue'
p546
F0.024305424780000001
sS'politics'
p547
F0.055797249316399997
sS'ForeverAlone'
p548
F0.0075060759020400001
sS'bicycling'
p549
F0.024763138589300002
sS'DestinyTheGame'
p550
F0.016301700744499999
sS'zelda'
p551
F0.010547002385699999
sS'ImaginaryLandscapes'
p552
F0.0103678764173
sS'TheWayWeWere'
p553
F0.0080015033726999994
sS'LosAngeles'
p554
F0.012545794786599999
sS'badtattoos'
p555
F0.0070004973030899998
sS'Seahawks'
p556
F0.0124561387765
sS'nottheonion'
p557
F0.076605714867800004
sS'SuicideWatch'
p558
F0.0097458052848400003
sS'GTAV'
p559
F0.0092108337377100006
sS'nintendo'
p560
F0.0078657268217900006
sS'comicbooks'
p561
F0.012820715995000001
sS'oddlysatisfying'
p562
F0.0520006514243
sS'cosplaygirls'
p563
F0.0097701797938800003
sS'entertainment'
p564
F0.0106458415832
sS'atheism'
p565
F0.052570633552399999
sS'Design'
p566
F0.0098716500287100006
sS'PrettyGirls'
p567
F0.0111916486489
sS'urbanexploration'
p568
F0.010445304937100001
sS'gainit'
p569
F0.00742289308639
s.