(dp1
S'FancyFollicles'
p2
F0.0076100191337599996
sS'awwwtf'
p3
F0.0113821138211
sS'daddit'
p4
F0.0077519379845000002
sS'Heavymind'
p5
F0.0102119758626
sS'MapPorn'
p6
F0.010752688171999999
sS'Justrolledintotheshop'
p7
F0.0086569513419599998
sS'DoesAnybodyElse'
p8
F0.0090263059468900005
sS'pettyrevenge'
p9
F0.010911950716000001
sS'wikipedia'
p10
F0.011490777139400001
sS'CityPorn'
p11
F0.013167687639500001
sS'ArtisanVideos'
p12
F0.0142676331838
sS'fffffffuuuuuuuuuuuu'
p13
F0.0081481481481500001
sS'uglyduckling'
p14
F0.0070821529745000002
sS'rickandmorty'
p15
F0.0085003303237200008
sS'quotes'
p16
F0.0070020120724299997
sS'BuyItForLife'
p17
F0.0138205930562
sS'woodworking'
p18
F0.0094075112521200006
sS'perfectloops'
p19
F0.011423550087900001
sS'everymanshouldknow'
p20
F0.0131716495923
sS'dataisbeautiful'
p21
F0.0084322836000699994
sS'InternetIsBeautiful'
p22
F0.0071427483589999998
sS'Foodforthought'
p23
F0.0101933216169
sS'carporn'
p24
F0.0093110613810699992
sS'TalesFromRetail'
p25
F0.0078054711246199997
sS'eldertrees'
p26
F0.00876979293544
sS'TheoryOfReddit'
p27
F0.0080118694361999993
sS'TheWayWeWere'
p28
F0.0115517905275
sS'WouldYouRather'
p29
F0.0080385852090000005
sS'quityourbullshit'
p30
F0.011719198805100001
sS'LearnUselessTalents'
p31
F0.0122201855246
sS'holdmybeer'
p32
F0.014121835443000001
sS'HistoryPorn'
p33
F0.011465132257000001
sS'booksuggestions'
p34
F0.0075371549893799997
sS'shittybattlestations'
p35
F0.0084403669724800005
sS'badtattoos'
p36
F0.010256037241799999
sS'woahdude'
p37
F0.0097707172988500002
sS'ImaginaryMonsters'
p38
F0.0088904384206400008
sS'seinfeld'
p39
F0.0121940364931
sS'PublicFreakout'
p40
F0.011000742666200001
sS'gentlemanboners'
p41
F0.010627410847800001
sS'nononono'
p42
F0.0138636045372
sS'MilitaryPorn'
p43
F0.00881076202347
sS'Frisson'
p44
F0.010860121633399999
sS'arresteddevelopment'
p45
F0.0098763677703600002
sS'slowcooking'
p46
F0.026601605540699999
sS'popping'
p47
F0.0086502151576399993
sS'webcomics'
p48
F0.0072015511033099999
sS'food'
p49
F0.015768130927199999
sS'misc'
p50
F0.0084173334718900001
sS'whitepeoplegifs'
p51
F0.0140453896207
sS'foodhacks'
p52
F0.028105590062099998
sS'howto'
p53
F0.0126833135157
sS'AbandonedPorn'
p54
F0.0123043675276
sS'PandR'
p55
F0.0117483074472
sS'geek'
p56
F0.010417706773199999
sS'spaceporn'
p57
F0.0119027472218
sS'tipofmytongue'
p58
F0.0073405569279100004
sS'NoStupidQuestions'
p59
F0.0090266515712500005
sS'3amjokes'
p60
F0.00731493221496
sS'toosoon'
p61
F0.0092222312903000002
sS'spicy'
p62
F0.032289522158400003
sS'beards'
p63
F0.0108064774731
sS'PrettyGirlsUglyFaces'
p64
F0.0087336244541499995
sS'AlienBlue'
p65
F0.0070827285921599998
sS'photoshopbattles'
p66
F0.0075614114634699999
sS'IWantToLearn'
p67
F0.0089986155976000005
sS'creepyPMs'
p68
F0.00845061266942
sS'dadjokes'
p69
F0.0087385883272399992
sS'WatchItForThePlot'
p70
F0.010954004359199999
sS'Celebs'
p71
F0.0074394921306699998
sS'techsupportgore'
p72
F0.0090680287215900001
sS'freebies'
p73
F0.012088676038900001
sS'PropagandaPosters'
p74
F0.0091954022988500004
sS'CrappyDesign'
p75
F0.013298016108999999
sS'NewsOfTheWeird'
p76
F0.0073468420428999997
sS'comics'
p77
F0.010668708524799999
sS'futurama'
p78
F0.010202069985200001
sS'Enhancement'
p79
F0.0079552408427299992
sS'zombies'
p80
F0.00713745906457
sS'minimalism'
p81
F0.011068000816800001
sS'DeepIntoYouTube'
p82
F0.010874805806999999
sS'ArcherFX'
p83
F0.012479081998600001
sS'cringe'
p84
F0.0079195647682700002
sS'YouShouldKnow'
p85
F0.012271547316300001
sS'StarWars'
p86
F0.0076316596604500001
sS'blunderyears'
p87
F0.0134899718587
sS'whatisthisthing'
p88
F0.0122006737686
sS'glitch_art'
p89
F0.0074563473336500003
sS'EatCheapAndHealthy'
p90
F0.019107244491399999
sS'NetflixBestOf'
p91
F0.0144762116868
sS'tea'
p92
F0.0091600901916599996
sS'TheSimpsons'
p93
F0.0122816593886
sS'bourbon'
p94
F0.0102686348217
sS'literature'
p95
F0.0071434870799900003
sS'self'
p96
F0.0095083090628700004
sS'cocktails'
p97
F0.0126435672232
sS'see'
p98
F0.0083887763957200007
sS'StandUpComedy'
p99
F0.0090259791225199993
sS'malegrooming'
p100
F0.00780102790015
sS'fatpeoplestories'
p101
F0.0070886075949400003
sS'jobs'
p102
F0.0072640175907000004
sS'CannabisExtracts'
p103
F0.0080105633802800003
sS'Cinemagraphs'
p104
F0.0143024422884
sS'firstworldanarchists'
p105
F0.0122640029287
sS'offbeat'
p106
F0.014349480243299999
sS'no_sob_story'
p107
F0.0076946752847000003
sS'humor'
p108
F0.010919608074600001
sS'frugalmalefashion'
p109
F0.00893374393999
sS'camping'
p110
F0.0076724399878500002
sS'whiskey'
p111
F0.0090676338809500007
sS'skeptic'
p112
F0.0081050866405799997
sS'shittyfoodporn'
p113
F0.032744366996299998
sS'InteriorDesign'
p114
F0.010216832047
sS'ExpectationVsReality'
p115
F0.021706069404100001
sS'breakingbad'
p116
F0.010010385414300001
sS'malefashionadvice'
p117
F0.0078812473302000002
sS'firstworldproblems'
p118
F0.012756224157600001
sS'outside'
p119
F0.0085795558818099991
sS'AskCulinary'
p120
F0.026832312230500002
sS'RoomPorn'
p121
F0.017524696048599998
sS'glassheads'
p122
F0.0070607222110099996
sS'lifehacks'
p123
F0.011976321623699999
sS'LifeProTips'
p124
F0.0073208399911700002
sS'vexillology'
p125
F0.0085183633570699996
sS'TalesFromYourServer'
p126
F0.0108725013506
sS'SubredditDrama'
p127
F0.0096688513939599992
sS'LetsTalkMusic'
p128
F0.0072703846861800004
sS'tattoos'
p129
F0.0083771992708399998
sS'blackpeoplegifs'
p130
F0.0132286995516
sS'bestof'
p131
F0.0079812491160000006
sS'ExposurePorn'
p132
F0.0072541071047600002
sS'Cyberpunk'
p133
F0.0088666590883300003
sS'tonightsdinner'
p134
F0.050690690690700001
sS'casualiama'
p135
F0.0082183008396199998
sS'FloridaMan'
p136
F0.012779552715700001
sS'malelivingspace'
p137
F0.014170374031999999
sS'Random_Acts_Of_Pizza'
p138
F0.0086319218241000008
sS'KitchenConfidential'
p139
F0.018551808441799999
sS'Frugal'
p140
F0.0107375613677
sS'adventuretime'
p141
F0.0086941639568699994
sS'DunderMifflin'
p142
F0.0080417938483199995
sS'baseball'
p143
F0.0076562987620900002
sS'LadyBoners'
p144
F0.0070006222775400003
sS'corgi'
p145
F0.0072157826053600004
sS'shittyaskscience'
p146
F0.00774591331831
sS'GamePhysics'
p147
F0.0092553890248999997
sS'lewronggeneration'
p148
F0.0091272344900099993
sS'youtubehaiku'
p149
F0.0104204356321
sS'sanfrancisco'
p150
F0.0083408186834299999
sS'ThriftStoreHauls'
p151
F0.0137623962761
sS'Breadit'
p152
F0.0218727215915
sS'fitmeals'
p153
F0.014057160608900001
sS'WarshipPorn'
p154
F0.0072789962647300003
sS'vegetarian'
p155
F0.0073901205756499999
sS'TinyHouses'
p156
F0.0076601671309200004
sS'punk'
p157
F0.0072210575355200002
sS'entertainment'
p158
F0.0097472327771399997
sS'cripplingalcoholism'
p159
F0.0125716398595
sS'gardening'
p160
F0.010896763257700001
sS'4chan'
p161
F0.0076799964434200001
sS'howtonotgiveafuck'
p162
F0.0079278294149800008
sS'wheredidthesodago'
p163
F0.013645514875799999
sS'AnimalsBeingBros'
p164
F0.013695265000299999
sS'classic4chan'
p165
F0.0101261753596
sS'whatstheword'
p166
F0.0073312386937100004
sS'battlestations'
p167
F0.0077864774840999997
sS'OutOfTheLoop'
p168
F0.011688772568
sS'vinyl'
p169
F0.0079872204472799992
sS'whatsthisbug'
p170
F0.0074817691069199999
sS'QuotesPorn'
p171
F0.0105611400942
sS'itookapicture'
p172
F0.0101495312621
sS'TrueReddit'
p173
F0.010482921083599999
sS'drunk'
p174
F0.0160872345438
sS'Design'
p175
F0.0079401348109199993
sS'Homebrewing'
p176
F0.0095197388871599998
sS'confession'
p177
F0.0075055187637999999
sS'reactiongifs'
p178
F0.0093136148114700001
sS'patientgamers'
p179
F0.0087203605722099998
sS'community'
p180
F0.0089813588343599995
sS'KingOfTheHill'
p181
F0.010837542087500001
sS'NotTimAndEric'
p182
F0.0112646121148
sS'IdiotsFightingThings'
p183
F0.013069980072700001
sS'conspiratard'
p184
F0.0093538794268700001
sS'marijuanaenthusiasts'
p185
F0.0075569469934100002
sS'TrollXChromosomes'
p186
F0.0082075235632699996
sS'AskScienceFiction'
p187
F0.0081755366844200004
sS'ContagiousLaughter'
p188
F0.01069757076
sS'nostalgia'
p189
F0.014254271040799999
sS'Damnthatsinteresting'
p190
F0.012942694244499999
sS'wicked_edge'
p191
F0.0093712212817400001
sS'FiftyFifty'
p192
F0.0086209135052299993
sS'CrazyIdeas'
p193
F0.013292496171500001
sS'OldSchoolCool'
p194
F0.0082516873503199993
sS'lego'
p195
F0.00848179705655
sS'Bad_Cop_No_Donut'
p196
F0.0092050929112200003
sS'ANormalDayInRussia'
p197
F0.011635423400100001
sS'Whatcouldgowrong'
p198
F0.012237041111
sS'onetruegod'
p199
F0.0072900955253899996
sS'philadelphia'
p200
F0.0094899935442199993
sS'urbanexploration'
p201
F0.0100443821537
sS'MorbidReality'
p202
F0.0095954665587300002
sS'gif'
p203
F0.0095495599148599994
sS'beer'
p204
F0.0148602465519
sS'cats'
p205
F0.0084306465394500003
sS'PenmanshipPorn'
p206
F0.0127317281057
sS'ifyoulikeblank'
p207
F0.0091269841269800006
sS'alternativeart'
p208
F0.0094512195121999997
sS'trailerparkboys'
p209
F0.0097266229459900006
sS'sousvide'
p210
F0.0073549441569100002
sS'happy'
p211
F0.0107496463932
sS'CombatFootage'
p212
F0.0075473940690599997
sS'fatlogic'
p213
F0.0076153951513499999
sS'TrollYChromosome'
p214
F0.0092643958726299994
sS'Cooking'
p215
F0.027063433749700001
sS'misleadingthumbnails'
p216
F0.011917372881400001
sS'recipes'
p217
F0.030994336060399998
sS'Unexpected'
p218
F0.0109376521372
sS'batman'
p219
F0.0081542420179
sS'bestofworldstar'
p220
F0.0096191752739899997
sS'ketorecipes'
p221
F0.0082197410781600002
sS'snackexchange'
p222
F0.013971462544599999
sS'beerporn'
p223
F0.015065913371
sS'mildlyinfuriating'
p224
F0.0120505698979
sS'cordcutters'
p225
F0.0097042082672399999
sS'somethingimade'
p226
F0.012966778911400001
sS'TopGear'
p227
F0.0072889919655400003
sS'HipHopImages'
p228
F0.0073126142595999997
sS'StonerEngineering'
p229
F0.0084162714581500001
sS'Awwducational'
p230
F0.0132047381708
sS'Shitty_Car_Mods'
p231
F0.0096225268417899999
sS'smoking'
p232
F0.018434670116400001
sS'IASIP'
p233
F0.012744866650899999
sS'Scotch'
p234
F0.0092720618137499995
sS'ghettoglamourshots'
p235
F0.012169836834000001
sS'BBQ'
p236
F0.023890462700699999
sS'EDC'
p237
F0.0111115841458
sS'RedditDayOf'
p238
F0.0102713908783
sS'showerbeer'
p239
F0.015526610885900001
sS'rage'
p240
F0.0098959419685299994
sS'worldpolitics'
p241
F0.00707527065041
sS'Pareidolia'
p242
F0.015139997466099999
sS'netflix'
p243
F0.0095720156359599996
sS'interestingasfuck'
p244
F0.0112921573876
sS'Perfectfit'
p245
F0.014254474771199999
sS'PerfectTiming'
p246
F0.0130935915168
sS'behindthegifs'
p247
F0.012353454122699999
sS'standupshots'
p248
F0.0124161815636
sS'startrek'
p249
F0.0081439315244900001
sS'knives'
p250
F0.00855007903434
sS'introvert'
p251
F0.0071892925430200004
sS'findareddit'
p252
F0.0096492463727299999
sS'ObscureMedia'
p253
F0.0096763430096800003
sS'lookatmydog'
p254
F0.0077895687514100004
sS'tumblr'
p255
F0.0074558534990199999
sS'fullmoviesonyoutube'
p256
F0.012950796426700001
sS'TalesFromThePizzaGuy'
p257
F0.0095219774935099994
sS'gamernews'
p258
F0.0079288437102900001
sS'NewsOfTheStupid'
p259
F0.0087212471383400006
sS'FoodPorn'
p260
F0.032151300236399998
sS'crappymusic'
p261
F0.00701605187626
sS'awesome'
p262
F0.0110024449878
sS'sushi'
p263
F0.015764958796100001
sS'shittyama'
p264
F0.0070776973891200001
sS'TrueAskReddit'
p265
F0.0088685452724899996
sS'FanTheories'
p266
F0.0087182563487300004
sS'truegaming'
p267
F0.0072715400825099996
sS'explainlikeIAmA'
p268
F0.010480610869900001
sS'DIY'
p269
F0.0081450289623000004
sS'Infographics'
p270
F0.0084900492970599994
sS'AnythingGoesNews'
p271
F0.0077075791194699999
sS'CampingandHiking'
p272
F0.0096711798839500002
sS'shorthairedhotties'
p273
F0.0070378619153699997
sS'southpark'
p274
F0.010120019885
sS'Pizza'
p275
F0.045469659185400003
sS'HouseOfCards'
p276
F0.0073179033355999998
sS'bayarea'
p277
F0.0076330108827099997
sS'techsupportmacgyver'
p278
F0.0091479959686799998
sS'MURICA'
p279
F0.0093944770483600001
sS'HighQualityGifs'
p280
F0.0126268000284
sS'bicycling'
p281
F0.0084670794894500002
sS'softwaregore'
p282
F0.0070097311561900001
sS'travel'
p283
F0.0086493078295399994
sS'Jazz'
p284
F0.0071097883597899996
sS'ImaginaryLandscapes'
p285
F0.0083515232039500006
sS'answers'
p286
F0.012547220723199999
sS'calvinandhobbes'
p287
F0.0086709886547800003
sS'JusticePorn'
p288
F0.0094369690838800001
sS'thatHappened'
p289
F0.0096098562628300008
sS'scifi'
p290
F0.0092553364836199994
sS'britishproblems'
p291
F0.0070724175714699999
sS'RedditLaqueristas'
p292
F0.0076851534583200001
sS'nottheonion'
p293
F0.0076098003477300001
sS'nyc'
p294
F0.0089628681177999995
sS'nonononoyes'
p295
F0.011876564932000001
sS'Frugal_Jerk'
p296
F0.010678056593700001
sS'Autos'
p297
F0.0075114012340199996
sS'wallpapers'
p298
F0.0087246440033700006
sS'MovieSuggestions'
p299
F0.0072888739946400001
sS'Baking'
p300
F0.0161600880209
sS'notinteresting'
p301
F0.010642950867500001
sS'facepalm'
p302
F0.0098441080592600004
sS'forwardsfromgrandma'
p303
F0.010455136541
sS'AnimalsBeingJerks'
p304
F0.013362949163500001
sS'highdeas'
p305
F0.0072867552507500004
sS'wallpaper'
p306
F0.0085470085470099998
sS'budgetfood'
p307
F0.025544501210000001
sS'cringepics'
p308
F0.0083388325634400004
sS'Images'
p309
F0.0080324830082100004
sS'shittyreactiongifs'
p310
F0.0116024886497
sS'dogpictures'
p311
F0.0081889550622600005
sS'comicbooks'
p312
F0.0075539568345300004
sS'delusionalartists'
p313
F0.011962658617000001
sS'GunPorn'
p314
F0.0070169433510199998
sS'alcohol'
p315
F0.010827955813200001
sS'oddlysatisfying'
p316
F0.0131145216744
sS'MachinePorn'
p317
F0.011603919546199999
sS'newjersey'
p318
F0.0087248322147700005
sS'HumanPorn'
p319
F0.013886258915600001
sS'TimAndEric'
p320
F0.0073156457276599999
sS'cableporn'
p321
F0.0079826396961899995
sS'terriblefacebookmemes'
p322
F0.0090082433925399996
sS'PrettyGirls'
p323
F0.0079918032786900003
sS'TumblrInAction'
p324
F0.0072508169934600002
sS'Graffiti'
p325
F0.0087658133280200008
sS'Fishing'
p326
F0.00783540323011
sS'listentothis'
p327
F0.0072831040504299999
sS'Coffee'
p328
F0.011195521791299999
sS'tall'
p329
F0.0082636545890199999
sS'HailCorporate'
p330
F0.0097497562560899999
sS'ImGoingToHellForThis'
p331
F0.0077182693371700001
sS'Survival'
p332
F0.0070049393803300001
sS'shutupandtakemymoney'
p333
F0.014041286962999999
sS'wine'
p334
F0.0079590676520799996
s.