(dp1
S'Justrolledintotheshop'
p2
F0.0075571778931199998
sS'linux4noobs'
p3
F0.0092701118806600008
sS'EngineeringStudents'
p4
F0.043171310758500003
sS'robotics'
p5
F0.026170180948099999
sS'vim'
p6
F0.0091112980095300004
sS'hardware'
p7
F0.0162528216704
sS'electricians'
p8
F0.013478556841399999
sS'AskScienceDiscussion'
p9
F0.00728368705262
sS'learnprogramming'
p10
F0.0100634773185
sS'linux'
p11
F0.0143091565474
sS'spacex'
p12
F0.0081485919712400001
sS'Multicopter'
p13
F0.012184216409599999
sS'3Dprinting'
p14
F0.0140856278848
sS'crypto'
p15
F0.0147462277092
sS'techsupportmacgyver'
p16
F0.015163897212399999
sS'networking'
p17
F0.0078825035370200004
sS'arduino'
p18
F0.050918900691299999
sS'Python'
p19
F0.0151326699834
sS'Physics'
p20
F0.015767296452399999
sS'audioengineering'
p21
F0.0080043413376699995
sS'wikipedia'
p22
F0.0073304825901000003
sS'learnmath'
p23
F0.0089432565789499992
sS'archlinux'
p24
F0.0081118182952699992
sS'Ubuntu'
p25
F0.0071833009380499998
sS'electronics'
p26
F0.11020939785599999
sS'energy'
p27
F0.011964223487000001
sS'math'
p28
F0.0141208418194
sS'cablefail'
p29
F0.010900339750800001
sS'linuxquestions'
p30
F0.0079879601759699995
sS'raspberry_pi'
p31
F0.019775310426399999
sS'askscience'
p32
F0.0076245744934700004
sS'cscareerquestions'
p33
F0.0078056288478499996
sS'howto'
p34
F0.0080687336570799996
sS'netsec'
p35
F0.0133757961783
sS'AskElectronics'
p36
F0.097154290795900003
sS'geek'
p37
F0.0095571838164999999
sS'cpp'
p38
F0.010276172125900001
sS'linux_gaming'
p39
F0.0071558261241099997
sS'learnpython'
p40
F0.0087525247667600004
sS'amateurradio'
p41
F0.024140869071299999
sS'ProgrammerHumor'
p42
F0.010928079242
sS'BuyItForLife'
p43
F0.0077033036848799998
sS'MachinePorn'
p44
F0.014297385620900001
sS'MachineLearning'
p45
F0.0076671872781500002
sS'techsupportgore'
p46
F0.0083280456852800003
sS'privacy'
p47
F0.0073668303740099996
sS'programming'
p48
F0.0143116765107
sS'engineering'
p49
F0.048754295532600002
sS'radiocontrol'
p50
F0.0101735487732
sS'androiddev'
p51
F0.0096549408110200002
sS'softwaregore'
p52
F0.0075757575757600002
sS'compsci'
p53
F0.018855813207099999
sS'AskPhysics'
p54
F0.0082405667196799991
sS'hacking'
p55
F0.0081429362004899995
sS'AskEngineers'
p56
F0.045221908181199998
sS'cableporn'
p57
F0.012693807235499999
sS'homelab'
p58
F0.0074928639391099996
s.