(dp1
S'MechanicalKeyboards'
p2
F0.0071249464864500001
sS'electronic_cigarette'
p3
F0.111924546003
sS'Justrolledintotheshop'
p4
F0.0079407771715499995
sS'DIY_eJuice'
p5
F0.131896472322
sS'drunkvapes'
p6
F0.073954626334500007
sS'cigars'
p7
F0.0075596045745300001
sS'Drugs'
p8
F0.0071465600237
sS'stopsmoking'
p9
F0.0076756313353300003
sS'wicked_edge'
p10
F0.00968093809654
sS'StonerEngineering'
p11
F0.0079337300198300004
sS'hookah'
p12
F0.0116516166618
sS'glassheads'
p13
F0.0096273549672199997
sS'mflb'
p14
F0.0075408742075400003
sS'Vaping101'
p15
F0.061988420842500003
sS'CarAV'
p16
F0.0072703238598800001
sS'VapePorn'
p17
F0.12467484206600001
sS'Shitty_Car_Mods'
p18
F0.0082016151839899992
sS'knifeclub'
p19
F0.0081823959326299996
sS'RBA'
p20
F0.15764184069500001
sS'EDC'
p21
F0.011191701762600001
sS'hardwareswap'
p22
F0.0119443290403
sS'freebies'
p23
F0.0077392786140300001
sS'Coilporn'
p24
F0.15472978853
sS'knives'
p25
F0.0075795228628200003
sS'CannabisExtracts'
p26
F0.0116512059369
sS'vaporents'
p27
F0.026118067978500002
s.