(dp1
S'canada'
p2
F0.0309099477337
sS'CanadaPolitics'
p3
F0.018832391713699999
sS'CalgaryFlames'
p4
F0.0072108008591599999
sS'nhl'
p5
F0.0076863454334100004
sS'CanadianForces'
p6
F0.010654922574200001
sS'metacanada'
p7
F0.0084771886559799996
sS'vancouver'
p8
F0.0096658844563599997
sS'hockey'
p9
F0.0092335200525200008
sS'canadaguns'
p10
F0.0129689025241
sS'Calgary'
p11
F0.029271916790500001
sS'PersonalFinanceCanada'
p12
F0.020389623498500001
s.