(dp1
S'awwwtf'
p2
F0.00707569127642
sS'RandomActsOfGaming'
p3
F0.020111517015999999
sS'LifeProTips'
p4
F0.0072752480045199996
sS'pettyrevenge'
p5
F0.0088893395524899995
sS'AndroidGaming'
p6
F0.0151082298649
sS'sgsflair'
p7
F0.0077321707658099996
sS'BuyItForLife'
p8
F0.0092011549566899994
sS'futurama'
p9
F0.0083268683734199992
sS'perfectloops'
p10
F0.0099095840868000003
sS'everymanshouldknow'
p11
F0.0094926467944299996
sS'InternetIsBeautiful'
p12
F0.0087978810737100004
sS'TalesFromRetail'
p13
F0.0078243751713100006
sS'quityourbullshit'
p14
F0.0094126057428799998
sS'LearnUselessTalents'
p15
F0.014192332607000001
sS'AndroidQuestions'
p16
F0.011258004544499999
sS'Piracy'
p17
F0.0099870168780599993
sS'shittybattlestations'
p18
F0.0094978276245299992
sS'HITsWorthTurkingFor'
p19
F0.0087503686953100002
sS'holdmybeer'
p20
F0.00760736196319
sS'androidthemes'
p21
F0.0090678273485699998
sS'ImaginaryMonsters'
p22
F0.0077194320022899998
sS'Assistance'
p23
F0.0081829767254699998
sS'nononono'
p24
F0.0081257298559800004
sS'Frisson'
p25
F0.0079778466407300005
sS'YouShouldKnow'
p26
F0.0139128559103
sS'shutupandtakemymoney'
p27
F0.0104890011169
sS'howto'
p28
F0.010080360919200001
sS'AbandonedPorn'
p29
F0.0083788837744500008
sS'geek'
p30
F0.010359306167400001
sS'NoStupidQuestions'
p31
F0.0096624459250399999
sS'toosoon'
p32
F0.0074461483911000001
sS'PleX'
p33
F0.0081789978377399992
sS'Steam'
p34
F0.010585457210299999
sS'AlienBlue'
p35
F0.0072093166553699999
sS'IWantToLearn'
p36
F0.0089462739977800004
sS'tmobile'
p37
F0.0076323739863299999
sS'dadjokes'
p38
F0.0089121308094599998
sS'trackers'
p39
F0.00950409334713
sS'freebies'
p40
F0.0614445146347
sS'CrappyDesign'
p41
F0.0095730846913599996
sS'SteamGameSwap'
p42
F0.0092322288717000007
sS'Enhancement'
p43
F0.0112370341913
sS'techsupport'
p44
F0.0078531331496500007
sS'DeepIntoYouTube'
p45
F0.0086362610070000005
sS'google'
p46
F0.0098102730217500007
sS'pcgaming'
p47
F0.0078927348801800003
sS'whatisthisthing'
p48
F0.0084682845343600002
sS'glitch_art'
p49
F0.0072893887326899998
sS'EatCheapAndHealthy'
p50
F0.00926780172775
sS'NetflixBestOf'
p51
F0.0087095121534699997
sS'ShouldIbuythisgame'
p52
F0.0097950971567700006
sS'interestingasfuck'
p53
F0.0082765170788000001
sS'MarkMyWords'
p54
F0.0076998156382199999
sS'torrents'
p55
F0.0093295527302700004
sS'PS3'
p56
F0.0091138258677499993
sS'Android'
p57
F0.0096423429567300007
sS'Cinemagraphs'
p58
F0.0092525399129200006
sS'notinteresting'
p59
F0.0078054298642499997
sS'firstworldanarchists'
p60
F0.0082887700534800008
sS'PerfectTiming'
p61
F0.0089479001298899997
sS'humor'
p62
F0.0081270317579400005
sS'truegaming'
p63
F0.0086975163078400006
sS'Glitch_in_the_Matrix'
p64
F0.0072865416952100004
sS'skeptic'
p65
F0.00707455113193
sS'ExpectationVsReality'
p66
F0.00915482642449
sS'RandomKindness'
p67
F0.012046231483
sS'outside'
p68
F0.0101583939146
sS'Nexus7'
p69
F0.0097569474692899994
sS'foodhacks'
p70
F0.0098168619039799999
sS'lifehacks'
p71
F0.011475984574
sS'SubredditDrama'
p72
F0.00746297663933
sS'iosgaming'
p73
F0.0070504239178900002
sS'bestof'
p74
F0.0070144673388900002
sS'Cyberpunk'
p75
F0.0070951836930999998
sS'needamod'
p76
F0.0089485458613000005
sS'FloridaMan'
p77
F0.0087317836926400008
sS'delusionalartists'
p78
F0.0076003063689400003
sS'Random_Acts_Of_Pizza'
p79
F0.0084145261293199995
sS'GameDealsMeta'
p80
F0.010996858040600001
sS'emulation'
p81
F0.0070475983953200002
sS'shittyaskscience'
p82
F0.0071753169098299997
sS'GamePhysics'
p83
F0.011707068778999999
sS'giftcardexchange'
p84
F0.0082506277651599996
sS'youtubehaiku'
p85
F0.0073705477402000001
sS'ThriftStoreHauls'
p86
F0.0089195799165600002
sS'RedditDayOf'
p87
F0.00746268656716
sS'Frugal'
p88
F0.0088810721241900006
sS'Rainmeter'
p89
F0.0081115912364499998
sS'wheredidthesodago'
p90
F0.0109639810061
sS'AnimalsBeingBros'
p91
F0.0070143534454800002
sS'classic4chan'
p92
F0.0076655052264800001
sS'GameDeals'
p93
F0.016084892488100001
sS'OutOfTheLoop'
p94
F0.0111743239874
sS'androidcirclejerk'
p95
F0.0071047957371200001
sS'software'
p96
F0.0082930925887000004
sS'firefox'
p97
F0.0081871345029199995
sS'PlayStationPlus'
p98
F0.0077309316968200001
sS'AppHookup'
p99
F0.021106726621999999
sS'misc'
p100
F0.0075248900208400001
sS'patientgamers'
p101
F0.0149215066577
sS'findareddit'
p102
F0.011377427184499999
sS'IdiotsFightingThings'
p103
F0.0102990445465
sS'AskScienceFiction'
p104
F0.0070610474813700003
sS'ContagiousLaughter'
p105
F0.0079393083980199997
sS'nostalgia'
p106
F0.0075123108443300004
sS'Damnthatsinteresting'
p107
F0.0085562421675800006
sS'CrazyIdeas'
p108
F0.0112207268257
sS'privacy'
p109
F0.0087703911594500007
sS'chrome'
p110
F0.010986405311400001
sS'ANormalDayInRussia'
p111
F0.0073579975244099996
sS'gif'
p112
F0.0070593962998999997
sS'shittyreactiongifs'
p113
F0.0072132943754600002
sS'misleadingthumbnails'
p114
F0.0095419847328200007
sS'Ubuntu'
p115
F0.0071862907683799999
sS'web_design'
p116
F0.0070021044576200004
sS'Pareidolia'
p117
F0.0098810244000800008
sS'indiegameswap'
p118
F0.010094556606199999
sS'explainlikeIAmA'
p119
F0.0087174106061800004
sS'tasker'
p120
F0.0089982003599300003
sS'alternativeart'
p121
F0.0071033938437300003
sS'lockpicking'
p122
F0.0084499603908100001
sS'androidapps'
p123
F0.016191054442399998
sS'WebGames'
p124
F0.0078059425885500001
sS'mturk'
p125
F0.0071238999860300002
sS'mildlyinfuriating'
p126
F0.0084908412535100002
sS'cordcutters'
p127
F0.011863326633699999
sS'somethingimade'
p128
F0.0071511199915900003
sS'Unexpected'
p129
F0.0089047634723599996
sS'Awwducational'
p130
F0.0079801871216299992
sS'xbox360'
p131
F0.0096757657311299997
sS'IndieGaming'
p132
F0.0087762067284300003
sS'ProgrammerHumor'
p133
F0.00967725330725
sS'Random_Acts_Of_Amazon'
p134
F0.0105515228616
sS'calvinandhobbes'
p135
F0.0071271447426300002
sS'rage'
p136
F0.0070963926670600001
sS'comics'
p137
F0.0085445518683000005
sS'Chromecast'
p138
F0.010824225143899999
sS'netflix'
p139
F0.0103440996411
sS'Flipping'
p140
F0.0081741279346100003
sS'Perfectfit'
p141
F0.0091968117719199993
sS'offbeat'
p142
F0.0086873772102200007
sS'behindthegifs'
p143
F0.011129745388
sS'standupshots'
p144
F0.0079561460276400004
sS'kindle'
p145
F0.0072642062097199997
sS'hacking'
p146
F0.0074886928153000002
sS'fullmoviesonyoutube'
p147
F0.0125892149088
sS'gallifrey'
p148
F0.0079886612549900007
sS'gamernews'
p149
F0.0090563206687700008
sS'NewsOfTheStupid'
p150
F0.0091720679956000008
sS'TrueAskReddit'
p151
F0.0074569495695000002
sS'hardware'
p152
F0.0075166842290100002
sS'tipofmytongue'
p153
F0.0070580869169299997
sS'learnprogramming'
p154
F0.0078652818392700007
sS'techsupportmacgyver'
p155
F0.0139228757067
sS'HighQualityGifs'
p156
F0.0104285605542
sS'softwaregore'
p157
F0.014479638009
sS'self'
p158
F0.00715332746995
sS'ImaginaryLandscapes'
p159
F0.0079597821533300001
sS'answers'
p160
F0.0076242537581799998
sS'slowcooking'
p161
F0.0070518036343900003
sS'spaceporn'
p162
F0.0073752453458600003
sS'nonononoyes'
p163
F0.0084432349452200003
sS'Frugal_Jerk'
p164
F0.0073791954296600001
sS'windows8'
p165
F0.0076757752533
sS'Whatcouldgowrong'
p166
F0.0075972874869899999
sS'wallpapers'
p167
F0.0083893156761300006
sS'talesfromtechsupport'
p168
F0.010075508407800001
sS'buildapcsales'
p169
F0.0099810842355200005
sS'raspberry_pi'
p170
F0.0080729648117299994
sS'GiftofGames'
p171
F0.020780359491499999
sS'forwardsfromgrandma'
p172
F0.0073810825587800003
sS'AnimalsBeingJerks'
p173
F0.0081658291457300004
sS'wallpaper'
p174
F0.0079153474420899997
sS'budgetfood'
p175
F0.0076240108087200003
sS'linux_gaming'
p176
F0.0073594347954099998
sS'Games'
p177
F0.00706389179258
sS'nexus4'
p178
F0.0078868409772800008
sS'Gaming4Gamers'
p179
F0.010229976209400001
sS'DumpsterDiving'
p180
F0.0084388185654000001
sS'oddlysatisfying'
p181
F0.00766084179554
sS'beermoney'
p182
F0.022406047989500001
sS'windows'
p183
F0.012166520082100001
sS'youtube'
p184
F0.0075746540422399998
sS'secretsanta'
p185
F0.0076682760579399999
sS'techsupportgore'
p186
F0.011477430288100001
sS'HailCorporate'
p187
F0.0079386080973799997
sS'microsoft'
p188
F0.0082392776523699997
s.