(dp1
S'gardening'
p2
F0.0072602382401500002
sS'whatisthisthing'
p3
F0.0075228880319800004
sS'Justrolledintotheshop'
p4
F0.0113199977073
sS'energy'
p5
F0.0070856080845599998
sS'engineering'
p6
F0.0099492175355
sS'woodworking'
p7
F0.0142896947021
sS'MechanicAdvice'
p8
F0.012380706732000001
sS'DIY'
p9
F0.0085328014184399992
sS'techsupportmacgyver'
p10
F0.011901517216300001
sS'networking'
p11
F0.0083136194660399995
sS'Trucks'
p12
F0.0082335329341300008
sS'arduino'
p13
F0.0087690808704099996
sS'HomeImprovement'
p14
F0.032317297098799998
sS'electronics'
p15
F0.0191100443131
sS'Welding'
p16
F0.014575327944899999
sS'HomeNetworking'
p17
F0.00872968091511
sS'cablefail'
p18
F0.026905829596400001
sS'HVAC'
p19
F0.035774269398700001
sS'hometheater'
p20
F0.0086508374746900006
sS'howto'
p21
F0.0092286914765900008
sS'ECE'
p22
F0.013478556841399999
sS'AskElectronics'
p23
F0.023323615160300001
sS'cordcutters'
p24
F0.0076479885790000004
sS'Plumbing'
p25
F0.036050665800599999
sS'amateurradio'
p26
F0.0101437024514
sS'homestead'
p27
F0.0082977425259299995
sS'MachinePorn'
p28
F0.0112474437628
sS'techsupportgore'
p29
F0.0099466857643000003
sS'BuyItForLife'
p30
F0.0097644573751500003
sS'homelab'
p31
F0.0087362374341800001
sS'AskEngineers'
p32
F0.012243989314299999
sS'DataHoarder'
p33
F0.0074013157894700001
sS'cableporn'
p34
F0.029419927837900001
sS'RealEstate'
p35
F0.012019230769199999
sS'Cartalk'
p36
F0.0107574679943
s.