(dp1
S'Dexter'
p2
F0.0096509425453200001
sS'teenagers'
p3
F0.0080002788768199998
sS'OFWGKTA'
p4
F0.0097233476096799994
sS'Hiphopcirclejerk'
p5
F0.017829993089100001
sS'dbz'
p6
F0.0080288790688999995
sS'GTAV'
p7
F0.0073666633925900003
sS'southpark'
p8
F0.0103341495031
sS'DunderMifflin'
p9
F0.0076239644615199997
sS'quityourbullshit'
p10
F0.0070024760136199998
sS'OutOfTheLoop'
p11
F0.0070364514907899998
sS'breakingbad'
p12
F0.0110085849442
sS'PKA'
p13
F0.0094077642391599998
sS'GrandTheftAutoV'
p14
F0.0095631946239300002
sS'hiphopheads'
p15
F0.017292265778700001
sS'makinghiphop'
p16
F0.010742683133099999
sS'blackops2'
p17
F0.0074042279214499998
sS'CallOfDuty'
p18
F0.0096515622443999992
sS'HipHopImages'
p19
F0.0187665117974
sS'lewronggeneration'
p20
F0.0118746516912
sS'RedHotChiliPeppers'
p21
F0.0070011668611400001
sS'thatHappened'
p22
F0.0071229482812000004
sS'Celebs'
p23
F0.0073337351818399997
sS'MarkMyWords'
p24
F0.00701504676698
s.