(dp1
S'tightdresses'
p2
F0.018429092342600002
sS'awwwtf'
p3
F0.0094647519582200003
sS'MapPorn'
p4
F0.0096574957888799998
sS'redheads'
p5
F0.016300154321000002
sS'DoesAnybodyElse'
p6
F0.0096731318302599994
sS'pettyrevenge'
p7
F0.0103922010231
sS'CityPorn'
p8
F0.0109117093165
sS'skyrim'
p9
F0.0095247288991899999
sS'QuotesPorn'
p10
F0.0159179931661
sS'uglyduckling'
p11
F0.0084494382022499998
sS'ExpectationVsReality'
p12
F0.0106775639336
sS'milf'
p13
F0.0121917732989
sS'dadjokes'
p14
F0.0104355716878
sS'dbz'
p15
F0.0099593376156500001
sS'perfectloops'
p16
F0.012991252121700001
sS'everymanshouldknow'
p17
F0.011159266969300001
sS'dataisbeautiful'
p18
F0.0078066121578399999
sS'carporn'
p19
F0.0140651396692
sS'NSFWFunny'
p20
F0.013395897979300001
sS'Amateur'
p21
F0.01492046799
sS'atheism'
p22
F0.0086500049522899997
sS'TopGear'
p23
F0.0143946499205
sS'quityourbullshit'
p24
F0.013033353365399999
sS'drunk'
p25
F0.0107169860942
sS'cumsluts'
p26
F0.012219830315300001
sS'LearnUselessTalents'
p27
F0.0089194562355599995
sS'ProtectAndServe'
p28
F0.0072074915824899997
sS'harrypotter'
p29
F0.0217465655817
sS'HistoryPorn'
p30
F0.012684046147
sS'badtattoos'
p31
F0.0083077352694799992
sS'Bioshock'
p32
F0.00716381251279
sS'GrandTheftAutoV'
p33
F0.010052678797400001
sS'Fallout'
p34
F0.0079253542218599999
sS'ImaginaryMonsters'
p35
F0.0075593952483799997
sS'AsianHotties'
p36
F0.0093603744149799994
sS'PublicFreakout'
p37
F0.0081245768449599992
sS'Gore'
p38
F0.0073729657920999997
sS'MensRights'
p39
F0.0118179608701
sS'nononono'
p40
F0.0129610259675
sS'pornID'
p41
F0.0071140165352799999
sS'australia'
p42
F0.00711962028692
sS'arresteddevelopment'
p43
F0.010815250872699999
sS'shutupandtakemymoney'
p44
F0.0097069845139700003
sS'popping'
p45
F0.0083151172260099993
sS'gonewild'
p46
F0.0077452125910400004
sS'food'
p47
F0.0072011292136199999
sS'foodhacks'
p48
F0.0073749543629100002
sS'UpliftingNews'
p49
F0.0083728159233900003
sS'PandR'
p50
F0.0116554594941
sS'fffffffuuuuuuuuuuuu'
p51
F0.013343123354299999
sS'geek'
p52
F0.0126449583961
sS'spaceporn'
p53
F0.013704637649399999
sS'beards'
p54
F0.0110638297872
sS'cringepics'
p55
F0.0104959101225
sS'toosoon'
p56
F0.013253862442200001
sS'Military'
p57
F0.0081933012176200002
sS'Conservative'
p58
F0.0072219547424199997
sS'memes'
p59
F0.0117698028739
sS'PrettyGirlsUglyFaces'
p60
F0.010899852483200001
sS'motorcycles'
p61
F0.0071056674633000003
sS'photoshopbattles'
p62
F0.0089885852921299993
sS'AbandonedPorn'
p63
F0.011448685964299999
sS'Sherlock'
p64
F0.00876481090732
sS'creepyPMs'
p65
F0.0087520362858100002
sS'tipofmypenis'
p66
F0.0076253195268799999
sS'WatchItForThePlot'
p67
F0.038375849392900001
sS'Celebs'
p68
F0.041879365932300003
sS'techsupportgore'
p69
F0.010498401627399999
sS'woahdude'
p70
F0.0123071604511
sS'CrappyDesign'
p71
F0.011378136963
sS'comics'
p72
F0.011818662903499999
sS'Frisson'
p73
F0.0071757459785899997
sS'humor'
p74
F0.0092471031451599999
sS'Enhancement'
p75
F0.0098612736085599995
sS'zombies'
p76
F0.00884386557324
sS'Libertarian'
p77
F0.0089338478117299992
sS'nsfw'
p78
F0.0189959864675
sS'ArcherFX'
p79
F0.0123456790123
sS'cringe'
p80
F0.00854817908949
sS'firefly'
p81
F0.0148226246589
sS'mildlyinteresting'
p82
F0.00716967754538
sS'pcgaming'
p83
F0.0075651635680099999
sS'whatisthisthing'
p84
F0.0084895728333700005
sS'NetflixBestOf'
p85
F0.0087803015842699995
sS'gentlemanboners'
p86
F0.0410637674208
sS'TheSimpsons'
p87
F0.011127366227800001
sS'Rateme'
p88
F0.00846153846154
sS'freebies'
p89
F0.0077580687681199998
sS'tumblr'
p90
F0.0154942272201
sS'DCcomics'
p91
F0.0084515859766300001
sS'see'
p92
F0.0077853468650099997
sS'fatpeoplestories'
p93
F0.0079068609139599996
sS'PS3'
p94
F0.0070222822417300001
sS'thick'
p95
F0.0076259946949599998
sS'Cinemagraphs'
p96
F0.010760401721699999
sS'MorbidReality'
p97
F0.0105867406954
sS'firstworldanarchists'
p98
F0.0154653839191
sS'offbeat'
p99
F0.0104527570615
sS'gameofthrones'
p100
F0.0095161986644300006
sS'Blowjobs'
p101
F0.0090950849793300006
sS'space'
p102
F0.0089177907337800004
sS'lotr'
p103
F0.0116478602257
sS'shittyfoodporn'
p104
F0.0113590263692
sS'TaylorSwift'
p105
F0.016326089307
sS'breakingbad'
p106
F0.014346015629499999
sS'malefashionadvice'
p107
F0.0070544305006000002
sS'firstworldproblems'
p108
F0.012583208073899999
sS'outside'
p109
F0.0096769857981300004
sS'RoomPorn'
p110
F0.014399778464900001
sS'randomsexiness'
p111
F0.020101000099
sS'lifehacks'
p112
F0.0130841543885
sS'pcmasterrace'
p113
F0.0078064844758800002
sS'Astronomy'
p114
F0.0079708494648099999
sS'guns'
p115
F0.0070783891510499998
sS'disney'
p116
F0.0082174462705399999
sS'SubredditDrama'
p117
F0.0079856522559899994
sS'ass'
p118
F0.015268411114099999
sS'tattoos'
p119
F0.0088757396449699998
sS'blackpeoplegifs'
p120
F0.016569411425699999
sS'bestof'
p121
F0.0081292643468000008
sS'interestingasfuck'
p122
F0.0138436482085
sS'arrow'
p123
F0.0071884582516500003
sS'FloridaMan'
p124
F0.0086506143589200005
sS'celebnsfw'
p125
F0.0267157032822
sS'delusionalartists'
p126
F0.0086500513596799999
sS'whitepeoplegifs'
p127
F0.015151515151500001
sS'minimalism'
p128
F0.0086880280567499992
sS'adventuretime'
p129
F0.0079229193943700007
sS'DunderMifflin'
p130
F0.011180195083
sS'LadyBoners'
p131
F0.0099675386671800002
sS'corgi'
p132
F0.0084064597006100004
sS'shittyaskscience'
p133
F0.0095959466721300003
sS'doctorwho'
p134
F0.0096101043382800008
sS'lewronggeneration'
p135
F0.0082563154651899996
sS'youtubehaiku'
p136
F0.0077848549186099996
sS'PoliticalHumor'
p137
F0.0099340659340700008
sS'calvinandhobbes'
p138
F0.0123024215526
sS'netflix'
p139
F0.0073486470702699997
sS'4chan'
p140
F0.012588111228299999
sS'creepy'
p141
F0.0076474769012100001
sS'itookapicture'
p142
F0.0125090300749
sS'wheredidthesodago'
p143
F0.0131473230589
sS'AnimalsBeingBros'
p144
F0.016081000595600001
sS'classic4chan'
p145
F0.011406551059699999
sS'GunPorn'
p146
F0.0082644628099199993
sS'battlestations'
p147
F0.0101122632616
sS'thewalkingdead'
p148
F0.0094095876540599994
sS'OutOfTheLoop'
p149
F0.010484153388199999
sS'Dexter'
p150
F0.0081408871905599995
sS'masseffect'
p151
F0.0077691453940099998
sS'StarWars'
p152
F0.0134579103405
sS'TinyTits'
p153
F0.016054421768699999
sS'pussy'
p154
F0.0075061728395099999
sS'reactiongifs'
p155
F0.014916945084899999
sS'cosplay'
p156
F0.0114785347257
sS'community'
p157
F0.0126804090866
sS'nostalgia'
p158
F0.015201427493
sS'AsiansGoneWild'
p159
F0.0080871541237799993
sS'IdiotsFightingThings'
p160
F0.014155770324
sS'seinfeld'
p161
F0.0076039202433300004
sS'MilitaryPorn'
p162
F0.0111527292622
sS'EarthPorn'
p163
F0.0070705196441300001
sS'TrollXChromosomes'
p164
F0.0125676528207
sS'holdmybeer'
p165
F0.014015254171699999
sS'ContagiousLaughter'
p166
F0.0087416360889299993
sS'burstingout'
p167
F0.0097771236333100003
sS'GamePhysics'
p168
F0.0115315524135
sS'TheLastAirbender'
p169
F0.0076801846795900002
sS'Damnthatsinteresting'
p170
F0.015915768854099999
sS'HIMYM'
p171
F0.012084383523800001
sS'FiftyFifty'
p172
F0.0158578722088
sS'CrazyIdeas'
p173
F0.011456234777599999
sS'OldSchoolCool'
p174
F0.0090538901403599999
sS'lego'
p175
F0.0099886061526799994
sS'Bad_Cop_No_Donut'
p176
F0.0105617504734
sS'ANormalDayInRussia'
p177
F0.0123071156369
sS'onetruegod'
p178
F0.0108520900322
sS'futurama'
p179
F0.0145060240964
sS'gif'
p180
F0.0217293148211
sS'cats'
p181
F0.011459805861799999
sS'PenmanshipPorn'
p182
F0.0114247311828
sS'shittyreactiongifs'
p183
F0.0145091084959
sS'alternativeart'
p184
F0.0073967339097000002
sS'Whatcouldgowrong'
p185
F0.015574461145400001
sS'whowouldwin'
p186
F0.0072719495241199998
sS'Pareidolia'
p187
F0.0118400976503
sS'asstastic'
p188
F0.0105282487605
sS'happy'
p189
F0.010413121894800001
sS'CombatFootage'
p190
F0.0078286898457299997
sS'fatlogic'
p191
F0.010583013046099999
sS'TrollYChromosome'
p192
F0.012366346257700001
sS'Stacked'
p193
F0.0079465988556900007
sS'firstimpression'
p194
F0.0085741290845300008
sS'Unexpected'
p195
F0.0154293561677
sS'Spiderman'
p196
F0.00703019378098
sS'batman'
p197
F0.0141549899914
sS'mildlyinfuriating'
p198
F0.0139645006108
sS'marvelstudios'
p199
F0.0078675514811500005
sS'somethingimade'
p200
F0.0079334176968799998
sS'nsfw_gifs'
p201
F0.0161553665034
sS'rule34'
p202
F0.0114658391627
sS'Awwducational'
p203
F0.011988760536999999
sS'Shitty_Car_Mods'
p204
F0.0106181769917
sS'Cyberpunk'
p205
F0.0071530758226000003
sS'thelastofus'
p206
F0.0072721646294299997
sS'IASIP'
p207
F0.0095726495726499994
sS'ghettoglamourshots'
p208
F0.0082149580694799995
sS'blunderyears'
p209
F0.0105212816834
sS'Marvel'
p210
F0.010826036788200001
sS'Boobies'
p211
F0.017034132544800001
sS'EDC'
p212
F0.0073361793840900002
sS'showerbeer'
p213
F0.0078489085111599997
sS'rage'
p214
F0.0136671643505
sS'worldpolitics'
p215
F0.0099820406799500001
sS'AmateurArchives'
p216
F0.0085150571131900003
sS'Perfectfit'
p217
F0.010118955662000001
sS'PerfectTiming'
p218
F0.0166982579655
sS'behindthegifs'
p219
F0.013034238488800001
sS'standupshots'
p220
F0.016093370546200001
sS'BustyPetite'
p221
F0.018097347523100001
sS'OnOff'
p222
F0.0176048685068
sS'fullmoviesonyoutube'
p223
F0.0099223666682000007
sS'FoodPorn'
p224
F0.0125266219342
sS'awesome'
p225
F0.0089245872378400006
sS'teenagers'
p226
F0.0098451916633699992
sS'ginger'
p227
F0.017354988399100001
sS'FanTheories'
p228
F0.0078589302471099992
sS'conspiracy'
p229
F0.010546534583
sS'polandball'
p230
F0.0074831173571800001
sS'YouShouldKnow'
p231
F0.010659164816999999
sS'bestofworldstar'
p232
F0.0079221367134399995
sS'shorthairedhotties'
p233
F0.0196044711952
sS'southpark'
p234
F0.013170765790899999
sS'Pizza'
p235
F0.00751937389703
sS'HouseOfCards'
p236
F0.0073165364726599999
sS'hardbodies'
p237
F0.0213907518532
sS'techsupportmacgyver'
p238
F0.0082466567607700006
sS'misleadingthumbnails'
p239
F0.0131780962129
sS'HighQualityGifs'
p240
F0.016311424850900001
sS'self'
p241
F0.0079153451034299997
sS'RealGirls'
p242
F0.020557867868600001
sS'zelda'
p243
F0.00847203478782
sS'ImaginaryLandscapes'
p244
F0.00738938451834
sS'GoneMild'
p245
F0.0094155844155800004
sS'Hotchickswithtattoos'
p246
F0.014665523156100001
sS'JusticePorn'
p247
F0.011772165858
sS'DaftPunk'
p248
F0.0071371291098600003
sS'scifi'
p249
F0.0082520390212700006
sS'Justrolledintotheshop'
p250
F0.0098246553339600001
sS'nottheonion'
p251
F0.00746505717916
sS'watchpeopledie'
p252
F0.0099698010176600006
sS'nonononoyes'
p253
F0.017198771039299999
sS'Autos'
p254
F0.0088263567246399995
sS'wallpapers'
p255
F0.0142307099954
sS'talesfromtechsupport'
p256
F0.0076976282380200002
sS'canada'
p257
F0.0072511535926199997
sS'NSFW_GIF'
p258
F0.0173596341982
sS'notinteresting'
p259
F0.011624995528799999
sS'facepalm'
p260
F0.014870187284000001
sS'forwardsfromgrandma'
p261
F0.0086833602584800006
sS'AnimalsBeingJerks'
p262
F0.017032831399700001
sS'Futurology'
p263
F0.0076899700064699998
sS'wallpaper'
p264
F0.0108100103658
sS'girlsinyogapants'
p265
F0.020767966532200002
sS'Images'
p266
F0.0109760216143
sS'MURICA'
p267
F0.0152987435596
sS'progresspics'
p268
F0.010780848737599999
sS'dogpictures'
p269
F0.0104636714407
sS'comicbooks'
p270
F0.0081817438023299993
sS'oddlysatisfying'
p271
F0.014429076082199999
sS'ProgrammerHumor'
p272
F0.0071360608943900001
sS'MachinePorn'
p273
F0.00727480791238
sS'cosplaygirls'
p274
F0.026007075910899999
sS'ConfusedBoners'
p275
F0.0099798725259999995
sS'entertainment'
p276
F0.0078967025931100006
sS'HumanPorn'
p277
F0.014283098333599999
sS'GetMotivated'
p278
F0.0088825139488399995
sS'curvy'
p279
F0.0094827586206900003
sS'terriblefacebookmemes'
p280
F0.0081940613337700002
sS'PrettyGirls'
p281
F0.039866883998900003
sS'TumblrInAction'
p282
F0.0099394987035400003
sS'thatHappened'
p283
F0.0125236727961
sS'tall'
p284
F0.0088141407403900009
sS'ImGoingToHellForThis'
p285
F0.014539222732
sS'cableporn'
p286
F0.0074294205051999998
sS'GWNerdy'
p287
F0.0073017781977499996
s.