(dp1
S'inthenews'
p2
F0.0108609271523
sS'AndroidGaming'
p3
F0.010230569552600001
sS'BuyItForLife'
p4
F0.0119222303742
sS'SampleSize'
p5
F0.011170129667199999
sS'everymanshouldknow'
p6
F0.015939828871100001
sS'wiiu'
p7
F0.0071615519572000002
sS'IndieGaming'
p8
F0.0098602659454600002
sS'RandomActsOfGaming'
p9
F0.0085677102161800002
sS'AskMen'
p10
F0.0075729569260100001
sS'unixporn'
p11
F0.0087336244541499995
sS'Showerthoughts'
p12
F0.0076134034360799997
sS'HistoryPorn'
p13
F0.0129066666667
sS'picrequests'
p14
F0.0075389982756500001
sS'archlinux'
p15
F0.0084321992352199993
sS'holdmybeer'
p16
F0.016613243686999998
sS'ImaginaryMonsters'
p17
F0.0095503718728900001
sS'dwarffortress'
p18
F0.0093866110422999999
sS'YouShouldKnow'
p19
F0.0197807373296
sS'skyrimmods'
p20
F0.00858369098712
sS'UpliftingNews'
p21
F0.011391765597399999
sS'PandR'
p22
F0.0093741918800099994
sS'Jokes'
p23
F0.0076328211308599996
sS'Stargate'
p24
F0.0102860501567
sS'3amjokes'
p25
F0.00829406220547
sS'Military'
p26
F0.0072505247090200002
sS'Steam'
p27
F0.0128345531278
sS'AlienBlue'
p28
F0.0161743619157
sS'photoshopbattles'
p29
F0.012333662231000001
sS'IWantToLearn'
p30
F0.0095346197502800007
sS'prisonarchitect'
p31
F0.0076027782992300003
sS'Celebs'
p32
F0.0104852714702
sS'techsupportgore'
p33
F0.019931347580600001
sS'CrappyDesign'
p34
F0.019001991710199999
sS'math'
p35
F0.0095566219597199992
sS'techsupport'
p36
F0.012964199645799999
sS'Libertarian'
p37
F0.010901188264600001
sS'Anarcho_Capitalism'
p38
F0.0080774213213399993
sS'pcgaming'
p39
F0.0122814321399
sS'EatCheapAndHealthy'
p40
F0.0083640543861699997
sS'tea'
p41
F0.0073363044223499997
sS'polandball'
p42
F0.011827593622300001
sS'POLITIC'
p43
F0.0072820124834499997
sS'fatpeoplestories'
p44
F0.0090265153889600002
sS'OneY'
p45
F0.0105284068335
sS'forwardsfromgrandma'
p46
F0.011548288196199999
sS'no_sob_story'
p47
F0.0129198966408
sS'Design'
p48
F0.010942760942800001
sS'CookieClicker'
p49
F0.0082423038728899993
sS'findareddit'
p50
F0.0184928660479
sS'skeptic'
p51
F0.0173314230254
sS'socialskills'
p52
F0.0087899756873000001
sS'DebateReligion'
p53
F0.0075040069940300004
sS'Nexus5'
p54
F0.0079371225027099999
sS'Nexus7'
p55
F0.0087944587127400005
sS'vexillology'
p56
F0.0111255204423
sS'Economics'
p57
F0.0124747983871
sS'ExposurePorn'
p58
F0.0094650205761300007
sS'needamod'
p59
F0.0159229938827
sS'legaladvice'
p60
F0.0070923775870799996
sS'answers'
p61
F0.019488267267700001
sS'lgbt'
p62
F0.0073576932637299999
sS'gentlemanboners'
p63
F0.0120770432067
sS'doctorwho'
p64
F0.0105330941539
sS'Ingress'
p65
F0.0071728347958800003
sS'TopGear'
p66
F0.011884271781000001
sS'ThriftStoreHauls'
p67
F0.0074592684682299997
sS'Frugal'
p68
F0.0109117915905
sS'WarshipPorn'
p69
F0.0078689131642299993
sS'HalfLife'
p70
F0.0084384093113500005
sS'QuotesPorn'
p71
F0.013445026178000001
sS'firefox'
p72
F0.0300873196659
sS'apple'
p73
F0.0112602511533
sS'TrueReddit'
p74
F0.017186250999200001
sS'AmIFreeToGo'
p75
F0.0086371397007100007
sS'AntiJokes'
p76
F0.0077814283243999999
sS'vim'
p77
F0.0079297042434599996
sS'IdiotsFightingThings'
p78
F0.018988802955100002
sS'Health'
p79
F0.0070573622402899999
sS'gamernews'
p80
F0.012581453634099999
sS'ContagiousLaughter'
p81
F0.013302676958399999
sS'HIMYM'
p82
F0.0079936327773500009
sS'FiftyFifty'
p83
F0.0102017157431
sS'eldertrees'
p84
F0.0074021576502099999
sS'AskHistorians'
p85
F0.012168462085500001
sS'OutOfTheLoop'
p86
F0.022685319040099999
sS'ifyoulikeblank'
p87
F0.0087714428468299993
sS'misleadingthumbnails'
p88
F0.017087908517999999
sS'WebGames'
p89
F0.013868889731000001
sS'Pareidolia'
p90
F0.016051065939499998
sS'tipofmytongue'
p91
F0.0103215506134
sS'ftlgame'
p92
F0.0097359389227400003
sS'LifeProTips'
p93
F0.0103011411524
sS'Shitty_Car_Mods'
p94
F0.00957113319549
sS'NeutralPolitics'
p95
F0.011394173922400001
sS'ghettoglamourshots'
p96
F0.0071205279610999997
sS'EDC'
p97
F0.0078134792963699996
sS'trackers'
p98
F0.0139959772042
sS'science'
p99
F0.010947991350900001
sS'firstworldproblems'
p100
F0.016070187630299999
sS'Glitch_in_the_Matrix'
p101
F0.0104820595519
sS'standupshots'
p102
F0.016646588544500001
sS'history'
p103
F0.0085845379643799992
sS'TalesFromThePizzaGuy'
p104
F0.0083518930957700004
sS'AskScienceFiction'
p105
F0.0122084264118
sS'NewsOfTheStupid'
p106
F0.010288713910799999
sS'audiophile'
p107
F0.00739228774756
sS'awesome'
p108
F0.0088905016783100005
sS'gadgets'
p109
F0.010447956118599999
sS'learnprogramming'
p110
F0.011670010275499999
sS'Infographics'
p111
F0.0101751902318
sS'arresteddevelopment'
p112
F0.0093438538206000003
sS'counting'
p113
F0.0119844357977
sS'SRSsucks'
p114
F0.0103774544715
sS'HouseOfCards'
p115
F0.0094108475331300002
sS'asmr'
p116
F0.0081091772151899999
sS'techsupportmacgyver'
p117
F0.020272845057499999
sS'MURICA'
p118
F0.010889456205
sS'RealGirls'
p119
F0.0074079139314400001
sS'scifi'
p120
F0.014732547597499999
sS'spaceporn'
p121
F0.017054608077299999
sS'howtonotgiveafuck'
p122
F0.0094476354071599995
sS'Pizza'
p123
F0.0074702357793199996
sS'economy'
p124
F0.0096645293188399994
sS'BasicIncome'
p125
F0.0115934449093
sS'awwnime'
p126
F0.0077908122145600002
sS'GiftofGames'
p127
F0.0074320662692599999
sS'kickstarter'
p128
F0.0072308956450300001
sS'askscience'
p129
F0.0128534388479
sS'wallpaper'
p130
F0.0120228434025
sS'netsec'
p131
F0.017301273755199999
sS'Images'
p132
F0.0082093381221099992
sS'mac'
p133
F0.0093347579148599993
sS'law'
p134
F0.0076613221704399997
sS'MachinePorn'
p135
F0.0120893780223
sS'oculus'
p136
F0.012595766783500001
sS'eFreebies'
p137
F0.0112370341913
sS'tall'
p138
F0.0082620808915399996
sS'ImGoingToHellForThis'
p139
F0.010906480382100001
sS'DataHoarder'
p140
F0.00745909528393
sS'cableporn'
p141
F0.0121831252365
sS'photoshop'
p142
F0.0077237619264000001
sS'shield'
p143
F0.0096104887983700007
sS'DoesAnybodyElse'
p144
F0.0106167095625
sS'pettyrevenge'
p145
F0.013636363636400001
sS'CityPorn'
p146
F0.0106847169389
sS'thatHappened'
p147
F0.011702236291199999
sS'DeepIntoYouTube'
p148
F0.012791493393700001
sS'dataisbeautiful'
p149
F0.0153399787424
sS'MLPLounge'
p150
F0.0079484235626599998
sS'battlefield3'
p151
F0.0080933111163999996
sS'badlinguistics'
p152
F0.0083737864077699994
sS'cyanogenmod'
p153
F0.0081640780565500008
sS'nostalgia'
p154
F0.010482540555400001
sS'Documentaries'
p155
F0.0093021358193399999
sS'writing'
p156
F0.0070082685273399996
sS'AndroidQuestions'
p157
F0.0151647286822
sS'Rainmeter'
p158
F0.0073478917731100001
sS'MensRights'
p159
F0.011544452249299999
sS'MilitaryPorn'
p160
F0.0098263447691699993
sS'Frisson'
p161
F0.012705167173299999
sS'childfree'
p162
F0.0091291909093800007
sS'food'
p163
F0.0071393205666700002
sS'DebateAnAtheist'
p164
F0.00781176470588
sS'NoStupidQuestions'
p165
F0.0148209014273
sS'nyc'
p166
F0.0078722103332300002
sS'grammar'
p167
F0.0097139197267300005
sS'creepyPMs'
p168
F0.0086093353464600005
sS'WatchItForThePlot'
p169
F0.013395553115599999
sS'freebies'
p170
F0.0138486189532
sS'PropagandaPosters'
p171
F0.013241616509
sS'mashups'
p172
F0.00832920996206
sS'SubredditDrama'
p173
F0.0199743132632
sS'arrow'
p174
F0.0071533661407300001
sS'minimalism'
p175
F0.011269419624900001
sS'wallpapers'
p176
F0.0124926559263
sS'mildlyinteresting'
p177
F0.0081634279875499993
sS'TrueAtheism'
p178
F0.0138410227904
sS'badhistory'
p179
F0.0119374212204
sS'energy'
p180
F0.0079387058063300001
sS'Cinemagraphs'
p181
F0.016264129462499999
sS'canada'
p182
F0.0089060105215199997
sS'psychology'
p183
F0.0101029980975
sS'space'
p184
F0.0139113499226
sS'shittyfoodporn'
p185
F0.0100297758972
sS'LearnUselessTalents'
p186
F0.014735578235
sS'RoomPorn'
p187
F0.014051086400200001
sS'electronics'
p188
F0.0091130012150700008
sS'Astronomy'
p189
F0.010031131096499999
sS'CatsStandingUp'
p190
F0.00720309205903
sS'bestof'
p191
F0.016350184205999999
sS'Cyberpunk'
p192
F0.012233953410399999
sS'emulation'
p193
F0.0098531501658000002
sS'Roadcam'
p194
F0.013914287986
sS'GamePhysics'
p195
F0.017916077321999999
sS'software'
p196
F0.0162962962963
sS'youtubehaiku'
p197
F0.012632859750200001
sS'PoliticalHumor'
p198
F0.0101876675603
sS'headphones'
p199
F0.00777132304851
sS'programming'
p200
F0.0154728927582
sS'dogecoin'
p201
F0.0088444974330300005
sS'whatstheword'
p202
F0.0104272400111
sS'xbmc'
p203
F0.0072796934865900003
sS'gamingpc'
p204
F0.0071444686771500003
sS'misc'
p205
F0.0153194920379
sS'patientgamers'
p206
F0.014668151232
sS'rant'
p207
F0.0092783505154600005
sS'conspiratard'
p208
F0.0146565048233
sS'tf2'
p209
F0.0079972031639200004
sS'OldSchoolCool'
p210
F0.0077050619330900003
sS'lego'
p211
F0.0089783754871200008
sS'ANormalDayInRussia'
p212
F0.0152734647316
sS'circlebroke'
p213
F0.0140979513914
sS'onetruegod'
p214
F0.0087105177466600004
sS'TheFacebookDelusion'
p215
F0.00706608280255
sS'Autos'
p216
F0.0075221044296799999
sS'PenmanshipPorn'
p217
F0.012221235702699999
sS'shittyreactiongifs'
p218
F0.0121602872766
sS'shittyadvice'
p219
F0.0081809060739399999
sS'explainlikeimfive'
p220
F0.00704889271823
sS'ObscureMedia'
p221
F0.0076791808873700003
sS'CombatFootage'
p222
F0.0096159449851400004
sS'GTA'
p223
F0.0074097184307
sS'TrollYChromosome'
p224
F0.0108364190808
sS'DaystromInstitute'
p225
F0.0111650485437
sS'mildlyinfuriating'
p226
F0.0165244152025
sS'Awwducational'
p227
F0.0148204446133
sS'skyrim'
p228
F0.0092761385451799998
sS'learnpython'
p229
F0.0089810840883799998
sS'ipad'
p230
F0.0090867189043300003
sS'television'
p231
F0.0084416763256000005
sS'SelfDrivingCars'
p232
F0.010635635635600001
sS'worldpolitics'
p233
F0.0142428468788
sS'typography'
p234
F0.010301768990600001
sS'PerfectTiming'
p235
F0.0189247115692
sS'kindle'
p236
F0.0090090090090099995
sS'hacking'
p237
F0.0082226865269299995
sS'KerbalSpaceProgram'
p238
F0.0109250812553
sS'torrents'
p239
F0.017552493438299999
sS'gallifrey'
p240
F0.010390689941800001
sS'FoodPorn'
p241
F0.0091448740574399997
sS'sysadmin'
p242
F0.0125050120289
sS'conspiracy'
p243
F0.0123333214171
sS'AnythingGoesNews'
p244
F0.00738833538565
sS'collapse'
p245
F0.0075765228810999998
sS'HighQualityGifs'
p246
F0.020130955698000001
sS'self'
p247
F0.015780494739800002
sS'britishproblems'
p248
F0.01056650976
sS'UnresolvedMysteries'
p249
F0.0081604636973800007
sS'nonononoyes'
p250
F0.019120072710100001
sS'FutureWhatIf'
p251
F0.0089452881214899995
sS'firefly'
p252
F0.0123263671631
sS'teslamotors'
p253
F0.011091393079000001
sS'Futurology'
p254
F0.013116544156799999
sS'germany'
p255
F0.0071910771940099996
sS'mylittlepony'
p256
F0.0082529530097499998
sS'Gaming4Gamers'
p257
F0.0123403644712
sS'Minecraft'
p258
F0.0097735045902599994
sS'windows'
p259
F0.019064241122399999
sS'androiddev'
p260
F0.0078600764764199995
sS'TumblrInAction'
p261
F0.0117028472249
sS'secretsanta'
p262
F0.00734646895524
sS'HailCorporate'
p263
F0.0179764556157
sS'microsoft'
p264
F0.010493282337899999
sS'Heavymind'
p265
F0.0073518379594900004
sS'LucidDreaming'
p266
F0.0072262972018499998
sS'fffffffuuuuuuuuuuuu'
p267
F0.0126585496047
sS'PleX'
p268
F0.0082527509169699996
sS'PoliticalDiscussion'
p269
F0.012588058667299999
sS'Foodforthought'
p270
F0.0143391880219
sS'help'
p271
F0.0214877538013
sS'Twitch'
p272
F0.0076332236057399996
sS'TheoryOfReddit'
p273
F0.035696773560900001
sS'TheBluePill'
p274
F0.0078000866676300002
sS'printSF'
p275
F0.00726704075062
sS'harrypotter'
p276
F0.0085399994344400008
sS'wicked_edge'
p277
F0.0082023915406699999
sS'shittybattlestations'
p278
F0.0096863058739899994
sS'whowouldwin'
p279
F0.0076327671468500004
sS'GrandTheftAutoV'
p280
F0.00837157814626
sS'gamedev'
p281
F0.00888799786153
sS'buildapcsales'
p282
F0.0093436558483700003
sS'TalesFromYourServer'
p283
F0.0082161167345900007
sS'shutupandtakemymoney'
p284
F0.0152423673731
sS'photography'
p285
F0.0087027123030499996
sS'JusticePorn'
p286
F0.0132163467527
sS'geek'
p287
F0.022834698089299998
sS'lostgeneration'
p288
F0.0073157986413500001
sS'Conservative'
p289
F0.0087107071362899999
sS'PrettyGirlsUglyFaces'
p290
F0.0072950344027200003
sS'AbandonedPorn'
p291
F0.014451764218899999
sS'progressive'
p292
F0.0094240837696300001
sS'dadjokes'
p293
F0.013600648321100001
sS'guns'
p294
F0.0073632619250299999
sS'privacy'
p295
F0.0173871809057
sS'futurama'
p296
F0.0127153603494
sS'whitepeoplegifs'
p297
F0.0100629897066
sS'PHP'
p298
F0.0072440175809900002
sS'cringe'
p299
F0.0095822505123100005
sS'StarWars'
p300
F0.0097345450626800008
sS'TheSimpsons'
p301
F0.0102706081986
sS'Christianity'
p302
F0.0075621275160200003
sS'Justrolledintotheshop'
p303
F0.012706720263299999
sS'AskScienceDiscussion'
p304
F0.0080820027597099994
sS'changemyview'
p305
F0.0124027379629
sS'PS3'
p306
F0.0090962841679200004
sS'Android'
p307
F0.013299170327000001
sS'KarmaCourt'
p308
F0.0141053350017
sS'firstworldanarchists'
p309
F0.016305195818399999
sS'nononono'
p310
F0.0191935037372
sS'truegaming'
p311
F0.0153299792838
sS'lotr'
p312
F0.0087944301942099994
sS'PixelArt'
p313
F0.0070312500000000002
sS'wikipedia'
p314
F0.017764618800899998
sS'breakingbad'
p315
F0.0108857142857
sS'outside'
p316
F0.017571812263900002
sS'AskCulinary'
p317
F0.0091236888111900002
sS'foodhacks'
p318
F0.0115933412604
sS'pcmasterrace'
p319
F0.0083949855535100006
sS'TheLastAirbender'
p320
F0.00712806005391
sS'StandUpComedy'
p321
F0.0073882245410899997
sS'jobs'
p322
F0.0070820433436499996
sS'spotify'
p323
F0.0086109419848700002
sS'casualiama'
p324
F0.0113996986083
sS'javascript'
p325
F0.0092481703260100002
sS'celebnsfw'
p326
F0.00751568640971
sS'NASCAR'
p327
F0.0078303651860599996
sS'Roku'
p328
F0.0070232306861200003
sS'NotTimAndEric'
p329
F0.00819277108434
sS'environment'
p330
F0.010275275910200001
sS'gamingsuggestions'
p331
F0.0073291050035200001
sS'Unexpected'
p332
F0.017041028304300002
sS'RedditDayOf'
p333
F0.013154288846300001
sS'watchpeopledie'
p334
F0.0092469176941
sS'Sherlock'
p335
F0.010564922268399999
sS'GetMotivated'
p336
F0.0080530366933800005
sS'buildapc'
p337
F0.0076844858768500002
sS'drunk'
p338
F0.0085472906078800006
sS'reactiongifs'
p339
F0.0119091259435
sS'community'
p340
F0.0109408490355
sS'incremental_games'
p341
F0.00793856242989
sS'startrek'
p342
F0.0128700657895
sS'EarthPorn'
p343
F0.00797078033352
sS'linux'
p344
F0.016047867444
sS'ainbow'
p345
F0.0097769630308599999
sS'chrome'
p346
F0.024079832236599999
sS'California'
p347
F0.0077290490664400002
sS'web_design'
p348
F0.011913898329900001
sS'fatlogic'
p349
F0.0093181200760700002
sS'androidapps'
p350
F0.013079610917
sS'somethingimade'
p351
F0.0096413989866699999
sS'MapPorn'
p352
F0.0132303053147
sS'aviation'
p353
F0.0095866356603899992
sS'Chromecast'
p354
F0.0108401084011
sS'Perfectfit'
p355
F0.015756716300300001
sS'offbeat'
p356
F0.020542023195500001
sS'softwaregore'
p357
F0.0215996751929
sS'socialism'
p358
F0.0089356632247800001
sS'Ask_Politics'
p359
F0.0086625818719599998
sS'Cooking'
p360
F0.0094731316216499998
sS'FanTheories'
p361
F0.0101436690875
sS'hardware'
p362
F0.0130883301096
sS'LosAngeles'
p363
F0.0072798369316499998
sS'DIY'
p364
F0.0088207756369200006
sS'webdev'
p365
F0.0098392561089900004
sS'technology'
p366
F0.010826342207500001
sS'southpark'
p367
F0.0101658078312
sS'astrophotography'
p368
F0.0085848545093099998
sS'Python'
p369
F0.011129727142200001
sS'daddit'
p370
F0.0078259209772900008
sS'itookapicture'
p371
F0.010237604095
sS'windows8'
p372
F0.0105405405405
sS'Whatcouldgowrong'
p373
F0.017487206152000001
sS'fifthworldproblems'
p374
F0.0080691642651299997
sS'talesfromtechsupport'
p375
F0.019769656298199999
sS'Anarchism'
p376
F0.0077386710320700002
sS'notinteresting'
p377
F0.01389239707
sS'AnimalsBeingJerks'
p378
F0.0173246236865
sS'linux_gaming'
p379
F0.0108582348853
sS'eatsandwiches'
p380
F0.0079552408427299992
sS'Physics'
p381
F0.011081638667800001
sS'TrueFilm'
p382
F0.0079341317365300007
sS'HumanPorn'
p383
F0.0127573030938
sS'AskEngineers'
p384
F0.0079289565493200001
sS'EmmaWatson'
p385
F0.0098612736085599995
sS'GifSound'
p386
F0.00780327868852
sS'awwwtf'
p387
F0.0101110558594
sS'Terraria'
p388
F0.0085524231865700007
sS'whatsthisbug'
p389
F0.0084793142005199999
sS'Piracy'
p390
F0.0131451257168
sS'AskSocialScience'
p391
F0.010770205448500001
sS'PublicFreakout'
p392
F0.0119232526268
sS'ArtisanVideos'
p393
F0.0108384343236
sS'Bitcoin'
p394
F0.00968424788632
sS'rickandmorty'
p395
F0.0091074681238599992
sS'quotes'
p396
F0.0082968065122100004
sS'woodworking'
p397
F0.0086567489906500001
sS'perfectloops'
p398
F0.018397980871399999
sS'InternetIsBeautiful'
p399
F0.014229719218499999
sS'carporn'
p400
F0.0086590309757199994
sS'TalesFromRetail'
p401
F0.0122243470262
sS'quityourbullshit'
p402
F0.019563810756299999
sS'ProtectAndServe'
p403
F0.0099605837860900007
sS'woahdude'
p404
F0.012423166825399999
sS'Fallout'
p405
F0.00702711449111
sS'offmychest'
p406
F0.0076172308818000002
sS'australia'
p407
F0.0087495638637599994
sS'slowcooking'
p408
F0.0106970849176
sS'NSFW_GIF'
p409
F0.0074064277212
sS'howto'
p410
F0.015195602974500001
sS'cringepics'
p411
F0.0084658406985499996
sS'toosoon'
p412
F0.0110343732635
sS'Liberal'
p413
F0.0083054686657300005
sS'thewalkingdead'
p414
F0.0074109031164200003
sS'ConfusedBoners'
p415
F0.0075615972812200002
sS'4chan'
p416
F0.011511239013800001
sS'compsci'
p417
F0.0104399701715
sS'montageparodies'
p418
F0.0081307972290699995
sS'ArcherFX'
p419
F0.0122146011463
sS'getdisciplined'
p420
F0.00722439750731
sS'google'
p421
F0.015989136148600001
sS'gardening'
p422
F0.0072518327719400004
sS'whatisthisthing'
p423
F0.015399248154400001
sS'glitch_art'
p424
F0.0110775427996
sS'NetflixBestOf'
p425
F0.011541315160300001
sS'ShouldIbuythisgame'
p426
F0.0090325765054300004
sS'tumblr'
p427
F0.011286292754400001
sS'interestingasfuck'
p428
F0.016122026196199998
sS'MarkMyWords'
p429
F0.0114778979321
sS'Coffee'
p430
F0.0074916154884799996
sS'gameofthrones'
p431
F0.0085115770316100004
sS'humor'
p432
F0.016203972586800001
sS'AMA'
p433
F0.0077501445922500004
sS'ExpectationVsReality'
p434
F0.014191993573399999
sS'facepalm'
p435
F0.0130033152016
sS'lifehacks'
p436
F0.0154661450633
sS'SCP'
p437
F0.00745817375529
sS'starbound'
p438
F0.00908616642031
sS'blackpeoplegifs'
p439
F0.0096418732782399992
sS'ProgrammerHumor'
p440
F0.0193811628698
sS'business'
p441
F0.0090915573302900003
sS'FloridaMan'
p442
F0.0147832904021
sS'delusionalartists'
p443
F0.0125520719141
sS'Cynicalbrit'
p444
F0.010991387077
sS'promos'
p445
F0.014050443395100001
sS'shittyaskscience'
p446
F0.014361729606899999
sS'lewronggeneration'
p447
F0.010158809138800001
sS'worldbuilding'
p448
F0.0095097858764299995
sS'csshelp'
p449
F0.021655437921100001
sS'calvinandhobbes'
p450
F0.0088948362720399996
sS'netflix'
p451
F0.0126863461349
sS'wheredidthesodago'
p452
F0.020553271858700001
sS'AnimalsBeingBros'
p453
F0.015219876075300001
sS'classic4chan'
p454
F0.0149031296572
sS'Games'
p455
F0.0121898402249
sS'GameDeals'
p456
F0.0121018071308
sS'battlestations'
p457
F0.010260933164100001
sS'EnoughLibertarianSpam'
p458
F0.0086269618542799999
sS'ShitAmericansSay'
p459
F0.0086458333333299994
sS'applehelp'
p460
F0.010676952317100001
sS'linuxquestions'
p461
F0.010181414291
sS'Scotland'
p462
F0.0073735235884500004
sS'gamemusic'
p463
F0.0078462487878000007
sS'marijuanaenthusiasts'
p464
F0.0096774193548400007
sS'TrollXChromosomes'
p465
F0.0084915830499999994
sS'confession'
p466
F0.0077330838790100002
sS'tifu'
p467
F0.0073287667547300003
sS'unitedkingdom'
p468
F0.0108299289886
sS'Damnthatsinteresting'
p469
F0.017793887470099998
sS'CrazyIdeas'
p470
F0.018479617621100002
sS'networking'
p471
F0.0089332941522200001
sS'MechanicalKeyboards'
p472
F0.0109461785819
sS'Bad_Cop_No_Donut'
p473
F0.0140845070423
sS'linux4noobs'
p474
F0.0127471383975
sS'MorbidReality'
p475
F0.0105850108685
sS'gif'
p476
F0.012372881355899999
sS'cats'
p477
F0.0086000414914300001
sS'introvert'
p478
F0.0112032265292
sS'Ubuntu'
p479
F0.0147270114943
sS'Portal'
p480
F0.010727562400400001
sS'happy'
p481
F0.0106844971393
sS'cablefail'
p482
F0.0099394987035400003
sS'explainlikeIAmA'
p483
F0.0140391927464
sS'tasker'
p484
F0.0077271790644999998
sS'batman'
p485
F0.0079742535311999995
sS'occupywallstreet'
p486
F0.0075817585153300001
sS'snackexchange'
p487
F0.0071238601823700003
sS'blunderyears'
p488
F0.0101191519187
sS'Marvel'
p489
F0.0073849714130100001
sS'webcomics'
p490
F0.0086746556966600004
sS'rage'
p491
F0.0126273100143
sS'comics'
p492
F0.017644812221500002
sS'nsfw'
p493
F0.0087702812754499992
sS'behindthegifs'
p494
F0.021469740633999999
sS'BritishTV'
p495
F0.0080122928328400008
sS'civ'
p496
F0.0093344557789399995
sS'fullmoviesonyoutube'
p497
F0.014802401899200001
sS'iphone'
p498
F0.010281089358
sS'TrueAskReddit'
p499
F0.014862591138499999
sS'engineering'
p500
F0.0084895156800899995
sS'politics'
p501
F0.0097989616834699995
sS'DAE'
p502
F0.0076855725265100004
sS'AskUK'
p503
F0.0084223872486900008
sS'24hoursupport'
p504
F0.0086760563380299995
sS'bicycling'
p505
F0.0085149010768800007
sS'shittyama'
p506
F0.0091911764705899998
sS'excel'
p507
F0.0077582385104200003
sS'zelda'
p508
F0.0078841148289300004
sS'ImaginaryLandscapes'
p509
F0.012710693561799999
sS'TheWayWeWere'
p510
F0.0101216454638
sS'linguistics'
p511
F0.0109134045077
sS'nottheonion'
p512
F0.0118564112913
sS'Frugal_Jerk'
p513
F0.0091319515698699994
sS'europe'
p514
F0.0123708381171
sS'raspberry_pi'
p515
F0.0096241457858800006
sS'nintendo'
p516
F0.0076701146998799999
sS'comicbooks'
p517
F0.0072015334063500001
sS'cordcutters'
p518
F0.015501014947399999
sS'oddlysatisfying'
p519
F0.016734701090300001
sS'GirlGamers'
p520
F0.0073389851955
sS'cosplaygirls'
p521
F0.0081411126187199995
sS'entertainment'
p522
F0.011846162168
sS'youtube'
p523
F0.015969530936800001
sS'atheism'
p524
F0.0079142251260099997
sS'terriblefacebookmemes'
p525
F0.0082351972329700006
sS'PrettyGirls'
p526
F0.0108928094092
sS'minecraftsuggestions'
p527
F0.00773453093812
sS'urbanexploration'
p528
F0.0102218520482
s.