(dp1
S'climateskeptics'
p2
F0.0078707539353800003
sS'NoStupidQuestions'
p3
F0.0091356744849000002
sS'circlebroke'
p4
F0.053897105525800001
sS'CityPorn'
p5
F0.0071070499397200004
sS'PanicHistory'
p6
F0.075651016916900002
sS'ShitPoliticsSays'
p7
F0.021571021571
sS'Bitcoin'
p8
F0.0098561985841499992
sS'inthenews'
p9
F0.0152529353671
sS'Conservative'
p10
F0.024095635390100002
sS'PurplePillDebate'
p11
F0.015783716205699998
sS'thatHappened'
p12
F0.010803655307899999
sS'Hiphopcirclejerk'
p13
F0.0081660428717300008
sS'DeepIntoYouTube'
p14
F0.0091178211959700006
sS'dataisbeautiful'
p15
F0.0096700964061399997
sS'askphilosophy'
p16
F0.018414421399499999
sS'spacex'
p17
F0.0072940332416600003
sS'Foodforthought'
p18
F0.019843894695099999
sS'linguistics'
p19
F0.012722402908000001
sS'syriancivilwar'
p20
F0.0138383956843
sS'ShitRConservativeSays'
p21
F0.069304766069099993
sS'badlinguistics'
p22
F0.034348561759699997
sS'quityourbullshit'
p23
F0.0148151205018
sS'Anticonsumption'
p24
F0.015202455781300001
sS'Documentaries'
p25
F0.0082311547073200004
sS'environment'
p26
F0.0150798344175
sS'collapse'
p27
F0.015139650221899999
sS'dwarffortress'
p28
F0.0081171294189000005
sS'PublicFreakout'
p29
F0.0083375442142500002
sS'MensRights'
p30
F0.0118112812459
sS'nononono'
p31
F0.0072911392405100002
sS'australia'
p32
F0.0073152681316200003
sS'YouShouldKnow'
p33
F0.0076990520028500002
sS'SelfDrivingCars'
p34
F0.0097870879120900006
sS'misc'
p35
F0.01
sS'CrusaderKings'
p36
F0.0112477294956
sS'UpliftingNews'
p37
F0.0075073875888499999
sS'geek'
p38
F0.0072724705217799999
sS'DebateAnAtheist'
p39
F0.0106862977915
sS'lostgeneration'
p40
F0.033988082101099999
sS'toosoon'
p41
F0.0078408873589600001
sS'magicskyfairy'
p42
F0.020067453625600001
sS'Braveryjerk'
p43
F0.0119688004303
sS'GunsAreCool'
p44
F0.067055909412600007
sS'Liberal'
p45
F0.049757815940100002
sS'creepyPMs'
p46
F0.01024044283
sS'progressive'
p47
F0.051394272852299999
sS'progun'
p48
F0.0145643051098
sS'PoliticalDiscussion'
p49
F0.044105635720099998
sS'PropagandaPosters'
p50
F0.032299741602100002
sS'SCP'
p51
F0.0081426909654899998
sS'shittyadviceanimals'
p52
F0.0074892342258000002
sS'MarkMyWords'
p53
F0.010864374403100001
sS'Enhancement'
p54
F0.0086269618542799999
sS'Cyberpunk'
p55
F0.0091254752851699997
sS'Libertarian'
p56
F0.036167068523000001
sS'eu4'
p57
F0.0082918739635199998
sS'fifthworldproblems'
p58
F0.0074056088381699997
sS'cringe'
p59
F0.0076047855075499996
sS'Firearms'
p60
F0.0090232150678900003
sS'europe'
p61
F0.014726184997700001
sS'TrueAtheism'
p62
F0.014994305959799999
sS'badhistory'
p63
F0.084059068534600004
sS'totalwar'
p64
F0.0082097274922400005
sS'energy'
p65
F0.0090225563909799994
sS'circlebroke2'
p66
F0.032688333646400003
sS'literature'
p67
F0.0095759233926100001
sS'Christianity'
p68
F0.0078181164629799998
sS'POLITIC'
p69
F0.017816299506399999
sS'AskScienceDiscussion'
p70
F0.0073999749153400001
sS'changemyview'
p71
F0.019291483865699999
sS'FeMRADebates'
p72
F0.0157339531557
sS'OneY'
p73
F0.0128221404088
sS'CrappyDesign'
p74
F0.0104833682779
sS'Feminism'
p75
F0.014417101665400001
sS'firstworldanarchists'
p76
F0.0079245798606399995
sS'forwardsfromgrandma'
p77
F0.037735849056599997
sS'no_sob_story'
p78
F0.011511701454800001
sS'humor'
p79
F0.0095671681182400003
sS'psychology'
p80
F0.010332159804100001
sS'skeptic'
p81
F0.027374533388599999
sS'wikipedia'
p82
F0.0132421292642
sS'softwaregore'
p83
F0.0095265869544100008
sS'DebateReligion'
p84
F0.013857416768299999
sS'religion'
p85
F0.0070940620073599997
sS'outside'
p86
F0.0077996100194999999
sS'metacanada'
p87
F0.0073529411764700001
sS'facepalm'
p88
F0.0071954373632199999
sS'Republican'
p89
F0.0098977770566299993
sS'Anarchy101'
p90
F0.030434782608700001
sS'vexillology'
p91
F0.019636363636399999
sS'AskFeminists'
p92
F0.013341152323699999
sS'LetsTalkMusic'
p93
F0.0081813156440000007
sS'TheWayWeWere'
p94
F0.0082452676808699998
sS'bestof'
p95
F0.010805065067800001
sS'business'
p96
F0.0074477116616499996
sS'FloridaMan'
p97
F0.0156240035712
sS'delusionalartists'
p98
F0.0128811449907
sS'answers'
p99
F0.00733496332518
sS'lgbt'
p100
F0.010119646651
sS'NotTimAndEric'
p101
F0.0089973251195599995
sS'conservatives'
p102
F0.0104887770086
sS'ainbow'
p103
F0.0197964847364
sS'lewronggeneration'
p104
F0.025966211525100001
sS'newhampshire'
p105
F0.011428571428599999
sS'SRSGaming'
p106
F0.026776151374499998
sS'TheoryOfReddit'
p107
F0.021741785757899999
sS'PoliticalHumor'
p108
F0.029385171790200001
sS'CanadaPolitics'
p109
F0.0089385474860300008
sS'RedditDayOf'
p110
F0.0142531356899
sS'WarshipPorn'
p111
F0.00753535821934
sS'Anarcho_Capitalism'
p112
F0.080289826691500005
sS'TheBluePill'
p113
F0.0492593253614
sS'wheredidthesodago'
p114
F0.0095533795080000004
sS'ukpolitics'
p115
F0.0146539091458
sS'gunpolitics'
p116
F0.010275107722900001
sS'OutOfTheLoop'
p117
F0.011667667852700001
sS'paradoxplaza'
p118
F0.0153039535213
sS'QuotesPorn'
p119
F0.0103329506315
sS'ShitAmericansSay'
p120
F0.053320202588599999
sS'TrueReddit'
p121
F0.017163661581100002
sS'AmIFreeToGo'
p122
F0.0112113402062
sS'Scotland'
p123
F0.0095659163987099997
sS'patientgamers'
p124
F0.0070305372189100003
sS'printSF'
p125
F0.0089903181189499998
sS'techsupportmacgyver'
p126
F0.00701880680284
sS'IdiotsFightingThings'
p127
F0.0088097102584200008
sS'conspiratard'
p128
F0.074381219698900006
sS'ProtectAndServe'
p129
F0.0118903911154
sS'rpg'
p130
F0.0073009148677300002
sS'exmuslim'
p131
F0.0071174377224199996
sS'GamePhysics'
p132
F0.0070808283233100002
sS'unitedkingdom'
p133
F0.0085226446377100005
sS'HistoryPorn'
p134
F0.011187280887799999
sS'CrazyIdeas'
p135
F0.0081599741977099998
sS'AskHistorians'
p136
F0.016068424004499999
sS'privacy'
p137
F0.0096453900709199993
sS'Bad_Cop_No_Donut'
p138
F0.015631601182899999
sS'ANormalDayInRussia'
p139
F0.0094932087045400005
sS'TheFacebookDelusion'
p140
F0.014468629961599999
sS'MorbidReality'
p141
F0.0093030197502599991
sS'SubredditDrama'
p142
F0.031482529925600002
sS'California'
p143
F0.00955038094216
sS'Whatcouldgowrong'
p144
F0.0077778417929399999
sS'ObscureMedia'
p145
F0.0084828257544199998
sS'CombatFootage'
p146
F0.0083316669999299996
sS'fatlogic'
p147
F0.0079001239800499997
sS'TrollYChromosome'
p148
F0.0091251001911299996
sS'explainlikeIAmA'
p149
F0.0108253225946
sS'DaystromInstitute'
p150
F0.0106984751599
sS'worldbuilding'
p151
F0.0095588755929999995
sS'occupywallstreet'
p152
F0.0222493142335
sS'cordcutters'
p153
F0.0070129078158300004
sS'MachinePorn'
p154
F0.0077024424850499996
sS'Awwducational'
p155
F0.0073582981203599998
sS'polandball'
p156
F0.0150574560824
sS'NeutralPolitics'
p157
F0.029546103340000001
sS'MST3K'
p158
F0.0073060780351300002
sS'blunderyears'
p159
F0.0078257089029500002
sS'againstmensrights'
p160
F0.053609958506199998
sS'rage'
p161
F0.011655237587500001
sS'worldpolitics'
p162
F0.018975509440999998
sS'offbeat'
p163
F0.011301932062099999
sS'standupshots'
p164
F0.0090866178900200004
sS'socialism'
p165
F0.064713562918200004
sS'Ask_Politics'
p166
F0.021394831897700001
sS'civ'
p167
F0.0073391140827399996
sS'russia'
p168
F0.0081485301701900003
sS'history'
p169
F0.0098400020880600007
sS'gallifrey'
p170
F0.0072035338090399997
sS'AskScienceFiction'
p171
F0.0112898508336
sS'NewsOfTheStupid'
p172
F0.011301742919400001
sS'Economics'
p173
F0.029364781056199999
sS'crappymusic'
p174
F0.0077754348972100002
sS'urbanplanning'
p175
F0.0093082972235600005
sS'Infographics'
p176
F0.0087517777048500001
sS'Civcraft'
p177
F0.0072706935123000001
sS'TrueAskReddit'
p178
F0.015631461417599999
sS'FanTheories'
p179
F0.0075793462813799999
sS'blackladies'
p180
F0.0121388271499
sS'conspiracy'
p181
F0.012799523738700001
sS'politics'
p182
F0.0100782575785
sS'AnythingGoesNews'
p183
F0.0126525751712
sS'ShitRedditSays'
p184
F0.0378075253256
sS'SRSsucks'
p185
F0.022607086197800001
sS'Israel'
p186
F0.011066294342699999
sS'MURICA'
p187
F0.0081268066151700003
sS'AskSocialScience'
p188
F0.0264271822446
sS'comics'
p189
F0.0074682598954399996
sS'TumblrInAction'
p190
F0.011535584456500001
sS'scifi'
p191
F0.0101559792028
sS'nottheonion'
p192
F0.0089676906915399993
sS'Frugal_Jerk'
p193
F0.0117880794702
sS'FutureWhatIf'
p194
F0.0132325141777
sS'economy'
p195
F0.0188036196968
sS'BasicIncome'
p196
F0.033728850801999999
sS'Anarchism'
p197
F0.043978286870900003
sS'MapPorn'
p198
F0.0118122596343
sS'badphilosophy'
p199
F0.063684126731400004
sS'Futurology'
p200
F0.0097027673385699995
sS'philosophy'
p201
F0.015777662696400001
sS'DebateAChristian'
p202
F0.0088773411280699994
sS'law'
p203
F0.012461656441699999
sS'Physics'
p204
F0.00747676141722
sS'startrek'
p205
F0.0095842332613399993
sS'truegaming'
p206
F0.0099701210882199992
sS'BitcoinMarkets'
p207
F0.010264721772
sS'GirlGamers'
p208
F0.0098587404355500001
sS'TrueFilm'
p209
F0.0094043887147300005
sS'HumanPorn'
p210
F0.0092152831927400005
sS'IWantOut'
p211
F0.0078609846917700003
sS'terriblefacebookmemes'
p212
F0.0117824773414
sS'Shitstatistssay'
p213
F0.064345059218699999
sS'techsupportgore'
p214
F0.0070469931509600002
sS'HailCorporate'
p215
F0.015906477577600001
s.