(dp1
S'FancyFollicles'
p2
F0.0184535151941
sS'weddingplanning'
p3
F0.0090160721285800008
sS'AskWomen'
p4
F0.0074581574439999999
sS'ABraThatFits'
p5
F0.0104233141885
sS'COents'
p6
F0.012468300929800001
sS'TheGirlSurvivalGuide'
p7
F0.0203722936806
sS'piercing'
p8
F0.012285279408600001
sS'actuallesbians'
p9
F0.0080667402095999999
sS'blackladies'
p10
F0.0076320132013199997
sS'bigboobproblems'
p11
F0.012708150745000001
sS'Pets'
p12
F0.0075213386292599998
sS'TrollXChromosomes'
p13
F0.0132873409479
sS'TalesFromYourServer'
p14
F0.0073211314475899996
sS'femalefashionadvice'
p15
F0.0113699906803
sS'StonerPhilosophy'
p16
F0.0096643823581100009
sS'BeardPorn'
p17
F0.0079846694346900008
sS'breakingmom'
p18
F0.0098416115638900008
sS'BabyBumps'
p19
F0.0079562750795599997
sS'yoga'
p20
F0.0086716594402799999
sS'eldertrees'
p21
F0.028835808048200001
sS'SkincareAddiction'
p22
F0.0083385449239100004
sS'EatCheapAndHealthy'
p23
F0.0073486051258800002
sS'knitting'
p24
F0.0073092291199699996
sS'Dreadlocks'
p25
F0.0074774576643900003
sS'StonerEngineering'
p26
F0.0094043887147300005
sS'mflb'
p27
F0.010653266331700001
sS'RandomActsofMakeup'
p28
F0.010186757215600001
sS'Indiemakeupandmore'
p29
F0.0097838093735200006
sS'saplings'
p30
F0.0154069767442
sS'raisedbynarcissists'
p31
F0.0076923076923099999
sS'xxfitness'
p32
F0.0106148249747
sS'happy'
p33
F0.0075804319083300001
sS'CrossStitch'
p34
F0.0078767123287700001
sS'TrollYChromosome'
p35
F0.0100131752306
sS'sewing'
p36
F0.0100412808212
sS'RandomActsOfPolish'
p37
F0.010772404309
sS'childfree'
p38
F0.0080899198167199999
sS'see'
p39
F0.0173489994492
sS'MakeupAddiction'
p40
F0.010894282359600001
sS'Baking'
p41
F0.0092318116371599996
sS'highdeas'
p42
F0.0105084221913
sS'ploompax'
p43
F0.0071627536808600003
sS'RedditLaqueristas'
p44
F0.017859193752199999
sS'budgetfood'
p45
F0.0086987187022500006
sS'Mommit'
p46
F0.011658370447999999
sS'xxketo'
p47
F0.0088475499092600003
sS'namenerds'
p48
F0.0074899174188600001
sS'LadyBoners'
p49
F0.012440654123399999
sS'curlyhair'
p50
F0.01319229855
sS'crochet'
p51
F0.0098131722966600006
sS'dogpictures'
p52
F0.0076182503139399999
sS'wedding'
p53
F0.0076411141237400001
sS'beyondthebump'
p54
F0.0070489844683399999
sS'makeupexchange'
p55
F0.0072048032021300003
sS'ThriftStoreHauls'
p56
F0.0079536039768000003
sS'bisexual'
p57
F0.0073010173548800003
sS'treesgonewild'
p58
F0.0081914757455500004
sS'GirlGamers'
p59
F0.0126875199489
sS'glassheads'
p60
F0.0077815506508200002
sS'polyamory'
p61
F0.0083443126921399994
sS'Hair'
p62
F0.00800193986421
sS'crafts'
p63
F0.013547076089399999
sS'MakeupAddicts'
p64
F0.0098548408576400008
sS'Marijuana'
p65
F0.0095374344301399992
sS'CannabisExtracts'
p66
F0.0084526884245099999
sS'vaporents'
p67
F0.011777373982099999
s.