(dp1
S'GlobalOffensive'
p2
F0.00758630429958
sS'truetf2'
p3
F0.0071061384941000002
sS'Kappa'
p4
F0.011570602099900001
sS'Destiny'
p5
F0.0091783216783200006
sS'heroesofthestorm'
p6
F0.011453699442699999
sS'SF4'
p7
F0.010467629992
sS'counterstrike'
p8
F0.0131459065469
sS'learndota2'
p9
F0.0095624836258800007
sS'dawngate'
p10
F0.0076562114102199999
sS'allthingszerg'
p11
F0.013116057233700001
sS'Tribes'
p12
F0.0097351143309900006
sS'AllThingsTerran'
p13
F0.011806596701599999
sS'Twitch'
p14
F0.0108276219547
sS'StarcraftCirclejerk'
p15
F0.0153631284916
sS'CoDCompetitive'
p16
F0.011539226739199999
sS'allthingsprotoss'
p17
F0.0160834601174
sS'starcraft'
p18
F0.0186414453983
s.