(dp1
S'RandomActsOfGaming'
p2
F0.0074827802129000002
sS'CityPorn'
p3
F0.0079382977763699999
sS'PanicHistory'
p4
F0.0070539419087099998
sS'masseffect'
p5
F0.0085918159312699995
sS'PoliticalDiscussion'
p6
F0.0077139821700799999
sS'teslore'
p7
F0.0088831578193300006
sS'dataisbeautiful'
p8
F0.0112359550562
sS'linguistics'
p9
F0.0084515366430299999
sS'languagelearning'
p10
F0.0087260034903999997
sS'syriancivilwar'
p11
F0.0082683203307299998
sS'badlinguistics'
p12
F0.0080070462006599993
sS'quityourbullshit'
p13
F0.0077853829435200004
sS'HistoryPorn'
p14
F0.014166193154000001
sS'whowouldwin'
p15
F0.0096195678445399994
sS'Fallout'
p16
F0.011201521716199999
sS'4chan'
p17
F0.0091369161055400005
sS'soccer'
p18
F0.0076667010354799997
sS'MilitaryPorn'
p19
F0.0098391266877299998
sS'skyrimmods'
p20
F0.00870455709165
sS'CrusaderKings'
p21
F0.14405067438399999
sS'footballmanagergames'
p22
F0.012175230105999999
sS'unitedkingdom'
p23
F0.0101139041634
sS'Steam'
p24
F0.0125627188049
sS'prisonarchitect'
p25
F0.0128161888702
sS'PropagandaPosters'
p26
F0.016515851420600001
sS'thatHappened'
p27
F0.0075446971824400001
sS'montageparodies'
p28
F0.0078277886497099998
sS'starcitizen'
p29
F0.0079246980655399996
sS'pcgaming'
p30
F0.0097089418934500002
sS'badhistory'
p31
F0.028099552701000001
sS'totalwar'
p32
F0.044421334125699999
sS'ShouldIbuythisgame'
p33
F0.012117738568000001
sS'changemyview'
p34
F0.0105196907031
sS'firstworldanarchists'
p35
F0.0075284057903699996
sS'forwardsfromgrandma'
p36
F0.00930661524273
sS'gameofthrones'
p37
F0.010620473222800001
sS'mountandblade'
p38
F0.034145429621799998
sS'space'
p39
F0.0087843718771200008
sS'Warthunder'
p40
F0.0129356654777
sS'boardgames'
p41
F0.0074692442882199998
sS'outside'
p42
F0.0090550882776400006
sS'worldnews'
p43
F0.0077341429320300003
sS'pcmasterrace'
p44
F0.0087590818305500005
sS'SimCity'
p45
F0.010662505688800001
sS'vexillology'
p46
F0.040204837655300002
sS'spaceengineers'
p47
F0.0076676963812900003
sS'SubredditDrama'
p48
F0.0138795809672
sS'europe'
p49
F0.0245842184343
sS'starbound'
p50
F0.0086959712335799993
sS'bestof'
p51
F0.0091909810478299995
sS'Economics'
p52
F0.0096393256028999997
sS'Cynicalbrit'
p53
F0.0150050226017
sS'shittyaskscience'
p54
F0.0073090623120699999
sS'GamePhysics'
p55
F0.0070557450586400004
sS'gamingsuggestions'
p56
F0.0093468101293300004
sS'Morrowind'
p57
F0.0080315626320999998
sS'worldbuilding'
p58
F0.019571203776599998
sS'WarshipPorn'
p59
F0.0085782683867500001
sS'Xcom'
p60
F0.0146231032795
sS'Planetside'
p61
F0.0090814737934600005
sS'ukpolitics'
p62
F0.0080658527153199995
sS'GameDeals'
p63
F0.011469931314799999
sS'OutOfTheLoop'
p64
F0.0083455373442699998
sS'paradoxplaza'
p65
F0.20356337131900001
sS'ShitAmericansSay'
p66
F0.0104204356321
sS'TrueReddit'
p67
F0.0082919794715199998
sS'Yogscast'
p68
F0.0089531680440799993
sS'Scotland'
p69
F0.0106721885951
sS'patientgamers'
p70
F0.0087123331468300005
sS'conspiratard'
p71
F0.0123295997221
sS'rpg'
p72
F0.0090660879305500004
sS'AskScienceFiction'
p73
F0.0087443755836699999
sS'TheLastAirbender'
p74
F0.0077782981409500003
sS'DnD'
p75
F0.0088925259137999993
sS'AskHistorians'
p76
F0.029951527720800002
sS'ANormalDayInRussia'
p77
F0.0090466249130100006
sS'lewronggeneration'
p78
F0.0107276448585
sS'arma'
p79
F0.0079001422025600006
sS'CombatFootage'
p80
F0.0089198150656099994
sS'WorldofTanks'
p81
F0.0094988986784100005
sS'Eve'
p82
F0.0098939324817500004
sS'ftlgame'
p83
F0.010485352934799999
sS'MapPorn'
p84
F0.032261506722600003
sS'asoiaf'
p85
F0.0131945967969
sS'dwarffortress'
p86
F0.022609685430500001
sS'worldpolitics'
p87
F0.0088116727908400007
sS'science'
p88
F0.0070403825717299997
sS'skyrim'
p89
F0.011898994792299999
sS'sweden'
p90
F0.0084027392189499998
sS'socialism'
p91
F0.010507246376800001
sS'civ'
p92
F0.040756914119400002
sS'KerbalSpaceProgram'
p93
F0.019278238546600001
sS'russia'
p94
F0.0086902545003099997
sS'history'
p95
F0.0175960346964
sS'gamernews'
p96
F0.0070755687193999996
sS'polandball'
p97
F0.051863994799499998
sS'assassinscreed'
p98
F0.0071590192514600004
sS'starcraft'
p99
F0.0073894684550400002
sS'MURICA'
p100
F0.0083921262110000002
sS'circlebroke'
p101
F0.0102188965825
sS'scifi'
p102
F0.0072961737507400001
sS'britishproblems'
p103
F0.0090287593388499992
sS'nottheonion'
p104
F0.0072260525869099999
sS'FutureWhatIf'
p105
F0.0099696575639400004
sS'paydaytheheist'
p106
F0.0073414557950599998
sS'askscience'
p107
F0.0076469836252300001
sS'Futurology'
p108
F0.0076614420062700002
sS'wargame'
p109
F0.012942191544399999
sS'nerdcubed'
p110
F0.0083391486392199992
sS'Games'
p111
F0.012671836043800001
sS'EnoughLibertarianSpam'
p112
F0.0082918739635199998
sS'dragonage'
p113
F0.0093251899299899993
sS'bindingofisaac'
p114
F0.0075253508440599999
sS'thesims'
p115
F0.0073233247894500001
sS'truegaming'
p116
F0.013553267493200001
sS'Fantasy'
p117
F0.0075312394461299996
sS'TumblrInAction'
p118
F0.0113537329331
s.