(dp1
S'LiverpoolFC'
p2
F0.012623985572599999
sS'FIFA'
p3
F0.0082996859578300004
sS'realmadrid'
p4
F0.0102510460251
sS'borussiadortmund'
p5
F0.00766038940313
sS'coys'
p6
F0.0159443397594
sS'Barca'
p7
F0.0121759622938
sS'Aleague'
p8
F0.012874251497
sS'football'
p9
F0.0143462667101
sS'footballmanagergames'
p10
F0.015792507204600001
sS'Gunners'
p11
F0.0105645802567
sS'ACMilan'
p12
F0.0073217726396899996
sS'MLS'
p13
F0.017849871046600001
sS'chelseafc'
p14
F0.0142841565805
sS'NUFC'
p15
F0.00748044882693
sS'reddevils'
p16
F0.011501516683499999
sS'fcbayern'
p17
F0.010510510510500001
sS'MCFC'
p18
F0.0218806980985
sS'soccer'
p19
F0.0085156907302399998
sS'FifaCareers'
p20
F0.010919638287000001
s.