(dp1
S'exmormon'
p2
F0.0159373888296
sS'TrueAtheism'
p3
F0.0091809775429299995
sS'mormon'
p4
F0.0110963160231
sS'DebateAChristian'
p5
F0.0090823307383800008
sS'exmuslim'
p6
F0.0098384728340699997
sS'DebateReligion'
p7
F0.0088175236680900007
sS'religion'
p8
F0.0096547688706799997
sS'DebateAnAtheist'
p9
F0.00964295022153
sS'latterdaysaints'
p10
F0.0099115044247799992
s.