(dp1
S'NoStupidQuestions'
p2
F0.0083146535995399992
sS'Justrolledintotheshop'
p3
F0.0073063008034599999
sS'pettyrevenge'
p4
F0.0099171270718199991
sS'PublicFreakout'
p5
F0.0072548732229200004
sS'Conservative'
p6
F0.0089608750525900002
sS'thatHappened'
p7
F0.0080086699362599996
sS'PoliticalDiscussion'
p8
F0.0096217504523999995
sS'everymanshouldknow'
p9
F0.0090798329078699992
sS'dataisbeautiful'
p10
F0.0083689222525799994
sS'islam'
p11
F0.0080168353542400001
sS'TalesFromRetail'
p12
F0.0092675827233400006
sS'gaybros'
p13
F0.0074460618267299999
sS'TheBluePill'
p14
F0.0079937304075199996
sS'quityourbullshit'
p15
F0.0086339518382499997
sS'nostalgia'
p16
F0.00701489941446
sS'Documentaries'
p17
F0.0072027046891099998
sS'writing'
p18
F0.0072170671742399998
sS'environment'
p19
F0.0071986739284900002
sS'woahdude'
p20
F0.0071075019971799996
sS'MensRights'
p21
F0.010881564422000001
sS'offmychest'
p22
F0.0089936860652899998
sS'YouShouldKnow'
p23
F0.0088100712545800004
sS'childfree'
p24
F0.0127936472924
sS'mormon'
p25
F0.064949051445599995
sS'JusticePorn'
p26
F0.00897834407994
sS'UpliftingNews'
p27
F0.0084220350658899996
sS'geek'
p28
F0.0091494124230599994
sS'SaltLakeCity'
p29
F0.042137584111799999
sS'DebateAnAtheist'
p30
F0.0133880644143
sS'lostgeneration'
p31
F0.0072092469018099998
sS'Military'
p32
F0.0085491816303799994
sS'AbandonedPorn'
p33
F0.0071585903083699999
sS'creepyPMs'
p34
F0.0082336151059399995
sS'progressive'
p35
F0.0072656052565100004
sS'CrappyDesign'
p36
F0.0075333519917899997
sS'comics'
p37
F0.0078076341311499996
sS'SubredditDrama'
p38
F0.00925686507731
sS'Libertarian'
p39
F0.011512281740199999
sS'Seattle'
p40
F0.0076354163547599999
sS'TrueAtheism'
p41
F0.0204275945642
sS'whatisthisthing'
p42
F0.0086031880037800001
sS'AskWomen'
p43
F0.0079161421516400002
sS'NetflixBestOf'
p44
F0.0075054976575200001
sS'Christianity'
p45
F0.01588711269
sS'POLITIC'
p46
F0.0079425113464399993
sS'interestingasfuck'
p47
F0.00858270957513
sS'books'
p48
F0.0073983752385999996
sS'changemyview'
p49
F0.012359649898300001
sS'TwoXChromosomes'
p50
F0.0082766272189300008
sS'fatpeoplestories'
p51
F0.0094400516378899992
sS'Feminism'
p52
F0.0077448282889999998
sS'firstworldanarchists'
p53
F0.0081935586372799997
sS'forwardsfromgrandma'
p54
F0.011061946902699999
sS'humor'
p55
F0.0071003307607499996
sS'psychology'
p56
F0.0079230058815000001
sS'space'
p57
F0.00817361001109
sS'skeptic'
p58
F0.0167657992565
sS'DebateReligion'
p59
F0.0156307953161
sS'religion'
p60
F0.0113099594172
sS'facepalm'
p61
F0.0096551928081399993
sS'lifehacks'
p62
F0.0082904689863800007
sS'bestof'
p63
F0.0129158024122
sS'casualiama'
p64
F0.0079978026239299997
sS'FloridaMan'
p65
F0.0083813289779099999
sS'legaladvice'
p66
F0.0077743868481400004
sS'BasicIncome'
p67
F0.0074919728861900002
sS'lgbt'
p68
F0.0109378084896
sS'promos'
p69
F0.0073244004891800003
sS'shittyaskscience'
p70
F0.0075210046074600002
sS'news'
p71
F0.0070165251264200004
sS'ainbow'
p72
F0.0090251726200200003
sS'offbeat'
p73
F0.0097996682403999995
sS'Unexpected'
p74
F0.0080639184121199994
sS'PoliticalHumor'
p75
F0.0077505298213699997
sS'Frugal'
p76
F0.0091744335582700006
sS'wheredidthesodago'
p77
F0.00737996080353
sS'AnimalsBeingBros'
p78
F0.0072545907957399999
sS'GetMotivated'
p79
F0.0070400000000000003
sS'QuotesPorn'
p80
F0.0088468369995899996
sS'TrueReddit'
p81
F0.0123935095503
sS'confession'
p82
F0.0075181934931500003
sS'reactiongifs'
p83
F0.0073100066859800002
sS'conspiratard'
p84
F0.0103618352883
sS'ProtectAndServe'
p85
F0.0088010627698399992
sS'EarthPorn'
p86
F0.0073216794276599996
sS'TrollXChromosomes'
p87
F0.0098780134047799992
sS'gardening'
p88
F0.0070394866085999996
sS'harrypotter'
p89
F0.0071970720444099997
sS'Damnthatsinteresting'
p90
F0.0084233841197399999
sS'HistoryPorn'
p91
F0.0090167535866399993
sS'CrazyIdeas'
p92
F0.0090518923136899999
sS'AskHistorians'
p93
F0.0106682676765
sS'Bad_Cop_No_Donut'
p94
F0.0116174226661
sS'OutOfTheLoop'
p95
F0.0087862407862399992
sS'TheFacebookDelusion'
p96
F0.0093372510610499997
sS'MorbidReality'
p97
F0.0096535224864100003
sS'cats'
p98
F0.007399034015
sS'raisedbynarcissists'
p99
F0.013047251399000001
sS'fatlogic'
p100
F0.010343105785000001
sS'TrollYChromosome'
p101
F0.0085657622684499994
sS'mildlyinfuriating'
p102
F0.0078520911065300004
sS'cordcutters'
p103
F0.0072549164027400003
sS'oddlysatisfying'
p104
F0.0079029207143100008
sS'keto'
p105
F0.0073213720793599999
sS'Awwducational'
p106
F0.0077841203943999999
sS'AskMen'
p107
F0.0080086328195299993
sS'popping'
p108
F0.0075177404623100004
sS'rage'
p109
F0.0091320461106900001
sS'worldpolitics'
p110
F0.0091152999449599995
sS'science'
p111
F0.0097720049439399999
sS'sex'
p112
F0.0072932709394600004
sS'TheRedPill'
p113
F0.0071821344405800002
sS'firstworldproblems'
p114
F0.00771577876758
sS'standupshots'
p115
F0.0093060032844699998
sS'socialism'
p116
F0.00813087774295
sS'latterdaysaints'
p117
F0.061950257810100003
sS'LifeProTips'
p118
F0.0071619489260299997
sS'history'
p119
F0.0078930728473899994
sS'fullmoviesonyoutube'
p120
F0.0070500927643800003
sS'Economics'
p121
F0.0088744217920200003
sS'TrueAskReddit'
p122
F0.0071156289707800004
sS'conspiracy'
p123
F0.0101545181901
sS'politics'
p124
F0.010035905070499999
sS'technology'
p125
F0.0074510062502400002
sS'MURICA'
p126
F0.0087615057705100006
sS'self'
p127
F0.0078291814946599998
sS'Parenting'
p128
F0.0095810633101599992
sS'scifi'
p129
F0.0077481041872700003
sS'nottheonion'
p130
F0.0088707282024900001
sS'nonononoyes'
p131
F0.0077532541030000002
sS'startrek'
p132
F0.0081060172883500002
sS'Whatcouldgowrong'
p133
F0.0078458329382799993
sS'talesfromtechsupport'
p134
F0.0095499869590500008
sS'MapPorn'
p135
F0.0080678174251199997
sS'AnimalsBeingJerks'
p136
F0.0081852961238499996
sS'askscience'
p137
F0.0093500937309500005
sS'Futurology'
p138
F0.0089219330854999994
sS'philosophy'
p139
F0.0080464786427399994
sS'DebateAChristian'
p140
F0.01079525009
sS'progresspics'
p141
F0.0070638889511800002
sS'HumanPorn'
p142
F0.0074965293845399997
sS'atheism'
p143
F0.0151784968081
sS'TumblrInAction'
p144
F0.0093282914434999996
sS'exmuslim'
p145
F0.011868249099900001
sS'ImGoingToHellForThis'
p146
F0.0077993714322400001
sS'exjw'
p147
F0.0159373888296
s.