(dp1
S'asoiaf'
p2
F0.0109783190361
sS'Poetry'
p3
F0.0071322646705699998
sS'uglyduckling'
p4
F0.0072817414207100003
sS'AndroidGaming'
p5
F0.0082728659241099994
sS'KitchenConfidential'
p6
F0.0070787819613099996
sS'BuyItForLife'
p7
F0.011154069866900001
sS'SampleSize'
p8
F0.0118054142072
sS'spiders'
p9
F0.0076181157394500003
sS'askphilosophy'
p10
F0.010677137149500001
sS'RandomActsOfGaming'
p11
F0.011789017243100001
sS'AskMen'
p12
F0.013966881060900001
sS'Showerthoughts'
p13
F0.012554761054499999
sS'duolingo'
p14
F0.0072247135027399996
sS'HistoryPorn'
p15
F0.015651316600299999
sS'swoleacceptance'
p16
F0.0078801647025400004
sS'holdmybeer'
p17
F0.016570369562799999
sS'ImaginaryMonsters'
p18
F0.017106513633999999
sS'seinfeld'
p19
F0.0078659119311899998
sS'dwarffortress'
p20
F0.0123549883991
sS'YouShouldKnow'
p21
F0.022475838473600001
sS'skyrimmods'
p22
F0.0096489855525999993
sS'UpliftingNews'
p23
F0.0119724417036
sS'PandR'
p24
F0.0123222203029
sS'Jokes'
p25
F0.0134434966961
sS'Stargate'
p26
F0.0075477889900699997
sS'3amjokes'
p27
F0.018986323411100001
sS'Military'
p28
F0.0101502956051
sS'magicskyfairy'
p29
F0.011688954928199999
sS'Steam'
p30
F0.0102183905061
sS'AlienBlue'
p31
F0.00860788030947
sS'photoshopbattles'
p32
F0.0190621974514
sS'IWantToLearn'
p33
F0.017574101324400002
sS'Astronomy'
p34
F0.0089567693502500007
sS'CrappyDesign'
p35
F0.0212569553065
sS'NewsOfTheWeird'
p36
F0.0079977680647299997
sS'dbz'
p37
F0.0078832427825700005
sS'math'
p38
F0.011299220087500001
sS'techsupport'
p39
F0.0088875138867400005
sS'Libertarian'
p40
F0.010495932826000001
sS'Anarcho_Capitalism'
p41
F0.0075581780812799997
sS'everymanshouldknow'
p42
F0.0207967764996
sS'pcgaming'
p43
F0.0096249365328200005
sS'EatCheapAndHealthy'
p44
F0.0109184802656
sS'totalwar'
p45
F0.0086480098834399999
sS'tea'
p46
F0.0077425598838600004
sS'redditgetsdrawn'
p47
F0.0094157992900500004
sS'polandball'
p48
F0.021271615413899998
sS'DCcomics'
p49
F0.0095629721717500008
sS'fatpeoplestories'
p50
F0.015275796481199999
sS'OneY'
p51
F0.012170723574499999
sS'forwardsfromgrandma'
p52
F0.025539534445400001
sS'no_sob_story'
p53
F0.016382480775699999
sS'CookieClicker'
p54
F0.0070621468926599998
sS'Glitch_in_the_Matrix'
p55
F0.015878800499799998
sS'skeptic'
p56
F0.0169635284139
sS'boardgames'
p57
F0.0084236995128100008
sS'socialskills'
p58
F0.0126451612903
sS'DebateReligion'
p59
F0.0126931213539
sS'gamedev'
p60
F0.0078656262730699995
sS'GuessTheMovie'
p61
F0.00858271304876
sS'worldnews'
p62
F0.0082869166432399995
sS'guns'
p63
F0.0074212728473899998
sS'Economics'
p64
F0.0115615906887
sS'needamod'
p65
F0.012290076335899999
sS'LetsNotMeet'
p66
F0.0081619015798800008
sS'legaladvice'
p67
F0.0097431568793000002
sS'answers'
p68
F0.022093913863200001
sS'lgbt'
p69
F0.0106837606838
sS'baseball'
p70
F0.0070414154236799996
sS'Random_Acts_Of_Pizza'
p71
F0.0087695258975100006
sS'gentlemanboners'
p72
F0.0106627743005
sS'doctorwho'
p73
F0.0137125444388
sS'TopGear'
p74
F0.0095425628597400006
sS'ThriftStoreHauls'
p75
F0.0074843351125600003
sS'Frugal'
p76
F0.0105432774452
sS'WarshipPorn'
p77
F0.0078400627205
sS'creepy'
p78
F0.0078302695850000006
sS'howtonotgiveafuck'
p79
F0.0145543345543
sS'IWantOut'
p80
F0.0075206509678199997
sS'HalfLife'
p81
F0.0088112915068899993
sS'Dexter'
p82
F0.0076733748371200002
sS'TrueReddit'
p83
F0.0207153334086
sS'todayilearned'
p84
F0.0083746428132699998
sS'confession'
p85
F0.013329392640800001
sS'AntiJokes'
p86
F0.0195315423183
sS'KingOfTheHill'
p87
F0.0073368190251300001
sS'IdiotsFightingThings'
p88
F0.0195355120278
sS'gamernews'
p89
F0.0110366215169
sS'ContagiousLaughter'
p90
F0.0152198701106
sS'HIMYM'
p91
F0.0114490161002
sS'FiftyFifty'
p92
F0.0176943037193
sS'AskHistorians'
p93
F0.023304709071100001
sS'OutOfTheLoop'
p94
F0.031781210999700001
sS'ifyoulikeblank'
p95
F0.0144058832418
sS'firstimpression'
p96
F0.0086856867121099992
sS'WebGames'
p97
F0.014947089947099999
sS'musictheory'
p98
F0.00817152710098
sS'Pareidolia'
p99
F0.023122353465600001
sS'tipofmytongue'
p100
F0.0152195950574
sS'QuotesPorn'
p101
F0.018728341704599999
sS'FreeKarma'
p102
F0.0074898502029999998
sS'ftlgame'
p103
F0.012483005808899999
sS'LifeProTips'
p104
F0.0120314577312
sS'Shitty_Car_Mods'
p105
F0.0098981989036799993
sS'NeutralPolitics'
p106
F0.0127292148834
sS'ghettoglamourshots'
p107
F0.0086245353159900007
sS'popping'
p108
F0.00744367486665
sS'KillLaKill'
p109
F0.0070487483531000003
sS'EDC'
p110
F0.0081929200803800006
sS'showerbeer'
p111
F0.0091539726811099998
sS'techsupportgore'
p112
F0.015019030963900001
sS'science'
p113
F0.012987159460700001
sS'firstworldproblems'
p114
F0.017083734359999998
sS'movies'
p115
F0.0085864501627899992
sS'standupshots'
p116
F0.023443399464500001
sS'history'
p117
F0.0120920126588
sS'TalesFromThePizzaGuy'
p118
F0.0097560975609800003
sS'AskScienceFiction'
p119
F0.0353281853282
sS'NewsOfTheStupid'
p120
F0.0116076104032
sS'awesome'
p121
F0.012375280377400001
sS'Pathfinder_RPG'
p122
F0.0085686700458600003
sS'DecidingToBeBetter'
p123
F0.010374325062200001
sS'learnprogramming'
p124
F0.0106385460654
sS'Infographics'
p125
F0.0135544449493
sS'TalesFromYourServer'
p126
F0.010509721492400001
sS'counting'
p127
F0.0164980650418
sS'SRSsucks'
p128
F0.011303756586800001
sS'HouseOfCards'
p129
F0.011730943510199999
sS'asmr'
p130
F0.0103036876356
sS'techsupportmacgyver'
p131
F0.0148711169861
sS'MURICA'
p132
F0.017003396325
sS'technology'
p133
F0.010658720178699999
sS'scifi'
p134
F0.014745757548099999
sS'spaceporn'
p135
F0.015628130635100001
sS'nyc'
p136
F0.0076797269430399998
sS'Pizza'
p137
F0.00722582387898
sS'wheredidthesodago'
p138
F0.0276346930252
sS'BasicIncome'
p139
F0.011702444842
sS'gaming'
p140
F0.0075212099914699999
sS'mylittlepony'
p141
F0.012327671387600001
sS'GiftofGames'
p142
F0.0076002152273299999
sS'askscience'
p143
F0.0157062391681
sS'philosophy'
p144
F0.0096194312511299999
sS'budgetfood'
p145
F0.0072363131350000002
sS'Images'
p146
F0.0076168155851799998
sS'Xcom'
p147
F0.0085512367491200007
sS'law'
p148
F0.0078018067341900001
sS'short'
p149
F0.0078919411139800003
sS'oculus'
p150
F0.00759647523549
sS'eFreebies'
p151
F0.0087174106061800004
sS'FanTheories'
p152
F0.032324518690500001
sS'listentothis'
p153
F0.0094769380948500001
sS'tall'
p154
F0.010653284028899999
sS'ImGoingToHellForThis'
p155
F0.012550498249400001
sS'cableporn'
p156
F0.0070884746652699997
sS'shield'
p157
F0.0091114883984199993
sS'DoesAnybodyElse'
p158
F0.0135679105891
sS'pettyrevenge'
p159
F0.019819930553399999
sS'malehairadvice'
p160
F0.0080213903743300008
sS'CityPorn'
p161
F0.0106436642454
sS'DeepIntoYouTube'
p162
F0.020891498989100001
sS'dataisbeautiful'
p163
F0.0163521660675
sS'japan'
p164
F0.0081300813008099992
sS'MLPLounge'
p165
F0.0101154978486
sS'linguistics'
p166
F0.014441922838899999
sS'beards'
p167
F0.0083382966051199995
sS'badlinguistics'
p168
F0.0112171602873
sS'nostalgia'
p169
F0.0123604208352
sS'Documentaries'
p170
F0.0075006854412299996
sS'writing'
p171
F0.0150523177647
sS'AndroidQuestions'
p172
F0.0080038700030799995
sS'StonerEngineering'
p173
F0.0073958513896099998
sS'Bioshock'
p174
F0.0103193503084
sS'wallpaper'
p175
F0.0106724284685
sS'MensRights'
p176
F0.012494228993500001
sS'MilitaryPorn'
p177
F0.0102156640182
sS'Frisson'
p178
F0.0229556812565
sS'electronicmusic'
p179
F0.0071149307879300001
sS'childfree'
p180
F0.0104800848099
sS'food'
p181
F0.0071080358546899997
sS'DebateAnAtheist'
p182
F0.010120328313000001
sS'NoStupidQuestions'
p183
F0.027316363636399998
sS'IndieGaming'
p184
F0.0087737093011500001
sS'Braveryjerk'
p185
F0.0123852416421
sS'grammar'
p186
F0.0075831055462499998
sS'creepyPMs'
p187
F0.016048480418999998
sS'WatchItForThePlot'
p188
F0.012892348886799999
sS'freebies'
p189
F0.014105023804399999
sS'PropagandaPosters'
p190
F0.018289522399099999
sS'mashups'
p191
F0.0102483808982
sS'shittyadviceanimals'
p192
F0.0097323600973199999
sS'SubredditDrama'
p193
F0.024813803606900001
sS'arrow'
p194
F0.0077590984666499998
sS'minimalism'
p195
F0.012329995516400001
sS'wallpapers'
p196
F0.0133710915832
sS'mildlyinteresting'
p197
F0.0106034594688
sS'TrueAtheism'
p198
F0.0157333869508
sS'badhistory'
p199
F0.025614081176899998
sS'DoctorWhumour'
p200
F0.0092144877292200007
sS'TrollXChromosomes'
p201
F0.010153836251299999
sS'literature'
p202
F0.0093910491562700007
sS'Cinemagraphs'
p203
F0.0130261222775
sS'canada'
p204
F0.0076949078400599998
sS'DunderMifflin'
p205
F0.0096248382923699999
sS'psychology'
p206
F0.011298118921400001
sS'space'
p207
F0.0124806826581
sS'shittyfoodporn'
p208
F0.0141175074888
sS'malefashionadvice'
p209
F0.0077207606147400003
sS'LearnUselessTalents'
p210
F0.0256909109049
sS'RoomPorn'
p211
F0.011406682272799999
sS'highdeas'
p212
F0.0091995529189200006
sS'TheLastAirbender'
p213
F0.01377309841
sS'CatsStandingUp'
p214
F0.00901306894998
sS'LetsTalkMusic'
p215
F0.0095766512122799994
sS'bestof'
p216
F0.023136040720999999
sS'Cyberpunk'
p217
F0.0143405372652
sS'Metal'
p218
F0.0074386876725699999
sS'emulation'
p219
F0.0073394495412799996
sS'GamePhysics'
p220
F0.022316684378299999
sS'paradoxplaza'
p221
F0.0103802447552
sS'youtubehaiku'
p222
F0.019264448336300002
sS'PoliticalHumor'
p223
F0.00881726968683
sS'Borderlands'
p224
F0.0082299150881800006
sS'recipes'
p225
F0.0088978580929199996
sS'privacy'
p226
F0.0080146709230500008
sS'programming'
p227
F0.0088981446421800003
sS'dogecoin'
p228
F0.0085777761936999992
sS'whatstheword'
p229
F0.014847984916299999
sS'classicalmusic'
p230
F0.0098965932880799995
sS'AskUK'
p231
F0.0083884869939999992
sS'misc'
p232
F0.013551047891600001
sS'patientgamers'
p233
F0.0166274996675
sS'rant'
p234
F0.0116826954108
sS'Buddhism'
p235
F0.0074240856812500004
sS'pokemon'
p236
F0.0095879232966100004
sS'tf2'
p237
F0.0112477662147
sS'OldSchoolCool'
p238
F0.0091181534145299992
sS'lego'
p239
F0.0112972202423
sS'ANormalDayInRussia'
p240
F0.019092402696700001
sS'onetruegod'
p241
F0.014196920469
sS'TheFacebookDelusion'
p242
F0.011549083605299999
sS'PenmanshipPorn'
p243
F0.0145898678833
sS'shittyreactiongifs'
p244
F0.0190766612297
sS'alternativeart'
p245
F0.014216050913300001
sS'shittyadvice'
p246
F0.0180155773789
sS'MeanJokes'
p247
F0.0109093742695
sS'explainlikeimfive'
p248
F0.010199730455699999
sS'dogs'
p249
F0.0070615927814799999
sS'CombatFootage'
p250
F0.0089430469117699994
sS'GTA'
p251
F0.0081961660909000006
sS'TrollYChromosome'
p252
F0.013576224328599999
sS'DaystromInstitute'
p253
F0.011683006535900001
sS'mildlyinfuriating'
p254
F0.0186398654033
sS'dresdenfiles'
p255
F0.0085822176450400002
sS'Standup'
p256
F0.0079127295075700002
sS'MachinePorn'
p257
F0.0082189822755900001
sS'Awwducational'
p258
F0.021577423201399999
sS'skyrim'
p259
F0.013491228345700001
sS'sex'
p260
F0.0077095438836399998
sS'television'
p261
F0.0092448329587599999
sS'worldpolitics'
p262
F0.0118857410078
sS'TheRedPill'
p263
F0.0073392790784099996
sS'PerfectTiming'
p264
F0.0192855944994
sS'KerbalSpaceProgram'
p265
F0.0140211227303
sS'gallifrey'
p266
F0.016055659619999999
sS'ShingekiNoKyojin'
p267
F0.0084200678283199992
sS'FoodPorn'
p268
F0.0100570926658
sS'boston'
p269
F0.0072614567190600002
sS'teenagers'
p270
F0.010462031336000001
sS'sysadmin'
p271
F0.00715474209651
sS'conspiracy'
p272
F0.011599806669900001
sS'HighQualityGifs'
p273
F0.016707466340300001
sS'self'
p274
F0.017025524796299998
sS'HomeworkHelp'
p275
F0.0074209245742099996
sS'IAmA'
p276
F0.00753369876338
sS'Parenting'
p277
F0.0075906911059499997
sS'britishproblems'
p278
F0.013338296420400001
sS'UnresolvedMysteries'
p279
F0.0095054506780099992
sS'conspiratard'
p280
F0.0251830161054
sS'FutureWhatIf'
p281
F0.022432527164400001
sS'firefly'
p282
F0.0152735817388
sS'badphilosophy'
p283
F0.010811818436000001
sS'Futurology'
p284
F0.0141106765589
sS'Games'
p285
F0.0127184405749
sS'INTP'
p286
F0.0082378223495700002
sS'Gaming4Gamers'
p287
F0.0139370624961
sS'Minecraft'
p288
F0.011588629631599999
sS'chemistry'
p289
F0.0078293894244800006
sS'TumblrInAction'
p290
F0.021154112042599999
sS'secretsanta'
p291
F0.0075911574132899997
sS'Borderlands2'
p292
F0.0078841422500600007
sS'Heavymind'
p293
F0.011231527093600001
sS'Psychonaut'
p294
F0.0076509778637400003
sS'Justrolledintotheshop'
p295
F0.010667962854000001
sS'adventuretime'
p296
F0.0139951542974
sS'PanicHistory'
p297
F0.0125760230904
sS'LucidDreaming'
p298
F0.011692732744600001
sS'fffffffuuuuuuuuuuuu'
p299
F0.011394426166099999
sS'PoliticalDiscussion'
p300
F0.014406823737499999
sS'teslore'
p301
F0.0107332989868
sS'Foodforthought'
p302
F0.017828369457899999
sS'help'
p303
F0.0082575120422099992
sS'languagelearning'
p304
F0.0093551203692199998
sS'TheoryOfReddit'
p305
F0.021691266411199998
sS'TheBluePill'
p306
F0.0150452632921
sS'harrypotter'
p307
F0.012674237123899999
sS'wicked_edge'
p308
F0.0084745762711900003
sS'booksuggestions'
p309
F0.0092307692307700001
sS'shittybattlestations'
p310
F0.010384294701700001
sS'whowouldwin'
p311
F0.032092694792500001
sS'GrandTheftAutoV'
p312
F0.0092995515893200004
sS'MetalMemes'
p313
F0.0070944599442000003
sS'arresteddevelopment'
p314
F0.015149656526
sS'shutupandtakemymoney'
p315
F0.0145365935636
sS'webcomics'
p316
F0.0140079608083
sS'CrusaderKings'
p317
F0.0125488917862
sS'JusticePorn'
p318
F0.0133300985268
sS'smashbros'
p319
F0.0084420673440499996
sS'geek'
p320
F0.015340662070699999
sS'lostgeneration'
p321
F0.0107542942494
sS'Conservative'
p322
F0.0099960799686399995
sS'PrettyGirlsUglyFaces'
p323
F0.00972609597368
sS'AbandonedPorn'
p324
F0.0133695020345
sS'progressive'
p325
F0.0078563411896699995
sS'dadjokes'
p326
F0.0250808791649
sS'vexillology'
p327
F0.018757967583299999
sS'WeAreTheMusicMakers'
p328
F0.0077828165216300002
sS'thatHappened'
p329
F0.021518811606299999
sS'whitepeoplegifs'
p330
F0.014427593611600001
sS'cringe'
p331
F0.012568091200100001
sS'StarWars'
p332
F0.0131104727083
sS'rpg'
p333
F0.0153168677006
sS'AskWomen'
p334
F0.011571817433699999
sS'TheSimpsons'
p335
F0.0104778731972
sS'Christianity'
p336
F0.0110709987966
sS'see'
p337
F0.0074248236604400001
sS'AskScienceDiscussion'
p338
F0.0099370652534000008
sS'changemyview'
p339
F0.026636181766200001
sS'Android'
p340
F0.0084856157346200004
sS'KarmaCourt'
p341
F0.017102803738300001
sS'againstmensrights'
p342
F0.0073790129372300001
sS'firstworldanarchists'
p343
F0.0256865145798
sS'nononono'
p344
F0.0198389147944
sS'cosplay'
p345
F0.010259574960499999
sS'truegaming'
p346
F0.020106296223399999
sS'lotr'
p347
F0.011959214789399999
sS'wikipedia'
p348
F0.015571493183400001
sS'breakingbad'
p349
F0.0137614678899
sS'outside'
p350
F0.036921765082100003
sS'AskCulinary'
p351
F0.0099817166576099993
sS'foodhacks'
p352
F0.0122799038399
sS'pcmasterrace'
p353
F0.0082448835981900007
sS'magicTCG'
p354
F0.00710394188655
sS'europe'
p355
F0.0103643812573
sS'StandUpComedy'
p356
F0.0103065363389
sS'jobs'
p357
F0.0077767776777700002
sS'PixelArt'
p358
F0.0073831009023799998
sS'casualiama'
p359
F0.022967187256199999
sS'facepalm'
p360
F0.0163457022076
sS'NotTimAndEric'
p361
F0.013916015625
sS'news'
p362
F0.0077204145786600002
sS'environment'
p363
F0.0073173477428799998
sS'gamingsuggestions'
p364
F0.0098739365335700005
sS'Unexpected'
p365
F0.021832956539600001
sS'RedditDayOf'
p366
F0.0194379391101
sS'watchpeopledie'
p367
F0.0092845860461499997
sS'Sherlock'
p368
F0.013644934008100001
sS'ukpolitics'
p369
F0.0071419542409299997
sS'GetMotivated'
p370
F0.0093016673528200002
sS'drunk'
p371
F0.0108766586905
sS'reactiongifs'
p372
F0.0139948756371
sS'community'
p373
F0.015918651454199999
sS'incremental_games'
p374
F0.0070833025898299996
sS'Music'
p375
F0.0071393182316599997
sS'startrek'
p376
F0.013178442201499999
sS'EarthPorn'
p377
F0.0079847031919599992
sS'linux'
p378
F0.0074956921309599998
sS'ainbow'
p379
F0.0123308671599
sS'Guitar'
p380
F0.0079440223541100002
sS'beer'
p381
F0.0078140482998799998
sS'Portal'
p382
F0.0098487513190299997
sS'bisexual'
p383
F0.0071011169465199997
sS'Rainmeter'
p384
F0.0077533466594000003
sS'fatlogic'
p385
F0.0135499248666
sS'androidapps'
p386
F0.0072675668702199998
sS'marvelstudios'
p387
F0.0075646656905800002
sS'somethingimade'
p388
F0.0089714260081599998
sS'WritingPrompts'
p389
F0.022598714163500001
sS'MapPorn'
p390
F0.0164514481652
sS'aviation'
p391
F0.00736855792987
sS'darksouls'
p392
F0.0076139226013300001
sS'Perfectfit'
p393
F0.016275730014400001
sS'offbeat'
p394
F0.018227848101300001
sS'softwaregore'
p395
F0.0164174933631
sS'socialism'
p396
F0.0114003643415
sS'Ask_Politics'
p397
F0.010175438596500001
sS'ICanDrawThat'
p398
F0.0139036016949
sS'Cooking'
p399
F0.010153326640499999
sS'IASIP'
p400
F0.0117769130999
sS'DIY'
p401
F0.0074257186724499998
sS'assassinscreed'
p402
F0.0076261560928100004
sS'ShitRedditSays'
p403
F0.010076217542999999
sS'southpark'
p404
F0.012131772751200001
sS'deadpool'
p405
F0.0082651743435200008
sS'pokemonzetaomicron'
p406
F0.0090251552198700007
sS'itookapicture'
p407
F0.0102755555556
sS'tolkienfans'
p408
F0.0080624410326799994
sS'Whatcouldgowrong'
p409
F0.018338839320600001
sS'fifthworldproblems'
p410
F0.021307982297999999
sS'talesfromtechsupport'
p411
F0.0197662800295
sS'Anarchism'
p412
F0.0089111486926000006
sS'notinteresting'
p413
F0.025128712196099998
sS'AnimalsBeingJerks'
p414
F0.016429353778800001
sS'DebateAChristian'
p415
F0.00988689985769
sS'Physics'
p416
F0.0098764128023699996
sS'TrueFilm'
p417
F0.010144642973999999
sS'HumanPorn'
p418
F0.0152836018539
sS'Fantasy'
p419
F0.0104269926938
sS'anime'
p420
F0.0070523874650700001
sS'AskEngineers'
p421
F0.0084138008922000004
sS'GifSound'
p422
F0.013444788682999999
sS'awwwtf'
p423
F0.0160051675877
sS'Terraria'
p424
F0.0085674627865800004
sS'whatsthisbug'
p425
F0.0086711374994700007
sS'circlebroke'
p426
F0.020435879195499999
sS'PublicFreakout'
p427
F0.011278825995800001
sS'ArtisanVideos'
p428
F0.010015174506799999
sS'Bitcoin'
p429
F0.0070945612476600002
sS'rickandmorty'
p430
F0.0154514727185
sS'quotes'
p431
F0.0113736974733
sS'futurama'
p432
F0.017239843193199999
sS'perfectloops'
p433
F0.0218534049968
sS'InternetIsBeautiful'
p434
F0.017098206990799999
sS'TalesFromRetail'
p435
F0.0179484794941
sS'WouldYouRather'
p436
F0.020108764386000001
sS'quityourbullshit'
p437
F0.0229819630723
sS'Advice'
p438
F0.0071285101019999998
sS'ProtectAndServe'
p439
F0.0103794535097
sS'crappymusic'
p440
F0.0080225313646799992
sS'woahdude'
p441
F0.014797873339099999
sS'Fallout'
p442
F0.0133081117169
sS'offmychest'
p443
F0.0130655326126
sS'australia'
p444
F0.0072834695800500001
sS'slowcooking'
p445
F0.00921489126428
sS'howto'
p446
F0.0089657929301599996
sS'cringepics'
p447
F0.0125839645091
sS'toosoon'
p448
F0.014908890116000001
sS'bodyweightfitness'
p449
F0.0071942446043200001
sS'thewalkingdead'
p450
F0.0083401001488699993
sS'gifs'
p451
F0.0075771507585299996
sS'ConfusedBoners'
p452
F0.0100810870042
sS'4chan'
p453
F0.016926357224900001
sS'oblivion'
p454
F0.0074870078393399998
sS'compsci'
p455
F0.0073432835820900003
sS'montageparodies'
p456
F0.0129996931403
sS'zombies'
p457
F0.0093668568209000005
sS'ArcherFX'
p458
F0.0174816096928
sS'getdisciplined'
p459
F0.0096816049505900007
sS'google'
p460
F0.0074877872987899998
sS'blunderyears'
p461
F0.016283602696300001
sS'whatisthisthing'
p462
F0.0170353309287
sS'glitch_art'
p463
F0.0121344119477
sS'HPMOR'
p464
F0.0085009330292300008
sS'NetflixBestOf'
p465
F0.015635639830299999
sS'circlebroke2'
p466
F0.0089817232375999992
sS'ShouldIbuythisgame'
p467
F0.012240289069600001
sS'tumblr'
p468
F0.0156474532971
sS'interestingasfuck'
p469
F0.019914559069600001
sS'MarkMyWords'
p470
F0.021016894349699999
sS'Coffee'
p471
F0.00783006745904
sS'gameofthrones'
p472
F0.011034869826599999
sS'humor'
p473
F0.017671354629600001
sS'mountandblade'
p474
F0.0086852139528299996
sS'AMA'
p475
F0.0099580281458299998
sS'ExpectationVsReality'
p476
F0.016508313539200001
sS'nonononoyes'
p477
F0.022256745188800001
sS'lifehacks'
p478
F0.0147151657633
sS'SCP'
p479
F0.0228263657348
sS'Enhancement'
p480
F0.0140391927464
sS'starbound'
p481
F0.0084508170458199999
sS'blackpeoplegifs'
p482
F0.014293918703300001
sS'ProgrammerHumor'
p483
F0.0144965968355
sS'business'
p484
F0.0074549871867399999
sS'FloridaMan'
p485
F0.024425067564100001
sS'delusionalartists'
p486
F0.021181995304000001
sS'OkCupid'
p487
F0.0080713194555299995
sS'Cynicalbrit'
p488
F0.0089054676210600005
sS'promos'
p489
F0.0129401396136
sS'JonTron'
p490
F0.0099097115172900006
sS'shittyaskscience'
p491
F0.029303115016000001
sS'lewronggeneration'
p492
F0.0226831352443
sS'worldbuilding'
p493
F0.020270270270300001
sS'calvinandhobbes'
p494
F0.015732344050599999
sS'netflix'
p495
F0.010063345163799999
sS'masseffect'
p496
F0.010747551946499999
sS'sixwordstories'
p497
F0.021109560362900001
sS'AnimalsBeingBros'
p498
F0.016396979503800001
sS'classic4chan'
p499
F0.021797244499300001
sS'GameDeals'
p500
F0.0096048250736500002
sS'battlestations'
p501
F0.00739093735203
sS'EnoughLibertarianSpam'
p502
F0.0108253225946
sS'ShitAmericansSay'
p503
F0.010406729685199999
sS'Scotland'
p504
F0.0070456461519899996
sS'gamemusic'
p505
F0.0093401626996099992
sS'intj'
p506
F0.0070566510584999997
sS'Animesuggest'
p507
F0.0071731176583900002
sS'marijuanaenthusiasts'
p508
F0.0116148045419
sS'ADHD'
p509
F0.0073991681980799997
sS'tifu'
p510
F0.0104369748797
sS'homestuck'
p511
F0.0122798513492
sS'unitedkingdom'
p512
F0.0100390117035
sS'Damnthatsinteresting'
p513
F0.0171184566701
sS'DnD'
p514
F0.014274849353499999
sS'CrazyIdeas'
p515
F0.039835608395700002
sS'Bad_Cop_No_Donut'
p516
F0.0123204896806
sS'MorbidReality'
p517
F0.0143974606054
sS'gif'
p518
F0.0096974004874099996
sS'cats'
p519
F0.0083289385149800006
sS'introvert'
p520
F0.0089791138005100007
sS'raisedbynarcissists'
p521
F0.0097724185907799993
sS'happy'
p522
F0.0132212270761
sS'misleadingthumbnails'
p523
F0.0231666956976
sS'shortscarystories'
p524
F0.0096034494022299993
sS'batman'
p525
F0.011946308724800001
sS'gamegrumps'
p526
F0.0095748390983199996
sS'snackexchange'
p527
F0.0074531174867800004
sS'bindingofisaac'
p528
F0.0070948469006699997
sS'rule34'
p529
F0.0071890726096299996
sS'shittyaskreddit'
p530
F0.017271299892600001
sS'Marvel'
p531
F0.010952060716699999
sS'Random_Acts_Of_Amazon'
p532
F0.0071155226022499999
sS'rage'
p533
F0.018342315966899999
sS'comics'
p534
F0.0215585491218
sS'behindthegifs'
p535
F0.0298745622978
sS'books'
p536
F0.0092833466202300007
sS'civ'
p537
F0.014890989407700001
sS'findareddit'
p538
F0.0214421368621
sS'fullmoviesonyoutube'
p539
F0.016507719283199999
sS'Design'
p540
F0.0070046361620599998
sS'buffy'
p541
F0.0071330354073600001
sS'TrueAskReddit'
p542
F0.026210683974000001
sS'politics'
p543
F0.0104118890907
sS'DAE'
p544
F0.0090045841519299993
sS'ForeverAlone'
p545
F0.0084604192488
sS'eatsandwiches'
p546
F0.010480610869900001
sS'Survival'
p547
F0.00773406707816
sS'shittyama'
p548
F0.018768920282500001
sS'AskSocialScience'
p549
F0.013345676155199999
sS'zelda'
p550
F0.0111385266126
sS'ImaginaryLandscapes'
p551
F0.0136054421769
sS'TheWayWeWere'
p552
F0.0108593012276
sS'badtattoos'
p553
F0.0070750325823900001
sS'Feminism'
p554
F0.0088544548976200003
sS'nottheonion'
p555
F0.017284546218300001
sS'Frugal_Jerk'
p556
F0.013829238962400001
sS'bigdickproblems'
p557
F0.0093059558117199997
sS'nintendo'
p558
F0.0088332234673699998
sS'comicbooks'
p559
F0.011379355343899999
sS'cordcutters'
p560
F0.0078170967470799994
sS'HailCorporate'
p561
F0.018555563220000001
sS'oddlysatisfying'
p562
F0.018886662899600001
sS'GirlGamers'
p563
F0.0093088857545800003
sS'cosplaygirls'
p564
F0.0088134846314900008
sS'entertainment'
p565
F0.0084386127506000004
sS'atheism'
p566
F0.00983441588144
sS'terriblefacebookmemes'
p567
F0.0170328490661
sS'PrettyGirls'
p568
F0.0076628352490400002
sS'urbanexploration'
p569
F0.0094949228537500006
s.