(dp1
S'photoshop'
p2
F0.0141955835962
sS'Heavymind'
p3
F0.0111457868926
sS'Awwducational'
p4
F0.0092706598102400006
sS'Justrolledintotheshop'
p5
F0.0082766859125699994
sS'photocritique'
p6
F0.041464179338500003
sS'CityPorn'
p7
F0.027985074626899999
sS'ArtisanVideos'
p8
F0.0091964229086100007
sS'dadjokes'
p9
F0.0071727887047499999
sS'BuyItForLife'
p10
F0.0076272526082800003
sS'woodworking'
p11
F0.0073855824003100003
sS'perfectloops'
p12
F0.0150980993256
sS'everymanshouldknow'
p13
F0.0076240285808999997
sS'skiing'
p14
F0.0071340902117200001
sS'carporn'
p15
F0.0133017649591
sS'editors'
p16
F0.0071591774562100004
sS'HistoryPorn'
p17
F0.0098106827434299992
sS'woahdude'
p18
F0.0087386485394599991
sS'MilitaryPorn'
p19
F0.01040408732
sS'Frisson'
p20
F0.0100512962706
sS'YouShouldKnow'
p21
F0.0079516887091499993
sS'shutupandtakemymoney'
p22
F0.0094453376205800004
sS'photography'
p23
F0.031321870550900001
sS'howto'
p24
F0.0076991412496300003
sS'geek'
p25
F0.00763466206945
sS'toosoon'
p26
F0.00709354014944
sS'VideoEditing'
p27
F0.0079343733189900009
sS'photoshopbattles'
p28
F0.00772495871378
sS'AbandonedPorn'
p29
F0.0190199149698
sS'PropagandaPosters'
p30
F0.0083194675540799994
sS'CrappyDesign'
p31
F0.0096528365791699999
sS'Enhancement'
p32
F0.0094650205761300007
sS'Cyberpunk'
p33
F0.0081116770420699997
sS'LearnUselessTalents'
p34
F0.0082467929138699998
sS'minimalism'
p35
F0.010217057662800001
sS'DeepIntoYouTube'
p36
F0.00710469144501
sS'whatisthisthing'
p37
F0.0085877412353100001
sS'interestingasfuck'
p38
F0.0090887224245800001
sS'Cinemagraphs'
p39
F0.019590557351400001
sS'firstworldanarchists'
p40
F0.0077090710977899997
sS'PerfectTiming'
p41
F0.016765385001499999
sS'camping'
p42
F0.0070643642072199999
sS'space'
p43
F0.0076173065204099997
sS'AskPhotography'
p44
F0.024576822916699999
sS'ExpectationVsReality'
p45
F0.0087265425901599993
sS'outside'
p46
F0.0075072089092200001
sS'RoomPorn'
p47
F0.015667680255599999
sS'lifehacks'
p48
F0.0078861365035800008
sS'Astronomy'
p49
F0.015730928717199999
sS'blackpeoplegifs'
p50
F0.0075744680851099998
sS'glitch_art'
p51
F0.0142695356738
sS'FloridaMan'
p52
F0.00754053035063
sS'malelivingspace'
p53
F0.0085697962292899995
sS'answers'
p54
F0.0075803517283199997
sS'delusionalartists'
p55
F0.0082456464217600008
sS'Roadcam'
p56
F0.0088930936613099993
sS'GamePhysics'
p57
F0.0085015940488800002
sS'Unexpected'
p58
F0.0075678193037599997
sS'RedditDayOf'
p59
F0.0098710039259700001
sS'WarshipPorn'
p60
F0.0090596330275199994
sS'itookapicture'
p61
F0.037702892685200003
sS'wheredidthesodago'
p62
F0.0089925920057000001
sS'AnimalsBeingBros'
p63
F0.0095576187875499995
sS'snowboarding'
p64
F0.0076819075712899997
sS'GunPorn'
p65
F0.0076198115099299999
sS'ANormalDayInRussia'
p66
F0.011177239076800001
sS'QuotesPorn'
p67
F0.0093133674214799997
sS'hiking'
p68
F0.0097157622738999992
sS'misc'
p69
F0.0079515335100299993
sS'findareddit'
p70
F0.00734530938124
sS'IdiotsFightingThings'
p71
F0.0094021527687699995
sS'marijuanaenthusiasts'
p72
F0.0071419124454400002
sS'EarthPorn'
p73
F0.0102073524992
sS'ContagiousLaughter'
p74
F0.0074228574934100001
sS'Multicopter'
p75
F0.0093519639124200003
sS'Damnthatsinteresting'
p76
F0.010677746504
sS'CrazyIdeas'
p77
F0.0084233539094700008
sS'OutOfTheLoop'
p78
F0.0072280862781100002
sS'gopro'
p79
F0.0149053404917
sS'PenmanshipPorn'
p80
F0.010400233713099999
sS'misleadingthumbnails'
p81
F0.012765957446799999
sS'Pareidolia'
p82
F0.013458950201899999
sS'holdmybeer'
p83
F0.0097091477056900008
sS'CombatFootage'
p84
F0.0080719862379300001
sS'mildlyinfuriating'
p85
F0.0076154729038099998
sS'somethingimade'
p86
F0.0102465753425
sS'TopGear'
p87
F0.0078473336900299999
sS'MapPorn'
p88
F0.0082731707317099997
sS'Shitty_Car_Mods'
p89
F0.0082635758746500004
sS'aviation'
p90
F0.0087281139912699993
sS'videography'
p91
F0.012106537530300001
sS'calvinandhobbes'
p92
F0.0095031990967299994
sS'techsupportgore'
p93
F0.0086870681145099996
sS'typography'
p94
F0.0070031712473600004
sS'Perfectfit'
p95
F0.0126522961575
sS'nononono'
p96
F0.012246963562800001
sS'behindthegifs'
p97
F0.0076708874060799999
sS'softwaregore'
p98
F0.0074891982717199997
sS'FoodPorn'
p99
F0.0071317084884099996
sS'audiophile'
p100
F0.0070361145703600001
sS'awesome'
p101
F0.011194447554
sS'Filmmakers'
p102
F0.010130476291500001
sS'TrueAskReddit'
p103
F0.0072363606797300004
sS'Infographics'
p104
F0.0088677408889400004
sS'CampingandHiking'
p105
F0.011133483358999999
sS'techsupportmacgyver'
p106
F0.0101922217255
sS'eatsandwiches'
p107
F0.0072541071047600002
sS'backpacking'
p108
F0.010596451794200001
sS'travel'
p109
F0.0085008453879399995
sS'ImaginaryLandscapes'
p110
F0.012504262816899999
sS'TheWayWeWere'
p111
F0.0087215974294200006
sS'analog'
p112
F0.0193588937775
sS'spaceporn'
p113
F0.024830985025600001
sS'Design'
p114
F0.0086125007915900005
sS'nonononoyes'
p115
F0.010395383016099999
sS'Whatcouldgowrong'
p116
F0.0085357091536100004
sS'wallpapers'
p117
F0.0112822881272
sS'AnimalsBeingJerks'
p118
F0.0080437092123199997
sS'wallpaper'
p119
F0.0116454795982
sS'astrophotography'
p120
F0.032195676905599997
sS'HighQualityGifs'
p121
F0.0104610927818
sS'oddlysatisfying'
p122
F0.0093934318794100004
sS'MachinePorn'
p123
F0.020613322502
sS'HumanPorn'
p124
F0.017953448765300001
sS'Graffiti'
p125
F0.0089992800575999995
sS'HailCorporate'
p126
F0.0070521861777200004
sS'urbanexploration'
p127
F0.016254289326399999
sS'cableporn'
p128
F0.0085775553967100005
s.