(dp1
S'AskScienceFiction'
p2
F0.010789149198500001
sS'selfpublish'
p3
F0.0440070765148
sS'teslore'
p4
F0.0087139423076900008
sS'rpg'
p5
F0.0135562798167
sS'Pathfinder_RPG'
p6
F0.0081293781890499992
sS'DnD'
p7
F0.0092690407224399994
sS'Screenwriting'
p8
F0.0092441544317600002
sS'lotr'
p9
F0.0076592564916900001
sS'printSF'
p10
F0.013407245069
sS'ImaginaryLandscapes'
p11
F0.0116442738324
sS'writing'
p12
F0.045488178711100002
sS'booksuggestions'
p13
F0.0078705999008400005
sS'scifi'
p14
F0.010444237785200001
sS'ImaginaryMonsters'
p15
F0.010382201939499999
sS'tolkienfans'
p16
F0.010107105144099999
sS'tabletopgamedesign'
p17
F0.011530815109299999
sS'literature'
p18
F0.0081103000811000008
sS'rpg_gamers'
p19
F0.00770308123249
sS'dresdenfiles'
p20
F0.0091950557732900003
sS'KingkillerChronicle'
p21
F0.0146231721035
sS'worldbuilding'
p22
F0.064092356687900004
sS'WritingPrompts'
p23
F0.0077629102158099997
sS'Fantasy'
p24
F0.048103391965700001
sS'conlangs'
p25
F0.0155180282976
sS'WoT'
p26
F0.010067114094000001
sS'whatstheword'
p27
F0.0075621635478099998
s.