(dp1
S'Boobies'
p2
F0.0156343159987
sS'wifesharing'
p3
F0.028034188034199999
sS'workgonewild'
p4
F0.0297131147541
sS'GWCouples'
p5
F0.031365155540299998
sS'pussy'
p6
F0.026427061310799999
sS'crossdressing'
p7
F0.0074153680816799999
sS'RandomActsOfBlowJob'
p8
F0.0087116368286400004
sS'ginger'
p9
F0.0178866530573
sS'milf'
p10
F0.023388476896700001
sS'penis'
p11
F0.0107182040679
sS'incest'
p12
F0.0092434930673799993
sS'Tgirls'
p13
F0.013613463393700001
sS'nsfw'
p14
F0.010759933461099999
sS'AmISexy'
p15
F0.0081710709318500007
sS'thick'
p16
F0.014083282621899999
sS'hugeboobs'
p17
F0.0089770354906100001
sS'burstingout'
p18
F0.0093023255813999995
sS'shorthairedhotties'
p19
F0.0122896072669
sS'gonewild'
p20
F0.0141228169333
sS'gonewildaudio'
p21
F0.0176445396146
sS'hardbodies'
p22
F0.0095341278439899993
sS'BDSMGW'
p23
F0.0214434505575
sS'NSFWFunny'
p24
F0.0080493904345099992
sS'Blowjobs'
p25
F0.0135226504395
sS'redheads'
p26
F0.0128037100514
sS'RealGirls'
p27
F0.0153611252487
sS'GoneMild'
p28
F0.041038573966899999
sS'Hotchickswithtattoos'
p29
F0.0098851188885900002
sS'TinyTits'
p30
F0.0237025709644
sS'firstimpression'
p31
F0.0072504182933600001
sS'randomsexiness'
p32
F0.0100895706785
sS'Hotwife'
p33
F0.0183916336098
sS'tightdresses'
p34
F0.0135928328699
sS'gonewildcurvy'
p35
F0.0266006184859
sS'AsiansGoneWild'
p36
F0.0271716176264
sS'Rateme'
p37
F0.0081396910678299995
sS'BigBoobsGW'
p38
F0.0242948664614
sS'ass'
p39
F0.019866444073500002
sS'treesgonewild'
p40
F0.0177141241873
sS'Stacked'
p41
F0.0090593893300500005
sS'bdsm'
p42
F0.0109205776173
sS'cumsluts'
p43
F0.0204135387857
sS'Bondage'
p44
F0.011914495970099999
sS'dirtykikpals'
p45
F0.0070501416617200002
sS'NSFW_GIF'
p46
F0.0097829573398899999
sS'girlsinyogapants'
p47
F0.0120620774431
sS'altgonewild'
p48
F0.026733585987899999
sS'nsfw_gifs'
p49
F0.0100750174459
sS'rule34'
p50
F0.0076352295945800001
sS'BBW'
p51
F0.0143932683791
sS'Sissies'
p52
F0.0085151055639800001
sS'Amateur'
p53
F0.0227117252702
sS'BBWGW'
p54
F0.019334049409199999
sS'TributeMe'
p55
F0.030207235686700001
sS'gonewildstories'
p56
F0.010727901409699999
sS'traps'
p57
F0.014530159640599999
sS'GoneWildCD'
p58
F0.0106894066779
sS'tipofmypenis'
p59
F0.0074788688763999999
sS'cosplaygirls'
p60
F0.0072218035669399999
sS'GoneWildPlus'
p61
F0.024238622105599999
sS'Cuckold'
p62
F0.0138172819138
sS'AmateurArchives'
p63
F0.0118512015802
sS'BustyPetite'
p64
F0.0123545309139
sS'curvy'
p65
F0.0137457044674
sS'PrettyGirls'
p66
F0.0098119378577299996
sS'dirtypenpals'
p67
F0.0125011082543
sS'asstastic'
p68
F0.042567039833400003
sS'pantyselling'
p69
F0.020071779875000001
sS'MassiveCock'
p70
F0.0074333187581999997
sS'anal'
p71
F0.0111056023798
sS'GWNerdy'
p72
F0.027340892465299999
sS'Celebs'
p73
F0.0082224350295499998
sS'Pegging'
p74
F0.0107303565247
sS'OnOff'
p75
F0.017184451448300001
s.