(dp1
S'FancyFollicles'
p2
F0.0140363155644
sS'delusionalartists'
p3
F0.013163604802499999
sS'curlyhair'
p4
F0.0093913289083500003
sS'DoesAnybodyElse'
p5
F0.0078769430954799997
sS'pettyrevenge'
p6
F0.010930107204899999
sS'ABraThatFits'
p7
F0.0087197780420100006
sS'PublicFreakout'
p8
F0.0084548462198299999
sS'asoiaf'
p9
F0.0078655645264600008
sS'fffffffuuuuuuuuuuuu'
p10
F0.0079440586052699994
sS'inthenews'
p11
F0.0087991345113599996
sS'Conservative'
p12
F0.015435501653799999
sS'PurplePillDebate'
p13
F0.019880174291900001
sS'quotes'
p14
F0.0081720711297099992
sS'BuyItForLife'
p15
F0.0071211260071500004
sS'SampleSize'
p16
F0.00886108939275
sS'DeepIntoYouTube'
p17
F0.0082870370370400001
sS'everymanshouldknow'
p18
F0.0103929744756
sS'Pets'
p19
F0.0085509063960799991
sS'InternetIsBeautiful'
p20
F0.00766266748402
sS'weddingplanning'
p21
F0.0081670182270500002
sS'Foodforthought'
p22
F0.018136809134099999
sS'RandomActsofMakeup'
p23
F0.0073847530956300004
sS'islam'
p24
F0.0106798949519
sS'relationships'
p25
F0.010738856569
sS'TalesFromRetail'
p26
F0.0099963566809400002
sS'AskMen'
p27
F0.0147249226448
sS'TheoryOfReddit'
p28
F0.0135396518375
sS'badlinguistics'
p29
F0.0093979715269400001
sS'quityourbullshit'
p30
F0.013057896918599999
sS'Anticonsumption'
p31
F0.010118481363
sS'ProtectAndServe'
p32
F0.0099112217577199992
sS'writing'
p33
F0.0123605494852
sS'HistoryPorn'
p34
F0.011465663673899999
sS'booksuggestions'
p35
F0.0082442888725100007
sS'gardening'
p36
F0.0080406720992299997
sS'transpassing'
p37
F0.00788680120622
sS'whowouldwin'
p38
F0.0080074534787099999
sS'woahdude'
p39
F0.0074876049782500002
sS'unitedkingdom'
p40
F0.0113175588975
sS'askphilosophy'
p41
F0.0129585326954
sS'adventuretime'
p42
F0.0075304953945699998
sS'circlebroke'
p43
F0.018501214726200001
sS'MensRights'
p44
F0.044553150355899997
sS'nononono'
p45
F0.0078569382493800001
sS'offmychest'
p46
F0.012674480689500001
sS'Anxiety'
p47
F0.010346259864800001
sS'Judaism'
p48
F0.0085804731756100004
sS'childfree'
p49
F0.0180618061806
sS'popping'
p50
F0.0073566618660200001
sS'reactiongifs'
p51
F0.0080685737286500005
sS'UnresolvedMysteries'
p52
F0.0074159314665599996
sS'BDSMcommunity'
p53
F0.0084788983807199993
sS'AbandonedPorn'
p54
F0.0071237194641399996
sS'vegan'
p55
F0.0157988315977
sS'geek'
p56
F0.0081825620511000001
sS'DebateAnAtheist'
p57
F0.0089877370706099996
sS'lostgeneration'
p58
F0.013363028953200001
sS'cringepics'
p59
F0.0098773194998500007
sS'Liberal'
p60
F0.014162614111400001
sS'firstworldproblems'
p61
F0.0089091192032399995
sS'PrettyGirlsUglyFaces'
p62
F0.0072682391662099999
sS'GunsAreCool'
p63
F0.0077693531779499999
sS'IWantToLearn'
p64
F0.0080976602238000007
sS'Sherlock'
p65
F0.0092757245157900001
sS'grammar'
p66
F0.00747333949114
sS'creepyPMs'
p67
F0.019588991707699999
sS'progressive'
p68
F0.017023910856599999
sS'dadjokes'
p69
F0.00795260632989
sS'books'
p70
F0.0091448111431800001
sS'FeMRADebates'
p71
F0.0312871287129
sS'conspiratard'
p72
F0.0167758352575
sS'PropagandaPosters'
p73
F0.0120830977954
sS'CrappyDesign'
p74
F0.0097982853000700004
sS'comics'
p75
F0.0114212292098
sS'Frisson'
p76
F0.0098364104991799997
sS'futurama'
p77
F0.00705619137768
sS'MarkMyWords'
p78
F0.0082480525431499994
sS'Psychonaut'
p79
F0.0075945118113500002
sS'Cyberpunk'
p80
F0.0078052587931100002
sS'Libertarian'
p81
F0.0148447606727
sS'PoliticalDiscussion'
p82
F0.017125196331799999
sS'cringe'
p83
F0.0103681760474
sS'polyamory'
p84
F0.0123206065529
sS'YouShouldKnow'
p85
F0.0113525628532
sS'talesfromtechsupport'
p86
F0.0070785207163300001
sS'TrueAtheism'
p87
F0.017332549941199999
sS'whatisthisthing'
p88
F0.0076353736866700004
sS'AskWomen'
p89
F0.0213095404297
sS'NetflixBestOf'
p90
F0.0081213332308599992
sS'tea'
p91
F0.0079555425563000003
sS'TrollXChromosomes'
p92
F0.023228015765300002
sS'literature'
p93
F0.013223023617599999
sS'Christianity'
p94
F0.0125580413677
sS'tumblr'
p95
F0.011548331907600001
sS'POLITIC'
p96
F0.010650524864
sS'interestingasfuck'
p97
F0.0090618082209200004
sS'bestof'
p98
F0.013592750533000001
sS'changemyview'
p99
F0.0256535824606
sS'TwoXChromosomes'
p100
F0.022585586275599999
sS'fatpeoplestories'
p101
F0.0101794491464
sS'TalesFromYourServer'
p102
F0.0088026182146500008
sS'OneY'
p103
F0.023920747422699999
sS'EatCheapAndHealthy'
p104
F0.0120094049557
sS'depression'
p105
F0.0090350628484999994
sS'firstworldanarchists'
p106
F0.0097040271712799994
sS'forwardsfromgrandma'
p107
F0.015735140297399999
sS'femalefashionadvice'
p108
F0.0148492907801
sS'humor'
p109
F0.00901445334139
sS'psychology'
p110
F0.0165495352528
sS'findareddit'
p111
F0.0073018283778299997
sS'skeptic'
p112
F0.016983554947999999
sS'lotr'
p113
F0.0075299117660600004
sS'shittyfoodporn'
p114
F0.0077690166975899998
sS'wikipedia'
p115
F0.0089191700216800004
sS'ExpectationVsReality'
p116
F0.0082074665146800001
sS'socialskills'
p117
F0.010010051935
sS'DebateReligion'
p118
F0.0133729569094
sS'religion'
p119
F0.0104293978652
sS'outside'
p120
F0.0097764796560000002
sS'AskCulinary'
p121
F0.0081090158821600002
sS'RoomPorn'
p122
F0.0076190476190499999
sS'foodhacks'
p123
F0.0074226546906200003
sS'worldnews'
p124
F0.0073638993600399997
sS'lifehacks'
p125
F0.0092182654261599994
sS'Anarchy101'
p126
F0.0109744944619
sS'vexillology'
p127
F0.0086607765635899996
sS'disney'
p128
F0.0071359886633900003
sS'AskFeminists'
p129
F0.081630757800899997
sS'LetsTalkMusic'
p130
F0.0071241640011599997
sS'biology'
p131
F0.00754623616008
sS'StandUpComedy'
p132
F0.0077990155340999998
sS'jobs'
p133
F0.0081180290837200002
sS'DeadBedrooms'
p134
F0.00945488502393
sS'classicalmusic'
p135
F0.0073304825901000003
sS'linguistics'
p136
F0.010886059246600001
sS'casualiama'
p137
F0.0107886210582
sS'LetsNotMeet'
p138
F0.0081795789375799996
sS'legaladvice'
p139
F0.0084353094926900001
sS'loseit'
p140
F0.0089686948937200001
sS'OkCupid'
p141
F0.011016796099
sS'BasicIncome'
p142
F0.0139068100358
sS'Frugal'
p143
F0.010112282152
sS'promos'
p144
F0.0087217338419899992
sS'minimalism'
p145
F0.010372155874499999
sS'LadyBoners'
p146
F0.013263439347
sS'shittyaskscience'
p147
F0.0081259645061699994
sS'news'
p148
F0.0078778366040199999
sS'doctorwho'
p149
F0.0083087469628600006
sS'lewronggeneration'
p150
F0.0129914143696
sS'TrueFilm'
p151
F0.00901525658807
sS'bigboobproblems'
p152
F0.0113048324178
sS'WritingPrompts'
p153
F0.0073503627977200003
sS'PoliticalHumor'
p154
F0.011693342103299999
sS'CanadaPolitics'
p155
F0.00815174792287
sS'RedditDayOf'
p156
F0.00873297809355
sS'lgbt'
p157
F0.025546460375999998
sS'birthcontrol'
p158
F0.0087627971542599999
sS'Anarcho_Capitalism'
p159
F0.0123266563945
sS'vegetarian'
p160
F0.014781162016899999
sS'TinyHouses'
p161
F0.0088452430700699993
sS'punk'
p162
F0.0071664129883299999
sS'getdisciplined'
p163
F0.0073604183816799998
sS'relationship_advice'
p164
F0.0107163585109
sS'aspergers'
p165
F0.0072530864197500001
sS'badhistory'
p166
F0.0200390698847
sS'math'
p167
F0.0089176234533499994
sS'4chan'
p168
F0.0086448497391499995
sS'howtonotgiveafuck'
p169
F0.0099843846117399996
sS'wheredidthesodago'
p170
F0.0089168985283800007
sS'AnimalsBeingBros'
p171
F0.0089383152315099992
sS'ukpolitics'
p172
F0.0113350897617
sS'MakeupAddicts'
p173
F0.0080018117309600002
sS'worldbuilding'
p174
F0.0084421790379100008
sS'history'
p175
F0.010612301892100001
sS'GetMotivated'
p176
F0.0078951060546200002
sS'QuotesPorn'
p177
F0.0122676157662
sS'ShitAmericansSay'
p178
F0.0102496280377
sS'progresspics'
p179
F0.0079712746858200002
sS'TrueReddit'
p180
F0.0190895741557
sS'xxfitness'
p181
F0.014015980002700001
sS'confession'
p182
F0.014080819247700001
sS'Scotland'
p183
F0.0088082599311699993
sS'community'
p184
F0.0074957209466999996
sS'nostalgia'
p185
F0.0073167654850500004
sS'rant'
p186
F0.0095078299776300002
sS'Buddhism'
p187
F0.0091926929876299992
sS'Health'
p188
F0.0086629374783400003
sS'Documentaries'
p189
F0.0094901702020299995
sS'rpg'
p190
F0.0075887210773000003
sS'ADHD'
p191
F0.0085292870269999994
sS'Unexpected'
p192
F0.0090997725056899993
sS'harrypotter'
p193
F0.0113031738889
sS'ainbow'
p194
F0.0258429891941
sS'TheLastAirbender'
p195
F0.0081493054089400007
sS'Damnthatsinteresting'
p196
F0.0085871858459499999
sS'environment'
p197
F0.0149491618577
sS'FiftyFifty'
p198
F0.0077234987449300001
sS'CrazyIdeas'
p199
F0.011010926659400001
sS'OldSchoolCool'
p200
F0.00777508175968
sS'AskHistorians'
p201
F0.014410934482200001
sS'exmormon'
p202
F0.0077448282889999998
sS'Bad_Cop_No_Donut'
p203
F0.014542376793800001
sS'OutOfTheLoop'
p204
F0.014192253830199999
sS'seduction'
p205
F0.0070607946385800001
sS'europe'
p206
F0.0112329499866
sS'TheFacebookDelusion'
p207
F0.0086859510718000008
sS'MorbidReality'
p208
F0.013804985009200001
sS'SubredditDrama'
p209
F0.020838674235499999
sS'cats'
p210
F0.0094242724569799999
sS'PenmanshipPorn'
p211
F0.0085580196926499999
sS'ifyoulikeblank'
p212
F0.0074427202412800002
sS'misleadingthumbnails'
p213
F0.0092084096078099992
sS'raisedbynarcissists'
p214
F0.015700127563500001
sS'explainlikeimfive'
p215
F0.0073304106703000003
sS'Pareidolia'
p216
F0.0078245595358499998
sS'dogs'
p217
F0.0096025793789900008
sS'asktransgender'
p218
F0.0116736082595
sS'happy'
p219
F0.0096853721530900001
sS'fatlogic'
p220
F0.013016180899399999
sS'TrollYChromosome'
p221
F0.020011600928100001
sS'explainlikeIAmA'
p222
F0.0088544548976200003
sS'introvert'
p223
F0.0096075353218199998
sS'FloridaMan'
p224
F0.0099721366769299994
sS'MakeupAddiction'
p225
F0.0119315376598
sS'conspiracy'
p226
F0.0110372635787
sS'occupywallstreet'
p227
F0.010687157746000001
sS'mildlyinfuriating'
p228
F0.0094282150213199998
sS'buffy'
p229
F0.0080380577427800002
sS'madmen'
p230
F0.0081787109375
sS'youtubehaiku'
p231
F0.0070873342478300003
sS'Awwducational'
p232
F0.012215072527
sS'TheGirlSurvivalGuide'
p233
F0.017784608628799999
sS'polandball'
p234
F0.0094471160686299994
sS'NeutralPolitics'
p235
F0.010572612704100001
sS'SRSGaming'
p236
F0.0145109799748
sS'blunderyears'
p237
F0.011338943542300001
sS'toronto'
p238
F0.0075160942452900002
sS'webcomics'
p239
F0.0070694555790399996
sS'television'
p240
F0.0076655147825100004
sS'RedPillWomen'
p241
F0.0096808892075999995
sS'againstmensrights'
p242
F0.038511994002999997
sS'rage'
p243
F0.015754741718399998
sS'worldpolitics'
p244
F0.016081479496100001
sS'science'
p245
F0.0107864034104
sS'sex'
p246
F0.011485788898300001
sS'TheRedPill'
p247
F0.0149949403575
sS'UpliftingNews'
p248
F0.010849179783
sS'offbeat'
p249
F0.0129201101928
sS'behindthegifs'
p250
F0.0077040298002000003
sS'standupshots'
p251
F0.0124608516026
sS'socialism'
p252
F0.029944975383700001
sS'SuicideWatch'
p253
F0.0072795732663899996
sS'TheBluePill'
p254
F0.040830493499899999
sS'LifeProTips'
p255
F0.0077363219989800003
sS'russia'
p256
F0.00728964176618
sS'ForeverAlone'
p257
F0.0095272993770600008
sS'fullmoviesonyoutube'
p258
F0.00757544397069
sS'gallifrey'
p259
F0.0084570957095699995
sS'AskScienceFiction'
p260
F0.0089797040362900003
sS'watchpeopledie'
p261
F0.0076413460814599996
sS'Economics'
p262
F0.0153576464312
sS'nutrition'
p263
F0.0073995771670200003
sS'bisexual'
p264
F0.015461703650699999
sS'Cooking'
p265
F0.0086596639600499993
sS'DecidingToBeBetter'
p266
F0.00848946135831
sS'TrueAskReddit'
p267
F0.0145489237374
sS'FanTheories'
p268
F0.010234495636899999
sS'NoStupidQuestions'
p269
F0.0111298957453
sS'blackladies'
p270
F0.0143754760091
sS'australia'
p271
F0.0084954506610400004
sS'Infographics'
p272
F0.0072897870804800001
sS'politics'
p273
F0.011709880285800001
sS'education'
p274
F0.0104857693131
sS'ShitRedditSays'
p275
F0.0309101316543
sS'SRSsucks'
p276
F0.0177930133856
sS'HouseOfCards'
p277
F0.0081467388653099996
sS'asktrp'
p278
F0.0072797702531200003
sS'Israel'
p279
F0.0088292547274700008
sS'MURICA'
p280
F0.0087468532662000002
sS'yoga'
p281
F0.0078710408664400006
sS'Fantasy'
p282
F0.0072066257932700004
sS'technology'
p283
F0.0070829567666400002
sS'self'
p284
F0.012275132275099999
sS'knitting'
p285
F0.0080741065281300008
sS'answers'
p286
F0.0082714382174199994
sS'Parenting'
p287
F0.0101250398909
sS'JusticePorn'
p288
F0.0095015991471199997
sS'TumblrInAction'
p289
F0.0188545311897
sS'scifi'
p290
F0.0102883726478
sS'britishproblems'
p291
F0.0085872071853399998
sS'RedditLaqueristas'
p292
F0.0096691018478699993
sS'nottheonion'
p293
F0.0116418844374
sS'nyc'
p294
F0.00907409346316
sS'nonononoyes'
p295
F0.0085753803596100003
sS'Ask_Politics'
p296
F0.0072500000000000004
sS'Whatcouldgowrong'
p297
F0.0084291771396700008
sS'economy'
p298
F0.0079711234772100008
sS'firefly'
p299
F0.0080784144765199996
sS'canada'
p300
F0.010369640216900001
sS'Anarchism'
p301
F0.022312631110500001
sS'MapPorn'
p302
F0.0113709851261
sS'notinteresting'
p303
F0.0077629025360999998
sS'facepalm'
p304
F0.0112888779072
sS'badphilosophy'
p305
F0.011877326715100001
sS'AnimalsBeingJerks'
p306
F0.0094815869522999995
sS'askscience'
p307
F0.0095292412252600007
sS'Futurology'
p308
F0.0100854371427
sS'sewing'
p309
F0.0072025548685199997
sS'DebateAChristian'
p310
F0.0103522645579
sS'Mommit'
p311
F0.0070154489141000002
sS'philosophy'
p312
F0.0141627078385
sS'gameofthrones'
p313
F0.0080910944080699997
sS'actuallesbians'
p314
F0.016551174036599999
sS'EnoughLibertarianSpam'
p315
F0.014417101665400001
sS'GradSchool'
p316
F0.0082298478947800003
sS'Gaming4Gamers'
p317
F0.0074428173786799997
sS'dogpictures'
p318
F0.0070697358746700002
sS'comicbooks'
p319
F0.0074814245452199998
sS'law'
p320
F0.01016971538
sS'Physics'
p321
F0.0080368569234700003
sS'startrek'
p322
F0.0097736816678399997
sS'truegaming'
p323
F0.0097558302047100007
sS'oddlysatisfying'
p324
F0.0085790074541699998
sS'short'
p325
F0.0082241630276600006
sS'GirlGamers'
p326
F0.027151838869400001
sS'dataisbeautiful'
p327
F0.0120093974572
sS'entertainment'
p328
F0.0082099468488999999
sS'HumanPorn'
p329
F0.0134074034507
sS'IWantOut'
p330
F0.0078651015909000001
sS'atheism'
p331
F0.011892724105799999
sS'AMA'
p332
F0.0078716808195199994
sS'Shitstatistssay'
p333
F0.0072104129600099997
sS'thatHappened'
p334
F0.012658966281599999
sS'exmuslim'
p335
F0.0074074074074100002
sS'crafts'
p336
F0.0072394481628200004
sS'tall'
p337
F0.0074070902551800002
sS'HailCorporate'
p338
F0.0106088560886
sS'ImGoingToHellForThis'
p339
F0.0085730640716699998
sS'SkincareAddiction'
p340
F0.01246774482
sS'AskSocialScience'
p341
F0.0148822745446
s.