(dp1
S'PoliticalDiscussion'
p2
F0.010544421178599999
sS'circlebroke2'
p3
F0.010740842743000001
sS'badhistory'
p4
F0.016260162601600001
sS'TrueReddit'
p5
F0.00770376457295
sS'circlebroke'
p6
F0.015458035065899999
sS'PanicHistory'
p7
F0.0078905839032099995
sS'TrueAskReddit'
p8
F0.0094640270400799999
sS'PurplePillDebate'
p9
F0.043080357142899997
sS'POLITIC'
p10
F0.0076010945576199997
sS'blackladies'
p11
F0.0093711467324300007
sS'ShitPoliticsSays'
p12
F0.0075733669927400002
sS'changemyview'
p13
F0.0137589433132
sS'OneY'
p14
F0.0500170706726
sS'Foodforthought'
p15
F0.0090578365134799995
sS'ShitRedditSays'
p16
F0.0146192679849
sS'Feminism'
p17
F0.0312871287129
sS'SRSsucks'
p18
F0.047703493527199999
sS'badphilosophy'
p19
F0.0152687722234
sS'psychology'
p20
F0.0086015784339799999
sS'ShitRConservativeSays'
p21
F0.0082263902599500009
sS'badlinguistics'
p22
F0.010372465818
sS'skeptic'
p23
F0.0083520179372199993
sS'AskSocialScience'
p24
F0.0093233507557600008
sS'DebateReligion'
p25
F0.0090553611854300008
sS'TumblrInAction'
p26
F0.0092541677284399999
sS'againstmensrights'
p27
F0.074126870990700006
sS'ShitAmericansSay'
p28
F0.0090925298627199998
sS'conspiratard'
p29
F0.0090047711847300003
sS'Anarchy101'
p30
F0.0086360929124500007
sS'AskFeminists'
p31
F0.059816590245899998
sS'MensRights'
p32
F0.033493162848499999
sS'TrollYChromosome'
p33
F0.0081120432642300001
sS'Anarchism'
p34
F0.0095440084835600007
sS'BasicIncome'
p35
F0.0125534188034
sS'DebateAnAtheist'
p36
F0.0076876695809500002
sS'EnoughLibertarianSpam'
p37
F0.0157339531557
sS'lostgeneration'
p38
F0.0101781170483
sS'ainbow'
p39
F0.0143377081725
sS'NeutralPolitics'
p40
F0.0112654900488
sS'SRSGaming'
p41
F0.012641898864799999
sS'RedPillWomen'
p42
F0.0155507559395
sS'short'
p43
F0.0071833126122399999
sS'TheoryOfReddit'
p44
F0.0128582494191
sS'progressive'
p45
F0.0093558282208600005
sS'GirlGamers'
p46
F0.0116476789662
sS'TheBluePill'
p47
F0.024871001032
sS'TheRedPill'
p48
F0.0076701093560099997
sS'PropagandaPosters'
p49
F0.0079220779220800005
sS'socialism'
p50
F0.0113574905354
sS'SubredditDrama'
p51
F0.011786970563399999
sS'Anarcho_Capitalism'
p52
F0.0099835436094300005
s.