(dp1
S'awwwtf'
p2
F0.0123943661972
sS'Heavymind'
p3
F0.0156289600406
sS'NoStupidQuestions'
p4
F0.011816137105200001
sS'DoesAnybodyElse'
p5
F0.0070231892941100002
sS'pettyrevenge'
p6
F0.0083198051948099993
sS'circlebroke'
p7
F0.0138945647732
sS'CityPorn'
p8
F0.0072547004413299997
sS'PanicHistory'
p9
F0.0084440969507400005
sS'LucidDreaming'
p10
F0.0091299994109700008
sS'fffffffuuuuuuuuuuuu'
p11
F0.0072332730560599997
sS'rickandmorty'
p12
F0.010398853815200001
sS'quotes'
p13
F0.0086131130251399998
sS'teslore'
p14
F0.0094974753546500004
sS'perfectloops'
p15
F0.0150134829823
sS'everymanshouldknow'
p16
F0.0089597351660600007
sS'dataisbeautiful'
p17
F0.0079138783823100006
sS'InternetIsBeautiful'
p18
F0.0081308367792599992
sS'ShitAmericansSay'
p19
F0.0076698319941600002
sS'MLPLounge'
p20
F0.0085668212053999996
sS'StonerPhilosophy'
p21
F0.0104097157347
sS'chemistry'
p22
F0.0071864111498300002
sS'TalesFromRetail'
p23
F0.0073789699356799996
sS'TheoryOfReddit'
p24
F0.015867731913000001
sS'badlinguistics'
p25
F0.0090630024850200004
sS'WouldYouRather'
p26
F0.010374594123700001
sS'quityourbullshit'
p27
F0.012688026174
sS'LearnUselessTalents'
p28
F0.0146407698211
sS'holdmybeer'
p29
F0.0090648072190300001
sS'writing'
p30
F0.0086534131120100007
sS'HistoryPorn'
p31
F0.0072360798373500004
sS'shittybattlestations'
p32
F0.0106588163638
sS'whowouldwin'
p33
F0.0119177813297
sS'woahdude'
p34
F0.0085721518545399996
sS'Fallout'
p35
F0.0074557315936599998
sS'ImaginaryMonsters'
p36
F0.015611448395500001
sS'dwarffortress'
p37
F0.012367872294499999
sS'adventuretime'
p38
F0.0095153559382199996
sS'MensRights'
p39
F0.0074010545708700004
sS'occult'
p40
F0.0123666893578
sS'Frisson'
p41
F0.0124120536307
sS'YouShouldKnow'
p42
F0.0094851676698200008
sS'shutupandtakemymoney'
p43
F0.0086914299587300004
sS'linguistics'
p44
F0.0095838140030200004
sS'whitepeoplegifs'
p45
F0.0093690905965300008
sS'howto'
p46
F0.0079684084338200005
sS'AbandonedPorn'
p47
F0.0095162569389399994
sS'patientgamers'
p48
F0.0094471116617600003
sS'geek'
p49
F0.0098846220079200006
sS'spaceporn'
p50
F0.0105829596413
sS'lostgeneration'
p51
F0.0071371927042000001
sS'3amjokes'
p52
F0.014189041693999999
sS'toosoon'
p53
F0.0124206952015
sS'magicskyfairy'
p54
F0.012585134735
sS'IndieGaming'
p55
F0.00811767578125
sS'Braveryjerk'
p56
F0.0140243902439
sS'photoshopbattles'
p57
F0.0091958070370299991
sS'IWantToLearn'
p58
F0.0094504216342000003
sS'Astronomy'
p59
F0.0078178747889199995
sS'creepyPMs'
p60
F0.0079653155878199999
sS'progressive'
p61
F0.0076687116564400004
sS'IdiotsFightingThings'
p62
F0.011390514129200001
sS'ConfusedBoners'
p63
F0.0098541203748400003
sS'techsupportgore'
p64
F0.0116489874638
sS'nononono'
p65
F0.0107999804525
sS'vexillology'
p66
F0.0128418190059
sS'NewsOfTheWeird'
p67
F0.010148849797
sS'shittyadviceanimals'
p68
F0.0126353790614
sS'futurama'
p69
F0.0093356153726499996
sS'dadjokes'
p70
F0.012021009025
sS'montageparodies'
p71
F0.0101508832188
sS'Cyberpunk'
p72
F0.0165429996351
sS'minimalism'
p73
F0.0095335376234300002
sS'DeepIntoYouTube'
p74
F0.020018302448
sS'ArcherFX'
p75
F0.0084117764870800006
sS'Psychonaut'
p76
F0.010167614637299999
sS'talesfromtechsupport'
p77
F0.0095922150139000004
sS'TrueAtheism'
p78
F0.011355443402999999
sS'whatisthisthing'
p79
F0.0098821122142900009
sS'shittyreactiongifs'
p80
F0.015421553236699999
sS'askphilosophy'
p81
F0.0082098875602399993
sS'polandball'
p82
F0.012394040585699999
sS'interestingasfuck'
p83
F0.010287366094199999
sS'MarkMyWords'
p84
F0.0135771378517
sS'changemyview'
p85
F0.01018
sS'fatpeoplestories'
p86
F0.0074937007101000003
sS'KarmaCourt'
p87
F0.0095455767679500005
sS'Foodforthought'
p88
F0.0099071593245699998
sS'Cinemagraphs'
p89
F0.010937927262800001
sS'firstworldanarchists'
p90
F0.018188206042900001
sS'offbeat'
p91
F0.010653365355
sS'no_sob_story'
p92
F0.0117457392906
sS'humor'
p93
F0.0080185428804100001
sS'psychology'
p94
F0.0082150320674499993
sS'space'
p95
F0.00731128735307
sS'skeptic'
p96
F0.012928279997999999
sS'shittyfoodporn'
p97
F0.0092016504027800008
sS'PixelArt'
p98
F0.0080362195812099992
sS'wikipedia'
p99
F0.0127994748933
sS'ExpectationVsReality'
p100
F0.010216832047
sS'socialskills'
p101
F0.0074925074925099996
sS'DebateReligion'
p102
F0.0080331061343699994
sS'firstworldproblems'
p103
F0.013318586110000001
sS'outside'
p104
F0.026612428935500001
sS'conlangs'
p105
F0.00871710526316
sS'DaystromInstitute'
p106
F0.0096380141208099995
sS'highdeas'
p107
F0.00892641737033
sS'tf2'
p108
F0.0077963046417300003
sS'SCP'
p109
F0.0187381404175
sS'CatsStandingUp'
p110
F0.00912829772294
sS'Enhancement'
p111
F0.0080691642651299997
sS'starbound'
p112
F0.0082770738925399996
sS'blackpeoplegifs'
p113
F0.0078074694140400002
sS'bestof'
p114
F0.0084569187400400005
sS'ProgrammerHumor'
p115
F0.011572638975000001
sS'needamod'
p116
F0.0070279079242199999
sS'casualiama'
p117
F0.0092322202673500008
sS'FloridaMan'
p118
F0.0146282245827
sS'delusionalartists'
p119
F0.0142627919415
sS'answers'
p120
F0.010339093341
sS'JonTron'
p121
F0.0083511361429400004
sS'NotTimAndEric'
p122
F0.0165092528603
sS'shittyaskscience'
p123
F0.0204554642232
sS'doctorwho'
p124
F0.00822528267002
sS'wallpaper'
p125
F0.0073492567228999996
sS'lewronggeneration'
p126
F0.0137337160521
sS'worldbuilding'
p127
F0.016001620417300001
sS'WritingPrompts'
p128
F0.0081224350205199997
sS'PoliticalHumor'
p129
F0.0077377316228900003
sS'RedditDayOf'
p130
F0.010854816825
sS'TheBluePill'
p131
F0.012098725600899999
sS'math'
p132
F0.0095262951846500007
sS'4chan'
p133
F0.0097676933822999999
sS'howtonotgiveafuck'
p134
F0.0077613669273100001
sS'sixwordstories'
p135
F0.017711005252199999
sS'AnimalsBeingBros'
p136
F0.0093299406276499998
sS'classic4chan'
p137
F0.0171090925126
sS'whatstheword'
p138
F0.010802796017799999
sS'ANormalDayInRussia'
p139
F0.0140160976964
sS'INTP'
p140
F0.0072477409638600004
sS'HalfLife'
p141
F0.0078466539625600008
sS'QuotesPorn'
p142
F0.0098369372562900001
sS'circlebroke2'
p143
F0.0076935406315100001
sS'TrueReddit'
p144
F0.0098429470941600004
sS'misc'
p145
F0.0099032972154300004
sS'AntiJokes'
p146
F0.0195961404556
sS'printSF'
p147
F0.00728232189974
sS'PropagandaPosters'
p148
F0.013278656512400001
sS'rant'
p149
F0.0077011305915100003
sS'conspiratard'
p150
F0.018249018249
sS'marijuanaenthusiasts'
p151
F0.0092446174431299998
sS'rpg'
p152
F0.0096862864871900007
sS'ainbow'
p153
F0.0093122597180700008
sS'homestuck'
p154
F0.0116009280742
sS'badhistory'
p155
F0.0138302277433
sS'Damnthatsinteresting'
p156
F0.0090932709794799994
sS'DnD'
p157
F0.0073377960865100003
sS'FiftyFifty'
p158
F0.0095596678148900001
sS'CrazyIdeas'
p159
F0.0182049245433
sS'AskHistorians'
p160
F0.0091860655290800005
sS'Bad_Cop_No_Donut'
p161
F0.0075025832247599998
sS'OutOfTheLoop'
p162
F0.0145894027677
sS'Whatcouldgowrong'
p163
F0.0095953039453599998
sS'onetruegod'
p164
F0.016470805959099999
sS'TheFacebookDelusion'
p165
F0.0080990396852900007
sS'urbanexploration'
p166
F0.0072573839662400004
sS'MorbidReality'
p167
F0.0083120048750799994
sS'SubredditDrama'
p168
F0.0117971054122
sS'wheredidthesodago'
p169
F0.017587548638100001
sS'PenmanshipPorn'
p170
F0.0079062464954599999
sS'ifyoulikeblank'
p171
F0.0088458298230799995
sS'misleadingthumbnails'
p172
F0.017205682872799999
sS'shittyadvice'
p173
F0.0158605664488
sS'MeanJokes'
p174
F0.0079806783576600003
sS'Portal'
p175
F0.0094597958675599995
sS'Pareidolia'
p176
F0.016616928920199999
sS'ObscureMedia'
p177
F0.0072645290581199997
sS'TrollYChromosome'
p178
F0.0072208524128200002
sS'explainlikeIAmA'
p179
F0.021307982297999999
sS'alternativeart'
p180
F0.0107930015905
sS'Unexpected'
p181
F0.011375080484100001
sS'shortscarystories'
p182
F0.0074222333416699999
sS'occupywallstreet'
p183
F0.0076602607176499997
sS'WebGames'
p184
F0.0098692534795399994
sS'mildlyinfuriating'
p185
F0.0099383086414099996
sS'ftlgame'
p186
F0.0091529630778799994
sS'roguelikes'
p187
F0.00753608379103
sS'youtubehaiku'
p188
F0.0102186490345
sS'Awwducational'
p189
F0.011417104899
sS'skyrim'
p190
F0.0079939344991800006
sS'shittyaskreddit'
p191
F0.015800841195900001
sS'NeutralPolitics'
p192
F0.0090783003404400001
sS'blunderyears'
p193
F0.0089934762348599998
sS'KillLaKill'
p194
F0.0071011919858000004
sS'webcomics'
p195
F0.010749385749400001
sS'calvinandhobbes'
p196
F0.0088409512863599996
sS'rage'
p197
F0.0091090236265300006
sS'worldpolitics'
p198
F0.0078964978808799997
sS'Perfectfit'
p199
F0.0125165271045
sS'PerfectTiming'
p200
F0.0092547961052700002
sS'behindthegifs'
p201
F0.013471449711699999
sS'standupshots'
p202
F0.0092362886912700001
sS'socialism'
p203
F0.0088218139399200007
sS'findareddit'
p204
F0.0124857251618
sS'KerbalSpaceProgram'
p205
F0.0079259489908600003
sS'Glitch_in_the_Matrix'
p206
F0.014074772227500001
sS'ICanDrawThat'
p207
F0.0080202617138000008
sS'fullmoviesonyoutube'
p208
F0.0072599762939500002
sS'gallifrey'
p209
F0.0097671410090599993
sS'AskScienceFiction'
p210
F0.017389836231599998
sS'NewsOfTheStupid'
p211
F0.0092114959469400005
sS'badphilosophy'
p212
F0.010550520762900001
sS'awesome'
p213
F0.0083030617540199997
sS'TrueAskReddit'
p214
F0.010905715832599999
sS'FanTheories'
p215
F0.012940782310100001
sS'crappymusic'
p216
F0.0072827125119400002
sS'TheWayWeWere'
p217
F0.0075523880438299997
sS'Infographics'
p218
F0.0078526125037800005
sS'BasicIncome'
p219
F0.0089029577604100001
sS'counting'
p220
F0.0114240865091
sS'ShitRedditSays'
p221
F0.0077239112571900002
sS'SRSsucks'
p222
F0.0103105001185
sS'DAE'
p223
F0.00913087588772
sS'techsupportmacgyver'
p224
F0.0113962518994
sS'MURICA'
p225
F0.0076493838642200003
sS'HighQualityGifs'
p226
F0.0091470386462400004
sS'glitch_art'
p227
F0.017310534093299999
sS'softwaregore'
p228
F0.0193377725075
sS'self'
p229
F0.0092042580720999995
sS'shittyama'
p230
F0.017198167833399999
sS'AskSocialScience'
p231
F0.0080545229244099997
sS'ImaginaryLandscapes'
p232
F0.011604599641299999
sS'comics'
p233
F0.011515358182700001
sS'FutureWhatIf'
p234
F0.0096165550821700006
sS'scifi'
p235
F0.0111475188326
sS'britishproblems'
p236
F0.0080176181136199995
sS'nottheonion'
p237
F0.0084028625695300001
sS'nonononoyes'
p238
F0.0119176977812
sS'Frugal_Jerk'
p239
F0.015297518670199999
sS'Dreams'
p240
F0.0076536440484399997
sS'wallpapers'
p241
F0.0074262200218599998
sS'firefly'
p242
F0.0085335882031699999
sS'mylittlepony'
p243
F0.010077951002200001
sS'notinteresting'
p244
F0.018700862529600001
sS'facepalm'
p245
F0.0080427197824700005
sS'forwardsfromgrandma'
p246
F0.018216045623199999
sS'AnimalsBeingJerks'
p247
F0.0092218806710899996
sS'askscience'
p248
F0.0075987463933900002
sS'Futurology'
p249
F0.0087535628892199992
sS'CrappyDesign'
p250
F0.0140194714882
sS'philosophy'
p251
F0.0074024674891600001
sS'EnoughLibertarianSpam'
p252
F0.0074056088381699997
sS'GamePhysics'
p253
F0.0160092213115
sS'Physics'
p254
F0.0080660649126199999
sS'startrek'
p255
F0.0078975916684700005
sS'truegaming'
p256
F0.0093876549269800002
sS'oddlysatisfying'
p257
F0.010295546995900001
sS'MapPorn'
p258
F0.0082421814820500001
sS'MachinePorn'
p259
F0.0095945818831700003
sS'HumanPorn'
p260
F0.00818517276082
sS'terriblefacebookmemes'
p261
F0.013182498130099999
sS'TumblrInAction'
p262
F0.011233328571600001
sS'thatHappened'
p263
F0.0117928990351
sS'HailCorporate'
p264
F0.015148814828
sS'ImGoingToHellForThis'
p265
F0.0075476992143699998
sS'GifSound'
p266
F0.0085957815660200002
s.