(dp1
S'Shitty_Car_Mods'
p2
F0.010663326102199999
sS'uglyduckling'
p3
F0.0097030714233600004
sS'AndroidGaming'
p4
F0.0110238329019
sS'KitchenConfidential'
p5
F0.0079051383399199992
sS'BuyItForLife'
p6
F0.0159462441079
sS'SampleSize'
p7
F0.014427412083
sS'everymanshouldknow'
p8
F0.018216833996299999
sS'askphilosophy'
p9
F0.0086498439125899992
sS'RandomActsOfGaming'
p10
F0.011597258829700001
sS'AskMen'
p11
F0.0133738336138
sS'Showerthoughts'
p12
F0.012140270217500001
sS'duolingo'
p13
F0.0092628629252000001
sS'HistoryPorn'
p14
F0.0131772480909
sS'picrequests'
p15
F0.0119198579762
sS'holdmybeer'
p16
F0.016188763093900001
sS'ImaginaryMonsters'
p17
F0.012006861063499999
sS'circlebroke'
p18
F0.013974491975300001
sS'YouShouldKnow'
p19
F0.023994509938500001
sS'skyrimmods'
p20
F0.00768424729305
sS'horror'
p21
F0.0080669513825999996
sS'UpliftingNews'
p22
F0.0116402616107
sS'PandR'
p23
F0.00832147158655
sS'Jokes'
p24
F0.0104637150107
sS'inthenews'
p25
F0.0092763064721700008
sS'3amjokes'
p26
F0.015644979315500001
sS'Military'
p27
F0.0073133710500899998
sS'magicskyfairy'
p28
F0.0071090047393400002
sS'Steam'
p29
F0.0091493538990600008
sS'AlienBlue'
p30
F0.0098912455095700007
sS'photoshopbattles'
p31
F0.0134129701619
sS'IWantToLearn'
p32
F0.026313632264900001
sS'Celebs'
p33
F0.0070340327456699997
sS'beermoney'
p34
F0.0112016293279
sS'CrappyDesign'
p35
F0.020912833902400001
sS'NewsOfTheWeird'
p36
F0.0116097730029
sS'math'
p37
F0.0098707229936299996
sS'techsupport'
p38
F0.013559748076400001
sS'Libertarian'
p39
F0.0080914911917399999
sS'spiders'
p40
F0.00726360274696
sS'Whatisthis'
p41
F0.011363636363600001
sS'pcgaming'
p42
F0.0085103618527899993
sS'EatCheapAndHealthy'
p43
F0.014111310592500001
sS'tea'
p44
F0.0081239917031599995
sS'redditgetsdrawn'
p45
F0.010756480338599999
sS'polandball'
p46
F0.010917833404
sS'POLITIC'
p47
F0.0073364276089199999
sS'MechanicAdvice'
p48
F0.0089941173610800004
sS'AmISexy'
p49
F0.0079618616995099992
sS'fatpeoplestories'
p50
F0.0099555606856400001
sS'OneY'
p51
F0.0099603143724200007
sS'depression'
p52
F0.0098065050444200007
sS'forwardsfromgrandma'
p53
F0.018705489948599999
sS'no_sob_story'
p54
F0.014202106906
sS'Design'
p55
F0.0088186839810099997
sS'Glitch_in_the_Matrix'
p56
F0.0153170683031
sS'skeptic'
p57
F0.0139320150351
sS'InteriorDesign'
p58
F0.0092460033404899999
sS'socialskills'
p59
F0.019229965302499999
sS'DebateReligion'
p60
F0.0090997330745000004
sS'Anticonsumption'
p61
F0.0079311508606099996
sS'GuessTheMovie'
p62
F0.012189875233000001
sS'vexillology'
p63
F0.012702609495300001
sS'tattoos'
p64
F0.0079432242181800006
sS'ExposurePorn'
p65
F0.00734530938124
sS'needamod'
p66
F0.019746835442999999
sS'LetsNotMeet'
p67
F0.010166528659500001
sS'legaladvice'
p68
F0.010577628434199999
sS'malelivingspace'
p69
F0.0080723911203700004
sS'AskElectronics'
p70
F0.0076511612160599998
sS'lgbt'
p71
F0.0089223233030100001
sS'Random_Acts_Of_Pizza'
p72
F0.0092748735244500002
sS'gentlemanboners'
p73
F0.0082714586306100006
sS'doctorwho'
p74
F0.0094586131686400007
sS'WritingPrompts'
p75
F0.011115157891900001
sS'ThriftStoreHauls'
p76
F0.012628650904
sS'environment'
p77
F0.0076381044591499999
sS'creepy'
p78
F0.0085252517772499998
sS'learnart'
p79
F0.0073572938689200002
sS'IWantOut'
p80
F0.014047099097
sS'whatsthisbug'
p81
F0.012421845886299999
sS'QuotesPorn'
p82
F0.0154569386988
sS'firefox'
p83
F0.0071528648329800002
sS'apple'
p84
F0.0071327111939299996
sS'TrueReddit'
p85
F0.0146906592075
sS'Assistance'
p86
F0.012760348009499999
sS'AmIFreeToGo'
p87
F0.0075282308657499998
sS'AntiJokes'
p88
F0.015091955636700001
sS'KingOfTheHill'
p89
F0.0073291827567200001
sS'IdiotsFightingThings'
p90
F0.015989671268200001
sS'Health'
p91
F0.0073199297286700004
sS'gamernews'
p92
F0.0079740623904700006
sS'ContagiousLaughter'
p93
F0.0130703422053
sS'HIMYM'
p94
F0.0078586081742100002
sS'FiftyFifty'
p95
F0.0149765689164
sS'AskHistorians'
p96
F0.0142916881903
sS'Drugs'
p97
F0.0079703024347600009
sS'OutOfTheLoop'
p98
F0.034235685667599998
sS'stopsmoking'
p99
F0.0071416708188000002
sS'ifyoulikeblank'
p100
F0.031724952043700003
sS'firstimpression'
p101
F0.0139738999885
sS'WebGames'
p102
F0.012070043777399999
sS'Pareidolia'
p103
F0.018405558797
sS'tipofmytongue'
p104
F0.024804463162499998
sS'FreeKarma'
p105
F0.010013926653000001
sS'cordcutters'
p106
F0.0110816866979
sS'LifeProTips'
p107
F0.0130847645137
sS'TheGirlSurvivalGuide'
p108
F0.0108023861987
sS'FanTheories'
p109
F0.018214413768399999
sS'ghettoglamourshots'
p110
F0.0110916110916
sS'popping'
p111
F0.0093421865348999999
sS'EDC'
p112
F0.0093720712277399996
sS'showerbeer'
p113
F0.0070740416357900002
sS'techsupportgore'
p114
F0.0129118136439
sS'science'
p115
F0.0086462257296500006
sS'firstworldproblems'
p116
F0.0152683588452
sS'Entrepreneur'
p117
F0.0087900581411400006
sS'standupshots'
p118
F0.0148650885615
sS'Meditation'
p119
F0.0093932713505200001
sS'history'
p120
F0.0091931721063499994
sS'TalesFromThePizzaGuy'
p121
F0.010122654056499999
sS'AskScienceFiction'
p122
F0.017251608780999999
sS'NewsOfTheStupid'
p123
F0.0142822166
sS'awesome'
p124
F0.013610888711
sS'DecidingToBeBetter'
p125
F0.015324780867200001
sS'gadgets'
p126
F0.0079921480650600001
sS'learnprogramming'
p127
F0.011754462342199999
sS'Infographics'
p128
F0.0141186537365
sS'TalesFromYourServer'
p129
F0.0113712374582
sS'counting'
p130
F0.011776
sS'SRSsucks'
p131
F0.0080734525882500009
sS'HouseOfCards'
p132
F0.0092088134612600004
sS'asmr'
p133
F0.0083036257716700007
sS'techsupportmacgyver'
p134
F0.0126328955597
sS'MURICA'
p135
F0.0108633261762
sS'travel'
p136
F0.0089848775652199998
sS'scifi'
p137
F0.010356868083100001
sS'RedditLaqueristas'
p138
F0.0078897136797500007
sS'spaceporn'
p139
F0.0119829362987
sS'nyc'
p140
F0.0070753088976299996
sS'Pizza'
p141
F0.0081279999999999998
sS'Dreams'
p142
F0.0103108768122
sS'wheredidthesodago'
p143
F0.018448327910599999
sS'BasicIncome'
p144
F0.0093863827402599995
sS'GiftofGames'
p145
F0.0093803841490699997
sS'askscience'
p146
F0.0109720657138
sS'philosophy'
p147
F0.0076105728419600003
sS'budgetfood'
p148
F0.0105081230557
sS'Images'
p149
F0.0101045055021
sS'MachinePorn'
p150
F0.0087754826515500008
sS'dating_advice'
p151
F0.0079354582727200005
sS'eFreebies'
p152
F0.011377427184499999
sS'listentothis'
p153
F0.0094999999999999998
sS'crafts'
p154
F0.010159456368200001
sS'tall'
p155
F0.0097173894593899999
sS'ImGoingToHellForThis'
p156
F0.012221911570899999
sS'needadvice'
p157
F0.018583450210400001
sS'photoshop'
p158
F0.0079796880667399993
sS'help'
p159
F0.018371941035500002
sS'DoesAnybodyElse'
p160
F0.0204358398803
sS'pettyrevenge'
p161
F0.016977015273299999
sS'malehairadvice'
p162
F0.0104548540394
sS'CityPorn'
p163
F0.0097726173197900008
sS'thatHappened'
p164
F0.017099663836199999
sS'DeepIntoYouTube'
p165
F0.020743621799300001
sS'dataisbeautiful'
p166
F0.013151183468699999
sS'spotify'
p167
F0.0084733893557399995
sS'beards'
p168
F0.0093085493207700001
sS'nostalgia'
p169
F0.0154496153361
sS'Documentaries'
p170
F0.0104168679821
sS'writing'
p171
F0.0118925685672
sS'AndroidQuestions'
p172
F0.0144321093083
sS'StonerEngineering'
p173
F0.0074988972209999996
sS'Bioshock'
p174
F0.00741813966966
sS'wallpaper'
p175
F0.0106825663002
sS'Gore'
p176
F0.0086192231358099992
sS'MensRights'
p177
F0.0105198019802
sS'MilitaryPorn'
p178
F0.0082485148889500006
sS'Frisson'
p179
F0.016449945166800001
sS'childfree'
p180
F0.010937684758200001
sS'food'
p181
F0.00710876409059
sS'NoStupidQuestions'
p182
F0.045521589495900003
sS'IndieGaming'
p183
F0.0088581719069400003
sS'Braveryjerk'
p184
F0.0086970526654900002
sS'grammar'
p185
F0.010380622837400001
sS'creepyPMs'
p186
F0.014354350791900001
sS'penpals'
p187
F0.0074041538558100002
sS'freebies'
p188
F0.014923310764100001
sS'PropagandaPosters'
p189
F0.012421929215799999
sS'mashups'
p190
F0.0081148145664299998
sS'SubredditDrama'
p191
F0.018084661662300001
sS'minimalism'
p192
F0.0137558072009
sS'wallpapers'
p193
F0.0133120492574
sS'aspergers'
p194
F0.0074118892754500001
sS'mildlyinteresting'
p195
F0.0096711729350900007
sS'MakeNewFriendsHere'
p196
F0.0083340142168500005
sS'TrueAtheism'
p197
F0.0111960021143
sS'badhistory'
p198
F0.0104403365473
sS'DoctorWhumour'
p199
F0.0070243737305299998
sS'ADHD'
p200
F0.0077202120733000004
sS'Rateme'
p201
F0.0084867735371499994
sS'books'
p202
F0.00783233995067
sS'malegrooming'
p203
F0.0080467136651699994
sS'Cinemagraphs'
p204
F0.0115018508726
sS'DunderMifflin'
p205
F0.010628787126300001
sS'psychology'
p206
F0.012628650904
sS'space'
p207
F0.0091315906801599997
sS'shittyfoodporn'
p208
F0.0133649618144
sS'malefashionadvice'
p209
F0.0082059550016000005
sS'LearnUselessTalents'
p210
F0.023240244835499999
sS'RoomPorn'
p211
F0.011679552558
sS'highdeas'
p212
F0.0092295345104299997
sS'memes'
p213
F0.0073280038759700001
sS'Astronomy'
p214
F0.0085847558555000002
sS'CatsStandingUp'
p215
F0.0086225174924000007
sS'LetsTalkMusic'
p216
F0.0074200913242000004
sS'bestof'
p217
F0.013337664383000001
sS'Cyberpunk'
p218
F0.0105278408268
sS'LadyBoners'
p219
F0.0074169063875499999
sS'Roadcam'
p220
F0.0088845654993499994
sS'GamePhysics'
p221
F0.0146048109966
sS'youtubehaiku'
p222
F0.0123693890173
sS'PoliticalHumor'
p223
F0.00771373473323
sS'recipes'
p224
F0.010890738445200001
sS'headphones'
p225
F0.0075741783058899999
sS'howtonotgiveafuck'
p226
F0.0165106543111
sS'resumes'
p227
F0.0075684499517700001
sS'whatstheword'
p228
F0.0308003597122
sS'classicalmusic'
p229
F0.0073949377742999998
sS'misc'
p230
F0.015774114677799999
sS'patientgamers'
p231
F0.014730999146
sS'rant'
p232
F0.0180663460353
sS'Buddhism'
p233
F0.0070059637542700002
sS'tf2'
p234
F0.00712066020456
sS'OldSchoolCool'
p235
F0.0090483915140999998
sS'lego'
p236
F0.0091540295001599995
sS'ANormalDayInRussia'
p237
F0.0134043927649
sS'seduction'
p238
F0.0078127320797299997
sS'onetruegod'
p239
F0.0088295824205000002
sS'TheFacebookDelusion'
p240
F0.0095297609748499993
sS'PenmanshipPorn'
p241
F0.013614766081899999
sS'shittyreactiongifs'
p242
F0.0141380460153
sS'alternativeart'
p243
F0.011341717460099999
sS'shittyadvice'
p244
F0.015422025980699999
sS'MeanJokes'
p245
F0.012314909837300001
sS'explainlikeimfive'
p246
F0.0096842458017400001
sS'dogs'
p247
F0.0090584111338600001
sS'ObscureMedia'
p248
F0.0102234314453
sS'CombatFootage'
p249
F0.0083153834593999998
sS'nutrition'
p250
F0.0074640562863299998
sS'TrollYChromosome'
p251
F0.011263606246999999
sS'mildlyinfuriating'
p252
F0.019423001152800001
sS'DumpsterDiving'
p253
F0.0080048725311099994
sS'Awwducational'
p254
F0.014548981571299999
sS'skyrim'
p255
F0.0093574836707300008
sS'learnpython'
p256
F0.0076713041217000002
sS'television'
p257
F0.0076515597410200002
sS'worldpolitics'
p258
F0.0097573839662399992
sS'Justrolledintotheshop'
p259
F0.0092814970479299999
sS'PerfectTiming'
p260
F0.0169429842297
sS'hacking'
p261
F0.0097771714415599998
sS'KerbalSpaceProgram'
p262
F0.0075659809205700004
sS'torrents'
p263
F0.0090215588723099992
sS'gallifrey'
p264
F0.0089072122970399997
sS'FoodPorn'
p265
F0.0085707517712200008
sS'bisexual'
p266
F0.0071782005714699998
sS'teenagers'
p267
F0.010800309521099999
sS'conspiracy'
p268
F0.0108154068532
sS'AnythingGoesNews'
p269
F0.0088026664387700002
sS'HighQualityGifs'
p270
F0.0122396890771
sS'self'
p271
F0.024734042553200001
sS'HomeworkHelp'
p272
F0.00916420161244
sS'Parenting'
p273
F0.0085666647501900003
sS'britishproblems'
p274
F0.0109833740684
sS'UnresolvedMysteries'
p275
F0.011743907059000001
sS'conspiratard'
p276
F0.016000744220700001
sS'startrek'
p277
F0.0096037090186600008
sS'FutureWhatIf'
p278
F0.013371150729300001
sS'getdisciplined'
p279
F0.012300004804699999
sS'MovieSuggestions'
p280
F0.0142819006941
sS'RandomKindness'
p281
F0.014041514041499999
sS'Futurology'
p282
F0.010659287160200001
sS'sewing'
p283
F0.0077472784345199996
sS'translator'
p284
F0.0098304601795099998
sS'germany'
p285
F0.00761916372059
sS'INTP'
p286
F0.0070232306861200003
sS'progresspics'
p287
F0.0077290779804499998
sS'Gaming4Gamers'
p288
F0.010635119794500001
sS'Minecraft'
p289
F0.0087758059046600008
sS'windows'
p290
F0.0079013729335900007
sS'TumblrInAction'
p291
F0.012695866748899999
sS'secretsanta'
p292
F0.0100822087793
sS'HailCorporate'
p293
F0.0140378241373
sS'IDAP'
p294
F0.0077114427860699997
sS'Heavymind'
p295
F0.011464888778100001
sS'Psychonaut'
p296
F0.0086826471687899993
sS'adventuretime'
p297
F0.0085269401878400007
sS'LucidDreaming'
p298
F0.012572350317899999
sS'fffffffuuuuuuuuuuuu'
p299
F0.0095165948582000004
sS'PoliticalDiscussion'
p300
F0.010130605353299999
sS'Foodforthought'
p301
F0.0155169841349
sS'StonerPhilosophy'
p302
F0.0081286899974299994
sS'languagelearning'
p303
F0.0127930501012
sS'TheoryOfReddit'
p304
F0.0226472838562
sS'TheBluePill'
p305
F0.0092135372756800005
sS'learnmath'
p306
F0.0084336529959900004
sS'harrypotter'
p307
F0.0100824449929
sS'wicked_edge'
p308
F0.0073787924823099996
sS'booksuggestions'
p309
F0.015910132966499999
sS'shittybattlestations'
p310
F0.0081838884144599996
sS'whowouldwin'
p311
F0.015728581150899999
sS'GrandTheftAutoV'
p312
F0.0082778945543599998
sS'Anxiety'
p313
F0.0103944662554
sS'arresteddevelopment'
p314
F0.0081753348408399994
sS'shutupandtakemymoney'
p315
F0.013302510443299999
sS'webcomics'
p316
F0.0089547961888400002
sS'photography'
p317
F0.0072894232362199999
sS'JusticePorn'
p318
F0.0119809901623
sS'geek'
p319
F0.010760790933199999
sS'lostgeneration'
p320
F0.0076426868601900001
sS'Conservative'
p321
F0.0077049565421699997
sS'PrettyGirlsUglyFaces'
p322
F0.0087683798731999999
sS'AskGames'
p323
F0.0113481228669
sS'AbandonedPorn'
p324
F0.0134000188733
sS'dadjokes'
p325
F0.018681637789200001
sS'WeAreTheMusicMakers'
p326
F0.0086126977481400004
sS'privacy'
p327
F0.0095299420476499998
sS'futurama'
p328
F0.0122295390405
sS'whitepeoplegifs'
p329
F0.0116035761841
sS'cringe'
p330
F0.011438162779800001
sS'StarWars'
p331
F0.0083366076157000008
sS'AskWomen'
p332
F0.0133038807169
sS'TheSimpsons'
p333
F0.010691573926900001
sS'Christianity'
p334
F0.0086125900407099994
sS'see'
p335
F0.0078299776286399995
sS'AskScienceDiscussion'
p336
F0.0087461300309599997
sS'college'
p337
F0.0092439372325200005
sS'changemyview'
p338
F0.019792016102000001
sS'PS3'
p339
F0.0074981859227599996
sS'Android'
p340
F0.00860459822445
sS'KarmaCourt'
p341
F0.00947459086994
sS'firstworldanarchists'
p342
F0.018603633180099999
sS'nononono'
p343
F0.0181171274333
sS'cosplay'
p344
F0.00741679400693
sS'truegaming'
p345
F0.0120807199346
sS'camping'
p346
F0.0074764064223599999
sS'wikipedia'
p347
F0.0150836961187
sS'breakingbad'
p348
F0.0120590495879
sS'outside'
p349
F0.019781110660699999
sS'AskCulinary'
p350
F0.0124678785572
sS'foodhacks'
p351
F0.0130198691843
sS'europe'
p352
F0.0092239185750600007
sS'StandUpComedy'
p353
F0.0074153208068899997
sS'jobs'
p354
F0.0128236658118
sS'linguistics'
p355
F0.0101743244119
sS'casualiama'
p356
F0.025178562252700001
sS'facepalm'
p357
F0.0153496919252
sS'NotTimAndEric'
p358
F0.012005567799600001
sS'answers'
p359
F0.026589138534500002
sS'gamingsuggestions'
p360
F0.016345696623900001
sS'Unexpected'
p361
F0.019543415971100001
sS'RedditDayOf'
p362
F0.015715225495199998
sS'relationship_advice'
p363
F0.0086407307589400004
sS'watchpeopledie'
p364
F0.010314286782
sS'Sherlock'
p365
F0.0080106176233600002
sS'Cartalk'
p366
F0.0075460122699400004
sS'GetMotivated'
p367
F0.0096009371737099999
sS'drunk'
p368
F0.0112747772322
sS'AppHookup'
p369
F0.0071076011846000001
sS'reactiongifs'
p370
F0.011593937451299999
sS'community'
p371
F0.0093287960572599991
sS'MMFB'
p372
F0.013606531134900001
sS'EarthPorn'
p373
F0.0073832728381300001
sS'femalefashionadvice'
p374
F0.00828729281768
sS'ainbow'
p375
F0.010085092972
sS'chrome'
p376
F0.0114456035768
sS'Guitar'
p377
F0.0074282090769099999
sS'Portal'
p378
F0.0090082712308599995
sS'crappymusic'
p379
F0.0086928782199500003
sS'HomeImprovement'
p380
F0.0082308869308299996
sS'web_design'
p381
F0.0077662844112500002
sS'confessions'
p382
F0.0114632967337
sS'GTA'
p383
F0.0073044146857200003
sS'fatlogic'
p384
F0.011031830373
sS'androidapps'
p385
F0.0148504496967
sS'somethingimade'
p386
F0.016557734204800001
sS'MapPorn'
p387
F0.0137455197133
sS'shittyaskreddit'
p388
F0.015369168983600001
sS'sex'
p389
F0.0086124185030999993
sS'Flipping'
p390
F0.0075654307524499996
sS'Perfectfit'
p391
F0.015854526629099999
sS'offbeat'
p392
F0.015408658459700001
sS'softwaregore'
p393
F0.015979926043300001
sS'socialism'
p394
F0.0076489308246299997
sS'Ask_Politics'
p395
F0.0087375469541099999
sS'Needafriend'
p396
F0.0091569101968700002
sS'ICanDrawThat'
p397
F0.0157222816175
sS'Cooking'
p398
F0.010800394371199999
sS'IASIP'
p399
F0.0085787959932600005
sS'bigboobproblems'
p400
F0.0072227399813599999
sS'DIY'
p401
F0.0091738717385299994
sS'technology'
p402
F0.0076088364747899997
sS'southpark'
p403
F0.0097713628815899994
sS'productivity'
p404
F0.0086843909499500008
sS'selfimprovement'
p405
F0.0095597872176399999
sS'daddit'
p406
F0.0080557958477499997
sS'itookapicture'
p407
F0.013302386808500001
sS'Whatcouldgowrong'
p408
F0.018388813896
sS'fifthworldproblems'
p409
F0.0124857251618
sS'talesfromtechsupport'
p410
F0.012458418967299999
sS'Anarchism'
p411
F0.0070222988789000003
sS'notinteresting'
p412
F0.021620549439700001
sS'AnimalsBeingJerks'
p413
F0.0149037065712
sS'AskUK'
p414
F0.0092673037938000007
sS'Physics'
p415
F0.0084891359272400001
sS'thesims'
p416
F0.0077051433058500001
sS'TrueFilm'
p417
F0.0084913846535300003
sS'HumanPorn'
p418
F0.016216787280099999
sS'AskEngineers'
p419
F0.0092857528478100006
sS'drawing'
p420
F0.0090461352899800004
sS'GifSound'
p421
F0.0073162620552000004
sS'FancyFollicles'
p422
F0.010509358699
sS'awwwtf'
p423
F0.0155107017069
sS'Piracy'
p424
F0.0090389096815199996
sS'AskSocialScience'
p425
F0.0109977570364
sS'PublicFreakout'
p426
F0.0124959428757
sS'ArtisanVideos'
p427
F0.0092655476860399998
sS'rickandmorty'
p428
F0.0074574961360100002
sS'quotes'
p429
F0.0133066339384
sS'woodworking'
p430
F0.0083878211478800001
sS'perfectloops'
p431
F0.01973351324
sS'Pets'
p432
F0.0098408592475999999
sS'InternetIsBeautiful'
p433
F0.018053352135800001
sS'TalesFromRetail'
p434
F0.014251943446799999
sS'WouldYouRather'
p435
F0.0207531280077
sS'quityourbullshit'
p436
F0.022176165803100001
sS'Advice'
p437
F0.0158089083776
sS'ProtectAndServe'
p438
F0.0090399147002899992
sS'woahdude'
p439
F0.014039901094100001
sS'Fallout'
p440
F0.0091842952903299999
sS'offmychest'
p441
F0.0151655637551
sS'confession'
p442
F0.014822305692
sS'slowcooking'
p443
F0.011070602880999999
sS'howto'
p444
F0.016534827510399999
sS'cringepics'
p445
F0.0111692341938
sS'toosoon'
p446
F0.0118497298001
sS'bodyweightfitness'
p447
F0.0070117925602100001
sS'thewalkingdead'
p448
F0.0078033814652999998
sS'Art'
p449
F0.0071143906843500002
sS'ConfusedBoners'
p450
F0.011101151485900001
sS'Paranormal'
p451
F0.0078696463703800002
sS'WatchItForThePlot'
p452
F0.010358262852800001
sS'montageparodies'
p453
F0.0095383026712699999
sS'ArcherFX'
p454
F0.0094515607511499993
sS'google'
p455
F0.0101410420795
sS'gardening'
p456
F0.0093340962735099994
sS'whatisthisthing'
p457
F0.022447797068499999
sS'glitch_art'
p458
F0.010728360823200001
sS'NetflixBestOf'
p459
F0.014026825022999999
sS'ShouldIbuythisgame'
p460
F0.014045188868499999
sS'tumblr'
p461
F0.0134973583741
sS'interestingasfuck'
p462
F0.018847379461599999
sS'MarkMyWords'
p463
F0.022316684378299999
sS'raspberry_pi'
p464
F0.0078531461666799997
sS'Coffee'
p465
F0.0083589285020000004
sS'humor'
p466
F0.0113075965131
sS'4chan'
p467
F0.011741113303400001
sS'AMA'
p468
F0.0127763731239
sS'SkincareAddiction'
p469
F0.0085446317971499992
sS'ExpectationVsReality'
p470
F0.019243869209800001
sS'nonononoyes'
p471
F0.018723823601899999
sS'lifehacks'
p472
F0.017366322198900001
sS'SCP'
p473
F0.0070804814727400004
sS'Enhancement'
p474
F0.0184928660479
sS'blackpeoplegifs'
p475
F0.01118027437
sS'ProgrammerHumor'
p476
F0.0110492541753
sS'FloridaMan'
p477
F0.0155287038385
sS'delusionalartists'
p478
F0.0177939347556
sS'OkCupid'
p479
F0.0086648904014499997
sS'Frugal'
p480
F0.0137909181087
sS'promos'
p481
F0.011545526108599999
sS'SuggestALaptop'
p482
F0.0076356329537800001
sS'shittyaskscience'
p483
F0.017754771292399999
sS'whatsthisplant'
p484
F0.0100411323494
sS'lewronggeneration'
p485
F0.0155508205301
sS'worldbuilding'
p486
F0.01320496633
sS'csshelp'
p487
F0.012003941592800001
sS'calvinandhobbes'
p488
F0.0094991922455599995
sS'netflix'
p489
F0.011801457827099999
sS'PickAnAndroidForMe'
p490
F0.0074688115561400001
sS'sixwordstories'
p491
F0.011858664085199999
sS'AnimalsBeingBros'
p492
F0.013909638864599999
sS'classic4chan'
p493
F0.0152179520248
sS'Games'
p494
F0.0075251413361199998
sS'GameDeals'
p495
F0.0079946473605699998
sS'battlestations'
p496
F0.0078368636345200002
sS'NSFWFunny'
p497
F0.0095844630808999999
sS'software'
p498
F0.0083412599692699995
sS'amiugly'
p499
F0.0104279582014
sS'ShitAmericansSay'
p500
F0.0075843149911200003
sS'applehelp'
p501
F0.0085474212864599993
sS'gamemusic'
p502
F0.0077151755379400002
sS'intj'
p503
F0.0074430823117299996
sS'Animesuggest'
p504
F0.0077813802686400001
sS'marijuanaenthusiasts'
p505
F0.010094484373700001
sS'TrollXChromosomes'
p506
F0.0097303131795700003
sS'tifu'
p507
F0.010164914034199999
sS'unitedkingdom'
p508
F0.0088236789910000005
sS'Damnthatsinteresting'
p509
F0.018998592696800001
sS'loseit'
p510
F0.0081628805731000006
sS'CrazyIdeas'
p511
F0.032666894508999997
sS'MechanicalKeyboards'
p512
F0.0072136792732899998
sS'TinyHouses'
p513
F0.0089603283173700001
sS'Bad_Cop_No_Donut'
p514
F0.0112372347291
sS'linux4noobs'
p515
F0.0086350974930400008
sS'MorbidReality'
p516
F0.0142195914371
sS'gif'
p517
F0.010581752572300001
sS'cats'
p518
F0.0096871412169900004
sS'introvert'
p519
F0.013204389064499999
sS'Ubuntu'
p520
F0.0073183792467399998
sS'raisedbynarcissists'
p521
F0.0096714916664000002
sS'happy'
p522
F0.0139904795077
sS'explainlikeIAmA'
p523
F0.0214421368621
sS'misleadingthumbnails'
p524
F0.022376073109899999
sS'shortscarystories'
p525
F0.0079816854349699998
sS'batman'
p526
F0.0084271490856999993
sS'snackexchange'
p527
F0.0091066455934400003
sS'blunderyears'
p528
F0.016626704925099999
sS'Marvel'
p529
F0.0079313240645700004
sS'Random_Acts_Of_Amazon'
p530
F0.011383788112800001
sS'rage'
p531
F0.015818177867600001
sS'comics'
p532
F0.012402660418
sS'forhire'
p533
F0.0092811247185500007
sS'behindthegifs'
p534
F0.0167257982767
sS'civ'
p535
F0.0074221369280199996
sS'fullmoviesonyoutube'
p536
F0.017491626349099999
sS'iphone'
p537
F0.0082113971723200008
sS'TrueAskReddit'
p538
F0.021879250192199998
sS'webdev'
p539
F0.0075178139504499999
sS'bestofworldstar'
p540
F0.0087110213356899995
sS'DAE'
p541
F0.015977153442399999
sS'ForeverAlone'
p542
F0.0098657024793400005
sS'eatsandwiches'
p543
F0.0096492463727299999
sS'Survival'
p544
F0.0086932136847999997
sS'shittyama'
p545
F0.0191314329443
sS'excel'
p546
F0.0074745741943400001
sS'zelda'
p547
F0.00829918032787
sS'ImaginaryLandscapes'
p548
F0.010101010101000001
sS'TheWayWeWere'
p549
F0.0140813755281
sS'badtattoos'
p550
F0.0131813323833
sS'Feminism'
p551
F0.0073018283778299997
sS'saplings'
p552
F0.0073807490545300001
sS'nottheonion'
p553
F0.012273418554
sS'Frugal_Jerk'
p554
F0.011766589290000001
sS'Baking'
p555
F0.0076901487510499999
sS'SuicideWatch'
p556
F0.0081604684482699998
sS'socialanxiety'
p557
F0.0082047685834499996
sS'bigdickproblems'
p558
F0.0076510220395099998
sS'comicbooks'
p559
F0.0073282442748099997
sS'oddlysatisfying'
p560
F0.019428629352400001
sS'GirlGamers'
p561
F0.0077490179195999999
sS'entertainment'
p562
F0.0076353756792200004
sS'youtube'
p563
F0.010662177328799999
sS'terriblefacebookmemes'
p564
F0.015042158516
sS'PrettyGirls'
p565
F0.0082087034746400004
sS'urbanexploration'
p566
F0.0114632924079
s.