(dp1
S'europe'
p2
F0.019651144183099999
sS'linguistics'
p3
F0.0080679862306399994
sS'ShitAmericansSay'
p4
F0.011451612903200001
sS'russia'
p5
F0.013981042654000001
sS'Suomi'
p6
F0.19296914516899999
sS'vexillology'
p7
F0.0079561527581300008
sS'sweden'
p8
F0.0105448154657
sS'polandball'
p9
F0.0106113507223
sS'languagelearning'
p10
F0.0083061129258000001
sS'Norway'
p11
F0.011381272633200001
sS'IWantOut'
p12
F0.00790586504872
s.