(dp1
S'FancyFollicles'
p2
F0.018914537172899999
sS'awwwtf'
p3
F0.0087172265808399992
sS'Heavymind'
p4
F0.0082352941176499998
sS'curlyhair'
p5
F0.0085593980810400004
sS'Justrolledintotheshop'
p6
F0.0074072226656000002
sS'DoesAnybodyElse'
p7
F0.0127251234267
sS'pettyrevenge'
p8
F0.0099588013871200008
sS'malehairadvice'
p9
F0.0176459887211
sS'PublicFreakout'
p10
F0.0098130275007099997
sS'TheGirlSurvivalGuide'
p11
F0.0077486239512600001
sS'fffffffuuuuuuuuuuuu'
p12
F0.0080037775941399995
sS'uglyduckling'
p13
F0.020498126515299999
sS'milf'
p14
F0.0071111535340999997
sS'quotes'
p15
F0.0074903969270199997
sS'futurama'
p16
F0.0079884422537599992
sS'perfectloops'
p17
F0.0096031085206799999
sS'everymanshouldknow'
p18
F0.0098796310770699995
sS'InternetIsBeautiful'
p19
F0.0070276313687899997
sS'breakingbad'
p20
F0.0088920551993499995
sS'carporn'
p21
F0.0077486466404800003
sS'relationships'
p22
F0.0071427982283199997
sS'TalesFromRetail'
p23
F0.00812439349146
sS'TheBluePill'
p24
F0.0084593232541400002
sS'WouldYouRather'
p25
F0.0099098029907399993
sS'quityourbullshit'
p26
F0.012570882011299999
sS'Advice'
p27
F0.0101553850265
sS'LearnUselessTalents'
p28
F0.010696951133299999
sS'ProtectAndServe'
p29
F0.0075743580269699998
sS'harrypotter'
p30
F0.0079547833368200007
sS'HistoryPorn'
p31
F0.0097696998876600008
sS'badtattoos'
p32
F0.0112864149382
sS'whowouldwin'
p33
F0.00877587758776
sS'woahdude'
p34
F0.0098370605143600007
sS'photocritique'
p35
F0.0072379689485599997
sS'DeepIntoYouTube'
p36
F0.0097340279681899997
sS'adventuretime'
p37
F0.0073019687586699999
sS'Gore'
p38
F0.0072848430088099997
sS'MensRights'
p39
F0.0088331791032200003
sS'nononono'
p40
F0.0100417054703
sS'Shitty_Car_Mods'
p41
F0.010523747064
sS'Anxiety'
p42
F0.0083429550448799999
sS'YouShouldKnow'
p43
F0.0082433474739700002
sS'childfree'
p44
F0.0090153791762400005
sS'popping'
p45
F0.011428571428599999
sS'Random_Acts_Of_Amazon'
p46
F0.0108323831243
sS'misc'
p47
F0.0070098917361199999
sS'whitepeoplegifs'
p48
F0.0095886954327500003
sS'NSFW_GIF'
p49
F0.00748105128458
sS'AbandonedPorn'
p50
F0.0087220207577800007
sS'altgonewild'
p51
F0.0075647589210700002
sS'tipofmytongue'
p52
F0.0093538444973800001
sS'NoStupidQuestions'
p53
F0.012870372961
sS'3amjokes'
p54
F0.00750817722272
sS'toosoon'
p55
F0.0091262135922300005
sS'Military'
p56
F0.0073354685401399999
sS'beards'
p57
F0.015637787910699998
sS'PrettyGirlsUglyFaces'
p58
F0.019845045534900001
sS'photoshopbattles'
p59
F0.0078939624620999998
sS'IWantToLearn'
p60
F0.0103084480954
sS'Art'
p61
F0.0073125573724600003
sS'creepyPMs'
p62
F0.015385527525
sS'IdiotsFightingThings'
p63
F0.0092510579667400006
sS'penpals'
p64
F0.0095279884661199996
sS'Celebs'
p65
F0.0115280696488
sS'techsupportgore'
p66
F0.0071020381197799999
sS'freebies'
p67
F0.0085329495219500003
sS'redditgetsdrawn'
p68
F0.0171583828003
sS'CrappyDesign'
p69
F0.010699036838400001
sS'WatchItForThePlot'
p70
F0.0094723879890099994
sS'Frisson'
p71
F0.0088404073825199998
sS'dadjokes'
p72
F0.010029385460599999
sS'SubredditDrama'
p73
F0.0095255244440399997
sS'minimalism'
p74
F0.0088332852610299994
sS'nsfw'
p75
F0.0078398928416700004
sS'cringe'
p76
F0.0106346369459
sS'secretsanta'
p77
F0.0082240910215200004
sS'Whatisthis'
p78
F0.012183204117500001
sS'StarWars'
p79
F0.0075899710046099999
sS'mildlyinteresting'
p80
F0.0076389785061899999
sS'MakeNewFriendsHere'
p81
F0.0083001057856599992
sS'whatisthisthing'
p82
F0.0128052665109
sS'AskWomen'
p83
F0.0136642533596
sS'gentlemanboners'
p84
F0.012615541376500001
sS'Rateme'
p85
F0.039017414840900003
sS'sex'
p86
F0.0080230048153100003
sS'tumblr'
p87
F0.0117190501806
sS'POLITIC'
p88
F0.0071588366890400004
sS'see'
p89
F0.0080436824800400007
sS'MarkMyWords'
p90
F0.010464942442799999
sS'changemyview'
p91
F0.0094177924399600002
sS'fatpeoplestories'
p92
F0.0094176602730299992
sS'Baking'
p93
F0.0081200649605200001
sS'LongDistance'
p94
F0.0072415329768299999
sS'EatCheapAndHealthy'
p95
F0.00719091523976
sS'tifu'
p96
F0.0072766009317000004
sS'depression'
p97
F0.0095504878644900003
sS'firstworldanarchists'
p98
F0.0128490000966
sS'offbeat'
p99
F0.0079362922294999999
sS'no_sob_story'
p100
F0.0090487238979099997
sS'gaybrosgonemild'
p101
F0.0075163662814200002
sS'DunderMifflin'
p102
F0.0080553496417099992
sS'Glitch_in_the_Matrix'
p103
F0.010000990196999999
sS'AMA'
p104
F0.0096133247643499994
sS'shittyfoodporn'
p105
F0.0141073080481
sS'Showerthoughts'
p106
F0.0072326175516100001
sS'ExpectationVsReality'
p107
F0.012882538253800001
sS'socialskills'
p108
F0.0133980421437
sS'malefashionadvice'
p109
F0.0088895320591700008
sS'firstworldproblems'
p110
F0.011249373964600001
sS'outside'
p111
F0.0103001883692
sS'GuessTheMovie'
p112
F0.0076107831282500003
sS'RoomPorn'
p113
F0.0102459016393
sS'lifehacks'
p114
F0.0097141035179099996
sS'memes'
p115
F0.0120109190173
sS'ass'
p116
F0.0071709786276699999
sS'tattoos'
p117
F0.0114532518366
sS'blackpeoplegifs'
p118
F0.0114513018322
sS'bestof'
p119
F0.0076998336757700004
sS'casualiama'
p120
F0.015873285057699998
sS'LetsNotMeet'
p121
F0.0080611917739199998
sS'loseit'
p122
F0.0086871313622400009
sS'OkCupid'
p123
F0.010666905701
sS'drawing'
p124
F0.010746208697400001
sS'amiugly'
p125
F0.030866106937699998
sS'LadyBoners'
p126
F0.014564967420499999
sS'shittyaskscience'
p127
F0.0094414224437499999
sS'GamePhysics'
p128
F0.0071557245796600001
sS'lewronggeneration'
p129
F0.0118220008179
sS'youtubehaiku'
p130
F0.0074057305478300002
sS'ThriftStoreHauls'
p131
F0.011527377521599999
sS'SkincareAddiction'
p132
F0.0095534157252300002
sS'GoneWildPlus'
p133
F0.0070566919372500002
sS'4chan'
p134
F0.0095590369995999999
sS'piercing'
p135
F0.0120283948994
sS'relationship_advice'
p136
F0.0091918568784699999
sS'Hair'
p137
F0.0123734533183
sS'BeardPorn'
p138
F0.010596674274499999
sS'howtonotgiveafuck'
p139
F0.010591144496800001
sS'sixwordstories'
p140
F0.0093780057710800002
sS'AnimalsBeingBros'
p141
F0.010550576184399999
sS'classic4chan'
p142
F0.0082349186083600003
sS'whatstheword'
p143
F0.00759068681118
sS'OnOff'
p144
F0.0070481927710800002
sS'ANormalDayInRussia'
p145
F0.0098983413590199992
sS'AmISexy'
p146
F0.0348316303418
sS'whatsthisbug'
p147
F0.0105588781192
sS'QuotesPorn'
p148
F0.0099686379928299994
sS'bigdickproblems'
p149
F0.0072278185646800002
sS'drunk'
p150
F0.0144197201056
sS'Assistance'
p151
F0.0072706350036600004
sS'confession'
p152
F0.012959709702500001
sS'reactiongifs'
p153
F0.0111073496985
sS'findareddit'
p154
F0.0139738999885
sS'feet'
p155
F0.0072504182933600001
sS'rant'
p156
F0.012471724643899999
sS'conspiratard'
p157
F0.0077330264671999997
sS'MilitaryPorn'
p158
F0.0075100007547700002
sS'MMFB'
p159
F0.010651828298900001
sS'TrollXChromosomes'
p160
F0.014097519792299999
sS'holdmybeer'
p161
F0.0094785072225499999
sS'ContagiousLaughter'
p162
F0.0087346553352200002
sS'femalefashionadvice'
p163
F0.0088579104044100004
sS'nostalgia'
p164
F0.012588290692200001
sS'gonewildcurvy'
p165
F0.0079832584095499998
sS'Damnthatsinteresting'
p166
F0.010076951264199999
sS'FiftyFifty'
p167
F0.0115417909012
sS'CrazyIdeas'
p168
F0.013057671381899999
sS'OldSchoolCool'
p169
F0.0094793718336300004
sS'Autos'
p170
F0.0072339094392699999
sS'Bad_Cop_No_Donut'
p171
F0.0080837079288299998
sS'OutOfTheLoop'
p172
F0.0115366293159
sS'seduction'
p173
F0.0090882090882099999
sS'urbanexploration'
p174
F0.00727611940299
sS'MorbidReality'
p175
F0.0109902284461
sS'gif'
p176
F0.0079573022804499995
sS'wheredidthesodago'
p177
F0.010432240273800001
sS'PenmanshipPorn'
p178
F0.0114628820961
sS'ifyoulikeblank'
p179
F0.010816787654400001
sS'misleadingthumbnails'
p180
F0.0134698570881
sS'shittyadvice'
p181
F0.0093209054593900009
sS'raisedbynarcissists'
p182
F0.0080660710842599993
sS'confessions'
p183
F0.0090628218331599997
sS'IWantOut'
p184
F0.0077786875658
sS'asstastic'
p185
F0.00825316721863
sS'happy'
p186
F0.0125433526012
sS'fatlogic'
p187
F0.011324570273
sS'TrollYChromosome'
p188
F0.0117624828759
sS'explainlikeIAmA'
p189
F0.0086856867121099992
sS'introvert'
p190
F0.0082410824108199998
sS'FloridaMan'
p191
F0.0077344350499600001
sS'MakeupAddiction'
p192
F0.012433052792699999
sS'batman'
p193
F0.0087083671811499994
sS'snackexchange'
p194
F0.0074107343364000003
sS'mildlyinfuriating'
p195
F0.012821813018799999
sS'teenagers'
p196
F0.0131079967024
sS'somethingimade'
p197
F0.011245674740500001
sS'Unexpected'
p198
F0.012595431644700001
sS'ladybonersgw'
p199
F0.00744730087937
sS'Awwducational'
p200
F0.0094107582076799999
sS'r4r'
p201
F0.0106838220512
sS'shittyaskreddit'
p202
F0.0090220964905599992
sS'AskMen'
p203
F0.013056768559000001
sS'ghettoglamourshots'
p204
F0.011689766204700001
sS'blunderyears'
p205
F0.0214023885539
sS'EDC'
p206
F0.0089015222351000005
sS'showerbeer'
p207
F0.0125573859033
sS'rage'
p208
F0.0128332756233
sS'comics'
p209
F0.0077659849857599998
sS'Pareidolia'
p210
F0.0120925341746
sS'RandomActsofMakeup'
p211
F0.0073615160349899999
sS'interestingasfuck'
p212
F0.010938765142
sS'Perfectfit'
p213
F0.0093577746442800001
sS'PerfectTiming'
p214
F0.012211287407100001
sS'behindthegifs'
p215
F0.0096266532730600006
sS'standupshots'
p216
F0.0098339088965600004
sS'dating_advice'
p217
F0.0101842870999
sS'cats'
p218
F0.0101310764045
sS'Needafriend'
p219
F0.0104445459886
sS'BustyPetite'
p220
F0.0070673031919899999
sS'malegrooming'
p221
F0.0080181650464799994
sS'ICanDrawThat'
p222
F0.0087167673245800003
sS'fullmoviesonyoutube'
p223
F0.0082604072953299992
sS'watchpeopledie'
p224
F0.0095042862467400006
sS'FoodPorn'
p225
F0.0095822566752799994
sS'awesome'
p226
F0.0072792792792799998
sS'Cooking'
p227
F0.00700173928556
sS'DecidingToBeBetter'
p228
F0.0070038463746499996
sS'TrueAskReddit'
p229
F0.0079678957775999992
sS'FanTheories'
p230
F0.0084367245657599992
sS'oddlysatisfying'
p231
F0.0125073350658
sS'NotTimAndEric'
p232
F0.0072526333966499998
sS'conspiracy'
p233
F0.00780958834491
sS'creepy'
p234
F0.0080549698516599998
sS'polandball'
p235
F0.0071758217019399998
sS'bestofworldstar'
p236
F0.0072258875274899999
sS'shorthairedhotties'
p237
F0.018007286995499999
sS'shutupandtakemymoney'
p238
F0.0072014805278399997
sS'hardbodies'
p239
F0.0099587507365899997
sS'ForeverAlone'
p240
F0.0125006456945
sS'MURICA'
p241
F0.011324282405900001
sS'HighQualityGifs'
p242
F0.0081806659753399999
sS'self'
p243
F0.0118548048678
sS'shittyama'
p244
F0.011228158708100001
sS'RealGirls'
p245
F0.010241545893700001
sS'GoneMild'
p246
F0.012246641667099999
sS'Hotchickswithtattoos'
p247
F0.0071532745329500004
sS'TheWayWeWere'
p248
F0.00888921539818
sS'transpassing'
p249
F0.0106737320212
sS'cosplaygirls'
p250
F0.010100478720599999
sS'RedditLaqueristas'
p251
F0.0109969429348
sS'itookapicture'
p252
F0.012999135695799999
sS'nonononoyes'
p253
F0.0109856576137
sS'Whatcouldgowrong'
p254
F0.011086978482700001
sS'wallpapers'
p255
F0.0079565081971899997
sS'JusticePorn'
p256
F0.0097297440798600008
sS'MapPorn'
p257
F0.0081913207614399998
sS'notinteresting'
p258
F0.0139880757387
sS'facepalm'
p259
F0.0123386513639
sS'forwardsfromgrandma'
p260
F0.0121994816337
sS'AnimalsBeingJerks'
p261
F0.0109724405659
sS'SuicideWatch'
p262
F0.0089949889507899995
sS'girlsinyogapants'
p263
F0.0075869726128800002
sS'socialanxiety'
p264
F0.0077535624476099997
sS'Images'
p265
F0.00909529387446
sS'shittyreactiongifs'
p266
F0.0112009544008
sS'progresspics'
p267
F0.016947527386899999
sS'dogpictures'
p268
F0.0079537237888599992
sS'cosplay'
p269
F0.0096942580164100008
sS'delusionalartists'
p270
F0.012773635975099999
sS'DAE'
p271
F0.0097050282744899994
sS'short'
p272
F0.0089005981201899995
sS'offmychest'
p273
F0.013252416729
sS'ConfusedBoners'
p274
F0.0079462940128800005
sS'medical'
p275
F0.0073003252620200002
sS'HumanPorn'
p276
F0.0136108045615
sS'GetMotivated'
p277
F0.0083758054881199993
sS'terriblefacebookmemes'
p278
F0.0118624757054
sS'PrettyGirls'
p279
F0.0151292762786
sS'TumblrInAction'
p280
F0.0099731916672799997
sS'thatHappened'
p281
F0.013796439628499999
sS'cringepics'
p282
F0.0120929440357
sS'tall'
p283
F0.011839090214700001
sS'HailCorporate'
p284
F0.0074660487867700001
sS'ImGoingToHellForThis'
p285
F0.0107479739604
sS'needadvice'
p286
F0.0098082924654499994
sS'EmmaWatson'
p287
F0.0085741290845300008
s.