(dp1
S'weightroom'
p2
F0.0627116792309
sS'fatlogic'
p3
F0.00756411044831
sS'circlebroke2'
p4
F0.0076149862930200004
sS'ketogains'
p5
F0.0082918739635199998
sS'crossfit'
p6
F0.0152405618089
sS'steroids'
p7
F0.023889690556400001
sS'xxfitness'
p8
F0.013736440079599999
sS'fitmeals'
p9
F0.0140181675451
sS'powerlifting'
p10
F0.054752987337300003
sS'hardbodies'
p11
F0.00814746919238
sS'swoleacceptance'
p12
F0.024020887728500001
sS'Supplements'
p13
F0.025592773805
sS'weightlifting'
p14
F0.030195751770100001
sS'leangains'
p15
F0.0182182546912
sS'bodybuilding'
p16
F0.022440897635900001
sS'Frugal_Jerk'
p17
F0.0072075401959000003
sS'gainit'
p18
F0.0102712477396
sS'bodyweightfitness'
p19
F0.010561234852099999
sS'nutrition'
p20
F0.0095766677549200003
s.