(dp1
S'glitch_art'
p2
F0.0092403859219999992
sS'dubstep'
p3
F0.015235765124600001
sS'trapmuzik'
p4
F0.0081261950286800003
sS'DnB'
p5
F0.0158227848101
sS'deadmau5'
p6
F0.0137844611529
sS'audioengineering'
p7
F0.021725919173499999
sS'edmproduction'
p8
F0.060701939415200003
sS'musictheory'
p9
F0.0151045701007
sS'makinghiphop'
p10
F0.032485233984600001
sS'electronicmusic'
p11
F0.016074898427800001
sS'Beatmatch'
p12
F0.0186415651532
sS'ableton'
p13
F0.020045385779099999
sS'skrillex'
p14
F0.0106307583274
sS'synthesizers'
p15
F0.018791105543400001
sS'realdubstep'
p16
F0.0081200787401600003
sS'DJs'
p17
F0.021115537848599999
sS'House'
p18
F0.0075528700906299998
sS'futurebeats'
p19
F0.013386880856799999
sS'EDM'
p20
F0.011671948674299999
sS'WeAreTheMusicMakers'
p21
F0.0282432686876
sS'hardstyle'
p22
F0.0099408284023700007
sS'Monstercat'
p23
F0.016290890134200001
sS'trap'
p24
F0.0147446024223
s.