(dp1
S'Helicopters'
p2
F0.025743977326399999
sS'formula1'
p3
F0.0071126836841500004
sS'pcgaming'
p4
F0.0070099824131199997
sS'hoggit'
p5
F0.12856440511299999
sS'Multicopter'
p6
F0.0092890760465699999
sS'SimCity'
p7
F0.0102862808279
sS'granturismo'
p8
F0.0080661840744599995
sS'battlefield3'
p9
F0.0074571998739600001
sS'techsupportmacgyver'
p10
F0.0070574397176999997
sS'modelmakers'
p11
F0.015950376606099999
sS'Warthunder'
p12
F0.0199230817729
sS'flying'
p13
F0.069623365129299994
sS'MachinePorn'
p14
F0.0123373710184
sS'spaceporn'
p15
F0.0070249850884800003
sS'spaceengineers'
p16
F0.0087198515769899999
sS'arma'
p17
F0.027022299956300001
sS'CombatFootage'
p18
F0.0110992529349
sS'MilitaryPorn'
p19
F0.0145856786256
sS'wargame'
p20
F0.0145167217935
sS'KerbalAcademy'
p21
F0.0109279141104
sS'TopGear'
p22
F0.0078464340759400002
sS'Roadcam'
p23
F0.0072100313479599998
sS'aviation'
p24
F0.061802023036900001
sS'amateurradio'
p25
F0.0076701821668299997
sS'starcitizen'
p26
F0.0125797884732
sS'simracing'
p27
F0.028186274509800002
sS'oculus'
p28
F0.0088384292027400002
sS'WarshipPorn'
p29
F0.015810793153000002
sS'prisonarchitect'
p30
F0.0071353065539099996
sS'techsupportgore'
p31
F0.0076022190260900003
sS'radiocontrol'
p32
F0.019532612486900001
sS'KerbalSpaceProgram'
p33
F0.016156590030300001
sS'cableporn'
p34
F0.0071638861629000003
s.