(dp1
S'delusionalartists'
p2
F0.0070024970144400003
sS'lostgeneration'
p3
F0.0086625086625099993
sS'pettyrevenge'
p4
F0.0085067989946500007
sS'PublicFreakout'
p5
F0.0074782451051500004
sS'Bitcoin'
p6
F0.0074294017309999997
sS'BuyItForLife'
p7
F0.0171716428887
sS'woodworking'
p8
F0.010428021219400001
sS'everymanshouldknow'
p9
F0.0098854113220499997
sS'startups'
p10
F0.015992796810000001
sS'financialindependence'
p11
F0.020851096814199999
sS'TalesFromRetail'
p12
F0.0074790178678799998
sS'TheWayWeWere'
p13
F0.0078189678962400002
sS'quityourbullshit'
p14
F0.0070850202429100003
sS'freelance'
p15
F0.0084550345887800006
sS'LearnUselessTalents'
p16
F0.0082077865975500007
sS'ProtectAndServe'
p17
F0.0071946251917699997
sS'wicked_edge'
p18
F0.0080220483291499993
sS'HITsWorthTurkingFor'
p19
F0.0136784693966
sS'Assistance'
p20
F0.00844449883735
sS'YouShouldKnow'
p21
F0.0105576400569
sS'shutupandtakemymoney'
p22
F0.0093873293728200004
sS'smallbusiness'
p23
F0.025884198516799999
sS'EDC'
p24
F0.0082500000000000004
sS'photography'
p25
F0.0071043915758600001
sS'foodhacks'
p26
F0.00787749392623
sS'howto'
p27
F0.011215791834900001
sS'AbandonedPorn'
p28
F0.0077227993439000003
sS'NoStupidQuestions'
p29
F0.0074145518114400004
sS'homestead'
p30
F0.0115579329449
sS'IWantToLearn'
p31
F0.011789779168400001
sS'beermoney'
p32
F0.0387893187335
sS'freebies'
p33
F0.0155458182511
sS'Libertarian'
p34
F0.0085094510706599999
sS'hometheater'
p35
F0.00804187846142
sS'Whatisthis'
p36
F0.0081384323640999994
sS'getdisciplined'
p37
F0.0099664115412100001
sS'Paleo'
p38
F0.0077316591094100003
sS'gardening'
p39
F0.0091031425631300008
sS'whatisthisthing'
p40
F0.0118723107076
sS'EatCheapAndHealthy'
p41
F0.0125396825397
sS'NetflixBestOf'
p42
F0.0078686374689199996
sS'Justrolledintotheshop'
p43
F0.0096628730942700004
sS'MechanicAdvice'
p44
F0.011105502271599999
sS'nononono'
p45
F0.0077279752704800002
sS'frugalmalefashion'
p46
F0.010728708335800001
sS'findareddit'
p47
F0.0075654307524499996
sS'investing'
p48
F0.0144000535816
sS'InteriorDesign'
p49
F0.0098192685356500008
sS'socialskills'
p50
F0.0101698078
sS'malefashionadvice'
p51
F0.00706237189495
sS'Anticonsumption'
p52
F0.0098586920801800003
sS'RoomPorn'
p53
F0.0073688573665499999
sS'cars'
p54
F0.00701585776069
sS'lifehacks'
p55
F0.010483269695699999
sS'AutoDetailing'
p56
F0.0095441829850300003
sS'jobs'
p57
F0.0122159311254
sS'business'
p58
F0.010035944339700001
sS'marketing'
p59
F0.0107866991079
sS'Economics'
p60
F0.0078349656178400007
sS'legaladvice'
p61
F0.0092648692315499999
sS'malelivingspace'
p62
F0.0083781220360400008
sS'answers'
p63
F0.0081523511380700003
sS'Ebay'
p64
F0.080314960629899998
sS'Frugal'
p65
F0.020141378367100001
sS'vinyl'
p66
F0.0080841378227800003
sS'giftcardexchange'
p67
F0.014580552418099999
sS'forhire'
p68
F0.0126819799418
sS'keto'
p69
F0.0083609037983100008
sS'ThriftStoreHauls'
p70
F0.057902652447399998
sS'minimalism'
p71
F0.010625927262499999
sS'TalesFromThePizzaGuy'
p72
F0.0086635944700500008
sS'personalfinance'
p73
F0.0105310516055
sS'Pmsforsale'
p74
F0.010455013989100001
sS'howtonotgiveafuck'
p75
F0.0076845082448400003
sS'IWantOut'
p76
F0.0082310267857099995
sS'TrueReddit'
p77
F0.0075783992375099999
sS'churning'
p78
F0.0174396320429
sS'AmIFreeToGo'
p79
F0.0072651273885400002
sS'Wordpress'
p80
F0.0079735346509499996
sS'3Dprinting'
p81
F0.0075087154733200004
sS'CrazyIdeas'
p82
F0.0082386192795699999
sS'TinyHouses'
p83
F0.0128885519333
sS'Bad_Cop_No_Donut'
p84
F0.0089459026078199996
sS'OutOfTheLoop'
p85
F0.0071280201158799997
sS'coins'
p86
F0.0111817808781
sS'stocks'
p87
F0.0085265758227699995
sS'Autos'
p88
F0.00745221813081
sS'ketorecipes'
p89
F0.0083100651509099999
sS'SEO'
p90
F0.010226850130199999
sS'collapse'
p91
F0.00842696629213
sS'mturk'
p92
F0.013222560262099999
sS'DumpsterDiving'
p93
F0.040281855548999997
sS'somethingimade'
p94
F0.0112894517253
sS'HomeImprovement'
p95
F0.0114843171153
sS'LifeProTips'
p96
F0.0081457019913899996
sS'Shitty_Car_Mods'
p97
F0.0084393793401299991
sS'dogemarket'
p98
F0.0075770475055299998
sS'vintageaudio'
p99
F0.0085089671422999991
sS'Random_Acts_Of_Amazon'
p100
F0.0076145552560599999
sS'hardwareswap'
p101
F0.0083494263319299992
sS'techsupportgore'
p102
F0.0079659537319899994
sS'offbeat'
p103
F0.0070447340612900004
sS'Entrepreneur'
p104
F0.033743173566799997
sS'RealEstate'
p105
F0.016189783915900001
sS'Cartalk'
p106
F0.0095083658878199993
sS'fullmoviesonyoutube'
p107
F0.00778443113772
sS'Cooking'
p108
F0.0070809076868200002
sS'DecidingToBeBetter'
p109
F0.0097804527734099995
sS'gamecollecting'
p110
F0.017868260490599999
sS'conspiracy'
p111
F0.0070314996981399999
sS'DIY'
p112
F0.0092811539371000003
sS'TalesFromYourServer'
p113
F0.0073836905384199996
sS'CampingandHiking'
p114
F0.0072771059106899998
sS'finance'
p115
F0.0074977279612200003
sS'techsupportmacgyver'
p116
F0.0075576174798000001
sS'Nootropics'
p117
F0.0087607743394100008
sS'preppers'
p118
F0.0089394555058900007
sS'self'
p119
F0.00728674319154
sS'Parenting'
p120
F0.0070650482415200002
sS'JusticePorn'
p121
F0.00709024953281
sS'slowcooking'
p122
F0.0111655635831
sS'UnresolvedMysteries'
p123
F0.0080357819725600001
sS'Frugal_Jerk'
p124
F0.010911686722399999
sS'Whatcouldgowrong'
p125
F0.0074630901519700003
sS'economy'
p126
F0.0078283293424200005
sS'BasicIncome'
p127
F0.0083721733126199994
sS'poker'
p128
F0.0078558851415400002
sS'GameSale'
p129
F0.00732421875
sS'RandomKindness'
p130
F0.0084992009298299996
sS'budgetfood'
p131
F0.0122594925932
sS'productivity'
p132
F0.0087306917394199997
sS'cordcutters'
p133
F0.013674743025
sS'askcarsales'
p134
F0.00709779179811
sS'Silverbugs'
p135
F0.017687799680300001
sS'eFreebies'
p136
F0.0081741279346100003
sS'crafts'
p137
F0.0077093414254100004
sS'HailCorporate'
p138
F0.0091699976487200005
sS'urbanexploration'
p139
F0.0090225563909799994
sS'Survival'
p140
F0.010660426417099999
s.