(dp1
S'MapPorn'
p2
F0.0124840299325
sS'Shitty_Car_Mods'
p3
F0.011671305668000001
sS'uglyduckling'
p4
F0.0090239848017099993
sS'AndroidGaming'
p5
F0.0082776037038800009
sS'KitchenConfidential'
p6
F0.023497543152300002
sS'BuyItForLife'
p7
F0.024406447777899999
sS'everymanshouldknow'
p8
F0.021640763328700002
sS'AskMen'
p9
F0.0105851609275
sS'Showerthoughts'
p10
F0.0079635110621199996
sS'HistoryPorn'
p11
F0.015713076335399999
sS'holdmybeer'
p12
F0.0175097276265
sS'ImaginaryMonsters'
p13
F0.0093865484109400005
sS'seinfeld'
p14
F0.0074883929908599999
sS'YouShouldKnow'
p15
F0.0285663725763
sS'horror'
p16
F0.0084204807822899994
sS'UpliftingNews'
p17
F0.011262352257300001
sS'PandR'
p18
F0.011560693641599999
sS'Jokes'
p19
F0.0081707256829500006
sS'inthenews'
p20
F0.00773412971897
sS'Military'
p21
F0.0078528399311499995
sS'photoshopbattles'
p22
F0.010043844242400001
sS'IWantToLearn'
p23
F0.015219603188100001
sS'Celebs'
p24
F0.0092081602281899998
sS'beermoney'
p25
F0.0090014847809900007
sS'CrappyDesign'
p26
F0.017484315540499999
sS'NewsOfTheWeird'
p27
F0.0092504291436200006
sS'Cyberpunk'
p28
F0.010959881735199999
sS'Libertarian'
p29
F0.010183838116699999
sS'Whatisthis'
p30
F0.0070668905681500003
sS'Paleo'
p31
F0.013409552302600001
sS'pcgaming'
p32
F0.0073091319851999997
sS'BackYardChickens'
p33
F0.0071106659990000003
sS'EatCheapAndHealthy'
p34
F0.041906516232999999
sS'tea'
p35
F0.013280622645
sS'blackpeoplegifs'
p36
F0.012954206878699999
sS'redditgetsdrawn'
p37
F0.0080220379003500004
sS'MechanicAdvice'
p38
F0.0088254913027899992
sS'fatpeoplestories'
p39
F0.0127240143369
sS'OneY'
p40
F0.0081424936386800002
sS'forwardsfromgrandma'
p41
F0.012951537700700001
sS'no_sob_story'
p42
F0.0080447116605999996
sS'frugalmalefashion'
p43
F0.010341261633899999
sS'movies'
p44
F0.0073350644799399997
sS'skeptic'
p45
F0.0145832442373
sS'boardgames'
p46
F0.0073748180034200004
sS'InteriorDesign'
p47
F0.012021997697899999
sS'socialskills'
p48
F0.010851636426799999
sS'Anticonsumption'
p49
F0.0085493913205100004
sS'guns'
p50
F0.0080661244930999992
sS'disney'
p51
F0.0072880908370699998
sS'tattoos'
p52
F0.0097007142716599992
sS'Economics'
p53
F0.0095807914906900007
sS'LetsNotMeet'
p54
F0.0072407800733699998
sS'legaladvice'
p55
F0.0089222936113499997
sS'malelivingspace'
p56
F0.0095398428731800003
sS'answers'
p57
F0.016715245969900001
sS'lgbt'
p58
F0.0075191417174799999
sS'Random_Acts_Of_Pizza'
p59
F0.010194106968300001
sS'gentlemanboners'
p60
F0.0125963433189
sS'doctorwho'
p61
F0.0092631485862099995
sS'TopGear'
p62
F0.00928863575551
sS'sanfrancisco'
p63
F0.0071299230421000004
sS'ThriftStoreHauls'
p64
F0.016094548046099999
sS'Breadit'
p65
F0.019895377754899999
sS'environment'
p66
F0.0087493566649499994
sS'vegetarian'
p67
F0.0092654760306199995
sS'personalfinance'
p68
F0.0077389736022299999
sS'creepy'
p69
F0.0074536250023399999
sS'cripplingalcoholism'
p70
F0.0081200216533899999
sS'IWantOut'
p71
F0.0092848180677500003
sS'whatsthisbug'
p72
F0.0103378173796
sS'QuotesPorn'
p73
F0.0148856157944
sS'apple'
p74
F0.0070504557948800001
sS'TrueReddit'
p75
F0.016406408894699999
sS'todayilearned'
p76
F0.0072350086411999996
sS'Assistance'
p77
F0.00846230931967
sS'AmIFreeToGo'
p78
F0.0081475128644899995
sS'KingOfTheHill'
p79
F0.0075855529695700004
sS'IdiotsFightingThings'
p80
F0.017120949529999999
sS'Health'
p81
F0.0089285714285700004
sS'Firearms'
p82
F0.0071162760331700001
sS'gamernews'
p83
F0.0077259140032200002
sS'ContagiousLaughter'
p84
F0.0139898711327
sS'graphic_design'
p85
F0.0075236113334399999
sS'HIMYM'
p86
F0.0081064295753899996
sS'FiftyFifty'
p87
F0.011267884059399999
sS'eldertrees'
p88
F0.0093945720250500006
sS'AskHistorians'
p89
F0.010395690696700001
sS'Drugs'
p90
F0.00706628584146
sS'OutOfTheLoop'
p91
F0.015889582312700001
sS'ifyoulikeblank'
p92
F0.010109733793900001
sS'misleadingthumbnails'
p93
F0.0155555555556
sS'WebGames'
p94
F0.0087572698709799997
sS'Pareidolia'
p95
F0.015592573896499999
sS'sushi'
p96
F0.0128192863293
sS'cordcutters'
p97
F0.0152779560919
sS'LifeProTips'
p98
F0.015901941353699999
sS'TheGirlSurvivalGuide'
p99
F0.015826595561700001
sS'FanTheories'
p100
F0.0125338376534
sS'ghettoglamourshots'
p101
F0.0139407328407
sS'popping'
p102
F0.0106091165793
sS'EDC'
p103
F0.010839366073199999
sS'showerbeer'
p104
F0.0110186806772
sS'techsupportgore'
p105
F0.0136092017547
sS'science'
p106
F0.0105860944129
sS'firstworldproblems'
p107
F0.014547805706
sS'Entrepreneur'
p108
F0.0074601463663700003
sS'standupshots'
p109
F0.018221273077999998
sS'history'
p110
F0.00733068482785
sS'AskScienceFiction'
p111
F0.010536352801
sS'NewsOfTheStupid'
p112
F0.010519746812900001
sS'awesome'
p113
F0.0151886717823
sS'DecidingToBeBetter'
p114
F0.0104757209761
sS'Glitch_in_the_Matrix'
p115
F0.010653930933100001
sS'gadgets'
p116
F0.010324343212899999
sS'Infographics'
p117
F0.010622738819200001
sS'TalesFromYourServer'
p118
F0.0157264549949
sS'CampingandHiking'
p119
F0.010896411448499999
sS'Pizza'
p120
F0.026181309065500001
sS'HouseOfCards'
p121
F0.0087969083697799991
sS'hardbodies'
p122
F0.0073682221802399998
sS'techsupportmacgyver'
p123
F0.012336573918899999
sS'MURICA'
p124
F0.011496004702899999
sS'backpacking'
p125
F0.0074998463146200003
sS'travel'
p126
F0.0103747892621
sS'RealGirls'
p127
F0.0072622756593100002
sS'scifi'
p128
F0.011476312890199999
sS'RedditLaqueristas'
p129
F0.0132308242446
sS'spaceporn'
p130
F0.0128503490843
sS'nyc'
p131
F0.010033444816100001
sS'wallpapers'
p132
F0.0111815460468
sS'polandball'
p133
F0.0077952297847599999
sS'asmr'
p134
F0.0078438526085399998
sS'askscience'
p135
F0.0094421115776800006
sS'wallpaper'
p136
F0.0088389712235000008
sS'budgetfood'
p137
F0.0387894615562
sS'Mommit'
p138
F0.00731668522348
sS'Images'
p139
F0.0088918777553599997
sS'vegan'
p140
F0.0084701178451199993
sS'dogpictures'
p141
F0.0094530321046399999
sS'MachinePorn'
p142
F0.0103581588737
sS'eFreebies'
p143
F0.0098168619039799999
sS'listentothis'
p144
F0.0078987651801200008
sS'crafts'
p145
F0.013246961205300001
sS'tall'
p146
F0.0094712970785699995
sS'ImGoingToHellForThis'
p147
F0.0112001727256
sS'cableporn'
p148
F0.0091632666711300003
sS'wine'
p149
F0.00800380378794
sS'DoesAnybodyElse'
p150
F0.012011226334300001
sS'pettyrevenge'
p151
F0.0194403169886
sS'malehairadvice'
p152
F0.0071625083009199996
sS'CityPorn'
p153
F0.0098539773307500002
sS'DeepIntoYouTube'
p154
F0.0105628707857
sS'dataisbeautiful'
p155
F0.012077497274200001
sS'beards'
p156
F0.0105250496181
sS'nostalgia'
p157
F0.017496239126199999
sS'Documentaries'
p158
F0.0096250567049999992
sS'writing'
p159
F0.0071578824354300002
sS'AndroidQuestions'
p160
F0.0083641055301000005
sS'StonerEngineering'
p161
F0.0098759626124299994
sS'WTF'
p162
F0.0070447805035999999
sS'texas'
p163
F0.0074485462267199999
sS'MensRights'
p164
F0.0090964396419400007
sS'MilitaryPorn'
p165
F0.0078485505817399992
sS'Frisson'
p166
F0.013069372449500001
sS'childfree'
p167
F0.0114882825629
sS'food'
p168
F0.017892834107099999
sS'whitepeoplegifs'
p169
F0.0129507191057
sS'NoStupidQuestions'
p170
F0.0165274878219
sS'creepyPMs'
p171
F0.012569576120900001
sS'WatchItForThePlot'
p172
F0.0115340253749
sS'freebies'
p173
F0.023482162240399999
sS'PropagandaPosters'
p174
F0.0085942754652099992
sS'mashups'
p175
F0.0079542989370200001
sS'SubredditDrama'
p176
F0.0136392159758
sS'minimalism'
p177
F0.0154370034052
sS'mildlyinteresting'
p178
F0.0098367751826100008
sS'TrueAtheism'
p179
F0.010381849488499999
sS'badhistory'
p180
F0.0080063000393800002
sS'books'
p181
F0.0072538968730700001
sS'malegrooming'
p182
F0.0077920074062599997
sS'TwoXChromosomes'
p183
F0.0072645842031399998
sS'Cinemagraphs'
p184
F0.0126140250855
sS'canada'
p185
F0.0094490711082599998
sS'DunderMifflin'
p186
F0.0098599674830899993
sS'alcohol'
p187
F0.0083704363312600005
sS'space'
p188
F0.0094691872981699995
sS'shittyfoodporn'
p189
F0.031080998966999999
sS'malefashionadvice'
p190
F0.00952380952381
sS'LearnUselessTalents'
p191
F0.0243668650994
sS'RoomPorn'
p192
F0.019384215091099999
sS'memes'
p193
F0.0073248201205700003
sS'Astronomy'
p194
F0.0081249672380399995
sS'bestof'
p195
F0.013845893513
sS'LadyBoners'
p196
F0.0112790109175
sS'corgi'
p197
F0.00902634897458
sS'Roadcam'
p198
F0.0094214529974199993
sS'GamePhysics'
p199
F0.0115089514066
sS'youtubehaiku'
p200
F0.0107447202668
sS'PoliticalHumor'
p201
F0.0086794792312500004
sS'recipes'
p202
F0.040189464618900002
sS'TalesFromThePizzaGuy'
p203
F0.0113371391815
sS'howtonotgiveafuck'
p204
F0.0110881135423
sS'whatstheword'
p205
F0.0096483534008499992
sS'weddingplanning'
p206
F0.0076366104762999997
sS'misc'
p207
F0.012369008761399999
sS'patientgamers'
p208
F0.0109243322781
sS'conspiratard'
p209
F0.0116029641186
sS'OldSchoolCool'
p210
F0.0095303072298099992
sS'lego'
p211
F0.0088974993721499997
sS'ANormalDayInRussia'
p212
F0.012504996288500001
sS'onetruegod'
p213
F0.0080051461653899997
sS'TheFacebookDelusion'
p214
F0.0072365060446099999
sS'Autos'
p215
F0.0087284350284799993
sS'PenmanshipPorn'
p216
F0.013794097856399999
sS'shittyreactiongifs'
p217
F0.010959100350999999
sS'alternativeart'
p218
F0.0097487183797000006
sS'shittyadvice'
p219
F0.0079132273688499993
sS'explainlikeimfive'
p220
F0.0077092066135700001
sS'dogs'
p221
F0.0105457040702
sS'ObscureMedia'
p222
F0.0084944876197400009
sS'CombatFootage'
p223
F0.0079957638337299995
sS'nutrition'
p224
F0.0108488395029
sS'TrollYChromosome'
p225
F0.013699315034200001
sS'mildlyinfuriating'
p226
F0.018288168221499999
sS'DumpsterDiving'
p227
F0.0093314093314100007
sS'madmen'
p228
F0.0078360845269400004
sS'raisedbynarcissists'
p229
F0.0095524382097500003
sS'Awwducational'
p230
F0.021072024871899998
sS'skyrim'
p231
F0.00760319177288
sS'BBQ'
p232
F0.016276144047799999
sS'television'
p233
F0.0080567837705500002
sS'worldpolitics'
p234
F0.0105337630689
sS'Justrolledintotheshop'
p235
F0.012772545478
sS'nononono'
p236
F0.0171360198282
sS'knives'
p237
F0.0086352543645600004
sS'gallifrey'
p238
F0.0070437681471100001
sS'FoodPorn'
p239
F0.034114801166500001
sS'boston'
p240
F0.0074800680820599997
sS'Aquariums'
p241
F0.0079756741937099997
sS'sysadmin'
p242
F0.0075358851674599998
sS'conspiracy'
p243
F0.011002720357600001
sS'AnythingGoesNews'
p244
F0.0087587116217700007
sS'HighQualityGifs'
p245
F0.013633265166999999
sS'self'
p246
F0.0129880672132
sS'Parenting'
p247
F0.0102538191761
sS'britishproblems'
p248
F0.0093737348572100008
sS'lockpicking'
p249
F0.0072341225103300004
sS'nonononoyes'
p250
F0.018369945877099999
sS'firefly'
p251
F0.0099350832627699993
sS'aww'
p252
F0.0071950595132900001
sS'Futurology'
p253
F0.0104299259644
sS'sewing'
p254
F0.010833453704999999
sS'Games'
p255
F0.0075342094881499996
sS'progresspics'
p256
F0.010402388877999999
sS'crochet'
p257
F0.0081190798376200007
sS'investing'
p258
F0.0076381655777500003
sS'TumblrInAction'
p259
F0.010405230062899999
sS'secretsanta'
p260
F0.010176565008
sS'Fishing'
p261
F0.0084558470260400007
sS'HailCorporate'
p262
F0.0117138474411
sS'Heavymind'
p263
F0.0097372282246200002
sS'adventuretime'
p264
F0.0092767345894200007
sS'fffffffuuuuuuuuuuuu'
p265
F0.0109732360097
sS'PoliticalDiscussion'
p266
F0.0090694626474399995
sS'Foodforthought'
p267
F0.0155543878087
sS'TheoryOfReddit'
p268
F0.0095418277535600001
sS'TheBluePill'
p269
F0.0077190274025500001
sS'harrypotter'
p270
F0.0107901995781
sS'wicked_edge'
p271
F0.0111558156547
sS'booksuggestions'
p272
F0.0074130757090199997
sS'whowouldwin'
p273
F0.0080222153656299994
sS'GrandTheftAutoV'
p274
F0.0070035460992900001
sS'bourbon'
p275
F0.0094775774387400001
sS'Anxiety'
p276
F0.0073815073815099996
sS'arresteddevelopment'
p277
F0.0123004286513
sS'shutupandtakemymoney'
p278
F0.022992935131700001
sS'webcomics'
p279
F0.0086963273546099996
sS'photography'
p280
F0.0078747812560800001
sS'JusticePorn'
p281
F0.014831168479399999
sS'geek'
p282
F0.016131558339900001
sS'spicy'
p283
F0.019316884713299998
sS'Conservative'
p284
F0.0076728874808199999
sS'PrettyGirlsUglyFaces'
p285
F0.0097603612790399998
sS'homestead'
p286
F0.0120880940553
sS'AbandonedPorn'
p287
F0.014306664494100001
sS'motorcycles'
p288
F0.0072976101877099998
sS'progressive'
p289
F0.0071965979718700002
sS'dadjokes'
p290
F0.0133656947169
sS'vexillology'
p291
F0.00700749497288
sS'thatHappened'
p292
F0.012785803213199999
sS'futurama'
p293
F0.01169459629
sS'nsfw'
p294
F0.0076549626317
sS'cringe'
p295
F0.010930436542699999
sS'StarWars'
p296
F0.0096024816576899992
sS'AskWomen'
p297
F0.011185597115400001
sS'TheSimpsons'
p298
F0.0110511009555
sS'sex'
p299
F0.0081926022933200005
sS'cocktails'
p300
F0.0114221364221
sS'see'
p301
F0.0078611408087500001
sS'glitch_art'
p302
F0.0077421393585099998
sS'changemyview'
p303
F0.012479703961
sS'Android'
p304
F0.0093501808376499993
sS'firstworldanarchists'
p305
F0.014498880875399999
sS'PerfectTiming'
p306
F0.018114101912999999
sS'cosplay'
p307
F0.00855465256445
sS'truegaming'
p308
F0.0092462874754799997
sS'camping'
p309
F0.0109347210329
sS'whiskey'
p310
F0.0070680628272299997
sS'lotr'
p311
F0.0085556356645000008
sS'AmericanHorrorStory'
p312
F0.0077357425183500004
sS'wikipedia'
p313
F0.011977223640299999
sS'breakingbad'
p314
F0.0116180761993
sS'outside'
p315
F0.011474445191699999
sS'AskCulinary'
p316
F0.042402644354900001
sS'StandUpComedy'
p317
F0.0093243243243199998
sS'jobs'
p318
F0.00979392703706
sS'tonightsdinner'
p319
F0.022858222348200001
sS'casualiama'
p320
F0.012195962240699999
sS'facepalm'
p321
F0.015373985144200001
sS'NotTimAndEric'
p322
F0.010877626699600001
sS'bigboobproblems'
p323
F0.0096922292127199997
sS'news'
p324
F0.0070883477987000003
sS'Unexpected'
p325
F0.015986743470400001
sS'RedditDayOf'
p326
F0.013136029120800001
sS'fitmeals'
p327
F0.023666238420399999
sS'watchpeopledie'
p328
F0.0076519712565499996
sS'Sherlock'
p329
F0.0085995700215000005
sS'GetMotivated'
p330
F0.0094496727469900003
sS'drunk'
p331
F0.0134082773347
sS'xxfitness'
p332
F0.010152284264
sS'reactiongifs'
p333
F0.0125729099157
sS'community'
p334
F0.0113850264133
sS'startrek'
p335
F0.0089617402627199996
sS'EarthPorn'
p336
F0.0077908320493099998
sS'femalefashionadvice'
p337
F0.0120779368757
sS'3Dprinting'
p338
F0.0070716228467799999
sS'ainbow'
p339
F0.0078974012824799995
sS'Homebrewing'
p340
F0.0113521695257
sS'beer'
p341
F0.0138853028086
sS'ketorecipes'
p342
F0.014982178457100001
sS'HomeImprovement'
p343
F0.010091948867500001
sS'web_design'
p344
F0.00729751952857
sS'fatlogic'
p345
F0.013561090103
sS'MakeupAddiction'
p346
F0.010050807802500001
sS'androidapps'
p347
F0.0090156794425099995
sS'somethingimade'
p348
F0.017665095419
sS'keto'
p349
F0.0108113445067
sS'curlyhair'
p350
F0.00748055056852
sS'smoking'
p351
F0.0153236459709
sS'Scotch'
p352
F0.0076489812947600003
sS'Chromecast'
p353
F0.00862186323002
sS'Flipping'
p354
F0.00787749392623
sS'Perfectfit'
p355
F0.014940931202200001
sS'offbeat'
p356
F0.019775854731199999
sS'softwaregore'
p357
F0.0079689703808199994
sS'Cooking'
p358
F0.036669806877100003
sS'IASIP'
p359
F0.0107131603823
sS'hardware'
p360
F0.0071672157678699996
sS'LosAngeles'
p361
F0.0087152750758699993
sS'DIY'
p362
F0.013803516633399999
sS'technology'
p363
F0.0092166547556599993
sS'southpark'
p364
F0.0094233566988499995
sS'pitbulls'
p365
F0.0077189438753399999
sS'daddit'
p366
F0.0107105838996
sS'itookapicture'
p367
F0.011713135958599999
sS'Whatcouldgowrong'
p368
F0.018115183246100001
sS'talesfromtechsupport'
p369
F0.012446333318900001
sS'knitting'
p370
F0.00778312776202
sS'notinteresting'
p371
F0.0114341940081
sS'AnimalsBeingJerks'
p372
F0.019847533331099999
sS'running'
p373
F0.0073985927152300001
sS'catpictures'
p374
F0.0076018808777399997
sS'HumanPorn'
p375
F0.015048109196700001
sS'Graffiti'
p376
F0.0076758005942599997
sS'AskEngineers'
p377
F0.0070946332532299998
sS'EmmaWatson'
p378
F0.0073749543629100002
sS'FancyFollicles'
p379
F0.012184857108499999
sS'awwwtf'
p380
F0.016825164593999999
sS'Piracy'
p381
F0.0070976112340699997
sS'PublicFreakout'
p382
F0.012388104026099999
sS'ArtisanVideos'
p383
F0.017446061732200001
sS'rickandmorty'
p384
F0.0088038122930300007
sS'quotes'
p385
F0.0085694540428500002
sS'woodworking'
p386
F0.0120999621876
sS'perfectloops'
p387
F0.0145229450628
sS'Pets'
p388
F0.0084912994080000009
sS'InternetIsBeautiful'
p389
F0.0123779275134
sS'carporn'
p390
F0.0086330935251799999
sS'TalesFromRetail'
p391
F0.0149462541096
sS'WouldYouRather'
p392
F0.0091533180777999996
sS'quityourbullshit'
p393
F0.019241085798100001
sS'ProtectAndServe'
p394
F0.0082914695410400002
sS'woahdude'
p395
F0.014084386671099999
sS'mycology'
p396
F0.008356545961
sS'offmychest'
p397
F0.0097604713718500002
sS'australia'
p398
F0.0075120500461499998
sS'slowcooking'
p399
F0.040769230769199999
sS'UnresolvedMysteries'
p400
F0.0100798268164
sS'howto'
p401
F0.020692889383900001
sS'cringepics'
p402
F0.0117300891962
sS'toosoon'
p403
F0.0104203091125
sS'bodyweightfitness'
p404
F0.0099923136049200004
sS'thewalkingdead'
p405
F0.0091136313400099998
sS'Art'
p406
F0.0074449548550600004
sS'ConfusedBoners'
p407
F0.00832156921019
sS'4chan'
p408
F0.010117841817500001
sS'Enhancement'
p409
F0.0115933412604
sS'zombies'
p410
F0.00773195876289
sS'ArcherFX'
p411
F0.0140832788315
sS'getdisciplined'
p412
F0.00955172588063
sS'google'
p413
F0.0074838187702300002
sS'gardening'
p414
F0.018049457765800001
sS'whatisthisthing'
p415
F0.019357946831299998
sS'NetflixBestOf'
p416
F0.0195585432988
sS'tumblr'
p417
F0.0130716325464
sS'interestingasfuck'
p418
F0.019415734733100001
sS'MarkMyWords'
p419
F0.00773615635179
sS'raspberry_pi'
p420
F0.0077756466746200003
sS'Coffee'
p421
F0.012925059120899999
sS'gameofthrones'
p422
F0.0090919793166499997
sS'humor'
p423
F0.0144169835234
sS'AMA'
p424
F0.0081345650075800007
sS'SkincareAddiction'
p425
F0.0125518645129
sS'ExpectationVsReality'
p426
F0.031882993696799998
sS'lifehacks'
p427
F0.030131324578399999
sS'biology'
p428
F0.0072307992964600002
sS'ProgrammerHumor'
p429
F0.0082622601279300004
sS'business'
p430
F0.0080604534004999999
sS'FloridaMan'
p431
F0.0138526810816
sS'delusionalartists'
p432
F0.014984663347899999
sS'OkCupid'
p433
F0.0083730959809099996
sS'Frugal'
p434
F0.023016892225600001
sS'promos'
p435
F0.0088649011437700008
sS'shittyaskscience'
p436
F0.01065351418
sS'whatsthisplant'
p437
F0.0098362777454199992
sS'lewronggeneration'
p438
F0.0077297673339999998
sS'calvinandhobbes'
p439
F0.012191723561399999
sS'netflix'
p440
F0.0129887886246
sS'wheredidthesodago'
p441
F0.018618409605
sS'AnimalsBeingBros'
p442
F0.0173498987466
sS'classic4chan'
p443
F0.0102744449042
sS'GameDeals'
p444
F0.0074076662357200002
sS'battlestations'
p445
F0.0070966006662100001
sS'NSFWFunny'
p446
F0.0096101786681100001
sS'Design'
p447
F0.0106562836211
sS'Gaming4Gamers'
p448
F0.0073215763672199998
sS'marijuanaenthusiasts'
p449
F0.0092838196286500006
sS'TrollXChromosomes'
p450
F0.0143589577181
sS'confession'
p451
F0.011292719167899999
sS'tifu'
p452
F0.0078691008418600005
sS'unitedkingdom'
p453
F0.0072318095188400001
sS'Damnthatsinteresting'
p454
F0.021771916934100001
sS'loseit'
p455
F0.012877279143100001
sS'CrazyIdeas'
p456
F0.019718146494199999
sS'TinyHouses'
p457
F0.0129041827351
sS'Bad_Cop_No_Donut'
p458
F0.012405374341099999
sS'MorbidReality'
p459
F0.012818469524799999
sS'gif'
p460
F0.0123768758702
sS'cats'
p461
F0.0129019233593
sS'introvert'
p462
F0.0083305785124000008
sS'Standup'
p463
F0.0072821235611899996
sS'sousvide'
p464
F0.010340049035299999
sS'happy'
p465
F0.013556174559
sS'explainlikeIAmA'
p466
F0.0122799038399
sS'batman'
p467
F0.0087378968320899995
sS'trailerparkboys'
p468
F0.0084973166368499994
sS'snackexchange'
p469
F0.015502597509700001
sS'beerporn'
p470
F0.0077735311265099997
sS'blunderyears'
p471
F0.016496368336799998
sS'Marvel'
p472
F0.0082429082010499997
sS'Random_Acts_Of_Amazon'
p473
F0.0096785975164400007
sS'rage'
p474
F0.0157282374141
sS'comics'
p475
F0.0146797477907
sS'behindthegifs'
p476
F0.016679939828299999
sS'findareddit'
p477
F0.0130198691843
sS'fullmoviesonyoutube'
p478
F0.016426749665
sS'iphone'
p479
F0.0076790372801500001
sS'TrueAskReddit'
p480
F0.0146035725478
sS'tipofmytongue'
p481
F0.0100798730784
sS'politics'
p482
F0.0099939773764000008
sS'Dogtraining'
p483
F0.0089217788228800003
sS'bestofworldstar'
p484
F0.0103841455138
sS'eatsandwiches'
p485
F0.028105590062099998
sS'bicycling'
p486
F0.0095467115546500007
sS'Survival'
p487
F0.011180407666600001
sS'AskSocialScience'
p488
F0.00735179102143
sS'zelda'
p489
F0.0070133182204600002
sS'ImaginaryLandscapes'
p490
F0.0079321012136099999
sS'TheWayWeWere'
p491
F0.0118138712529
sS'badtattoos'
p492
F0.0130026639604
sS'Feminism'
p493
F0.0074226546906200003
sS'nottheonion'
p494
F0.011822349712700001
sS'Frugal_Jerk'
p495
F0.014140172141200001
sS'Baking'
p496
F0.0218814401746
sS'bigdickproblems'
p497
F0.0071176542158399997
sS'comicbooks'
p498
F0.0089110208360599994
sS'psychology'
p499
F0.010334238809500001
sS'oddlysatisfying'
p500
F0.018269313396900001
sS'GirlGamers'
p501
F0.0077723168362100001
sS'cosplaygirls'
p502
F0.0096729102599899999
sS'entertainment'
p503
F0.0117938553023
sS'atheism'
p504
F0.0084053935698100001
sS'terriblefacebookmemes'
p505
F0.0075084831420099999
sS'PrettyGirls'
p506
F0.0091088871576699999
sS'urbanexploration'
p507
F0.0106747230614
s.