(dp1
S'wicked_edge'
p2
F0.027872092434
sS'whatisthisthing'
p3
F0.0081614248675499993
sS'MechanicalKeyboards'
p4
F0.0165251319715
sS'audiophile'
p5
F0.0104160864479
sS'tea'
p6
F0.0179544501886
sS'Cooking'
p7
F0.0079567991206900002
sS'BuyItForLife'
p8
F0.018921124879400002
sS'woodworking'
p9
F0.0106519272301
sS'everymanshouldknow'
p10
F0.0081130324177500004
sS'linux'
p11
F0.0070203284292799997
sS'analog'
p12
F0.0085076568911999998
sS'cigars'
p13
F0.0093830809013699997
sS'flashlight'
p14
F0.011793998165399999
sS'rawdenim'
p15
F0.0092314297982000002
sS'Coffee'
p16
F0.0141925246827
sS'frugalmalefashion'
p17
F0.0093551316984600008
sS'bicycling'
p18
F0.0077813198122400002
sS'Scotch'
p19
F0.0087663372649000003
sS'Survival'
p20
F0.0071171250329499997
sS'malefashionadvice'
p21
F0.00779594227595
sS'LearnUselessTalents'
p22
F0.0086272796767499996
sS'PenmanshipPorn'
p23
F0.039283401683599999
sS'RoomPorn'
p24
F0.0074838469762499998
sS'goodyearwelt'
p25
F0.0099215002180499997
sS'Calligraphy'
p26
F0.054243008678900001
sS'vexillology'
p27
F0.0075430295549600004
sS'Archery'
p28
F0.0071177944862200002
sS'ArtisanVideos'
p29
F0.012228953179
sS'Shave_Bazaar'
p30
F0.01237253569
sS'lockpicking'
p31
F0.0086246028143400003
sS'photography'
p32
F0.0082676163826000005
sS'oddlysatisfying'
p33
F0.0071216825413500003
sS'vinyl'
p34
F0.0074305363424399997
sS'knifeclub'
p35
F0.019810426540300002
sS'amateurradio'
p36
F0.00791327913279
sS'PipeTobacco'
p37
F0.010986689203500001
sS'EDC'
p38
F0.025773636519100002
sS'Breadit'
p39
F0.0076121794871799996
sS'penpals'
p40
F0.0130401234568
sS'headphones'
p41
F0.013881868025000001
sS'typography'
p42
F0.0094756790903299994
sS'Watches'
p43
F0.023854300702800001
sS'knives'
p44
F0.0166524338173
sS'minimalism'
p45
F0.0099765732288599994
sS'kindle'
p46
F0.0078812691913999998
sS'battlestations'
p47
F0.0071164430684599999
sS'classicalmusic'
p48
F0.0073566902177900004
s.