(dp1
S'terriblefacebookmemes'
p2
F0.0097271648873099997
sS'ShinyPokemon'
p3
F0.0092109718929899997
sS'help'
p4
F0.0085015027908999993
sS'DoesAnybodyElse'
p5
F0.0076250334965499997
sS'notinteresting'
p6
F0.0117709437964
sS'teenagers'
p7
F0.0088572598812200008
sS'findareddit'
p8
F0.010013926653000001
sS'tumblr'
p9
F0.00827592001344
sS'sgsflair'
p10
F0.0093464611872099996
sS'CasualPokemonTrades'
p11
F0.0088102670828999995
sS'perfectloops'
p12
F0.0085861476817400001
sS'RandomActsOfGaming'
p13
F0.013767030458699999
sS'counting'
p14
F0.0116652957452
sS'Random_Acts_Of_Amazon'
p15
F0.0085794747527699992
sS'firstworldanarchists'
p16
F0.0108212954928
sS'forwardsfromgrandma'
p17
F0.0079361142800499999
sS'FiftyFifty'
p18
F0.0086042792964299997
sS'MURICA'
p19
F0.0072982955809700002
sS'shittyadviceanimals'
p20
F0.0070851460534500001
sS'WouldYouRather'
p21
F0.0082366668954599997
sS'quityourbullshit'
p22
F0.0076741440377800004
sS'OutOfTheLoop'
p23
F0.0090254274060600007
sS'shittyama'
p24
F0.0120401831881
sS'ExpectationVsReality'
p25
F0.0071318427139599998
sS'montageparodies'
p26
F0.0099050046339200001
sS'RandomKindness'
p27
F0.0109347442681
sS'outside'
p28
F0.0081522936588399996
sS'whowouldwin'
p29
F0.0075799740266600003
sS'misleadingthumbnails'
p30
F0.0085400822839999998
sS'shittyadvice'
p31
F0.0077128448531600001
sS'memes'
p32
F0.0104188665963
sS'DAE'
p33
F0.0083387380709700008
sS'CatsStandingUp'
p34
F0.0078164397377699993
sS'happy'
p35
F0.0072290754742000002
sS'SVExchange'
p36
F0.0106985926256
sS'indiegameswap'
p37
F0.010412371134
sS'explainlikeIAmA'
p38
F0.0074898502029999998
sS'csshelp'
p39
F0.0087258082559599996
sS'needamod'
p40
F0.023026315789499999
sS'KarmaCourt'
p41
F0.0073631416070899999
sS'casualiama'
p42
F0.0081601204756000002
sS'facepalm'
p43
F0.0077801241644300002
sS'softwaregore'
p44
F0.0076887590342900004
sS'mildlyinfuriating'
p45
F0.00826569587014
sS'AntiJokes'
p46
F0.0084444076496400008
sS'tf2trade'
p47
F0.0070580686557599999
sS'promos'
p48
F0.0077965235173799996
sS'CrazyIdeas'
p49
F0.0086380907147900008
sS'gmod'
p50
F0.0071468453378000004
sS'NoStupidQuestions'
p51
F0.0081854982735999997
sS'3amjokes'
p52
F0.0076315316933000003
sS'shittyaskscience'
p53
F0.0083873910399400002
sS'shittyaskreddit'
p54
F0.0100381076308
sS'pokemontrades'
p55
F0.012244481480199999
sS'Minecraft'
p56
F0.00749154180764
sS'Steam'
p57
F0.0072149310822400003
sS'lewronggeneration'
p58
F0.0080605962410900001
sS'Braveryjerk'
p59
F0.0086631226619399999
sS'Pokemongiveaway'
p60
F0.0109415934659
sS'uhccourtroom'
p61
F0.00853503184713
sS'Unexpected'
p62
F0.0075577594591599998
sS'dadjokes'
p63
F0.00722096141943
sS'thatHappened'
p64
F0.0081151832460699992
sS'GiftofGames'
p65
F0.0137027330588
sS'fffffffuuuuuuuuuuuu'
p66
F0.0070607020782899998
sS'CrappyDesign'
p67
F0.00705740371498
sS'firstworldproblems'
p68
F0.0074127111148499999
sS'behindthegifs'
p69
F0.0070240295748600001
sS'SteamGameSwap'
p70
F0.00987561509021
sS'wheredidthesodago'
p71
F0.0072812051649899998
sS'minecraftsuggestions'
p72
F0.010632344711799999
sS'DeepIntoYouTube'
p73
F0.0074931185645799999
sS'ImGoingToHellForThis'
p74
F0.0073348631371900003
s.