(dp1
S'WebGames'
p2
F0.0081090714667599994
sS'awwwtf'
p3
F0.017693777018200001
sS'Heavymind'
p4
F0.0088786291396599996
sS'NoStupidQuestions'
p5
F0.0118716439154
sS'Justrolledintotheshop'
p6
F0.012501783930400001
sS'DoesAnybodyElse'
p7
F0.0080074875207999992
sS'pettyrevenge'
p8
F0.013311552898700001
sS'circlebroke'
p9
F0.018380440437
sS'CityPorn'
p10
F0.0078095478019899996
sS'PanicHistory'
p11
F0.012060828526500001
sS'fffffffuuuuuuuuuuuu'
p12
F0.0083284394853499998
sS'uglyduckling'
p13
F0.0072992700729900004
sS'Conservative'
p14
F0.0070461033833400001
sS'quotes'
p15
F0.0077324389789500004
sS'Hiphopcirclejerk'
p16
F0.0093317780369900002
sS'calvinandhobbes'
p17
F0.0071187710753099999
sS'perfectloops'
p18
F0.013985479556700001
sS'everymanshouldknow'
p19
F0.012910624445099999
sS'dataisbeautiful'
p20
F0.0084052135835300003
sS'InternetIsBeautiful'
p21
F0.0082777829937699995
sS'Foodforthought'
p22
F0.010594046535799999
sS'breakingbad'
p23
F0.0074083033473400003
sS'financialindependence'
p24
F0.010538856305
sS'dadjokes'
p25
F0.012321340561900001
sS'TalesFromRetail'
p26
F0.010087919906500001
sS'privacy'
p27
F0.00820895522388
sS'ShitRConservativeSays'
p28
F0.00823127885967
sS'badlinguistics'
p29
F0.0098657609574599996
sS'WouldYouRather'
p30
F0.0091750771540599994
sS'quityourbullshit'
p31
F0.020179094623
sS'bestofworldstar'
p32
F0.00944939124114
sS'LearnUselessTalents'
p33
F0.0146101903008
sS'ProtectAndServe'
p34
F0.0086561996298699997
sS'HistoryPorn'
p35
F0.0091997955600999996
sS'Piracy'
p36
F0.0075952075310200002
sS'shittybattlestations'
p37
F0.017288543604299999
sS'badtattoos'
p38
F0.0127065858317
sS'whowouldwin'
p39
F0.0074505900753600003
sS'woahdude'
p40
F0.0082853531807299992
sS'collapse'
p41
F0.011898669396100001
sS'4chan'
p42
F0.0099439235362199993
sS'seinfeld'
p43
F0.00707669892809
sS'PublicFreakout'
p44
F0.011532457067999999
sS'MensRights'
p45
F0.0083771673485299996
sS'nononono'
p46
F0.0187728937729
sS'Frisson'
p47
F0.0101751228629
sS'arresteddevelopment'
p48
F0.0089465624244400004
sS'childfree'
p49
F0.0102304433192
sS'popping'
p50
F0.0080068223812000006
sS'webcomics'
p51
F0.0085376532399300004
sS'linguistics'
p52
F0.0070468852767099997
sS'cringepics'
p53
F0.0083457485893799997
sS'whitepeoplegifs'
p54
F0.013255324984
sS'foodhacks'
p55
F0.014140172141200001
sS'IdiotsFightingThings'
p56
F0.018222193194400001
sS'AbandonedPorn'
p57
F0.012664321422
sS'patientgamers'
p58
F0.0116721100819
sS'geek'
p59
F0.0100073998379
sS'spaceporn'
p60
F0.0077553046283700003
sS'inthenews'
p61
F0.0073000536768700001
sS'lostgeneration'
p62
F0.0128997867804
sS'3amjokes'
p63
F0.013143997183399999
sS'toosoon'
p64
F0.0161889343872
sS'magicskyfairy'
p65
F0.015612161051799999
sS'TrollYChromosome'
p66
F0.0091754343038899996
sS'PrettyGirlsUglyFaces'
p67
F0.0073911306432299997
sS'homestead'
p68
F0.0091995221027499994
sS'Braveryjerk'
p69
F0.0168681099748
sS'photoshopbattles'
p70
F0.0081214255490499997
sS'IWantToLearn'
p71
F0.0075428343074100002
sS'swoleacceptance'
p72
F0.0094348991955499999
sS'creepyPMs'
p73
F0.0101246642331
sS'progressive'
p74
F0.0070763061681800004
sS'fitnesscirclejerk'
p75
F0.0072075401959000003
sS'WatchItForThePlot'
p76
F0.0106651871031
sS'techsupportgore'
p77
F0.0152880911726
sS'freebies'
p78
F0.012684377969699999
sS'PropagandaPosters'
p79
F0.015887948155100001
sS'CrappyDesign'
p80
F0.018842683516900001
sS'NewsOfTheWeird'
p81
F0.010992275698200001
sS'shittyadviceanimals'
p82
F0.015288266715799999
sS'futurama'
p83
F0.0103713257026
sS'MarkMyWords'
p84
F0.0149923267619
sS'montageparodies'
p85
F0.0088130508156800003
sS'Cyberpunk'
p86
F0.0094309965419700006
sS'Libertarian'
p87
F0.0080189744748100002
sS'DeepIntoYouTube'
p88
F0.015791341376900001
sS'ArcherFX'
p89
F0.0079159768211899996
sS'cringe'
p90
F0.0090806833360700008
sS'spiders'
p91
F0.0070798176704499997
sS'YouShouldKnow'
p92
F0.012314527851699999
sS'getdisciplined'
p93
F0.0074631506934499997
sS'terriblefacebookmemes'
p94
F0.017494751574499999
sS'TrueAtheism'
p95
F0.0074120211771999999
sS'whatisthisthing'
p96
F0.0123307772413
sS'glitch_art'
p97
F0.0096705273810899998
sS'EatCheapAndHealthy'
p98
F0.013177857731199999
sS'NetflixBestOf'
p99
F0.0086800011611999992
sS'TheSimpsons'
p100
F0.010270270270299999
sS'circlebroke2'
p101
F0.010957427698900001
sS'polandball'
p102
F0.0095160235448000004
sS'tumblr'
p103
F0.0077661677492200003
sS'interestingasfuck'
p104
F0.0111168473585
sS'StandUpComedy'
p105
F0.00740139001715
sS'changemyview'
p106
F0.0093340622405799992
sS'fatpeoplestories'
p107
F0.011719274680999999
sS'OneY'
p108
F0.0082058933233899994
sS'KarmaCourt'
p109
F0.0103244837758
sS'torrents'
p110
F0.0076983044240899997
sS'Cinemagraphs'
p111
F0.0100697134005
sS'firstworldanarchists'
p112
F0.018433940461100001
sS'offbeat'
p113
F0.013613588378
sS'no_sob_story'
p114
F0.0222641509434
sS'humor'
p115
F0.0119344262295
sS'psychology'
p116
F0.0078621106743300001
sS'cableporn'
p117
F0.0083801372916099993
sS'Glitch_in_the_Matrix'
p118
F0.010839754473
sS'skeptic'
p119
F0.0118190118697
sS'shittyfoodporn'
p120
F0.021887917598399999
sS'wikipedia'
p121
F0.014146849505299999
sS'ExpectationVsReality'
p122
F0.021228439865799999
sS'socialskills'
p123
F0.00738331268071
sS'firstworldproblems'
p124
F0.0162958021632
sS'outside'
p125
F0.0181161238521
sS'AskCulinary'
p126
F0.0094136467113799995
sS'RoomPorn'
p127
F0.010240655401900001
sS'eFreebies'
p128
F0.0073791954296600001
sS'lifehacks'
p129
F0.012723856636600001
sS'vexillology'
p130
F0.0100617968626
sS'Enhancement'
p131
F0.0091319515698699994
sS'TheWayWeWere'
p132
F0.0126393197748
sS'blackpeoplegifs'
p133
F0.0129803586678
sS'bestof'
p134
F0.00892921437315
sS'ProgrammerHumor'
p135
F0.0090661831369000002
sS'needamod'
p136
F0.0080838977496199994
sS'tonightsdinner'
p137
F0.00714081690945
sS'casualiama'
p138
F0.0093253786140399999
sS'FloridaMan'
p139
F0.0216326270917
sS'malelivingspace'
p140
F0.00711574952562
sS'answers'
p141
F0.0120857403466
sS'KitchenConfidential'
p142
F0.0079211121888099999
sS'Frugal'
p143
F0.017306724306400002
sS'minimalism'
p144
F0.0108266853686
sS'NotTimAndEric'
p145
F0.0156641098103
sS'shittyaskscience'
p146
F0.016946836135000001
sS'GamePhysics'
p147
F0.0135297254066
sS'lewronggeneration'
p148
F0.020831425693600001
sS'howto'
p149
F0.0114985163205
sS'BuyItForLife'
p150
F0.0149135016902
sS'youtubehaiku'
p151
F0.0088070148450099996
sS'PoliticalHumor'
p152
F0.0104998359401
sS'ThriftStoreHauls'
p153
F0.013532005473599999
sS'Breadit'
p154
F0.0074478649453800002
sS'fitmeals'
p155
F0.00825272872482
sS'WarshipPorn'
p156
F0.0083438107212299994
sS'Anarcho_Capitalism'
p157
F0.0076721725787499999
sS'recipes'
p158
F0.0084769550328399994
sS'TinyHouses'
p159
F0.0121901249744
sS'Roadcam'
p160
F0.012122360072
sS'beermoney'
p161
F0.0089275687815800007
sS'cripplingalcoholism'
p162
F0.0115809024364
sS'howtonotgiveafuck'
p163
F0.0089807727080899995
sS'sixwordstories'
p164
F0.0089414858645600007
sS'AnimalsBeingBros'
p165
F0.014730063030999999
sS'confession'
p166
F0.0080301212848200004
sS'classic4chan'
p167
F0.016641735228099998
sS'whatstheword'
p168
F0.0073696145124699996
sS'OutOfTheLoop'
p169
F0.0155859772454
sS'androidcirclejerk'
p170
F0.0110539067232
sS'QuotesPorn'
p171
F0.0086136177194399994
sS'ShitAmericansSay'
p172
F0.010881104034
sS'bigdickproblems'
p173
F0.0070933165195499999
sS'TrueReddit'
p174
F0.0115145712111
sS'drunk'
p175
F0.0098876563773600008
sS'AmIFreeToGo'
p176
F0.0103850050659
sS'misc'
p177
F0.0125158027813
sS'AntiJokes'
p178
F0.0126702565727
sS'KingOfTheHill'
p179
F0.010472541506999999
sS'rant'
p180
F0.0080533425701399992
sS'conspiratard'
p181
F0.0211165924678
sS'Health'
p182
F0.0072806233235400003
sS'marijuanaenthusiasts'
p183
F0.0123260437376
sS'introvert'
p184
F0.0078173034694799994
sS'holdmybeer'
p185
F0.0167749607169
sS'gardening'
p186
F0.0082897975044299993
sS'ContagiousLaughter'
p187
F0.0090814260293300003
sS'nostalgia'
p188
F0.0100502512563
sS'badhistory'
p189
F0.015340112202
sS'Damnthatsinteresting'
p190
F0.012972489376
sS'environment'
p191
F0.0077051682779700004
sS'FiftyFifty'
p192
F0.0097309051372700007
sS'CrazyIdeas'
p193
F0.017933584122499999
sS'AskHistorians'
p194
F0.0074804676677600003
sS'GunsAreCool'
p195
F0.0078508341511300001
sS'Bad_Cop_No_Donut'
p196
F0.010632370693700001
sS'ANormalDayInRussia'
p197
F0.019655122022499999
sS'Whatcouldgowrong'
p198
F0.016029628772299999
sS'onetruegod'
p199
F0.0121544795138
sS'TheFacebookDelusion'
p200
F0.0086412022542300005
sS'urbanexploration'
p201
F0.011662330671899999
sS'MorbidReality'
p202
F0.0111279465461
sS'gif'
p203
F0.0083958783869700002
sS'SubredditDrama'
p204
F0.0139973829256
sS'wheredidthesodago'
p205
F0.0216816287272
sS'PenmanshipPorn'
p206
F0.0090909090909099995
sS'shittyreactiongifs'
p207
F0.017321129810099999
sS'misleadingthumbnails'
p208
F0.0195828331333
sS'shittyadvice'
p209
F0.022118959107799999
sS'MeanJokes'
p210
F0.0095990965556199993
sS'fifthworldproblems'
p211
F0.015297518670199999
sS'Pareidolia'
p212
F0.017611134782
sS'happy'
p213
F0.0088091615279900001
sS'CombatFootage'
p214
F0.0077934086255899999
sS'fatlogic'
p215
F0.013576751978699999
sS'cablefail'
p216
F0.010685539827899999
sS'explainlikeIAmA'
p217
F0.013829238962400001
sS'Firearms'
p218
F0.0072632944228300002
sS'DaystromInstitute'
p219
F0.0072376357056699999
sS'wicked_edge'
p220
F0.0081913139087400003
sS'lockpicking'
p221
F0.0081300813008099992
sS'occupywallstreet'
p222
F0.0082559339525299993
sS'trailerparkboys'
p223
F0.0089908411057899994
sS'mildlyinfuriating'
p224
F0.0137110234132
sS'cordcutters'
p225
F0.0099746835443000007
sS'somethingimade'
p226
F0.0092395167021999992
sS'Unexpected'
p227
F0.012581874081
sS'UnresolvedMysteries'
p228
F0.00749706440249
sS'Awwducational'
p229
F0.0128437704085
sS'Shitty_Car_Mods'
p230
F0.0143843498274
sS'shittyaskreddit'
p231
F0.018707692307699999
sS'NeutralPolitics'
p232
F0.0079604721383499995
sS'ghettoglamourshots'
p233
F0.016311300639699999
sS'blunderyears'
p234
F0.014889297109200001
sS'EDC'
p235
F0.00818248308649
sS'RedditDayOf'
p236
F0.0098456030431899998
sS'showerbeer'
p237
F0.0102245388933
sS'rage'
p238
F0.012719139160900001
sS'worldpolitics'
p239
F0.0077188146106100001
sS'IASIP'
p240
F0.0091330158523099999
sS'Flipping'
p241
F0.010911686722399999
sS'Perfectfit'
p242
F0.017286734310399999
sS'PerfectTiming'
p243
F0.013899305034700001
sS'behindthegifs'
p244
F0.0150658138183
sS'standupshots'
p245
F0.0117720922932
sS'socialism'
p246
F0.0089579664650499997
sS'TheBluePill'
p247
F0.0108834282799
sS'findareddit'
p248
F0.011766589290000001
sS'ObscureMedia'
p249
F0.0086065573770499997
sS'malegrooming'
p250
F0.0071583514099799999
sS'fullmoviesonyoutube'
p251
F0.0116875128153
sS'TalesFromThePizzaGuy'
p252
F0.0110281447444
sS'AskScienceFiction'
p253
F0.0093290068374099998
sS'NewsOfTheStupid'
p254
F0.014632836622399999
sS'Economics'
p255
F0.0086033315028399993
sS'FoodPorn'
p256
F0.0076356040050900003
sS'Anticonsumption'
p257
F0.016666666666700001
sS'badphilosophy'
p258
F0.0085875037015099992
sS'awesome'
p259
F0.0109399419513
sS'Cooking'
p260
F0.0087488405906099992
sS'BasicIncome'
p261
F0.011021619330199999
sS'DecidingToBeBetter'
p262
F0.0074233716475100003
sS'TrueAskReddit'
p263
F0.0109970674487
sS'FanTheories'
p264
F0.00883286167567
sS'oddlysatisfying'
p265
F0.0121337079882
sS'crappymusic'
p266
F0.0096053997923200001
sS'PoliticalDiscussion'
p267
F0.0071609921229099996
sS'conspiracy'
p268
F0.0084078645871800001
sS'Infographics'
p269
F0.0092812432549099991
sS'AnythingGoesNews'
p270
F0.0079953481610700004
sS'budgetfood'
p271
F0.0154182727367
sS'ShitRedditSays'
p272
F0.0075533946865800001
sS'southpark'
p273
F0.0078740157480300006
sS'SRSsucks'
p274
F0.011444001543
sS'TalesFromYourServer'
p275
F0.0105824133993
sS'watchpeopledie'
p276
F0.0103933992798
sS'ForeverAlone'
p277
F0.0093502921966300001
sS'MURICA'
p278
F0.010584140364200001
sS'eatsandwiches'
p279
F0.010678056593700001
sS'HighQualityGifs'
p280
F0.0113353163438
sS'preppers'
p281
F0.00711145590897
sS'softwaregore'
p282
F0.017021276595700002
sS'Survival'
p283
F0.0098673740053100006
sS'shittyama'
p284
F0.014795871769099999
sS'AskSocialScience'
p285
F0.0078609388839699992
sS'gats'
p286
F0.0093049753133299992
sS'comics'
p287
F0.010073284477
sS'TumblrInAction'
p288
F0.010536097586500001
sS'Gore'
p289
F0.0073305778678899999
sS'slowcooking'
p290
F0.0113752122241
sS'LifeProTips'
p291
F0.0074388157405299998
sS'nottheonion'
p292
F0.00913845917558
sS'itookapicture'
p293
F0.0070631970260199997
sS'nonononoyes'
p294
F0.0145292382939
sS'Pizza'
p295
F0.010493081994599999
sS'FutureWhatIf'
p296
F0.0084533086778499997
sS'economy'
p297
F0.0092900561991100007
sS'talesfromtechsupport'
p298
F0.0089575398504700005
sS'ArtisanVideos'
p299
F0.0080976782438199994
sS'JusticePorn'
p300
F0.0097499361357899997
sS'MapPorn'
p301
F0.0089188134270099997
sS'notinteresting'
p302
F0.017589805730400001
sS'facepalm'
p303
F0.0101041943191
sS'forwardsfromgrandma'
p304
F0.0217829770069
sS'AnimalsBeingJerks'
p305
F0.0141495041953
sS'UpliftingNews'
p306
F0.0073209549071600001
sS'Futurology'
p307
F0.0071163240036499998
sS'techsupportmacgyver'
p308
F0.0191736429922
sS'Images'
p309
F0.0087127891297599999
sS'EnoughLibertarianSpam'
p310
F0.0117880794702
sS'spicy'
p311
F0.0099290780141800001
sS'delusionalartists'
p312
F0.0235807860262
sS'TheoryOfReddit'
p313
F0.0148112756808
sS'startrek'
p314
F0.0070054883762399999
sS'truegaming'
p315
F0.0073419145213699999
sS'DAE'
p316
F0.0071654117075500004
sS'DumpsterDiving'
p317
F0.019277474195500001
sS'MachinePorn'
p318
F0.010836845273899999
sS'ConfusedBoners'
p319
F0.010732714138300001
sS'HumanPorn'
p320
F0.010834388630899999
sS'TimAndEric'
p321
F0.0082934236654600008
sS'IWantOut'
p322
F0.0075292577133999998
sS'investing'
p323
F0.0073363633110299998
sS'Shitstatistssay'
p324
F0.0072036673215499997
sS'thatHappened'
p325
F0.016748409757799999
sS'Coffee'
p326
F0.0086182131571400002
sS'tall'
p327
F0.0083653026428000005
sS'HailCorporate'
p328
F0.022872391117900001
sS'ImGoingToHellForThis'
p329
F0.0095623182237400007
sS'self'
p330
F0.0106894066779
sS'shutupandtakemymoney'
p331
F0.012788882735
s.