(dp1
S'Terraria'
p2
F0.025568047056599999
sS'shield'
p3
F0.0070133143389399999
sS'pettyrevenge'
p4
F0.0097877817354600008
sS'circlebroke'
p5
F0.0099591735741699997
sS'AskScienceFiction'
p6
F0.0167298271559
sS'skyrim'
p7
F0.0159706502225
sS'fffffffuuuuuuuuuuuu'
p8
F0.0079004354758099998
sS'spelunky'
p9
F0.016963772282900001
sS'sgsflair'
p10
F0.0076173826173800002
sS'teslore'
p11
F0.0072771872444799997
sS'perfectloops'
p12
F0.0119054368161
sS'everymanshouldknow'
p13
F0.0078834510595399993
sS'wiiu'
p14
F0.0077323739462000001
sS'InternetIsBeautiful'
p15
F0.00874038995586
sS'RandomActsOfGaming'
p16
F0.0162384309533
sS'MLPLounge'
p17
F0.0099332946635699998
sS'GlobalOffensive'
p18
F0.0071857653410400003
sS'TheoryOfReddit'
p19
F0.0109779667569
sS'WouldYouRather'
p20
F0.0074897318192800001
sS'quityourbullshit'
p21
F0.010796826491900001
sS'buildapc'
p22
F0.0087046000228699991
sS'Yogscast'
p23
F0.0092899511514299999
sS'LearnUselessTalents'
p24
F0.0089379600420599996
sS'startrek'
p25
F0.0124557150848
sS'HistoryPorn'
p26
F0.0080245171176299996
sS'shittybattlestations'
p27
F0.00747731397459
sS'Bioshock'
p28
F0.0085550769956899992
sS'woahdude'
p29
F0.0085437614500799997
sS'Fallout'
p30
F0.018162133498299999
sS'ImaginaryMonsters'
p31
F0.0104814478373
sS'dwarffortress'
p32
F0.025522702671899999
sS'mwo'
p33
F0.0071573738623299998
sS'adventuretime'
p34
F0.0099575477587700006
sS'nononono'
p35
F0.0114271621177
sS'MilitaryPorn'
p36
F0.0086484004285900008
sS'Frisson'
p37
F0.0084144096765700008
sS'YouShouldKnow'
p38
F0.0093414746880100003
sS'shutupandtakemymoney'
p39
F0.0070956691950100001
sS'skyrimmods'
p40
F0.011535138980600001
sS'cringepics'
p41
F0.00710127979826
sS'CrusaderKings'
p42
F0.015937731653100001
sS'JusticePorn'
p43
F0.00793249394415
sS'softwaregore'
p44
F0.0133574976507
sS'smashbros'
p45
F0.0100743616381
sS'geek'
p46
F0.0109783170635
sS'spaceporn'
p47
F0.0098933074684800001
sS'KerbalAcademy'
p48
F0.010286349735900001
sS'tipofmytongue'
p49
F0.0070683771060100001
sS'Stargate'
p50
F0.0070649187534299997
sS'NoStupidQuestions'
p51
F0.0090034325586600007
sS'MonsterHunter'
p52
F0.0089334883436299993
sS'stalker'
p53
F0.00786001684289
sS'rickandmorty'
p54
F0.0120103618808
sS'Steam'
p55
F0.0189476695797
sS'IndieGaming'
p56
F0.017675761800400001
sS'photoshopbattles'
p57
F0.0089395966248200006
sS'Astronomy'
p58
F0.0072390910919000002
sS'dadjokes'
p59
F0.0088036117381500006
sS'holdmybeer'
p60
F0.0095207758193499997
sS'prisonarchitect'
p61
F0.023954872111899998
sS'techsupportgore'
p62
F0.0144347240915
sS'PropagandaPosters'
p63
F0.0086760245468000003
sS'SCP'
p64
F0.0148430529646
sS'vexillology'
p65
F0.0095537690784100009
sS'SteamGameSwap'
p66
F0.0105398045811
sS'futurama'
p67
F0.0103266505358
sS'montageparodies'
p68
F0.0115254795423
sS'techsupport'
p69
F0.0088195481377099996
sS'DeepIntoYouTube'
p70
F0.0082024190184900002
sS'ArcherFX'
p71
F0.011390862090699999
sS'TalesFromRetail'
p72
F0.0095186045452499996
sS'talesfromtechsupport'
p73
F0.015935488011000001
sS'gamemusic'
p74
F0.0094080185265599994
sS'truetf2'
p75
F0.0090239848017099993
sS'pcgaming'
p76
F0.0144441522006
sS'whatisthisthing'
p77
F0.0074033102157199998
sS'MechanicalKeyboards'
p78
F0.0100585497673
sS'starbound'
p79
F0.0283807011232
sS'totalwar'
p80
F0.0117794879849
sS'counterstrike'
p81
F0.0073353184690200003
sS'ShouldIbuythisgame'
p82
F0.018679563404
sS'SubredditDrama'
p83
F0.013882318692900001
sS'tumblr'
p84
F0.0077934163080100004
sS'Rainmeter'
p85
F0.0099318288669499998
sS'interestingasfuck'
p86
F0.0102239377313
sS'changemyview'
p87
F0.0106203234371
sS'roosterteeth'
p88
F0.0089403561200299998
sS'fatpeoplestories'
p89
F0.0080446083698799999
sS'raspberry_pi'
p90
F0.0077654437752
sS'Android'
p91
F0.0075970377936699996
sS'CrappyDesign'
p92
F0.0119551868468
sS'Foodforthought'
p93
F0.0074570842300199997
sS'Cinemagraphs'
p94
F0.0074486646087800002
sS'notinteresting'
p95
F0.010329692089399999
sS'firstworldanarchists'
p96
F0.011649399289799999
sS'offbeat'
p97
F0.0083973655323799998
sS'no_sob_story'
p98
F0.0070528568032299996
sS'gameofthrones'
p99
F0.0094981966018799994
sS'humor'
p100
F0.0076531896681900002
sS'mountandblade'
p101
F0.014846743294999999
sS'space'
p102
F0.010734998421299999
sS'skeptic'
p103
F0.0080138084083300008
sS'lotr'
p104
F0.0070722011648299997
sS'shittyfoodporn'
p105
F0.0072482676640300003
sS'boardgames'
p106
F0.0131019280325
sS'oblivion'
p107
F0.0072268907562999998
sS'firstworldproblems'
p108
F0.0082104362037400003
sS'outside'
p109
F0.0156830712681
sS'mindcrack'
p110
F0.0095575990152799994
sS'gamedev'
p111
F0.0115660564077
sS'DaystromInstitute'
p112
F0.0099976567991899995
sS'lifehacks'
p113
F0.0079287057616700008
sS'pcmasterrace'
p114
F0.0115948318837
sS'SimCity'
p115
F0.0083412599692699995
sS'DarkSouls2'
p116
F0.0115689995026
sS'magicTCG'
p117
F0.0085824783230599999
sS'spaceengineers'
p118
F0.0168833569536
sS'Enhancement'
p119
F0.0097359389227400003
sS'europe'
p120
F0.0074652731490100002
sS'iosgaming'
p121
F0.0090455603591599997
sS'Warhammer'
p122
F0.0078744854739600002
sS'bestof'
p123
F0.011697923544699999
sS'Cyberpunk'
p124
F0.0114694637781
sS'CookieClicker'
p125
F0.0093212237093700002
sS'battlefield3'
p126
F0.0076795762992400004
sS'casualiama'
p127
F0.0074590260981300003
sS'FloridaMan'
p128
F0.00988451751811
sS'titanfall'
p129
F0.0094046208530799997
sS'delusionalartists'
p130
F0.0073430600883100001
sS'AnimalCrossing'
p131
F0.0078410621512400008
sS'tf2trade'
p132
F0.0092271402802800006
sS'Cynicalbrit'
p133
F0.0195777607311
sS'promos'
p134
F0.0088639977874600002
sS'JonTron'
p135
F0.0098828180149700007
sS'emulation'
p136
F0.0072629969418999997
sS'eu4'
p137
F0.010485352934799999
sS'shittyaskscience'
p138
F0.0132887142926
sS'doctorwho'
p139
F0.0101985343684
sS'Diablo'
p140
F0.0072763480392199998
sS'gamingsuggestions'
p141
F0.0113103116352
sS'Morrowind'
p142
F0.0090090090090099995
sS'worldbuilding'
p143
F0.014601272931500001
sS'WritingPrompts'
p144
F0.0081823337204
sS'dayz'
p145
F0.0089146190823399998
sS'RedditDayOf'
p146
F0.0088226571767499994
sS'Borderlands'
p147
F0.015640399365800001
sS'gamedesign'
p148
F0.0075810386894399999
sS'programming'
p149
F0.0092038915028000001
sS'Xcom'
p150
F0.035424818334300001
sS'RWBY'
p151
F0.0073746312684399998
sS'badhistory'
p152
F0.011514392991200001
sS'Planetside'
p153
F0.0128098022835
sS'math'
p154
F0.0072022572022599997
sS'4chan'
p155
F0.011220044750499999
sS'dontstarve'
p156
F0.020184587679099999
sS'anime'
p157
F0.0070900196157199996
sS'AnimalsBeingBros'
p158
F0.0077430754040399997
sS'classic4chan'
p159
F0.010130718954200001
sS'GameDeals'
p160
F0.017808958445800001
sS'battlestations'
p161
F0.0081910428297800007
sS'OutOfTheLoop'
p162
F0.0135632183908
sS'PixelArt'
p163
F0.0090458585699700004
sS'paradoxplaza'
p164
F0.012872340425499999
sS'HalfLife'
p165
F0.010565033651599999
sS'QuotesPorn'
p166
F0.0080760812136799996
sS'gamingpc'
p167
F0.0073454913880400003
sS'TrueReddit'
p168
F0.0100383885629
sS'StarWars'
p169
F0.010303249221700001
sS'nintendo'
p170
F0.0079911999741200009
sS'reactiongifs'
p171
F0.0083009197821799999
sS'patientgamers'
p172
F0.020518170752900002
sS'community'
p173
F0.0088116147727600007
sS'printSF'
p174
F0.0070296141190499999
sS'incremental_games'
p175
F0.0075940383250499999
sS'IdiotsFightingThings'
p176
F0.00935748598879
sS'conspiratard'
p177
F0.011117887132300001
sS'rpg'
p178
F0.0131022348669
sS'linux'
p179
F0.0092629312786799995
sS'TrueAtheism'
p180
F0.0077199456205099999
sS'ContagiousLaughter'
p181
F0.0070888016093499998
sS'pokemon'
p182
F0.0095237254625099993
sS'GamePhysics'
p183
F0.0180059676921
sS'homestuck'
p184
F0.0087935822277099996
sS'TheLastAirbender'
p185
F0.0108221440976
sS'Damnthatsinteresting'
p186
F0.0097541074806200001
sS'DnD'
p187
F0.0125919963201
sS'FiftyFifty'
p188
F0.0084583967713100002
sS'CrazyIdeas'
p189
F0.0121275218774
sS'AskHistorians'
p190
F0.0101894799171
sS'lego'
p191
F0.0117527720452
sS'ANormalDayInRussia'
p192
F0.0085972358254399993
sS'buildapcsales'
p193
F0.0080345031477199996
sS'Awesomenauts'
p194
F0.00911602209945
sS'NetflixBestOf'
p195
F0.0080227610601299997
sS'wheredidthesodago'
p196
F0.0146081441247
sS'hearthstone'
p197
F0.0110348301401
sS'shittyreactiongifs'
p198
F0.0079048712924799994
sS'misleadingthumbnails'
p199
F0.010454899343800001
sS'Ubuntu'
p200
F0.0071415602493499998
sS'whowouldwin'
p201
F0.015508795085899999
sS'battlefield_4'
p202
F0.0071560935220599999
sS'lewronggeneration'
p203
F0.0085931929903600001
sS'Pareidolia'
p204
F0.0083715474032200008
sS'arma'
p205
F0.00713043478261
sS'tf2'
p206
F0.020195029883599998
sS'fatlogic'
p207
F0.0073387506348399998
sS'explainlikeIAmA'
p208
F0.012483005808899999
sS'WorldofTanks'
p209
F0.0088747070848100001
sS'unitedkingdom'
p210
F0.0074695589890500002
sS'3DS'
p211
F0.0081527371548299997
sS'AndroidGaming'
p212
F0.0117625769092
sS'rpg_gamers'
p213
F0.0084298432206700007
sS'gamegrumps'
p214
F0.0113022573293
sS'WebGames'
p215
F0.0135833173905
sS'Eve'
p216
F0.011571986774899999
sS'mildlyinfuriating'
p217
F0.010575093331000001
sS'bindingofisaac'
p218
F0.029787234042599999
sS'roguelikes'
p219
F0.022156828803899999
sS'youtubehaiku'
p220
F0.0108592237787
sS'Awwducational'
p221
F0.0079378024248400007
sS'asoiaf'
p222
F0.0097617365615599999
sS'fifthworldproblems'
p223
F0.0091529630778799994
sS'Twitch'
p224
F0.0072012953809399999
sS'ProgrammerHumor'
p225
F0.0115348196608
sS'KillLaKill'
p226
F0.00776427162222
sS'pathofexile'
p227
F0.00722158874952
sS'darksouls'
p228
F0.016578041914299999
sS'rage'
p229
F0.0092536275957899993
sS'comics'
p230
F0.013792774304400001
sS'science'
p231
F0.0083948959032899995
sS'youtube'
p232
F0.0083072546230399998
sS'Perfectfit'
p233
F0.0087064676616900004
sS'PerfectTiming'
p234
F0.0086420253986299999
sS'behindthegifs'
p235
F0.014633105802
sS'standupshots'
p236
F0.0099783801762799995
sS'starcitizen'
p237
F0.0136702107954
sS'civ'
p238
F0.026954561632499999
sS'KerbalSpaceProgram'
p239
F0.027581366330499998
sS'feedthebeast'
p240
F0.0120270846157
sS'fullmoviesonyoutube'
p241
F0.0079585492227999995
sS'gallifrey'
p242
F0.0087796312554900002
sS'ShingekiNoKyojin'
p243
F0.0086729777223499994
sS'gamernews'
p244
F0.013201908924700001
sS'Portal'
p245
F0.0096500797180500003
sS'fireemblem'
p246
F0.0097116168730100004
sS'sips'
p247
F0.0072532138223799997
sS'TrueAskReddit'
p248
F0.0085470085470099998
sS'FanTheories'
p249
F0.013046455472699999
sS'hardware'
p250
F0.0084084748575500006
sS'Metroid'
p251
F0.0082973206568699998
sS'learnprogramming'
p252
F0.0079038669209400003
sS'Pathfinder_RPG'
p253
F0.0093556309203600002
sS'polandball'
p254
F0.016399082568799999
sS'counting'
p255
F0.0075305115554399997
sS'technology'
p256
F0.0082668107016100004
sS'southpark'
p257
F0.0081727211300200008
sS'starcraft'
p258
F0.0097085288672699999
sS'techsupportmacgyver'
p259
F0.011898701959799999
sS'MURICA'
p260
F0.0081056291461400008
sS'Unexpected'
p261
F0.0112948769665
sS'HighQualityGifs'
p262
F0.0091144302011099999
sS'Marvel'
p263
F0.0070234847772200001
sS'self'
p264
F0.00713721358968
sS'shittyama'
p265
F0.0072533538737999999
sS'pokemonzetaomicron'
p266
F0.00871931234927
sS'zelda'
p267
F0.0085906503363800003
sS'ImaginaryLandscapes'
p268
F0.0075316927665900002
sS'masseffect'
p269
F0.017135238991500001
sS'scifi'
p270
F0.0136531033863
sS'britishproblems'
p271
F0.0087769915267099999
sS'nottheonion'
p272
F0.0088029759314199995
sS'nonononoyes'
p273
F0.011349967615600001
sS'katawashoujo'
p274
F0.0078856579595900003
sS'Whatcouldgowrong'
p275
F0.011079697409599999
sS'wallpapers'
p276
F0.0099682048637999999
sS'firefly'
p277
F0.0143236937768
sS'gaming'
p278
F0.0080554978100499993
sS'paydaytheheist'
p279
F0.017399771389899999
sS'MapPorn'
p280
F0.0095070675181199993
sS'GiftofGames'
p281
F0.012254742194100001
sS'facepalm'
p282
F0.0076192528514499999
sS'forwardsfromgrandma'
p283
F0.0096384451785099991
sS'AnimalsBeingJerks'
p284
F0.0087372985567299999
sS'askscience'
p285
F0.0093998811645900002
sS'Futurology'
p286
F0.0095824074193000004
sS'linux_gaming'
p287
F0.0105676544091
sS'nerdcubed'
p288
F0.0176261016314
sS'Games'
p289
F0.018274632293000002
sS'mylittlepony'
p290
F0.011971378772599999
sS'Gaming4Gamers'
p291
F0.014275256222499999
sS'playrust'
p292
F0.0082693443591299997
sS'Minecraft'
p293
F0.0155637178609
sS'HailCorporate'
p294
F0.00756628725574
sS'truegaming'
p295
F0.0215551918329
sS'oddlysatisfying'
p296
F0.010330091860400001
sS'oculus'
p297
F0.0100380547149
sS'dataisbeautiful'
p298
F0.010086236633299999
sS'heroesofthestorm'
p299
F0.0075565769485499996
sS'TF2fashionadvice'
p300
F0.0076451314794599998
sS'Warframe'
p301
F0.0095050050509699995
sS'TumblrInAction'
p302
F0.0121272119787
sS'thatHappened'
p303
F0.0103649068323
sS'minecraftsuggestions'
p304
F0.0079906316732099997
sS'Borderlands2'
p305
F0.0108305213889
sS'speedrun'
p306
F0.0087759815242499997
sS'Warthunder'
p307
F0.011503850078900001
sS'GifSound'
p308
F0.010566165668399999
s.