(dp1
S'actuallesbians'
p2
F0.014375230372300001
sS'transtimelines'
p3
F0.046485765124600002
sS'BDSMcommunity'
p4
F0.00789820096534
sS'lgbt'
p5
F0.0181967006674
sS'transpassing'
p6
F0.057638315441800002
sS'LGBTeens'
p7
F0.011288299587899999
sS'bisexual'
p8
F0.011108137045000001
sS'ainbow'
p9
F0.026771653543300002
sS'asexuality'
p10
F0.013915947676
sS'MtF'
p11
F0.034615384615400001
sS'polyamory'
p12
F0.0103180383588
sS'asktransgender'
p13
F0.067048652995600005
s.