(dp1
S'awwwtf'
p2
F0.0075658226571199997
sS'lostgeneration'
p3
F0.015945330296099999
sS'DoesAnybodyElse'
p4
F0.0080882928483800003
sS'pettyrevenge'
p5
F0.0084092014733499997
sS'circlebroke'
p6
F0.0125577744833
sS'CityPorn'
p7
F0.0121196657524
sS'PanicHistory'
p8
F0.014895908112000001
sS'ShitPoliticsSays'
p9
F0.0072289156626499998
sS'inthenews'
p10
F0.0119269066637
sS'Conservative'
p11
F0.0099496376366500008
sS'quotes'
p12
F0.0086874409820600004
sS'PoliticalDiscussion'
p13
F0.022331844543700002
sS'teslore'
p14
F0.0091584815503100003
sS'perfectloops'
p15
F0.0093766812696900008
sS'everymanshouldknow'
p16
F0.010046339203
sS'dataisbeautiful'
p17
F0.0092838196286500006
sS'askphilosophy'
p18
F0.0083517327445500004
sS'spacex'
p19
F0.010561689870399999
sS'Foodforthought'
p20
F0.016285356365799999
sS'StonerPhilosophy'
p21
F0.0075825156110600001
sS'islam'
p22
F0.0076904590242700003
sS'dadjokes'
p23
F0.0073178129976499999
sS'linguistics'
p24
F0.011952572193500001
sS'languagelearning'
p25
F0.0093238135237300006
sS'syriancivilwar'
p26
F0.0139638582492
sS'ShitRConservativeSays'
p27
F0.0086687306501499993
sS'badlinguistics'
p28
F0.0077532167601499996
sS'WouldYouRather'
p29
F0.013554727211099999
sS'quityourbullshit'
p30
F0.0106877132404
sS'paradoxplaza'
p31
F0.016028368794299998
sS'LearnUselessTalents'
p32
F0.0099186791522899997
sS'ProtectAndServe'
p33
F0.0087872404453800002
sS'writing'
p34
F0.0071513313999499997
sS'HistoryPorn'
p35
F0.013338107599999999
sS'whowouldwin'
p36
F0.019204666878400001
sS'Fallout'
p37
F0.0075017658377400003
sS'ImaginaryMonsters'
p38
F0.012362351963399999
sS'PublicFreakout'
p39
F0.0084411645774399996
sS'MensRights'
p40
F0.00775673825897
sS'nononono'
p41
F0.0095934216537199996
sS'MilitaryPorn'
p42
F0.013154814849500001
sS'Frisson'
p43
F0.011048178449100001
sS'YouShouldKnow'
p44
F0.0110799516111
sS'shutupandtakemymoney'
p45
F0.0077675779279699998
sS'SelfDrivingCars'
p46
F0.0108359133127
sS'misc'
p47
F0.0109128257799
sS'whitepeoplegifs'
p48
F0.0074530732425500002
sS'howto'
p49
F0.0071620411817399999
sS'AbandonedPorn'
p50
F0.0083373476118100004
sS'patientgamers'
p51
F0.0086563793752399993
sS'geek'
p52
F0.0075225145682500001
sS'spaceporn'
p53
F0.0121269242853
sS'DebateAnAtheist'
p54
F0.00949216896061
sS'Stargate'
p55
F0.00907960199005
sS'anonymous'
p56
F0.0073794405354399998
sS'3amjokes'
p57
F0.0090239848017099993
sS'toosoon'
p58
F0.0081331929958899998
sS'Military'
p59
F0.0094709612817100008
sS'magicskyfairy'
p60
F0.00716427857381
sS'AskGames'
p61
F0.0076515597410200002
sS'GunsAreCool'
p62
F0.0076910215683000001
sS'IWantToLearn'
p63
F0.0098795302182599996
sS'Republican'
p64
F0.0085941300470199992
sS'Liberal'
p65
F0.0118912797282
sS'progressive'
p66
F0.013629236521500001
sS'IdiotsFightingThings'
p67
F0.0083512755268499994
sS'firstworldproblems'
p68
F0.0090939389610999993
sS'PropagandaPosters'
p69
F0.024150459499899999
sS'vexillology'
p70
F0.024861878452999999
sS'NewsOfTheWeird'
p71
F0.0087706033570200004
sS'comics'
p72
F0.0077916533247900004
sS'futurama'
p73
F0.0085363877032799997
sS'MarkMyWords'
p74
F0.018289014558999998
sS'Enhancement'
p75
F0.0089452881214899995
sS'zombies'
p76
F0.0088337468982599993
sS'Libertarian'
p77
F0.010200599143
sS'DeepIntoYouTube'
p78
F0.0072112542853800003
sS'ArcherFX'
p79
F0.0074467531114899999
sS'Anarcho_Capitalism'
p80
F0.0104443426477
sS'firefly'
p81
F0.0072051300525999996
sS'progun'
p82
F0.0074800735744900001
sS'TrueAtheism'
p83
F0.01039435555
sS'whatisthisthing'
p84
F0.0084196584835200001
sS'shittyreactiongifs'
p85
F0.0088005537427100003
sS'totalwar'
p86
F0.0084207620099400003
sS'TheSimpsons'
p87
F0.0072495931350799996
sS'polandball'
p88
F0.016738339397899999
sS'POLITIC'
p89
F0.0123382846191
sS'interestingasfuck'
p90
F0.0082904762723800002
sS'AskScienceDiscussion'
p91
F0.0095573440643899991
sS'changemyview'
p92
F0.015856474386500001
sS'OneY'
p93
F0.0102622576967
sS'CrappyDesign'
p94
F0.0088550654935399993
sS'Cinemagraphs'
p95
F0.0077314542963399999
sS'firstworldanarchists'
p96
F0.0088904694167899999
sS'offbeat'
p97
F0.010505726094
sS'no_sob_story'
p98
F0.0073103100579799997
sS'humor'
p99
F0.0101030110935
sS'mountandblade'
p100
F0.0084728867623600004
sS'space'
p101
F0.0093183903290199998
sS'skeptic'
p102
F0.0127281091857
sS'wikipedia'
p103
F0.0127137220517
sS'ExpectationVsReality'
p104
F0.0084099049992199994
sS'socialskills'
p105
F0.0079067831876800006
sS'DebateReligion'
p106
F0.0122736768802
sS'religion'
p107
F0.0086887835703000002
sS'outside'
p108
F0.012408319099800001
sS'China'
p109
F0.0098804465961899995
sS'DaystromInstitute'
p110
F0.018977921111399999
sS'lifehacks'
p111
F0.0070940495397200003
sS'Astronomy'
p112
F0.0084918701862899994
sS'SCP'
p113
F0.0125990388362
sS'SubredditDrama'
p114
F0.0113809854268
sS'europe'
p115
F0.0137326426141
sS'blackpeoplegifs'
p116
F0.0071281346616300003
sS'bestof'
p117
F0.0091599435360100005
sS'Cyberpunk'
p118
F0.012787072969
sS'casualiama'
p119
F0.0088472786800799993
sS'FloridaMan'
p120
F0.0122059758423
sS'delusionalartists'
p121
F0.0088654680719200008
sS'answers'
p122
F0.0157996146435
sS'BasicIncome'
p123
F0.016646848989299998
sS'eu4'
p124
F0.0099696575639400004
sS'shittyaskscience'
p125
F0.0091193684497099994
sS'ainbow'
p126
F0.0077732053040700001
sS'gamingsuggestions'
p127
F0.0075814379738399999
sS'worldbuilding'
p128
F0.020110212552799999
sS'WritingPrompts'
p129
F0.0087678818643299999
sS'PoliticalHumor'
p130
F0.012793414172899999
sS'CanadaPolitics'
p131
F0.0085671715917600005
sS'RedditDayOf'
p132
F0.0146068697934
sS'WarshipPorn'
p133
F0.016855905419600001
sS'TalesFromThePizzaGuy'
p134
F0.0070889018012799997
sS'watchpeopledie'
p135
F0.0072238478419899997
sS'sixwordstories'
p136
F0.0077540106951899997
sS'AnimalsBeingBros'
p137
F0.0076210092688000003
sS'ukpolitics'
p138
F0.011779879621700001
sS'classic4chan'
p139
F0.0108245481928
sS'whatstheword'
p140
F0.00980957876515
sS'TheoryOfReddit'
p141
F0.0132089190499
sS'OutOfTheLoop'
p142
F0.012674916155900001
sS'AskUK'
p143
F0.0114330993887
sS'QuotesPorn'
p144
F0.010566939263099999
sS'ShitAmericansSay'
p145
F0.014368984682099999
sS'TrueReddit'
p146
F0.013875515393899999
sS'StarWars'
p147
F0.0071593705720000003
sS'confession'
p148
F0.0084039240633500007
sS'Scotland'
p149
F0.0101375814627
sS'AntiJokes'
p150
F0.0082098304723299993
sS'conservatives'
p151
F0.0075361105296200001
sS'printSF'
p152
F0.0112099849763
sS'techsupportmacgyver'
p153
F0.0071119913575800001
sS'rant'
p154
F0.0079719667104699993
sS'conspiratard'
p155
F0.016603272354000002
sS'startrek'
p156
F0.0113154810206
sS'rpg'
p157
F0.0075747328553999998
sS'introvert'
p158
F0.0072843564004599999
sS'AskScienceFiction'
p159
F0.0324970131422
sS'GamePhysics'
p160
F0.0083628821837199996
sS'badhistory'
p161
F0.021322151842300002
sS'Damnthatsinteresting'
p162
F0.010005832996799999
sS'environment'
p163
F0.010451935816300001
sS'CrazyIdeas'
p164
F0.017647824954399999
sS'AskHistorians'
p165
F0.0197022150919
sS'privacy'
p166
F0.0094580535325800002
sS'Bad_Cop_No_Donut'
p167
F0.0088140651961000002
sS'ANormalDayInRussia'
p168
F0.013047940184699999
sS'TheFacebookDelusion'
p169
F0.0080193482688399997
sS'urbanexploration'
p170
F0.00878225441376
sS'MorbidReality'
p171
F0.0089023723081500007
sS'NetflixBestOf'
p172
F0.0070705307262600003
sS'wheredidthesodago'
p173
F0.0080699662095000003
sS'ifyoulikeblank'
p174
F0.00725277497477
sS'alternativeart'
p175
F0.0075851778164599997
sS'shittyadvice'
p176
F0.0088224368499300009
sS'MeanJokes'
p177
F0.0094004356299399999
sS'lewronggeneration'
p178
F0.0096583143507999996
sS'Pareidolia'
p179
F0.0090993104428799994
sS'energy'
p180
F0.0116022740457
sS'ObscureMedia'
p181
F0.0079265748852700001
sS'CombatFootage'
p182
F0.0129261268502
sS'truegaming'
p183
F0.0104481369587
sS'explainlikeIAmA'
p184
F0.022432527164400001
sS'misleadingthumbnails'
p185
F0.0093023255813999995
sS'unitedkingdom'
p186
F0.0092870243675200002
sS'fifthworldproblems'
p187
F0.0096165550821700006
sS'occupywallstreet'
p188
F0.0079687265072900006
sS'oddlysatisfying'
p189
F0.0075379629292500003
sS'Unexpected'
p190
F0.0077498708354899999
sS'CrusaderKings'
p191
F0.012099594348899999
sS'collapse'
p192
F0.015810793153000002
sS'Awwducational'
p193
F0.0090517556025999993
sS'shittyaskreddit'
p194
F0.0095474271543700001
sS'NeutralPolitics'
p195
F0.0164974619289
sS'webcomics'
p196
F0.0083296312749900001
sS'calvinandhobbes'
p197
F0.0081663659671400001
sS'rage'
p198
F0.0091862882560600004
sS'worldpolitics'
p199
F0.0144266567386
sS'standupshots'
p200
F0.0085325574079900008
sS'PerfectTiming'
p201
F0.0090667735310299997
sS'behindthegifs'
p202
F0.00878260409502
sS'BritishTV'
p203
F0.0070656092285499997
sS'socialism'
p204
F0.0151774595268
sS'Ask_Politics'
p205
F0.023540883131400001
sS'civ'
p206
F0.011381815320899999
sS'findareddit'
p207
F0.013371150729300001
sS'KerbalSpaceProgram'
p208
F0.00769965554173
sS'russia'
p209
F0.0104457544731
sS'Glitch_in_the_Matrix'
p210
F0.0092738752959699994
sS'history'
p211
F0.012086647132699999
sS'fullmoviesonyoutube'
p212
F0.0095282241450399992
sS'gallifrey'
p213
F0.0089200599210100002
sS'gamernews'
p214
F0.0073307218802499997
sS'NewsOfTheStupid'
p215
F0.011170140307899999
sS'Economics'
p216
F0.0114512628711
sS'Anticonsumption'
p217
F0.0082800697268999995
sS'badphilosophy'
p218
F0.0080012077294699998
sS'arabs'
p219
F0.0071977752331100001
sS'TrueAskReddit'
p220
F0.022318454363799999
sS'FanTheories'
p221
F0.019347248246099999
sS'NoStupidQuestions'
p222
F0.015056707078600001
sS'conspiracy'
p223
F0.0093076723402699992
sS'Infographics'
p224
F0.0118564057526
sS'AnythingGoesNews'
p225
F0.014170644391400001
sS'urbanplanning'
p226
F0.0089902070958399992
sS'SRSsucks'
p227
F0.0084789981737500002
sS'HouseOfCards'
p228
F0.0076553207642699999
sS'DAE'
p229
F0.0091538842157300009
sS'Israel'
p230
F0.0091913663120900008
sS'MURICA'
p231
F0.0095629063641999995
sS'HighQualityGifs'
p232
F0.0071214696123700003
sS'preppers'
p233
F0.0092299578059100006
sS'softwaregore'
p234
F0.0089415881038000002
sS'self'
p235
F0.00966750993856
sS'shittyama'
p236
F0.00798971439067
sS'AskSocialScience'
p237
F0.0181653042688
sS'ImaginaryLandscapes'
p238
F0.0102228348266
sS'masseffect'
p239
F0.0072133637053900003
sS'TheWayWeWere'
p240
F0.0130749474667
sS'TumblrInAction'
p241
F0.0082808963775999993
sS'scifi'
p242
F0.015119317192099999
sS'britishproblems'
p243
F0.0094212651413200007
sS'UnresolvedMysteries'
p244
F0.0102686348217
sS'nottheonion'
p245
F0.0074535856522699997
sS'nonononoyes'
p246
F0.00960155350978
sS'Frugal_Jerk'
p247
F0.0084533086778499997
sS'tolkienfans'
p248
F0.0073041168658700001
sS'Whatcouldgowrong'
p249
F0.0085923533821600003
sS'economy'
p250
F0.0112031742327
sS'talesfromtechsupport'
p251
F0.0072281213947700002
sS'Anarchism'
p252
F0.0111428062043
sS'MapPorn'
p253
F0.015979980689999999
sS'notinteresting'
p254
F0.0075082668741500002
sS'forwardsfromgrandma'
p255
F0.0141786743516
sS'AnimalsBeingJerks'
p256
F0.0074254598073199996
sS'askscience'
p257
F0.0078644204072900008
sS'Futurology'
p258
F0.0117497226901
sS'DebateAChristian'
p259
F0.0084443000974299999
sS'wargame'
p260
F0.0070433557677299996
sS'germany'
p261
F0.0070773263433799999
sS'EnoughLibertarianSpam'
p262
F0.0132325141777
sS'law'
p263
F0.0077312207693
sS'GunPorn'
p264
F0.0087291920422200003
sS'psychology'
p265
F0.0085594191822699998
sS'MachinePorn'
p266
F0.0092404549147000001
sS'TrueFilm'
p267
F0.0072418417523499997
sS'HumanPorn'
p268
F0.0111537368571
sS'IWantOut'
p269
F0.010204928233600001
sS'terriblefacebookmemes'
p270
F0.0085358505724
sS'Shitstatistssay'
p271
F0.0088866532528499992
sS'thatHappened'
p272
F0.0077060626703
sS'HailCorporate'
p273
F0.0105845332316
sS'AskEngineers'
p274
F0.0077291129922700003
s.