(dp1
S'pcgaming'
p2
F0.010122015383500001
sS'softwareswap'
p3
F0.0090664272890499994
sS'PlayStationPlus'
p4
F0.0088808250573
sS'AppHookup'
p5
F0.011627906976700001
sS'patientgamers'
p6
F0.023916730015800001
sS'ShouldIbuythisgame'
p7
F0.023551379351899999
sS'AndroidGaming'
p8
F0.0102889532376
sS'sgsflair'
p9
F0.0327952076353
sS'buildapcsales'
p10
F0.012048192771100001
sS'gamernews'
p11
F0.0111064163699
sS'truegaming'
p12
F0.0106442210068
sS'GameTrade'
p13
F0.0073852922690099999
sS'GameSale'
p14
F0.0074217010538799996
sS'GiftofGames'
p15
F0.0174486647516
sS'tf2trade'
p16
F0.0088173054314600006
sS'indiegameswap'
p17
F0.042591267000699998
sS'roguelikes'
p18
F0.0105481583953
sS'Cynicalbrit'
p19
F0.0096019696347999992
sS'linux_gaming'
p20
F0.0073827980804699999
sS'Games'
p21
F0.0087334483815299999
sS'emulation'
p22
F0.0102298206278
sS'Gaming4Gamers'
p23
F0.0118652112008
sS'IndieGaming'
p24
F0.014154579216600001
sS'Steam'
p25
F0.0141360082939
sS'RandomActsOfGaming'
p26
F0.0145234242085
sS'gamingsuggestions'
p27
F0.012700784460199999
sS'AskGames'
p28
F0.0115648717022
sS'eFreebies'
p29
F0.010996858040600001
sS'SteamGameSwap'
p30
F0.0213224724485
sS'GameDeals'
p31
F0.037918627179599998
s.