(dp1
S'gamemusic'
p2
F0.0107210179076
sS'gamemaker'
p3
F0.0245689655172
sS'gamernews'
p4
F0.012489786389600001
sS'incremental_games'
p5
F0.0089142857142899996
sS'patientgamers'
p6
F0.010548052238
sS'AndroidGaming'
p7
F0.0084856396866800007
sS'SelfDrivingCars'
p8
F0.0071332176595299999
sS'learnprogramming'
p9
F0.0099425483354800004
sS'rpg'
p10
F0.012271942513200001
sS'csharp'
p11
F0.0089565606807000004
sS'Unity3D'
p12
F0.0555972147831
sS'JRPG'
p13
F0.0072414573432900003
sS'java'
p14
F0.0075301204819299998
sS'truegaming'
p15
F0.0221622851201
sS'TheoryOfReddit'
p16
F0.0099580712788299997
sS'androiddev'
p17
F0.010208610741200001
sS'boardgames'
p18
F0.0114644009943
sS'ImaginaryLandscapes'
p19
F0.0094222663030000004
sS'animation'
p20
F0.0071205496564600004
sS'gamedev'
p21
F0.063810746663599996
sS'WebGames'
p22
F0.0093018795550400008
sS'blender'
p23
F0.015157666802
sS'tabletopgamedesign'
p24
F0.052798101641299999
sS'iosgaming'
p25
F0.0072962696536800001
sS'glitch_art'
p26
F0.0077509842519700002
sS'BasicIncome'
p27
F0.0091087282370600001
sS'PixelArt'
p28
F0.032244672017700003
sS'rpg_gamers'
p29
F0.010882873078499999
sS'ImaginaryMonsters'
p30
F0.0072006203611400003
sS'ftlgame'
p31
F0.0075810386894399999
sS'roguelikes'
p32
F0.0191455696203
sS'linux_gaming'
p33
F0.0094231211215800009
sS'Games'
p34
F0.0085782838617500003
sS'Gaming4Gamers'
p35
F0.0131401314013
sS'IndieGaming'
p36
F0.049004594180700002
sS'GamePhysics'
p37
F0.0075466424428800001
sS'worldbuilding'
p38
F0.017734211313999999
sS'ProgrammerHumor'
p39
F0.0117167884841
sS'gamingsuggestions'
p40
F0.0119405625332
sS'AskGames'
p41
F0.011263467189000001
sS'custommagic'
p42
F0.0083002526163800001
sS'Netrunner'
p43
F0.0072134232397699999
sS'dwarffortress'
p44
F0.0097521982414099997
sS'oculus'
p45
F0.0079314269455100003
sS'programming'
p46
F0.0104444629753
sS'softwaregore'
p47
F0.0075608493008800003
sS'compsci'
p48
F0.011837796994399999
sS'Cyberpunk'
p49
F0.0097890072094699992
sS'cpp'
p50
F0.0083943561350200008
sS'retrogaming'
p51
F0.0078448152902599998
s.