(dp1
S'Unity3D'
p2
F0.0130026486877
sS'PixelArt'
p3
F0.032772820864799997
sS'roguelikes'
p4
F0.0082661290322600008
sS'gamedev'
p5
F0.020648618828099999
sS'gamedesign'
p6
F0.0245689655172
sS'IndieGaming'
p7
F0.017999850623599999
s.