(dp1
S'GameSale'
p2
F0.029770129380699999
sS'RandomActsOfGaming'
p3
F0.016509433962300001
sS'hardwareswap'
p4
F0.010273308780799999
sS'softwareswap'
p5
F0.015490809856299999
sS'sgsflair'
p6
F0.032813196611699999
sS'RandomKindness'
p7
F0.010477499141200001
sS'GiftofGames'
p8
F0.019130757800900001
sS'ShouldIbuythisgame'
p9
F0.010098792535700001
sS'indiegameswap'
p10
F0.053114086146699997
sS'Dota2Trade'
p11
F0.011111111111100001
sS'GameDealsMeta'
p12
F0.0073852922690099999
sS'SteamGameSwap'
p13
F0.032913620881
sS'buildapcsales'
p14
F0.0072158997196099996
sS'tf2trade'
p15
F0.0135930208967
sS'GameDeals'
p16
F0.0086626253554900005
sS'giftcardexchange'
p17
F0.018630280766199998
sS'GlobalOffensiveTrade'
p18
F0.015573291804600001
sS'Steam'
p19
F0.0084724917324899996
sS'gameswap'
p20
F0.023545855284400001
s.