(dp1
S'twinks'
p2
F0.0182481751825
sS'BeardPorn'
p3
F0.029129600558199999
sS'gaybros'
p4
F0.030400480233300001
sS'gaymers'
p5
F0.036398014653700003
sS'gay'
p6
F0.030885024656100001
sS'GaybrosGoneWild'
p7
F0.0647285377065
sS'rupaulsdragrace'
p8
F0.0135844748858
sS'askgaybros'
p9
F0.027270473514600001
sS'lgbt'
p10
F0.0145281406422
sS'ladybonersgw'
p11
F0.0139486225735
sS'penis'
p12
F0.031149301825999998
sS'MassiveCock'
p13
F0.032551097653299998
sS'ainbow'
p14
F0.016666666666700001
sS'gaybrosgonemild'
p15
F0.049042010898199997
sS'gaymersgonewild'
p16
F0.071313456889600002
s.