(dp1
S'gaybears'
p2
F0.0647285377065
sS'GWCouples'
p3
F0.011025005991900001
sS'bisexual'
p4
F0.013817072137
sS'RandomActsOfBlowJob'
p5
F0.010763358778599999
sS'wifesharing'
p6
F0.0074876533375799999
sS'Tgirls'
p7
F0.011951390981200001
sS'rupaulsdragrace'
p8
F0.0146245059289
sS'gaybrosgonemild'
p9
F0.13094017093999999
sS'BeardPorn'
p10
F0.0135746606335
sS'Sissies'
p11
F0.018689533861000002
sS'AmericanHorrorStory'
p12
F0.0072259644825499996
sS'AsianLadyboners'
p13
F0.0140958517922
sS'gaymers'
p14
F0.056169372261000002
sS'gay'
p15
F0.049290186050600003
sS'dirtykikpals'
p16
F0.016619790334999999
sS'twinks'
p17
F0.095453973051300003
sS'lgbt'
p18
F0.022664015904600002
sS'dirtypenpals'
p19
F0.0073857780831300002
sS'LadyBoners'
p20
F0.0089984053458899999
sS'bigdickproblems'
p21
F0.016567174190099999
sS'penis'
p22
F0.099223317916000003
sS'gaybros'
p23
F0.085608999224199997
sS'ainbow'
p24
F0.019895998191300002
sS'gonewildstories'
p25
F0.0081355363582999995
sS'traps'
p26
F0.016377126312000001
sS'GoneWildCD'
p27
F0.018257635523500002
sS'askgaybros'
p28
F0.075756581106800003
sS'LGBTeens'
p29
F0.0081260032102700008
sS'MassiveCock'
p30
F0.11406809213499999
sS'gaymersgonewild'
p31
F0.20582499024799999
sS'Pegging'
p32
F0.0091447014523900003
sS'ladybonersgw'
p33
F0.071814903846199998
s.