(dp1
S'yiff'
p2
F0.0116183930617
sS'GWCouples'
p3
F0.0076082297471099999
sS'bisexual'
p4
F0.011264661479499999
sS'RandomActsOfBlowJob'
p5
F0.0087861038174100008
sS'rupaulsdragrace'
p6
F0.010864978903
sS'Tgirls'
p7
F0.0102146558105
sS'gaybears'
p8
F0.071313456889600002
sS'gaybrosgonemild'
p9
F0.074569173779999998
sS'BeardPorn'
p10
F0.012107279693500001
sS'Sissies'
p11
F0.0198405969137
sS'furry'
p12
F0.0078393470790400002
sS'AsianLadyboners'
p13
F0.0131888836552
sS'gaymers'
p14
F0.057051330943499998
sS'gay'
p15
F0.035440613026800002
sS'dirtykikpals'
p16
F0.0120790336773
sS'twinks'
p17
F0.120320855615
sS'lgbt'
p18
F0.014939363758900001
sS'ladybonersgw'
p19
F0.037617196432699999
sS'bigdickproblems'
p20
F0.0108695652174
sS'penis'
p21
F0.082107701216000001
sS'gaybros'
p22
F0.035240446992799997
sS'ainbow'
p23
F0.017115156311799998
sS'traps'
p24
F0.015652837872199999
sS'GoneWildCD'
p25
F0.0235398230088
sS'askgaybros'
p26
F0.033844942935899999
sS'GaybrosGoneWild'
p27
F0.20582499024799999
sS'LGBTeens'
p28
F0.0074107010523200003
sS'MassiveCock'
p29
F0.090552147239299996
sS'Pegging'
p30
F0.0093888980398600004
s.