(dp1
S'Ingress'
p2
F0.0077792760087099996
sS'hiking'
p3
F0.0104983709424
sS'camping'
p4
F0.010853330678099999
sS'Hammocks'
p5
F0.0095203222262900001
sS'amateurradio'
p6
F0.0084947332653800001
sS'Survival'
p7
F0.0078387458006700002
sS'secretsanta'
p8
F0.00770971577615
sS'AppalachianTrail'
p9
F0.0076099881093900004
sS'urbanexploration'
p10
F0.0099364884244999997
sS'CampingandHiking'
p11
F0.0095943335479699993
s.