(dp1
S'Pets'
p2
F0.0085377984084899997
sS'puppy101'
p3
F0.0169056280762
sS'pitbulls'
p4
F0.012560069899500001
sS'lookatmydog'
p5
F0.024180460889299999
sS'goldenretrievers'
p6
F0.015674566150399999
sS'AnimalsBeingBros'
p7
F0.0079094405340700003
sS'dogpictures'
p8
F0.021288981289
sS'corgi'
p9
F0.0099990385539899997
sS'Dogtraining'
p10
F0.0249766815214
sS'dogs'
p11
F0.019931662870200002
sS'catpictures'
p12
F0.0071596099246999997
s.