(dp1
S'MapPorn'
p2
F0.0086982773259899997
sS'Shitty_Car_Mods'
p3
F0.023984420376500001
sS'uglyduckling'
p4
F0.0158054135908
sS'milf'
p5
F0.0094504134555899993
sS'KitchenConfidential'
p6
F0.0092894624875899997
sS'BuyItForLife'
p7
F0.0085763927396400007
sS'spiders'
p8
F0.0074645434187600003
sS'UFOs'
p9
F0.0078252363873500003
sS'HistoryPorn'
p10
F0.014449748419600001
sS'holdmybeer'
p11
F0.020687738246500002
sS'ImaginaryMonsters'
p12
F0.0090129127307399994
sS'YouShouldKnow'
p13
F0.0125412368435
sS'horror'
p14
F0.010674913952200001
sS'UpliftingNews'
p15
F0.0084760817155200008
sS'PandR'
p16
F0.0091616134985500006
sS'inthenews'
p17
F0.0071383392066499997
sS'3amjokes'
p18
F0.0092224055916900003
sS'Military'
p19
F0.0079576621470199994
sS'magicskyfairy'
p20
F0.0078670219515300007
sS'photoshopbattles'
p21
F0.00965312825443
sS'Celebs'
p22
F0.0118960832394
sS'CrappyDesign'
p23
F0.018825954861099999
sS'NewsOfTheWeird'
p24
F0.015525005925600001
sS'Cyberpunk'
p25
F0.0081475613896099999
sS'Libertarian'
p26
F0.0091587397008399997
sS'everymanshouldknow'
p27
F0.0116283105974
sS'Whatisthis'
p28
F0.0104481266835
sS'EatCheapAndHealthy'
p29
F0.0106143454487
sS'gentlemanboners'
p30
F0.0124117662494
sS'redditgetsdrawn'
p31
F0.0076657970174300004
sS'POLITIC'
p32
F0.00847787955564
sS'MechanicAdvice'
p33
F0.00701894544625
sS'AmISexy'
p34
F0.0076433121019099997
sS'fatpeoplestories'
p35
F0.016802168021699999
sS'forwardsfromgrandma'
p36
F0.0245979186377
sS'no_sob_story'
p37
F0.0133196721311
sS'findareddit'
p38
F0.0110916110916
sS'skeptic'
p39
F0.0089696519031499996
sS'socialskills'
p40
F0.0071009278545699998
sS'guns'
p41
F0.0079753321123000008
sS'tattoos'
p42
F0.011780158436999999
sS'LetsNotMeet'
p43
F0.0114276516981
sS'answers'
p44
F0.0076856245405300004
sS'ThriftStoreHauls'
p45
F0.016840687100000001
sS'WarshipPorn'
p46
F0.0075195126594300001
sS'piercing'
p47
F0.0073245000411500004
sS'creepy'
p48
F0.0097882083571800005
sS'Hair'
p49
F0.0082503811317400002
sS'whatsthisbug'
p50
F0.0120916117407
sS'QuotesPorn'
p51
F0.010616250052899999
sS'TrueReddit'
p52
F0.0083081039217100007
sS'Assistance'
p53
F0.0070682429473900004
sS'confession'
p54
F0.013068379584200001
sS'AntiJokes'
p55
F0.0071853100328199996
sS'KingOfTheHill'
p56
F0.0125588697017
sS'IdiotsFightingThings'
p57
F0.022750044203499999
sS'Firearms'
p58
F0.0078905839032099995
sS'ContagiousLaughter'
p59
F0.012230375806099999
sS'FiftyFifty'
p60
F0.015263789594499999
sS'eldertrees'
p61
F0.0079076898248999997
sS'Drugs'
p62
F0.0072046387085599999
sS'OutOfTheLoop'
p63
F0.0142993538646
sS'firstimpression'
p64
F0.011689766204700001
sS'trailerparkboys'
p65
F0.013467765675599999
sS'Pareidolia'
p66
F0.0186732497785
sS'LifeProTips'
p67
F0.0071223358054399999
sS'TheGirlSurvivalGuide'
p68
F0.0076370170709799999
sS'AskMen'
p69
F0.0074740935554200002
sS'EDC'
p70
F0.0091090115663300004
sS'showerbeer'
p71
F0.0128303823454
sS'techsupportgore'
p72
F0.012034362734199999
sS'firstworldproblems'
p73
F0.014319599402600001
sS'Glitch_in_the_Matrix'
p74
F0.0101347393087
sS'standupshots'
p75
F0.014622467771599999
sS'NewsOfTheStupid'
p76
F0.022039473684199999
sS'awesome'
p77
F0.0126357169599
sS'Infographics'
p78
F0.0084376701143199992
sS'TalesFromYourServer'
p79
F0.0137531180476
sS'SRSsucks'
p80
F0.010176248426399999
sS'hardbodies'
p81
F0.0126747302093
sS'techsupportmacgyver'
p82
F0.010424710424699999
sS'MURICA'
p83
F0.014865728900299999
sS'RealGirls'
p84
F0.0099162525308300001
sS'cripplingalcoholism'
p85
F0.0087863811092799993
sS'gats'
p86
F0.0091246079269999992
sS'Hotchickswithtattoos'
p87
F0.0091620708059099998
sS'Gore'
p88
F0.016761324283099999
sS'RedditLaqueristas'
p89
F0.014589576067200001
sS'spaceporn'
p90
F0.010040949122100001
sS'nyc'
p91
F0.0076914157616000001
sS'Pizza'
p92
F0.010387534958100001
sS'wallpapers'
p93
F0.0075157613590499999
sS'wallpaper'
p94
F0.0079620272546299994
sS'budgetfood'
p95
F0.00938349557134
sS'Images'
p96
F0.013229846533800001
sS'dogpictures'
p97
F0.0127910124526
sS'MachinePorn'
p98
F0.0096383486864599997
sS'FanTheories'
p99
F0.0080915178571400008
sS'crafts'
p100
F0.0094099694811799993
sS'tall'
p101
F0.0091707317073200009
sS'ImGoingToHellForThis'
p102
F0.016164543909
sS'cableporn'
p103
F0.0079407909953000001
sS'DoesAnybodyElse'
p104
F0.0119582584382
sS'pettyrevenge'
p105
F0.016270584755000001
sS'CityPorn'
p106
F0.0088018171493499994
sS'DeepIntoYouTube'
p107
F0.019542395693100002
sS'nostalgia'
p108
F0.019800939230400001
sS'Documentaries'
p109
F0.0080149229255500002
sS'StonerEngineering'
p110
F0.0078420947697200004
sS'texas'
p111
F0.0077431965117999999
sS'MensRights'
p112
F0.010499414988600001
sS'MilitaryPorn'
p113
F0.010604044133399999
sS'Frisson'
p114
F0.00757669089565
sS'childfree'
p115
F0.011286755139199999
sS'food'
p116
F0.0072049570104199996
sS'whitepeoplegifs'
p117
F0.027431222009
sS'NoStupidQuestions'
p118
F0.013215588875600001
sS'Braveryjerk'
p119
F0.0086742343114200003
sS'tightdresses'
p120
F0.0075711070186200002
sS'creepyPMs'
p121
F0.021349975365399999
sS'WatchItForThePlot'
p122
F0.0135648096461
sS'freebies'
p123
F0.013892640759500001
sS'PropagandaPosters'
p124
F0.0126113413881
sS'shittyadviceanimals'
p125
F0.0074781886165399998
sS'SubredditDrama'
p126
F0.012477274901900001
sS'minimalism'
p127
F0.0086546666124899998
sS'mildlyinteresting'
p128
F0.00721880367898
sS'Rateme'
p129
F0.0091957731709300002
sS'popping'
p130
F0.017938408518499999
sS'DunderMifflin'
p131
F0.0100175746924
sS'entertainment'
p132
F0.0099879266820299996
sS'shittyfoodporn'
p133
F0.023402686500199998
sS'LearnUselessTalents'
p134
F0.0125664304694
sS'RoomPorn'
p135
F0.0136295038672
sS'memes'
p136
F0.0112897196262
sS'CatsStandingUp'
p137
F0.0074902987094999998
sS'ass'
p138
F0.0078064870808100002
sS'bestof'
p139
F0.0077112519681900001
sS'LadyBoners'
p140
F0.013310433662499999
sS'corgi'
p141
F0.0094137455992699993
sS'Roadcam'
p142
F0.0114550329028
sS'GamePhysics'
p143
F0.011926058437699999
sS'youtubehaiku'
p144
F0.0090109573241099993
sS'PoliticalHumor'
p145
F0.0105630568568
sS'recipes'
p146
F0.0088472946711700001
sS'TalesFromThePizzaGuy'
p147
F0.0094601051122799994
sS'howtonotgiveafuck'
p148
F0.0085577237545000004
sS'misc'
p149
F0.0080462141530799995
sS'rant'
p150
F0.0094133594397199996
sS'seinfeld'
p151
F0.00997616315
sS'thick'
p152
F0.011791225940699999
sS'OldSchoolCool'
p153
F0.0114583788031
sS'ANormalDayInRussia'
p154
F0.030958940049800002
sS'onetruegod'
p155
F0.0127335176342
sS'TheFacebookDelusion'
p156
F0.014152892562000001
sS'Autos'
p157
F0.0080278298100100003
sS'PenmanshipPorn'
p158
F0.0120411627414
sS'shittyreactiongifs'
p159
F0.0142497904443
sS'alternativeart'
p160
F0.0081653225806499995
sS'shittyadvice'
p161
F0.011172741679900001
sS'MeanJokes'
p162
F0.010479607250800001
sS'dogs'
p163
F0.0079574567191999998
sS'ObscureMedia'
p164
F0.010719416510099999
sS'CombatFootage'
p165
F0.0122502378687
sS'TrollYChromosome'
p166
F0.014894681264899999
sS'mildlyinfuriating'
p167
F0.0158577972576
sS'DumpsterDiving'
p168
F0.0078459343794600005
sS'short'
p169
F0.0087020243656700004
sS'Awwducational'
p170
F0.0143889534133
sS'worldpolitics'
p171
F0.0082117176530699994
sS'see'
p172
F0.0103836169599
sS'nononono'
p173
F0.021759519789900001
sS'knives'
p174
F0.0080040020010000001
sS'FoodPorn'
p175
F0.0121285066198
sS'crappymusic'
p176
F0.017164179104500001
sS'explainlikeIAmA'
p177
F0.0086245353159900007
sS'AnythingGoesNews'
p178
F0.0083478260869600009
sS'HighQualityGifs'
p179
F0.011209813874800001
sS'self'
p180
F0.0087999088682600007
sS'slowcooking'
p181
F0.0116446826051
sS'UnresolvedMysteries'
p182
F0.0113529595991
sS'conspiratard'
p183
F0.0162725103059
sS'progresspics'
p184
F0.012453589108899999
sS'TumblrInAction'
p185
F0.0129680224728
sS'HailCorporate'
p186
F0.013709742840899999
sS'Heavymind'
p187
F0.011559802712700001
sS'fffffffuuuuuuuuuuuu'
p188
F0.0086741332244799994
sS'Foodforthought'
p189
F0.0070385666918700001
sS'RandomActsofMakeup'
p190
F0.0079395085066200008
sS'Amateur'
p191
F0.0080889787664299995
sS'TheBluePill'
p192
F0.0090915810481200007
sS'harrypotter'
p193
F0.0070051541988199999
sS'shittybattlestations'
p194
F0.0096768303816000007
sS'GrandTheftAutoV'
p195
F0.00747099767981
sS'arresteddevelopment'
p196
F0.010686482661
sS'shutupandtakemymoney'
p197
F0.0135742413713
sS'JusticePorn'
p198
F0.014837290872099999
sS'geek'
p199
F0.0090538254900000004
sS'beards'
p200
F0.0106212809521
sS'PrettyGirlsUglyFaces'
p201
F0.0165579958819
sS'AbandonedPorn'
p202
F0.015984922518499999
sS'thatHappened'
p203
F0.020371790354999999
sS'nsfw'
p204
F0.0082538749107400004
sS'cringe'
p205
F0.0148853859923
sS'spotted'
p206
F0.0087341329917300006
sS'StarWars'
p207
F0.0077675852001399997
sS'AskWomen'
p208
F0.0074492245798500004
sS'TheSimpsons'
p209
F0.011693255982599999
sS'Justrolledintotheshop'
p210
F0.0144666939109
sS'StandUpComedy'
p211
F0.00834828743076
sS'changemyview'
p212
F0.0070632768141100002
sS'firstworldanarchists'
p213
F0.015157068062800001
sS'PerfectTiming'
p214
F0.020415721494400001
sS'AmericanHorrorStory'
p215
F0.0095644965886599997
sS'wikipedia'
p216
F0.0090036014405799995
sS'breakingbad'
p217
F0.0094676258992799998
sS'outside'
p218
F0.0091528991808200004
sS'AskCulinary'
p219
F0.0070949503907800004
sS'foodhacks'
p220
F0.0139407328407
sS'glitch_art'
p221
F0.0089227012303900004
sS'tonightsdinner'
p222
F0.0088120851453399995
sS'casualiama'
p223
F0.0094458774348499999
sS'facepalm'
p224
F0.020726064003099998
sS'celebnsfw'
p225
F0.0108073744437
sS'NotTimAndEric'
p226
F0.019984353886600002
sS'bigboobproblems'
p227
F0.0100368701352
sS'Unexpected'
p228
F0.0161968388463
sS'RedditDayOf'
p229
F0.0078468005604899992
sS'BustyPetite'
p230
F0.0091793546968599992
sS'itookapicture'
p231
F0.010982211910300001
sS'GunPorn'
p232
F0.0093808630394000003
sS'drunk'
p233
F0.013973594263100001
sS'reactiongifs'
p234
F0.010552276599599999
sS'confessions'
p235
F0.0098004900244999995
sS'fatlogic'
p236
F0.020266341814599999
sS'MakeupAddiction'
p237
F0.0095483393573699994
sS'somethingimade'
p238
F0.013735024312000001
sS'keto'
p239
F0.0076602572397200001
sS'curlyhair'
p240
F0.00836341227221
sS'shittyaskreddit'
p241
F0.0083358441297599999
sS'Perfectfit'
p242
F0.0136864986716
sS'offbeat'
p243
F0.015595533870100001
sS'softwaregore'
p244
F0.0081280788177300004
sS'conspiracy'
p245
F0.011600344778
sS'OnOff'
p246
F0.0102063622141
sS'Cooking'
p247
F0.0090083597578599992
sS'IASIP'
p248
F0.0135278202564
sS'gamecollecting'
p249
F0.00712663975782
sS'LosAngeles'
p250
F0.0073300193782099999
sS'shorthairedhotties'
p251
F0.00958806818182
sS'southpark'
p252
F0.011026804708599999
sS'tattoo'
p253
F0.0084583901773500007
sS'pitbulls'
p254
F0.0099687420799200004
sS'transpassing'
p255
F0.0074117995849400002
sS'daddit'
p256
F0.00817544770309
sS'watchpeopledie'
p257
F0.017433455225800001
sS'Whatcouldgowrong'
p258
F0.0220325360973
sS'notinteresting'
p259
F0.014378512517299999
sS'AnimalsBeingJerks'
p260
F0.019671305786300001
sS'girlsinyogapants'
p261
F0.0088034907754699996
sS'catpictures'
p262
F0.0098724038372000004
sS'HumanPorn'
p263
F0.019336492891
sS'TimAndEric'
p264
F0.010990079751
sS'Graffiti'
p265
F0.0080087008107599996
sS'EmmaWatson'
p266
F0.0082149580694799995
sS'Sonsofanarchy'
p267
F0.0071860095389500002
sS'FancyFollicles'
p268
F0.0132106731775
sS'awwwtf'
p269
F0.024390243902400001
sS'PublicFreakout'
p270
F0.0231806687272
sS'ArtisanVideos'
p271
F0.0081458273996000002
sS'Conservative'
p272
F0.0093550517279300006
sS'dadjokes'
p273
F0.010902762980300001
sS'futurama'
p274
F0.0097216084843099997
sS'perfectloops'
p275
F0.0136903156191
sS'InternetIsBeautiful'
p276
F0.0074265712981299997
sS'carporn'
p277
F0.0094467474489799991
sS'BeardPorn'
p278
F0.0090631142170800004
sS'TalesFromRetail'
p279
F0.0115743561003
sS'WouldYouRather'
p280
F0.0096875227620399993
sS'quityourbullshit'
p281
F0.0283440108717
sS'ProtectAndServe'
p282
F0.0116020601789
sS'woahdude'
p283
F0.0112794992284
sS'offmychest'
p284
F0.0090769372233199998
sS'AmIFreeToGo'
p285
F0.0097439618534299992
sS'howto'
p286
F0.0096387122155899996
sS'cringepics'
p287
F0.018205794098300001
sS'toosoon'
p288
F0.0189297713677
sS'nonononoyes'
p289
F0.016930175748100001
sS'thewalkingdead'
p290
F0.0073617260524300003
sS'ConfusedBoners'
p291
F0.018148180776999999
sS'Paranormal'
p292
F0.0082466833990700004
sS'4chan'
p293
F0.0108512795374
sS'Enhancement'
p294
F0.0071205279610999997
sS'zombies'
p295
F0.0112340710932
sS'ArcherFX'
p296
F0.0095998479232000007
sS'gardening'
p297
F0.0085126887247000006
sS'whatisthisthing'
p298
F0.0147648559971
sS'NetflixBestOf'
p299
F0.012002439294800001
sS'tumblr'
p300
F0.0131596205133
sS'interestingasfuck'
p301
F0.0149937106918
sS'MarkMyWords'
p302
F0.010434952213799999
sS'humor'
p303
F0.0098073760864499995
sS'AMA'
p304
F0.0079654538557999994
sS'SkincareAddiction'
p305
F0.0085812200137100007
sS'ExpectationVsReality'
p306
F0.031397610447300002
sS'lifehacks'
p307
F0.0132525991089
sS'blackpeoplegifs'
p308
F0.027371437189000002
sS'FloridaMan'
p309
F0.029284352798499998
sS'delusionalartists'
p310
F0.036329417132400003
sS'OkCupid'
p311
F0.00703481392557
sS'Frugal'
p312
F0.010118672246699999
sS'shittyaskscience'
p313
F0.0101355730098
sS'whatsthisplant'
p314
F0.0071883800207500001
sS'lewronggeneration'
p315
F0.0175943156826
sS'calvinandhobbes'
p316
F0.0085421871222499998
sS'netflix'
p317
F0.0093378607809799993
sS'wheredidthesodago'
p318
F0.019106375023399999
sS'AnimalsBeingBros'
p319
F0.0202523853493
sS'classic4chan'
p320
F0.015509482481499999
sS'NSFWFunny'
p321
F0.019595448799
sS'amiugly'
p322
F0.0093744198997599993
sS'ShitAmericansSay'
p323
F0.0070853462157799999
sS'marijuanaenthusiasts'
p324
F0.0087992273849099994
sS'TrollXChromosomes'
p325
F0.0124665327979
sS'Damnthatsinteresting'
p326
F0.016407095860700001
sS'loseit'
p327
F0.0077626392973600003
sS'CrazyIdeas'
p328
F0.0144120436951
sS'TinyHouses'
p329
F0.0070921985815599999
sS'Bad_Cop_No_Donut'
p330
F0.016282987085900001
sS'MorbidReality'
p331
F0.0191495488577
sS'gif'
p332
F0.0146288083856
sS'cats'
p333
F0.01148878702
sS'raisedbynarcissists'
p334
F0.0096990086253199992
sS'happy'
p335
F0.012765357218399999
sS'spicy'
p336
F0.0077722928263800001
sS'misleadingthumbnails'
p337
F0.017160272974199999
sS'batman'
p338
F0.0084987884705800005
sS'snackexchange'
p339
F0.0075312989045399998
sS'beerporn'
p340
F0.0078136627474300006
sS'HipHopImages'
p341
F0.010768562744200001
sS'blunderyears'
p342
F0.033657340116299998
sS'Random_Acts_Of_Amazon'
p343
F0.0073966542237000003
sS'rage'
p344
F0.022514818546000001
sS'comics'
p345
F0.0085430968726200006
sS'behindthegifs'
p346
F0.013928519611200001
sS'lookatmydog'
p347
F0.0072788353863399999
sS'fullmoviesonyoutube'
p348
F0.0152531167359
sS'TrueAskReddit'
p349
F0.0078213879408400005
sS'bestofworldstar'
p350
F0.022721855883099999
sS'DAE'
p351
F0.0083224706708099998
sS'ForeverAlone'
p352
F0.0091439091745900009
sS'eatsandwiches'
p353
F0.012169836834000001
sS'shittyama'
p354
F0.0092505487613700008
sS'circlebroke'
p355
F0.00745767767917
sS'TheWayWeWere'
p356
F0.0185880766638
sS'badtattoos'
p357
F0.046879687968800002
sS'Cinemagraphs'
p358
F0.0095198675496700001
sS'nottheonion'
p359
F0.0096225827887000005
sS'Frugal_Jerk'
p360
F0.016311300639699999
sS'Baking'
p361
F0.0084233408056499995
sS'bigdickproblems'
p362
F0.0075526607538800002
sS'oddlysatisfying'
p363
F0.013367800421400001
sS'cosplaygirls'
p364
F0.0099458642830200002
sS'curvy'
p365
F0.0095292392897899994
sS'terriblefacebookmemes'
p366
F0.0237482853224
sS'PrettyGirls'
p367
F0.010428026172300001
sS'urbanexploration'
p368
F0.0108527131783
s.