(dp1
S'awwwtf'
p2
F0.0096079442868200002
sS'shittyama'
p3
F0.0087267438337100007
sS'Heavymind'
p4
F0.0073928337208599999
sS'MapPorn'
p5
F0.010148969217699999
sS'DoesAnybodyElse'
p6
F0.0073895545803900004
sS'pettyrevenge'
p7
F0.010016013975800001
sS'CityPorn'
p8
F0.0073907755636600002
sS'skyrim'
p9
F0.014472491511600001
sS'fffffffuuuuuuuuuuuu'
p10
F0.010712035286700001
sS'rickandmorty'
p11
F0.013456144340800001
sS'dadjokes'
p12
F0.014252902495000001
sS'dbz'
p13
F0.0074983967243799996
sS'perfectloops'
p14
F0.0207383279045
sS'everymanshouldknow'
p15
F0.0088579660393599997
sS'dataisbeautiful'
p16
F0.0085406155226999993
sS'InternetIsBeautiful'
p17
F0.012913125931900001
sS'RandomActsOfGaming'
p18
F0.0127857419605
sS'MLPLounge'
p19
F0.0097021507564999995
sS'carporn'
p20
F0.0077583818232199999
sS'battlefield3'
p21
F0.0089202170794100005
sS'TopGear'
p22
F0.0096443424637899997
sS'WouldYouRather'
p23
F0.0086374556686899997
sS'furry'
p24
F0.0071424016325499998
sS'smashbros'
p25
F0.0097676803108400004
sS'Yogscast'
p26
F0.0086658014819800001
sS'airsoft'
p27
F0.00776731118823
sS'LearnUselessTalents'
p28
F0.012157636372
sS'Showerthoughts'
p29
F0.0076385181102600003
sS'HistoryPorn'
p30
F0.0099510377227600005
sS'shittybattlestations'
p31
F0.0100796839883
sS'Bioshock'
p32
F0.010640085120700001
sS'GrandTheftAutoV'
p33
F0.0082897126375399994
sS'Fallout'
p34
F0.015107696292100001
sS'ImaginaryMonsters'
p35
F0.0130126182965
sS'dwarffortress'
p36
F0.0079770261646500001
sS'PublicFreakout'
p37
F0.0094960400330999992
sS'MensRights'
p38
F0.00735071442337
sS'nononono'
p39
F0.017840786906100001
sS'MilitaryPorn'
p40
F0.011481056257200001
sS'Frisson'
p41
F0.0144138695696
sS'YouShouldKnow'
p42
F0.0089858793324800006
sS'shutupandtakemymoney'
p43
F0.010001968891500001
sS'Battlefield'
p44
F0.0072136144272299998
sS'skyrimmods'
p45
F0.0093878538591799995
sS'cringepics'
p46
F0.0096203289657800003
sS'JusticePorn'
p47
F0.010942217183199999
sS'softwaregore'
p48
F0.011597125929700001
sS'patientgamers'
p49
F0.011720367762799999
sS'geek'
p50
F0.0090884947918199992
sS'Jokes'
p51
F0.0074149560828800001
sS'tipofmytongue'
p52
F0.010396621766099999
sS'gmod'
p53
F0.0076650943396200004
sS'NoStupidQuestions'
p54
F0.010207721647499999
sS'3amjokes'
p55
F0.0096208665906499999
sS'toosoon'
p56
F0.0105387877276
sS'ArtisanVideos'
p57
F0.0094982837259600002
sS'Steam'
p58
F0.0133398073139
sS'halo'
p59
F0.0078878177037700007
sS'gifs'
p60
F0.0082617960991500008
sS'AbandonedPorn'
p61
F0.010634701091100001
sS'Sherlock'
p62
F0.0079977937120800004
sS'creepyPMs'
p63
F0.0085039916695600001
sS'masseffect'
p64
F0.012690164181399999
sS'WatchItForThePlot'
p65
F0.0095764272559900002
sS'techsupportgore'
p66
F0.015078328981699999
sS'freebies'
p67
F0.0086617874169100002
sS'PropagandaPosters'
p68
F0.0086628752810499997
sS'vexillology'
p69
F0.00994310335304
sS'mashups'
p70
F0.0120575149913
sS'ConfusedBoners'
p71
F0.00988272499671
sS'Animesuggest'
p72
F0.0090454975023600004
sS'futurama'
p73
F0.0100439943554
sS'montageparodies'
p74
F0.021917141853400001
sS'techsupport'
p75
F0.0087037955158899994
sS'DeepIntoYouTube'
p76
F0.0222832448006
sS'LeagueOfMemes'
p77
F0.0087918321043699999
sS'ArcherFX'
p78
F0.011033869533599999
sS'cringe'
p79
F0.012393270962
sS'firefly'
p80
F0.00888318356868
sS'mildlyinteresting'
p81
F0.0081414573745499999
sS'pcgaming'
p82
F0.011650818127300001
sS'whatisthisthing'
p83
F0.0097828131858899992
sS'glitch_art'
p84
F0.0096702379295999993
sS'awwnime'
p85
F0.012516333127
sS'totalwar'
p86
F0.0083035003977699993
sS'gentlemanboners'
p87
F0.0081887214644500005
sS'TheSimpsons'
p88
F0.0076851780335200001
sS'ShouldIbuythisgame'
p89
F0.0091154625253200006
sS'SubredditDrama'
p90
F0.0121794413887
sS'tumblr'
p91
F0.0116388211001
sS'interestingasfuck'
p92
F0.0129354488018
sS'MarkMyWords'
p93
F0.0099335381976700006
sS'changemyview'
p94
F0.0077513737763399999
sS'roosterteeth'
p95
F0.011735714634299999
sS'fatpeoplestories'
p96
F0.0083408731056299999
sS'adventuretime'
p97
F0.0124627636938
sS'CrappyDesign'
p98
F0.015030576908900001
sS'assassinscreed'
p99
F0.0083065380493000003
sS'Cinemagraphs'
p100
F0.013714285714300001
sS'notinteresting'
p101
F0.015636562530200002
sS'firstworldanarchists'
p102
F0.017650435281699999
sS'offbeat'
p103
F0.0083181769551700004
sS'no_sob_story'
p104
F0.0078943485318000006
sS'gameofthrones'
p105
F0.0091204921321300005
sS'humor'
p106
F0.0078354083545599997
sS'mountandblade'
p107
F0.0077242259814899999
sS'space'
p108
F0.0085218924478400009
sS'lotr'
p109
F0.0078893715096199999
sS'shittyfoodporn'
p110
F0.0106175146522
sS'ExpectationVsReality'
p111
F0.0111328337135
sS'breakingbad'
p112
F0.0094842146290799994
sS'firstworldproblems'
p113
F0.0086359028273199998
sS'outside'
p114
F0.019383364257200001
sS'RoomPorn'
p115
F0.0074168593986800001
sS'lifehacks'
p116
F0.0088692260918799993
sS'pcmasterrace'
p117
F0.011241392580000001
sS'tf2'
p118
F0.015914304440399998
sS'SCP'
p119
F0.0098245087745600004
sS'spaceengineers'
p120
F0.0080267944794099998
sS'metalgearsolid'
p121
F0.0087981146897100002
sS'starbound'
p122
F0.012715885367199999
sS'blackpeoplegifs'
p123
F0.0121014661392
sS'bestof'
p124
F0.0096865041854700008
sS'ProgrammerHumor'
p125
F0.0089945125221800003
sS'Cyberpunk'
p126
F0.011431248535999999
sS'TalesFromRetail'
p127
F0.0084847675040099994
sS'casualiama'
p128
F0.0091548826040599995
sS'FloridaMan'
p129
F0.011999062573199999
sS'titanfall'
p130
F0.0071966688328899998
sS'IndieGaming'
p131
F0.00801055508435
sS'whitepeoplegifs'
p132
F0.014096539940199999
sS'delusionalartists'
p133
F0.0120848708487
sS'Cynicalbrit'
p134
F0.011097924752200001
sS'promos'
p135
F0.0087624715083199998
sS'JonTron'
p136
F0.017945296864599999
sS'AnimalCrossing'
p137
F0.0084714548802900004
sS'shittyaskscience'
p138
F0.0139257923705
sS'doctorwho'
p139
F0.010034513613700001
sS'CatsStandingUp'
p140
F0.00714815564097
sS'worldbuilding'
p141
F0.010294117647100001
sS'WritingPrompts'
p142
F0.0073666542334900002
sS'dayz'
p143
F0.0092935165609600006
sS'calvinandhobbes'
p144
F0.0081713507490399993
sS'Borderlands'
p145
F0.0076014549021199999
sS'WarshipPorn'
p146
F0.0072265487967399997
sS'4chan'
p147
F0.0138282465268
sS'Roadcam'
p148
F0.0075155279503100001
sS'creepy'
p149
F0.0072036974079600002
sS'RWBY'
p150
F0.0083494341705800008
sS'badhistory'
p151
F0.0075342868915199996
sS'Planetside'
p152
F0.00801465536982
sS'Rainmeter'
p153
F0.00901201602136
sS'dogecoin'
p154
F0.00706392502448
sS'anime'
p155
F0.0110871248563
sS'AnimalsBeingBros'
p156
F0.011383972956899999
sS'quityourbullshit'
p157
F0.0153360851035
sS'classic4chan'
p158
F0.0140287992089
sS'GameDeals'
p159
F0.0100118986911
sS'battlestations'
p160
F0.0110258003729
sS'gif'
p161
F0.0115877595422
sS'paradoxplaza'
p162
F0.0073047858942099997
sS'TumblrInAction'
p163
F0.013907950201
sS'HalfLife'
p164
F0.0098317675333199992
sS'QuotesPorn'
p165
F0.0097452368785999992
sS'StarWars'
p166
F0.0108042200809
sS'nintendo'
p167
F0.00936782873849
sS'reactiongifs'
p168
F0.017032142334200001
sS'AntiJokes'
p169
F0.0085350403413999992
sS'community'
p170
F0.00865713710489
sS'findareddit'
p171
F0.0073162620552000004
sS'NotTimAndEric'
p172
F0.014506553153399999
sS'IdiotsFightingThings'
p173
F0.015528099610599999
sS'conspiratard'
p174
F0.012870707888900001
sS'startrek'
p175
F0.0073484604079299999
sS'rpg'
p176
F0.0081324217344399992
sS'holdmybeer'
p177
F0.0136176066025
sS'AskScienceFiction'
p178
F0.0119031874091
sS'ContagiousLaughter'
p179
F0.020902039109999999
sS'pokemon'
p180
F0.010231254379800001
sS'nostalgia'
p181
F0.010017207473
sS'TheLastAirbender'
p182
F0.0137225912584
sS'Damnthatsinteresting'
p183
F0.0134508181982
sS'DnD'
p184
F0.0094597611340599998
sS'FiftyFifty'
p185
F0.014788397527300001
sS'CrazyIdeas'
p186
F0.0151211063151
sS'MechanicalKeyboards'
p187
F0.0099556230293100009
sS'arma'
p188
F0.0076982294072400004
sS'lego'
p189
F0.0112367156299
sS'chrome'
p190
F0.0070253598355
sS'ANormalDayInRussia'
p191
F0.0129944383804
sS'onetruegod'
p192
F0.0141961887709
sS'Enhancement'
p193
F0.00780327868852
sS'MorbidReality'
p194
F0.0087038087343499996
sS'NetflixBestOf'
p195
F0.0075793581309299999
sS'wheredidthesodago'
p196
F0.0224074867367
sS'PenmanshipPorn'
p197
F0.0082068478644499992
sS'shittyreactiongifs'
p198
F0.017567480925799999
sS'alternativeart'
p199
F0.010714809922199999
sS'shittyadvice'
p200
F0.0079258626996699996
sS'whowouldwin'
p201
F0.0152683108192
sS'battlefield_4'
p202
F0.0075310243354699997
sS'OutOfTheLoop'
p203
F0.015316388124700001
sS'Pareidolia'
p204
F0.0159574468085
sS'GTA'
p205
F0.0077495540931200001
sS'woahdude'
p206
F0.0122225958305
sS'CombatFootage'
p207
F0.0094179329093599991
sS'fatlogic'
p208
F0.0081151507631199993
sS'TrollYChromosome'
p209
F0.0086988371028300007
sS'explainlikeIAmA'
p210
F0.013444788682999999
sS'misleadingthumbnails'
p211
F0.018969467682600001
sS'GODZILLA'
p212
F0.0076300113780900002
sS'Unexpected'
p213
F0.018495703329499999
sS'batman'
p214
F0.0098570881714899992
sS'gamegrumps'
p215
F0.018884067713699999
sS'WebGames'
p216
F0.0115280696488
sS'mildlyinfuriating'
p217
F0.013654918645399999
sS'ftlgame'
p218
F0.010566165668399999
sS'oddlysatisfying'
p219
F0.016343462614999998
sS'youtubehaiku'
p220
F0.028126618332499999
sS'rule34'
p221
F0.010093759813399999
sS'Awwducational'
p222
F0.0113630467493
sS'Shitty_Car_Mods'
p223
F0.0096349491322600001
sS'fifthworldproblems'
p224
F0.0085957815660200002
sS'blunderyears'
p225
F0.0108600388675
sS'KillLaKill'
p226
F0.013523303549899999
sS'webcomics'
p227
F0.0071018847309500003
sS'photoshopbattles'
p228
F0.018747353428000001
sS'darksouls'
p229
F0.0099612008475299992
sS'rage'
p230
F0.0141161373115
sS'comics'
p231
F0.013438790508899999
sS'Justrolledintotheshop'
p232
F0.0081126926764499997
sS'Perfectfit'
p233
F0.0133779264214
sS'PerfectTiming'
p234
F0.013506615886
sS'behindthegifs'
p235
F0.0244346889754
sS'standupshots'
p236
F0.00973690998194
sS'starcitizen'
p237
F0.0079023244224500008
sS'civ'
p238
F0.0114096261575
sS'KerbalSpaceProgram'
p239
F0.0144084997619
sS'ICanDrawThat'
p240
F0.0079726651480600003
sS'fullmoviesonyoutube'
p241
F0.012947448590999999
sS'ShingekiNoKyojin'
p242
F0.0114378203399
sS'gamernews'
p243
F0.010243277848899999
sS'Portal'
p244
F0.0083087435937299996
sS'FoodPorn'
p245
F0.0071028750742099999
sS'spaceporn'
p246
F0.0110027855153
sS'crappymusic'
p247
F0.0075688767786900001
sS'awesome'
p248
F0.0080143705955499998
sS'teenagers'
p249
F0.00812228918598
sS'FanTheories'
p250
F0.0124368576903
sS'Metroid'
p251
F0.0073441366648
sS'TwoBestFriendsPlay'
p252
F0.00788843499084
sS'polandball'
p253
F0.015821195379200001
sS'counting'
p254
F0.0080778410134000004
sS'technology'
p255
F0.0071795229947299996
sS'southpark'
p256
F0.0103266992114
sS'asmr'
p257
F0.0094355589405099999
sS'techsupportmacgyver'
p258
F0.012372372372399999
sS'MURICA'
p259
F0.012622603070599999
sS'deadpool'
p260
F0.0070121951219500002
sS'HighQualityGifs'
p261
F0.021139861322499998
sS'Marvel'
p262
F0.0084161736903099992
sS'WorldofTanks'
p263
F0.0072735916329900001
sS'PrettyGirlsUglyFaces'
p264
F0.0071571345670300001
sS'zelda'
p265
F0.013020571160100001
sS'ImaginaryLandscapes'
p266
F0.010196954882
sS'guns'
p267
F0.0073126532352600004
sS'DaftPunk'
p268
F0.010652548319199999
sS'scifi'
p269
F0.0071176436548799999
sS'britishproblems'
p270
F0.0074596060856200004
sS'nottheonion'
p271
F0.0093925805136599993
sS'watchpeopledie'
p272
F0.0077860651264300001
sS'nonononoyes'
p273
F0.016967541665400002
sS'animegifs'
p274
F0.014669926650399999
sS'katawashoujo'
p275
F0.0083117279243599997
sS'Whatcouldgowrong'
p276
F0.015361942349000001
sS'wallpapers'
p277
F0.017333895209999998
sS'talesfromtechsupport'
p278
F0.0108282912581
sS'gaming'
p279
F0.0083520495360499998
sS'paydaytheheist'
p280
F0.0112928033676
sS'buildapc'
p281
F0.00746776314795
sS'GiftofGames'
p282
F0.0091226351558199997
sS'facepalm'
p283
F0.010775107674999999
sS'forwardsfromgrandma'
p284
F0.012798746245300001
sS'AnimalsBeingJerks'
p285
F0.012193584977
sS'Futurology'
p286
F0.0077529200131699998
sS'wallpaper'
p287
F0.010741779554799999
sS'nerdcubed'
p288
F0.010287029710099999
sS'Games'
p289
F0.0114625475052
sS'mylittlepony'
p290
F0.0147700718663
sS'gamemusic'
p291
F0.0125025480737
sS'Gaming4Gamers'
p292
F0.0087220978940700002
sS'cosplay'
p293
F0.0110251168224
sS'GamePhysics'
p294
F0.025665117199100002
sS'bindingofisaac'
p295
F0.0077969228937899999
sS'Minecraft'
p296
F0.012789112857799999
sS'lewronggeneration'
p297
F0.013473653545
sS'truegaming'
p298
F0.0102963200685
sS'oculus'
p299
F0.0076750879437200003
sS'cosplaygirls'
p300
F0.0082943211886800008
sS'Terraria'
p301
F0.0089844448417700003
sS'youtube'
p302
F0.0088600756347900003
sS'HumanPorn'
p303
F0.0089733840304200008
sS'NSFWFunny'
p304
F0.0071877265039900001
sS'terriblefacebookmemes'
p305
F0.0115238524432
sS'sixwordstories'
p306
F0.0079371136381000008
sS'thatHappened'
p307
F0.013150098434600001
sS'HailCorporate'
p308
F0.0084309714214899998
sS'ImGoingToHellForThis'
p309
F0.0114474118035
sS'Warthunder'
p310
F0.012185901712299999
s.