(dp1
S'RandomActsOfGaming'
p2
F0.0099816025364999998
sS'softwareswap'
p3
F0.019014483372399998
sS'churning'
p4
F0.0073976852404200001
sS'Flipping'
p5
F0.014580552418099999
sS'sgsflair'
p6
F0.020362992474500002
sS'buildapcsales'
p7
F0.0096954630205099996
sS'GameTrade'
p8
F0.018630280766199998
sS'RandomActsOfPizza'
p9
F0.0080389492753600005
sS'HITsWorthTurkingFor'
p10
F0.016634676903400002
sS'GlobalOffensiveTrade'
p11
F0.0097040271712799994
sS'GameSale'
p12
F0.0354916677268
sS'GiftofGames'
p13
F0.0114899925871
sS'RandomKindness'
p14
F0.0093103448275899999
sS'mturk'
p15
F0.0109136264422
sS'Random_Acts_Of_Pizza'
p16
F0.0088973024136299993
sS'Ebay'
p17
F0.00827904451683
sS'tf2trade'
p18
F0.011815033611700001
sS'dogemarket'
p19
F0.010150852953599999
sS'indiegameswap'
p20
F0.018442332245700001
sS'gameswap'
p21
F0.021152600906500001
sS'Random_Acts_Of_Amazon'
p22
F0.0082057756036000001
sS'hardwareswap'
p23
F0.0214412169694
sS'beermoney'
p24
F0.064763148521900002
sS'freebies'
p25
F0.010151865302100001
sS'eFreebies'
p26
F0.0082506277651599996
sS'SteamGameSwap'
p27
F0.015919121807699999
s.