(dp1
S'HomeworkHelp'
p2
F0.0078280397818399992
sS'Terraria'
p3
F0.016542638777200001
sS'softwareswap'
p4
F0.014703049759200001
sS'pettyrevenge'
p5
F0.0073840977068799999
sS'PublicFreakout'
p6
F0.0071431663708399996
sS'xbox360'
p7
F0.011478318731299999
sS'LucidDreaming'
p8
F0.0073303260200899998
sS'fffffffuuuuuuuuuuuu'
p9
F0.0086202650115799993
sS'randomactsofamazon'
p10
F0.0106310013717
sS'sgsflair'
p11
F0.039139633286299998
sS'Unexpected'
p12
F0.0107286615321
sS'perfectloops'
p13
F0.010196560196600001
sS'dontstarve'
p14
F0.0097722567287799999
sS'wiiu'
p15
F0.0091330577589100008
sS'InternetIsBeautiful'
p16
F0.0085170490140499995
sS'RandomActsOfGaming'
p17
F0.134522133584
sS'MLPLounge'
p18
F0.0091846600064499993
sS'blender'
p19
F0.0073794254590200002
sS'GlobalOffensive'
p20
F0.0107199474152
sS'summonerschool'
p21
F0.0071679272331799998
sS'quityourbullshit'
p22
F0.013071895424800001
sS'smashbros'
p23
F0.0089636166244499993
sS'LearnUselessTalents'
p24
F0.0088568064301400001
sS'AndroidQuestions'
p25
F0.0089620484682199995
sS'cringe'
p26
F0.0089142469777400007
sS'shittybattlestations'
p27
F0.0112678339818
sS'Bioshock'
p28
F0.014154601861399999
sS'GrandTheftAutoV'
p29
F0.0121447436737
sS'Fallout'
p30
F0.014671148255799999
sS'FreeKarma'
p31
F0.0137027330588
sS'KillLaKill'
p32
F0.0076804915514600003
sS'adventuretime'
p33
F0.0080114635576099998
sS'AskGames'
p34
F0.0108436132113
sS'buildapcsales'
p35
F0.014605253476599999
sS'YouShouldKnow'
p36
F0.0074386811419399996
sS'Random_Acts_Of_Amazon'
p37
F0.019317819572799998
sS'skyrimmods'
p38
F0.0162574833855
sS'JusticePorn'
p39
F0.0073456664633700002
sS'patientgamers'
p40
F0.023889043510499999
sS'gmod'
p41
F0.0133966244726
sS'NoStupidQuestions'
p42
F0.0092551914008699998
sS'cringepics'
p43
F0.0084369244175699996
sS'rickandmorty'
p44
F0.0083543570867299997
sS'Steam'
p45
F0.032179313490100003
sS'halo'
p46
F0.0079241687145799999
sS'hardwareswap'
p47
F0.0132671772193
sS'AlienBlue'
p48
F0.0078141725540600004
sS'photoshopbattles'
p49
F0.0097255354287400005
sS'Sherlock'
p50
F0.00720386950705
sS'creepyPMs'
p51
F0.0073435999132400002
sS'dadjokes'
p52
F0.0092548807674100002
sS'WatchItForThePlot'
p53
F0.0077750888213799999
sS'prisonarchitect'
p54
F0.0085120871637700008
sS'techsupportgore'
p55
F0.0110794555239
sS'freebies'
p56
F0.013469985358700001
sS'xbox'
p57
F0.0075114304376199996
sS'thatHappened'
p58
F0.0124530263053
sS'SteamGameSwap'
p59
F0.049514258853000002
sS'futurama'
p60
F0.0077021822849799998
sS'Monstercat'
p61
F0.0075599163583700002
sS'montageparodies'
p62
F0.017008461207499999
sS'techsupport'
p63
F0.0146134798975
sS'GTAV'
p64
F0.0080162125647399995
sS'starcitizen'
p65
F0.0075687005123399997
sS'battlefield3'
p66
F0.012456037514699999
sS'secretsanta'
p67
F0.0085604129909200005
sS'StarWars'
p68
F0.0073265865486
sS'pcgaming'
p69
F0.023816041609599999
sS'mcservers'
p70
F0.0081213084961399996
sS'MechanicalKeyboards'
p71
F0.013805899742099999
sS'starbound'
p72
F0.014853137516699999
sS'totalwar'
p73
F0.0077026875070300002
sS'counterstrike'
p74
F0.0113571834185
sS'ShouldIbuythisgame'
p75
F0.0306478603873
sS'SubredditDrama'
p76
F0.0098527662105899992
sS'tumblr'
p77
F0.0083657986467100005
sS'DCcomics'
p78
F0.0070587065665900003
sS'interestingasfuck'
p79
F0.0083357754550499995
sS'MarkMyWords'
p80
F0.0074428950295100001
sS'TalesFromRetail'
p81
F0.0077703178552999998
sS'roosterteeth'
p82
F0.0101764082961
sS'PS3'
p83
F0.0115481462186
sS'Android'
p84
F0.0074163010852
sS'KarmaCourt'
p85
F0.0094624521844199998
sS'vita'
p86
F0.0086531372472899992
sS'PS4'
p87
F0.0076444465004400003
sS'firstworldanarchists'
p88
F0.0101533048505
sS'forwardsfromgrandma'
p89
F0.0076140908871899999
sS'Marvel'
p90
F0.0070163934426199998
sS'mountandblade'
p91
F0.010914565299199999
sS'Piracy'
p92
F0.0083246618106099998
sS'behindthegifs'
p93
F0.011342582132
sS'GameTrade'
p94
F0.019130757800900001
sS'Warthunder'
p95
F0.00770484516225
sS'oblivion'
p96
F0.0079047619047599993
sS'breakingbad'
p97
F0.0084279753516300002
sS'outside'
p98
F0.0144827288055
sS'mindcrack'
p99
F0.00760948141384
sS'gamedev'
p100
F0.0078550043460100007
sS'lifehacks'
p101
F0.0075078711552399998
sS'pcmasterrace'
p102
F0.018102940388800001
sS'JRPG'
p103
F0.0071221726539899997
sS'letsplay'
p104
F0.011315026907700001
sS'spaceengineers'
p105
F0.0074054306491399997
sS'metalgearsolid'
p106
F0.0090719188302000008
sS'iosgaming'
p107
F0.0079062957540300006
sS'bestof'
p108
F0.0074121977912599999
sS'arrow'
p109
F0.00759359830826
sS'needamod'
p110
F0.017552493438299999
sS'casualiama'
p111
F0.010107851821
sS'facepalm'
p112
F0.0091845736971500006
sS'Warframe'
p113
F0.00813087774295
sS'Random_Acts_Of_Pizza'
p114
F0.013223261250700001
sS'tf2trade'
p115
F0.020259256384400001
sS'GameDealsMeta'
p116
F0.0174486647516
sS'promos'
p117
F0.010535681500400001
sS'JonTron'
p118
F0.0099405134627400006
sS'emulation'
p119
F0.0126451612903
sS'shittyaskscience'
p120
F0.010610876148099999
sS'doctorwho'
p121
F0.0083256865334300004
sS'giftcardexchange'
p122
F0.0114899925871
sS'gamingsuggestions'
p123
F0.016158818097899999
sS'Morrowind'
p124
F0.0080528411147299996
sS'WritingPrompts'
p125
F0.0071344128886799999
sS'dayz'
p126
F0.011981159398200001
sS'Cynicalbrit'
p127
F0.013728625052099999
sS'overclocking'
p128
F0.0084074217240000006
sS'headphones'
p129
F0.0092767121262499995
sS'Xcom'
p130
F0.0070559975979599997
sS'DeepIntoYouTube'
p131
F0.011831966194400001
sS'Rainmeter'
p132
F0.016357547655800001
sS'AnimalCrossing'
p133
F0.0084085633221599992
sS'Planetside'
p134
F0.0072014737899799997
sS'4chan'
p135
F0.011825938004400001
sS'dogecoin'
p136
F0.0093563458605100003
sS'anime'
p137
F0.0082756961568500008
sS'classic4chan'
p138
F0.012027367662899999
sS'Assistance'
p139
F0.0081736027168600005
sS'battlestations'
p140
F0.0125097403281
sS'thewalkingdead'
p141
F0.0079780389465600003
sS'HalfLife'
p142
F0.013739651224199999
sS'buildapc'
p143
F0.0134838070469
sS'gamingpc'
p144
F0.011717932621900001
sS'Yogscast'
p145
F0.0091453507265200004
sS'PlayStationPlus'
p146
F0.0092061374249500002
sS'AppHookup'
p147
F0.0084463214047599995
sS'nintendo'
p148
F0.011387585831800001
sS'reactiongifs'
p149
F0.0080350688587799996
sS'AntiJokes'
p150
F0.0071777882946800001
sS'findareddit'
p151
F0.0093803841490699997
sS'Animesuggest'
p152
F0.0091023384460599994
sS'GirlGamers'
p153
F0.0093020500059199998
sS'AskScienceFiction'
p154
F0.00753314092844
sS'ContagiousLaughter'
p155
F0.0080653447035900008
sS'pokemon'
p156
F0.0090930203476400004
sS'GamePhysics'
p157
F0.0155214317278
sS'thelastofus'
p158
F0.0070025989026899996
sS'TheLastAirbender'
p159
F0.0079634464751999999
sS'Damnthatsinteresting'
p160
F0.0074516229712899996
sS'MorbidReality'
p161
F0.0075766272529000003
sS'FiftyFifty'
p162
F0.0113357074786
sS'csshelp'
p163
F0.0070245334451700002
sS'picrequests'
p164
F0.0088046445461200003
sS'chrome'
p165
F0.0070543248945099998
sS'OutOfTheLoop'
p166
F0.013187616978299999
sS'RandomActsOfPizza'
p167
F0.0090803065644800007
sS'Enhancement'
p168
F0.0074320662692599999
sS'Awesomenauts'
p169
F0.0071669477234399996
sS'wheredidthesodago'
p170
F0.0108948593188
sS'Portal'
p171
F0.011418783899500001
sS'SuggestALaptop'
p172
F0.0102603813764
sS'misleadingthumbnails'
p173
F0.0103645676409
sS'WebGames'
p174
F0.0089117872310799998
sS'whowouldwin'
p175
F0.011608406268000001
sS'battlefield_4'
p176
F0.0090781697434999999
sS'lewronggeneration'
p177
F0.011474628762
sS'woahdude'
p178
F0.0082843673134700008
sS'tf2'
p179
F0.016480561113599999
sS'GTA'
p180
F0.011828344753
sS'indiegameswap'
p181
F0.0400440484533
sS'explainlikeIAmA'
p182
F0.0076002152273299999
sS'androidthemes'
p183
F0.0075499629903799997
sS'3DS'
p184
F0.0115063260921
sS'AndroidGaming'
p185
F0.012902290519
sS'batman'
p186
F0.0078769950467799995
sS'androidapps'
p187
F0.0072751617942399998
sS'CallOfDuty'
p188
F0.0089431471360600003
sS'mildlyinfuriating'
p189
F0.0098517059006499996
sS'ftlgame'
p190
F0.012254742194100001
sS'Dota2Trade'
p191
F0.0098561534363299994
sS'youtubehaiku'
p192
F0.0082279131955199994
sS'rule34'
p193
F0.0074459047523899998
sS'skyrim'
p194
F0.014498526248699999
sS'dogemarket'
p195
F0.0087379037197299995
sS'Twitch'
p196
F0.0091684822076999999
sS'blunderyears'
p197
F0.0070407865683500001
sS'gameswap'
p198
F0.015465982851200001
sS'buildapcforme'
p199
F0.016442883701699999
sS'Battlefield'
p200
F0.0131052478979
sS'darksouls'
p201
F0.0110087422365
sS'rage'
p202
F0.010359441218
sS'comics'
p203
F0.0074798901314499996
sS'netflix'
p204
F0.0072652757078999998
sS'nononono'
p205
F0.0072495224865399997
sS'arma'
p206
F0.0115918160512
sS'softwaregore'
p207
F0.0097330777171500005
sS'civ'
p208
F0.012034799420000001
sS'MMORPG'
p209
F0.0080080080080099994
sS'KerbalSpaceProgram'
p210
F0.0097730222210500005
sS'Glitch_in_the_Matrix'
p211
F0.0073970088008199998
sS'ICanDrawThat'
p212
F0.0094247416922599997
sS'fullmoviesonyoutube'
p213
F0.0090716927954899995
sS'ShingekiNoKyojin'
p214
F0.0086769230769199995
sS'gamernews'
p215
F0.00999857840118
sS'youtube'
p216
F0.0127226463104
sS'teenagers'
p217
F0.012361379590999999
sS'FanTheories'
p218
F0.0095259696076199999
sS'hardware'
p219
F0.0077862961188300004
sS'gamecollecting'
p220
F0.0089964594578900003
sS'tipofmytongue'
p221
F0.0102188573083
sS'learnprogramming'
p222
F0.0077843174482600001
sS'polandball'
p223
F0.0093976046484099997
sS'counting'
p224
F0.010450218309399999
sS'southpark'
p225
F0.0091031692515200005
sS'techsupportmacgyver'
p226
F0.0089764108273600006
sS'assassinscreed'
p227
F0.0114278485283
sS'HighQualityGifs'
p228
F0.0085765488991299994
sS'IndieGaming'
p229
F0.0125531914894
sS'eFreebies'
p230
F0.020780359491499999
sS'shittyama'
p231
F0.0096092701194100006
sS'pokemonzetaomicron'
p232
F0.0088645283529599998
sS'zelda'
p233
F0.0091373871423899994
sS'masseffect'
p234
F0.0078866296980899999
sS'CableManagement'
p235
F0.0072272682879199997
sS'rpg_gamers'
p236
F0.0076923076923099999
sS'watchpeopledie'
p237
F0.0073134862275899999
sS'nonononoyes'
p238
F0.0091306584362100002
sS'GlobalOffensiveTrade'
p239
F0.0128183504807
sS'gamegrumps'
p240
F0.0112586887707
sS'Whatcouldgowrong'
p241
F0.00763097650186
sS'wallpapers'
p242
F0.0105363698773
sS'talesfromtechsupport'
p243
F0.0098591240716000006
sS'gaming'
p244
F0.0086448182323200003
sS'paydaytheheist'
p245
F0.018361009855499998
sS'GameSale'
p246
F0.0133023837157
sS'notinteresting'
p247
F0.0102718406308
sS'blackops2'
p248
F0.0084191670398600007
sS'RandomKindness'
p249
F0.040234293285
sS'CrappyDesign'
p250
F0.0088529937097100008
sS'linux_gaming'
p251
F0.0070294605481399999
sS'nerdcubed'
p252
F0.013469870027600001
sS'Games'
p253
F0.013785392019599999
sS'mylittlepony'
p254
F0.00750999707403
sS'Gaming4Gamers'
p255
F0.017716272228900001
sS'playrust'
p256
F0.011966350263200001
sS'CrazyIdeas'
p257
F0.0094028325302999999
sS'bindingofisaac'
p258
F0.013509601466799999
sS'Minecraft'
p259
F0.0141385472511
sS'GameDeals'
p260
F0.028328918203
sS'thesims'
p261
F0.0083489430024100003
sS'truegaming'
p262
F0.013534393956699999
sS'oddlysatisfying'
p263
F0.0100402989701
sS'beermoney'
p264
F0.0154621848739
sS'oculus'
p265
F0.0075476405825999999
sS'windows'
p266
F0.00835447738103
sS'feedthebeast'
p267
F0.00746645141762
sS'TF2fashionadvice'
p268
F0.0090510670731700008
sS'Borderlands'
p269
F0.0141440785883
sS'terriblefacebookmemes'
p270
F0.0083043937792499998
sS'TumblrInAction'
p271
F0.00837943275756
sS'titanfall'
p272
F0.0105688768329
sS'minecraftsuggestions'
p273
F0.0072325846973699997
sS'Borderlands2'
p274
F0.0128000943786
sS'ImGoingToHellForThis'
p275
F0.0094512567727200007
sS'manga'
p276
F0.0078879035813999993
sS'GifSound'
p277
F0.0091226351558199997
s.