(dp1
S'awwwtf'
p2
F0.0070953112427800001
sS'Heavymind'
p3
F0.0077894171367199998
sS'MapPorn'
p4
F0.0080326405712100001
sS'redheads'
p5
F0.027466850352999998
sS'DoesAnybodyElse'
p6
F0.0086077755320400004
sS'GWCouples'
p7
F0.020300476365
sS'malehairadvice'
p8
F0.0071114929362400001
sS'CityPorn'
p9
F0.0077968709925600004
sS'skyrim'
p10
F0.0070336295412400003
sS'fffffffuuuuuuuuuuuu'
p11
F0.010416666666700001
sS'uglyduckling'
p12
F0.0086351643079900006
sS'milf'
p13
F0.038062827225100002
sS'dadjokes'
p14
F0.0094804071585400003
sS'dbz'
p15
F0.0075016307892999999
sS'perfectloops'
p16
F0.010274177169799999
sS'everymanshouldknow'
p17
F0.011211785411600001
sS'dataisbeautiful'
p18
F0.0070929892281300002
sS'bodybuilding'
p19
F0.0083805137063000003
sS'carporn'
p20
F0.0137869359466
sS'BDSMGW'
p21
F0.0080859875751899991
sS'NSFWFunny'
p22
F0.02516813423
sS'Amateur'
p23
F0.045711446494000003
sS'atheism'
p24
F0.0080499607638000008
sS'quityourbullshit'
p25
F0.012817766352499999
sS'boltedontits'
p26
F0.021922748410400001
sS'LearnUselessTalents'
p27
F0.0085995700215000005
sS'holdmybeer'
p28
F0.0150489366399
sS'hugeboobs'
p29
F0.019682259488099998
sS'HistoryPorn'
p30
F0.010567079325200001
sS'pettyrevenge'
p31
F0.0091997169317899995
sS'GrandTheftAutoV'
p32
F0.0100325500513
sS'hiphopheads'
p33
F0.0075634332888199996
sS'4chan'
p34
F0.0122964258389
sS'AsianHotties'
p35
F0.0265641384131
sS'PublicFreakout'
p36
F0.0094002552105500008
sS'BigBoobsGW'
p37
F0.017996701799700001
sS'MensRights'
p38
F0.010130119640200001
sS'nononono'
p39
F0.0134006935822
sS'pornID'
p40
F0.015047879617
sS'YouShouldKnow'
p41
F0.0099865517756599995
sS'shutupandtakemymoney'
p42
F0.0091743119266099998
sS'cumsluts'
p43
F0.0342714345213
sS'tightdresses'
p44
F0.057042443903799998
sS'food'
p45
F0.0072568940493499996
sS'cringepics'
p46
F0.010352649487
sS'NSFW_GIF'
p47
F0.039875209731500001
sS'trees'
p48
F0.0076133454889699996
sS'altgonewild'
p49
F0.016904294373800002
sS'geek'
p50
F0.0093726568357899998
sS'spaceporn'
p51
F0.010517758243999999
sS'gonewildstories'
p52
F0.0118802832991
sS'Hotwife'
p53
F0.012208230958200001
sS'toosoon'
p54
F0.0112311930494
sS'Military'
p55
F0.0076360623851899996
sS'beards'
p56
F0.0088612936283100005
sS'PrettyGirlsUglyFaces'
p57
F0.0118644067797
sS'motorcycles'
p58
F0.0081326113566099999
sS'photoshopbattles'
p59
F0.00841834079317
sS'AbandonedPorn'
p60
F0.010169491525400001
sS'firstimpression'
p61
F0.0075869726128800002
sS'creepyPMs'
p62
F0.00837843622909
sS'tipofmypenis'
p63
F0.018845311402199999
sS'WatchItForThePlot'
p64
F0.0335241631853
sS'Celebs'
p65
F0.0299920571882
sS'techsupportgore'
p66
F0.0081791827719500006
sS'CrappyDesign'
p67
F0.0101941498899
sS'comics'
p68
F0.0092304702681699994
sS'pornvids'
p69
F0.020954770161599998
sS'workgonewild'
p70
F0.018920682263000001
sS'Libertarian'
p71
F0.0070180084745800004
sS'nsfw'
p72
F0.036826901095200003
sS'anal'
p73
F0.020177289995799999
sS'ArcherFX'
p74
F0.00942819729376
sS'cringe'
p75
F0.010309510410800001
sS'StarWars'
p76
F0.0098186519445099991
sS'NetflixBestOf'
p77
F0.0089088615578700008
sS'gentlemanboners'
p78
F0.031245221468999999
sS'Rateme'
p79
F0.0108224553125
sS'TheRedPill'
p80
F0.0084083707213000007
sS'tumblr'
p81
F0.010281843474099999
sS'burstingout'
p82
F0.0357781753131
sS'see'
p83
F0.0074797160243399996
sS'AmISexy'
p84
F0.0130279470477
sS'fatpeoplestories'
p85
F0.0071268823617099998
sS'ContagiousLaughter'
p86
F0.0080786793115600001
sS'popping'
p87
F0.0073568050446699996
sS'firstworldanarchists'
p88
F0.012248251138900001
sS'offbeat'
p89
F0.0096140291522200001
sS'gameofthrones'
p90
F0.00773235547105
sS'Blowjobs'
p91
F0.027215399933600001
sS'Sneakers'
p92
F0.0080036305128100005
sS'entertainment'
p93
F0.0070992404309199999
sS'shittyfoodporn'
p94
F0.0097374473550600003
sS'ExpectationVsReality'
p95
F0.0097169412758799992
sS'breakingbad'
p96
F0.010608919148000001
sS'malefashionadvice'
p97
F0.0077310150749599999
sS'firstworldproblems'
p98
F0.0121175278622
sS'outside'
p99
F0.00723875257775
sS'RoomPorn'
p100
F0.0135721099644
sS'randomsexiness'
p101
F0.051694686685199998
sS'lifehacks'
p102
F0.0123513566783
sS'memes'
p103
F0.0085089671422999991
sS'guns'
p104
F0.0083138824052500001
sS'AsiansGoneWild'
p105
F0.022905027933000002
sS'SubredditDrama'
p106
F0.0071877642560400001
sS'ass'
p107
F0.066814439518700003
sS'tattoos'
p108
F0.0078371140516700008
sS'blackpeoplegifs'
p109
F0.0149224425682
sS'bestof'
p110
F0.0085065038071100007
sS'interestingasfuck'
p111
F0.0125594301199
sS'Bondage'
p112
F0.0130593431919
sS'cars'
p113
F0.0083637384226799994
sS'FloridaMan'
p114
F0.0092720659802300008
sS'celebnsfw'
p115
F0.029174346914100001
sS'whitepeoplegifs'
p116
F0.0129986244842
sS'baseball'
p117
F0.0073376519513799997
sS'shittyaskscience'
p118
F0.0089907622388
sS'GamePhysics'
p119
F0.0090996681297500007
sS'lewronggeneration'
p120
F0.0071825134914799997
sS'TributeMe'
p121
F0.010974456007599999
sS'TopGear'
p122
F0.0103449601969
sS'LifeProTips'
p123
F0.0071136333641299999
sS'GoneWildPlus'
p124
F0.0109520656105
sS'creepy'
p125
F0.0070955136534900003
sS'itookapicture'
p126
F0.0075858349811299998
sS'wheredidthesodago'
p127
F0.010788496895300001
sS'AnimalsBeingBros'
p128
F0.013397759718900001
sS'classic4chan'
p129
F0.010157935017
sS'battlestations'
p130
F0.0088951700058199999
sS'thewalkingdead'
p131
F0.0086013080801199994
sS'ANormalDayInRussia'
p132
F0.010681061215100001
sS'Whatcouldgowrong'
p133
F0.015616811655
sS'QuotesPorn'
p134
F0.0124911619137
sS'bigdickproblems'
p135
F0.0100867212006
sS'wifesharing'
p136
F0.018966022261300002
sS'drunk'
p137
F0.010469064386300001
sS'TinyTits'
p138
F0.026899250081500001
sS'pussy'
p139
F0.0214921166212
sS'confession'
p140
F0.00713054845802
sS'reactiongifs'
p141
F0.0127197211303
sS'cosplay'
p142
F0.0081653383341099995
sS'community'
p143
F0.0081426791845199999
sS'nostalgia'
p144
F0.0098109517601000003
sS'feet'
p145
F0.0120620774431
sS'IdiotsFightingThings'
p146
F0.0128481912485
sS'incest'
p147
F0.0095788139174499999
sS'MilitaryPorn'
p148
F0.010292890354900001
sS'TrollXChromosomes'
p149
F0.0095637258074999995
sS'thick'
p150
F0.032769394909299997
sS'gonewildcurvy'
p151
F0.0185410088252
sS'gonewildaudio'
p152
F0.00775874688918
sS'MorbidReality'
p153
F0.0113558626351
sS'FiftyFifty'
p154
F0.0188316391518
sS'CrazyIdeas'
p155
F0.010965545102999999
sS'OldSchoolCool'
p156
F0.0091989840565200008
sS'StonerEngineering'
p157
F0.0075654589514699997
sS'Bad_Cop_No_Donut'
p158
F0.011503403256
sS'OutOfTheLoop'
p159
F0.00875927889714
sS'seduction'
p160
F0.0099759095682299993
sS'sports'
p161
F0.0073117445998800001
sS'futurama'
p162
F0.0091714247178900001
sS'gif'
p163
F0.013724980504300001
sS'cats'
p164
F0.0079081772749700005
sS'PenmanshipPorn'
p165
F0.0098280098280099995
sS'shittyreactiongifs'
p166
F0.0084385142444999995
sS'misleadingthumbnails'
p167
F0.0094300943009400003
sS'trailerparkboys'
p168
F0.0073363794324
sS'Pareidolia'
p169
F0.0085848950734999999
sS'asstastic'
p170
F0.046892358065799999
sS'woahdude'
p171
F0.0114262795897
sS'CombatFootage'
p172
F0.0072463768115899998
sS'fatlogic'
p173
F0.010092317321200001
sS'TrollYChromosome'
p174
F0.0092694658783400007
sS'Stacked'
p175
F0.022207646176899999
sS'bdsm'
p176
F0.0076218338594200002
sS'Unexpected'
p177
F0.0137435897436
sS'batman'
p178
F0.0095638608152999998
sS'treesgonewild'
p179
F0.015608740894900001
sS'mildlyinfuriating'
p180
F0.012689419090200001
sS'RandomActsOfBlowJob'
p181
F0.0086908155461299999
sS'oddlysatisfying'
p182
F0.012902009835
sS'nsfw_gifs'
p183
F0.036500579374299999
sS'rule34'
p184
F0.0178633111276
sS'Awwducational'
p185
F0.0087101025729200005
sS'Shitty_Car_Mods'
p186
F0.0108533527974
sS'AskMen'
p187
F0.0078850283574700003
sS'ghettoglamourshots'
p188
F0.0088034907754699996
sS'blunderyears'
p189
F0.010209102091
sS'Boobies'
p190
F0.046368884837400003
sS'gonewild'
p191
F0.017441250341100001
sS'showerbeer'
p192
F0.0081545694974999999
sS'rage'
p193
F0.011868776671400001
sS'worldpolitics'
p194
F0.00911350455675
sS'sex'
p195
F0.00889288873974
sS'AmateurArchives'
p196
F0.0224594992636
sS'Perfectfit'
p197
F0.0085011497456600003
sS'PerfectTiming'
p198
F0.015191377408100001
sS'behindthegifs'
p199
F0.0121832358674
sS'standupshots'
p200
F0.012837279735699999
sS'conspiracy'
p201
F0.0108172868231
sS'dirtypenpals'
p202
F0.00798989034283
sS'MMA'
p203
F0.00810741615225
sS'BustyPetite'
p204
F0.052626105044199997
sS'OnOff'
p205
F0.044860951349900001
sS'fullmoviesonyoutube'
p206
F0.0092808426141799995
sS'Damnthatsinteresting'
p207
F0.0123998767714
sS'FoodPorn'
p208
F0.0115773598297
sS'teenagers'
p209
F0.0079402305012100001
sS'ginger'
p210
F0.030348507587100001
sS'IASIP'
p211
F0.0082819011446999997
sS'Tgirls'
p212
F0.0087149844375300003
sS'politics'
p213
F0.0075726456037599997
sS'hentai'
p214
F0.0078327105490100003
sS'bestofworldstar'
p215
F0.011239805359499999
sS'shorthairedhotties'
p216
F0.013457715247000001
sS'southpark'
p217
F0.010303453318699999
sS'hardbodies'
p218
F0.036456291650300003
sS'MURICA'
p219
F0.0148975791434
sS'HighQualityGifs'
p220
F0.010085289173899999
sS'RealGirls'
p221
F0.046474945135299997
sS'GoneMild'
p222
F0.031272502828899998
sS'Hotchickswithtattoos'
p223
F0.038389072067799998
sS'badtattoos'
p224
F0.0075058838496299997
sS'Gore'
p225
F0.0098780487804899994
sS'Justrolledintotheshop'
p226
F0.0103050182081
sS'nottheonion'
p227
F0.0072873891812799997
sS'watchpeopledie'
p228
F0.014384530734200001
sS'nonononoyes'
p229
F0.0134898666921
sS'Autos'
p230
F0.00952459489548
sS'wallpapers'
p231
F0.0103915219311
sS'JusticePorn'
p232
F0.0141284304154
sS'notinteresting'
p233
F0.00873525712926
sS'facepalm'
p234
F0.0131897120246
sS'AnimalsBeingJerks'
p235
F0.014596825609899999
sS'Futurology'
p236
F0.0070280994307500002
sS'wallpaper'
p237
F0.0081736567064200003
sS'GTAV'
p238
F0.0071847313439400004
sS'progresspics'
p239
F0.011752846008200001
sS'humor'
p240
F0.0073397402048800001
sS'traps'
p241
F0.0075769788811900001
sS'cosplaygirls'
p242
F0.026689576174100001
sS'ConfusedBoners'
p243
F0.015720656035099999
sS'Cuckold'
p244
F0.0090408128121200002
sS'HumanPorn'
p245
F0.010830527497199999
sS'GetMotivated'
p246
F0.0084486300042600007
sS'curvy'
p247
F0.033816075307699998
sS'PrettyGirls'
p248
F0.032890262751200001
sS'TumblrInAction'
p249
F0.0078530115676100007
sS'thatHappened'
p250
F0.011316424642899999
sS'tall'
p251
F0.0077692445079499996
sS'ImGoingToHellForThis'
p252
F0.017270922294399998
sS'EmmaWatson'
p253
F0.020767966532200002
sS'GWNerdy'
p254
F0.017682643089799999
s.