(dp1
S'Pokemongiveaway'
p2
F0.0187388049419
sS'ShinyPokemon'
p3
F0.012324929972
sS'CasualPokemonTrades'
p4
F0.019152245771000002
sS'SVExchange'
p5
F0.0091413925672800007
sS'friendsafari'
p6
F0.010011300845099999
sS'pokemontrades'
p7
F0.0193543269612
sS'Vivillon'
p8
F0.0086659064994300001
s.