(dp1
S'AskUK'
p2
F0.013549415515399999
sS'unitedkingdom'
p3
F0.018344423417399999
sS'Scotland'
p4
F0.100998238403
sS'BritishTV'
p5
F0.011578197363700001
sS'britishproblems'
p6
F0.0145873750187
sS'ukpolitics'
p7
F0.0227783752077
sS'northernireland'
p8
F0.0094339622641499993
sS'TheRedLion'
p9
F0.00714694110921
s.