(dp1
S'BuyItForLife'
p2
F0.0079188506353899991
sS'everymanshouldknow'
p3
F0.0083233406221300005
sS'IndieGaming'
p4
F0.013178984862
sS'unixporn'
p5
F0.0128687388636
sS'HistoryPorn'
p6
F0.0085662369126899996
sS'holdmybeer'
p7
F0.0129279097865
sS'ImaginaryMonsters'
p8
F0.016406966086200001
sS'dwarffortress'
p9
F0.0088269774498299994
sS'YouShouldKnow'
p10
F0.0096143659285899997
sS'synthesizers'
p11
F0.017457180500700002
sS'3amjokes'
p12
F0.0106798110495
sS'Steam'
p13
F0.00717288809489
sS'photoshopbattles'
p14
F0.011248518159299999
sS'DJs'
p15
F0.0101498308362
sS'CrappyDesign'
p16
F0.022520655447799999
sS'NewsOfTheWeird'
p17
F0.0072891793389499998
sS'math'
p18
F0.0071216617210700002
sS'Cyberpunk'
p19
F0.032906545411
sS'pcgaming'
p20
F0.00748966942149
sS'forwardsfromgrandma'
p21
F0.014896581288199999
sS'LSD'
p22
F0.0088691796008900006
sS'Glitch_in_the_Matrix'
p23
F0.012743491716700001
sS'skeptic'
p24
F0.0089660434948499994
sS'deadmau5'
p25
F0.0087414680876500006
sS'socialskills'
p26
F0.0074880871341000002
sS'Anticonsumption'
p27
F0.00938109161793
sS'gamedev'
p28
F0.0103660846506
sS'AfterEffects'
p29
F0.00830235439901
sS'vexillology'
p30
F0.011595883461399999
sS'ExposurePorn'
p31
F0.0142695356738
sS'Beatmatch'
p32
F0.0070542447093199998
sS'answers'
p33
F0.0098734529272699999
sS'ThriftStoreHauls'
p34
F0.00895087427144
sS'evangelion'
p35
F0.0080536912751699996
sS'vinyl'
p36
F0.0107799101674
sS'HalfLife'
p37
F0.011234764175900001
sS'QuotesPorn'
p38
F0.010870977521799999
sS'design_critiques'
p39
F0.0090153791762400005
sS'itookapicture'
p40
F0.0131042400728
sS'TrueReddit'
p41
F0.0088253484942200002
sS'AntiJokes'
p42
F0.0090628795664799994
sS'KingOfTheHill'
p43
F0.0092951200619700008
sS'IdiotsFightingThings'
p44
F0.014371112855500001
sS'gamernews'
p45
F0.0072897682895099996
sS'ContagiousLaughter'
p46
F0.012328688571600001
sS'graphic_design'
p47
F0.018988132417200002
sS'FiftyFifty'
p48
F0.0085189177819300008
sS'eldertrees'
p49
F0.0077669902912600002
sS'Drugs'
p50
F0.0079496522027200003
sS'OutOfTheLoop'
p51
F0.0131336715909
sS'Techno'
p52
F0.0081554981650099993
sS'ifyoulikeblank'
p53
F0.013640088982599999
sS'misleadingthumbnails'
p54
F0.0226675881133
sS'WebGames'
p55
F0.0114701130856
sS'musictheory'
p56
F0.0080652813359900002
sS'Pareidolia'
p57
F0.0215633423181
sS'tipofmytongue'
p58
F0.0075048760494100001
sS'Shitty_Car_Mods'
p59
F0.010511490501900001
sS'UFOs'
p60
F0.0075932087705799997
sS'ghettoglamourshots'
p61
F0.0089227012303900004
sS'techsupportgore'
p62
F0.019571259947499999
sS'firstworldproblems'
p63
F0.0096313219549299996
sS'findareddit'
p64
F0.010728360823200001
sS'standupshots'
p65
F0.0100658584044
sS'Meditation'
p66
F0.0070023148148099998
sS'AskScienceFiction'
p67
F0.0086636343946300005
sS'NewsOfTheStupid'
p68
F0.0099066927773300006
sS'audiophile'
p69
F0.0078753836354199993
sS'awesome'
p70
F0.0098376783079199993
sS'Infographics'
p71
F0.010235316625200001
sS'polandball'
p72
F0.0072846018588300001
sS'counting'
p73
F0.0085512660855100002
sS'Pizza'
p74
F0.0071636817992500003
sS'asmr'
p75
F0.0090406571266199998
sS'techsupportmacgyver'
p76
F0.0204397394137
sS'scifi'
p77
F0.0092037742095699999
sS'spaceporn'
p78
F0.0123557050873
sS'wallpapers'
p79
F0.012317851360399999
sS'BasicIncome'
p80
F0.0090115460433700008
sS'highdeas'
p81
F0.0070040668775399996
sS'wallpaper'
p82
F0.011225144323300001
sS'netsec'
p83
F0.0079467353951900004
sS'MachinePorn'
p84
F0.0127457140293
sS'oculus'
p85
F0.0081084673667400006
sS'futurebeats'
p86
F0.0271413193911
sS'eFreebies'
p87
F0.0072893887326899998
sS'FanTheories'
p88
F0.0090556801957999995
sS'listentothis'
p89
F0.0099672074559899997
sS'streetwear'
p90
F0.0093601822772299993
sS'cableporn'
p91
F0.0108186662361
sS'photoshop'
p92
F0.0124653739612
sS'DoesAnybodyElse'
p93
F0.0073825841564200004
sS'pettyrevenge'
p94
F0.0077997942182000003
sS'CityPorn'
p95
F0.0114003643415
sS'DeepIntoYouTube'
p96
F0.028820862946999998
sS'dataisbeautiful'
p97
F0.0091764331854500003
sS'stencils'
p98
F0.0113002042206
sS'MLPLounge'
p99
F0.0071551230681200003
sS'LucidDreaming'
p100
F0.011556064073199999
sS'arduino'
p101
F0.0072167954512300002
sS'nostalgia'
p102
F0.0090137857900299996
sS'StonerEngineering'
p103
F0.0097442985487200002
sS'Bioshock'
p104
F0.0074150209235699996
sS'gamedesign'
p105
F0.0077509842519700002
sS'Frisson'
p106
F0.016531583687100001
sS'electronicmusic'
p107
F0.0156872019235
sS'IWantToLearn'
p108
F0.0095386504226299997
sS'NoStupidQuestions'
p109
F0.010009947774199999
sS'occult'
p110
F0.00851698073033
sS'creepyPMs'
p111
F0.0082199920771200002
sS'freebies'
p112
F0.0079557924439600004
sS'PropagandaPosters'
p113
F0.017409924588
sS'mashups'
p114
F0.0082461429331400007
sS'shittyadviceanimals'
p115
F0.0087047876331999997
sS'trap'
p116
F0.0119400876077
sS'minimalism'
p117
F0.016501926620900002
sS'gamemusic'
p118
F0.0096420047732699993
sS'badhistory'
p119
F0.0076408034659300001
sS'dubstep'
p120
F0.0110544217687
sS'Cinemagraphs'
p121
F0.024285085789700001
sS'psychology'
p122
F0.0083211982525500001
sS'space'
p123
F0.0074704077159099998
sS'shittyfoodporn'
p124
F0.011576910673999999
sS'LearnUselessTalents'
p125
F0.0136007771873
sS'RoomPorn'
p126
F0.0111551091366
sS'electronics'
p127
F0.0072921730675699998
sS'Astronomy'
p128
F0.0088999212932099996
sS'CatsStandingUp'
p129
F0.0087469100589499995
sS'LetsTalkMusic'
p130
F0.0117043915651
sS'emulation'
p131
F0.0072955199342399999
sS'Roadcam'
p132
F0.0072819644369200003
sS'GamePhysics'
p133
F0.023569023569000001
sS'youtubehaiku'
p134
F0.017577690425
sS'lego'
p135
F0.0092022116903600001
sS'programming'
p136
F0.0089366040904500007
sS'Rainmeter'
p137
F0.0095008404589600002
sS'howtonotgiveafuck'
p138
F0.0078046041549700001
sS'whatstheword'
p139
F0.0077875399361
sS'Bombing'
p140
F0.0072463768115899998
sS'misc'
p141
F0.0100810870042
sS'patientgamers'
p142
F0.010251256281400001
sS'conspiratard'
p143
F0.013263486402100001
sS'tf2'
p144
F0.0071404738071400003
sS'privacy'
p145
F0.00898404701931
sS'ANormalDayInRussia'
p146
F0.0146537303446
sS'onetruegod'
p147
F0.0111325385694
sS'PenmanshipPorn'
p148
F0.013901811614
sS'shittyreactiongifs'
p149
F0.015122208545800001
sS'alternativeart'
p150
F0.0127572898799
sS'shittyadvice'
p151
F0.0082596844800499995
sS'ObscureMedia'
p152
F0.018009478672999998
sS'GTA'
p153
F0.0075187969924800004
sS'TrollYChromosome'
p154
F0.0080268700899500008
sS'makinghiphop'
p155
F0.0074810847572899996
sS'ableton'
p156
F0.011786600496300001
sS'mildlyinfuriating'
p157
F0.0129299791896
sS'Psychonaut'
p158
F0.0131191037736
sS'thatHappened'
p159
F0.0105660847363
sS'see'
p160
F0.0099054479964000002
sS'nononono'
p161
F0.016515869596400001
sS'hacking'
p162
F0.0097372377747499995
sS'KerbalSpaceProgram'
p163
F0.0075236157940199999
sS'torrents'
p164
F0.0081173081958600003
sS'crappymusic'
p165
F0.011707756388600001
sS'conspiracy'
p166
F0.0078415784338499994
sS'HighQualityGifs'
p167
F0.016438154209100001
sS'self'
p168
F0.0086782955827500001
sS'animation'
p169
F0.0119718309859
sS'nonononoyes'
p170
F0.0135745047373
sS'MovieSuggestions'
p171
F0.0074222843171500002
sS'edmproduction'
p172
F0.014934085712899999
sS'Futurology'
p173
F0.0086484312148000005
sS'no_sob_story'
p174
F0.0123617436565
sS'Minecraft'
p175
F0.0075696191735299999
sS'TumblrInAction'
p176
F0.0087992384284899996
sS'HailCorporate'
p177
F0.013924265579899999
sS'IDAP'
p178
F0.0103509815586
sS'Heavymind'
p179
F0.033711560598599997
sS'Awwducational'
p180
F0.0106616912108
sS'photocritique'
p181
F0.0081938754253199995
sS'adventuretime'
p182
F0.010741063644300001
sS'Foodforthought'
p183
F0.0092748735244500002
sS'StonerPhilosophy'
p184
F0.0086945721028399998
sS'blender'
p185
F0.0116093300671
sS'TheoryOfReddit'
p186
F0.0120971947023
sS'shittybattlestations'
p187
F0.016349037438300001
sS'ProgrammerHumor'
p188
F0.014207980653
sS'arresteddevelopment'
p189
F0.0074862385321100003
sS'shutupandtakemymoney'
p190
F0.0101852290492
sS'photography'
p191
F0.0083467261133300004
sS'geek'
p192
F0.011238997968900001
sS'realdubstep'
p193
F0.0073443008225599999
sS'mycology'
p194
F0.0079685397909600008
sS'PrettyGirlsUglyFaces'
p195
F0.0077623126338300001
sS'AbandonedPorn'
p196
F0.014278610499399999
sS'postrock'
p197
F0.00806357368237
sS'WeAreTheMusicMakers'
p198
F0.015297335629599999
sS'architecture'
p199
F0.0079021157277599993
sS'whitepeoplegifs'
p200
F0.0141065830721
sS'cringe'
p201
F0.0092103590537700002
sS'TheSimpsons'
p202
F0.0073580452589199997
sS'typography'
p203
F0.014205521823799999
sS'Justrolledintotheshop'
p204
F0.0077749388719500004
sS'changemyview'
p205
F0.0070808678501000002
sS'skateboarding'
p206
F0.0072660713295199996
sS'analog'
p207
F0.011806759098799999
sS'firstworldanarchists'
p208
F0.014948754712999999
sS'PerfectTiming'
p209
F0.0149253731343
sS'truegaming'
p210
F0.0087449490380599997
sS'PixelArt'
p211
F0.023487390410199999
sS'wikipedia'
p212
F0.0120084765717
sS'breakingbad'
p213
F0.0071764053793899997
sS'outside'
p214
F0.0160703313324
sS'foodhacks'
p215
F0.0077421393585099998
sS'linguistics'
p216
F0.0081142760544300006
sS'casualiama'
p217
F0.0079824923314300005
sS'facepalm'
p218
F0.0085275724843699996
sS'NotTimAndEric'
p219
F0.026580299307599999
sS'Unexpected'
p220
F0.013145816942
sS'RedditDayOf'
p221
F0.0124641408646
sS'watchpeopledie'
p222
F0.0085868392664499998
sS'guitarpedals'
p223
F0.0074755606670500003
sS'reactiongifs'
p224
F0.0079845970892999992
sS'community'
p225
F0.0072732038135200003
sS'malefashion'
p226
F0.0074271145105900003
sS'linux'
p227
F0.0089771660932100004
sS'3Dprinting'
p228
F0.0077220077220099999
sS'chrome'
p229
F0.0084122773777899999
sS'Portal'
p230
F0.0090887904917299998
sS'web_design'
p231
F0.0091387739751800003
sS'somethingimade'
p232
F0.010480349345000001
sS'FL_Studio'
p233
F0.0092403859219999992
sS'MapPorn'
p234
F0.0080405456901200007
sS'shittyaskreddit'
p235
F0.0072202166065000002
sS'Perfectfit'
p236
F0.0187034529452
sS'offbeat'
p237
F0.0111188535765
sS'softwaregore'
p238
F0.031676198856099999
sS'ICanDrawThat'
p239
F0.0077456833951900003
sS'Filmmakers'
p240
F0.0099616476565200004
sS'IASIP'
p241
F0.0071256038647299997
sS'Design'
p242
F0.019730195519100002
sS'Whatcouldgowrong'
p243
F0.0125721294567
sS'fifthworldproblems'
p244
F0.017310534093299999
sS'talesfromtechsupport'
p245
F0.0096101043382800008
sS'Anarchism'
p246
F0.0077045274027000002
sS'notinteresting'
p247
F0.016720161230099999
sS'AnimalsBeingJerks'
p248
F0.010725322668600001
sS'Physics'
p249
F0.0083529266179899996
sS'TrueFilm'
p250
F0.0101738364175
sS'HumanPorn'
p251
F0.013204110836499999
sS'TimAndEric'
p252
F0.011511974509199999
sS'sixwordstories'
p253
F0.0098919840818599992
sS'Graffiti'
p254
F0.0156974294142
sS'drawing'
p255
F0.010276923076900001
sS'GifSound'
p256
F0.0096702379295999993
sS'awwwtf'
p257
F0.0133237950461
sS'whatsthisbug'
p258
F0.00760916977657
sS'Piracy'
p259
F0.0074888615034599997
sS'Cinema4D'
p260
F0.0081992574257400003
sS'PublicFreakout'
p261
F0.0104868558413
sS'ArtisanVideos'
p262
F0.0109086620673
sS'rickandmorty'
p263
F0.010824463287
sS'dadjokes'
p264
F0.010096988998299999
sS'futurama'
p265
F0.0090766980989399997
sS'perfectloops'
p266
F0.026810412086000001
sS'InternetIsBeautiful'
p267
F0.0117132112693
sS'quityourbullshit'
p268
F0.013246326977200001
sS'audioengineering'
p269
F0.012048944936899999
sS'DaftPunk'
p270
F0.010881965774499999
sS'woahdude'
p271
F0.013444028319799999
sS'androidthemes'
p272
F0.0086632591180800002
sS'Braveryjerk'
p273
F0.0107171360164
sS'howto'
p274
F0.0089722675366999995
sS'cringepics'
p275
F0.0075439170904099996
sS'toosoon'
p276
F0.0125287650217
sS'Art'
p277
F0.0099452267875799992
sS'ConfusedBoners'
p278
F0.0102837205032
sS'4chan'
p279
F0.0098093009193399999
sS'compsci'
p280
F0.0083979328165400009
sS'montageparodies'
p281
F0.0105615739763
sS'ArcherFX'
p282
F0.0078425641775000006
sS'google'
p283
F0.0080783464211599994
sS'whatisthisthing'
p284
F0.011382712074900001
sS'MechanicalKeyboards'
p285
F0.0098085007006100001
sS'NetflixBestOf'
p286
F0.0071710692176300004
sS'SubredditDrama'
p287
F0.0091366448852100001
sS'tumblr'
p288
F0.0085607276618500008
sS'interestingasfuck'
p289
F0.0131447784142
sS'MarkMyWords'
p290
F0.0118654560462
sS'mathrock'
p291
F0.0089871611982899995
sS'radiohead'
p292
F0.0076232751133800004
sS'humor'
p293
F0.0078125
sS'ExpectationVsReality'
p294
F0.0126098044772
sS'lifehacks'
p295
F0.0093348084635599994
sS'SCP'
p296
F0.011061946902699999
sS'Enhancement'
p297
F0.0110775427996
sS'blackpeoplegifs'
p298
F0.011374187558
sS'FloridaMan'
p299
F0.0141556534508
sS'delusionalartists'
p300
F0.021097780096199999
sS'JonTron'
p301
F0.0096029547553100007
sS'shittyaskscience'
p302
F0.010921340035300001
sS'lewronggeneration'
p303
F0.016212009856899998
sS'worldbuilding'
p304
F0.011018926626900001
sS'calvinandhobbes'
p305
F0.0080910240202300004
sS'DrugNerds'
p306
F0.00817539947975
sS'wheredidthesodago'
p307
F0.019043620959400001
sS'AnimalsBeingBros'
p308
F0.011619095731199999
sS'classic4chan'
p309
F0.012909715818600001
sS'battlestations'
p310
F0.0084202698860500001
sS'androidcirclejerk'
p311
F0.0086978766948099997
sS'marijuanaenthusiasts'
p312
F0.0095857583019499995
sS'Damnthatsinteresting'
p313
F0.0138558313499
sS'CrazyIdeas'
p314
F0.0157355186489
sS'DnB'
p315
F0.0098841534700800007
sS'MorbidReality'
p316
F0.0089786486291300004
sS'gif'
p317
F0.0090479006505000004
sS'introvert'
p318
F0.0075468700349500002
sS'Ubuntu'
p319
F0.0072111735236100004
sS'Calligraphy'
p320
F0.0070395977372700001
sS'happy'
p321
F0.0078843626806799991
sS'cablefail'
p322
F0.010832043804299999
sS'explainlikeIAmA'
p323
F0.0121344119477
sS'HipHopImages'
p324
F0.0087360087360099994
sS'blunderyears'
p325
F0.0124025352241
sS'webcomics'
p326
F0.0093937633159
sS'rage'
p327
F0.0104823769435
sS'comics'
p328
F0.0108549570971
sS'behindthegifs'
p329
F0.015422118302599999
sS'fullmoviesonyoutube'
p330
F0.011786870199499999
sS'TrueAskReddit'
p331
F0.0090383760557099999
sS'bestofworldstar'
p332
F0.0075243313977300004
sS'eatsandwiches'
p333
F0.0074563473336500003
sS'shittyama'
p334
F0.0095878062771399993
sS'circlebroke'
p335
F0.00895638629283
sS'ImaginaryLandscapes'
p336
F0.016746891295599999
sS'TheWayWeWere'
p337
F0.0086553945249599994
sS'badtattoos'
p338
F0.0085785235909399994
sS'nottheonion'
p339
F0.0071143779555400003
sS'Frugal_Jerk'
p340
F0.0096705273810899998
sS'raspberry_pi'
p341
F0.0087887121846200005
sS'oddlysatisfying'
p342
F0.0149339254378
sS'youtube'
p343
F0.0073008073008099996
sS'terriblefacebookmemes'
p344
F0.0136193697703
sS'urbanexploration'
p345
F0.015452179570599999
s.