(dp1
S'buildapc'
p2
F0.0137199291689
sS'pcgaming'
p3
F0.011673008016
sS'softwareswap'
p4
F0.0126093466782
sS'indiegameswap'
p5
F0.016793663525199998
sS'counterstrike'
p6
F0.028186499907999998
sS'teenagers'
p7
F0.0073965781779199999
sS'ShouldIbuythisgame'
p8
F0.0084006669231800005
sS'sgsflair'
p9
F0.038190785313799998
sS'battlefield_4'
p10
F0.0096593797661399996
sS'gamingpc'
p11
F0.0080565195835399991
sS'tf2'
p12
F0.014253763135499999
sS'GlobalOffensive'
p13
F0.089487311287499996
sS'Twitch'
p14
F0.012479515946000001
sS'MechanicalKeyboards'
p15
F0.020071667231600001
sS'GameTrade'
p16
F0.015573291804600001
sS'wow'
p17
F0.0071991057425999996
sS'Diablo'
p18
F0.0073039635955900002
sS'montageparodies'
p19
F0.015972580030900001
sS'2007scape'
p20
F0.0082309013109500007
sS'leagueoflegends'
p21
F0.0077147595531499996
sS'pcmasterrace'
p22
F0.015777598168
sS'arma'
p23
F0.0088543901392500006
sS'buildapcforme'
p24
F0.011108505774100001
sS'bindingofisaac'
p25
F0.0072007200720100003
sS'buildapcsales'
p26
F0.0124280658147
sS'GiftofGames'
p27
F0.0128183504807
sS'titanfall'
p28
F0.0086395294213800003
sS'tf2trade'
p29
F0.034811121591900002
sS'diablo3'
p30
F0.0072761784245499997
sS'Dota2Trade'
p31
F0.033831174189299998
sS'playrust'
p32
F0.013423028786
sS'dogemarket'
p33
F0.0107800175285
sS'giftcardexchange'
p34
F0.0097040271712799994
sS'Steam'
p35
F0.029982446985200001
sS'RandomActsOfGaming'
p36
F0.017309904821700001
sS'paydaytheheist'
p37
F0.012105557976000001
sS'Battlefield'
p38
F0.0073994993373599997
sS'dayz'
p39
F0.016767744085300001
sS'hardwareswap'
p40
F0.0151123694921
sS'hearthstone'
p41
F0.010207521240500001
sS'headphones'
p42
F0.0107041947403
sS'TF2fashionadvice'
p43
F0.0082689373431099993
sS'SteamGameSwap'
p44
F0.054885118043800002
sS'dogecoin'
p45
F0.0080595829621900004
sS'DotA2'
p46
F0.011196616006799999
sS'techsupport'
p47
F0.0101032835672
sS'GameDeals'
p48
F0.011817151492300001
sS'battlestations'
p49
F0.0129477546741
sS'dota2loungebets'
p50
F0.0082345944462199998
s.