(dp1
S'Smite'
p2
F0.0135914301247
sS'buildapc'
p3
F0.0479948492409
sS'RandomActsOfGaming'
p4
F0.024285040517900001
sS'LifeProTips'
p5
F0.020173346958899999
sS'softwareswap'
p6
F0.0075395470581500002
sS'DoesAnybodyElse'
p7
F0.0075115298558600004
sS'pettyrevenge'
p8
F0.0085436382755000005
sS'IAmA'
p9
F0.025868780895900001
sS'PublicFreakout'
p10
F0.0081396689158599999
sS'runescape'
p11
F0.012143215852899999
sS'Guildwars2'
p12
F0.012911875254400001
sS'Bitcoin'
p13
F0.015788349491500001
sS'rickandmorty'
p14
F0.0070960555053599999
sS'sgsflair'
p15
F0.013423012806300001
sS'nsfw'
p16
F0.012532035967199999
sS'everymanshouldknow'
p17
F0.0085438738340699993
sS'wiiu'
p18
F0.0090085780796600005
sS'InternetIsBeautiful'
p19
F0.0176096012568
sS'bodybuilding'
p20
F0.0073461739368399998
sS'carporn'
p21
F0.0082518758174399999
sS'relationships'
p22
F0.0089069058433299993
sS'battlefield3'
p23
F0.0098218696422899994
sS'summonerschool'
p24
F0.019586050379700001
sS'NoFap'
p25
F0.0075280776951900004
sS'TopGear'
p26
F0.0093081411503200002
sS'tifu'
p27
F0.0242171941711
sS'quityourbullshit'
p28
F0.013636791927600001
sS'smashbros'
p29
F0.0213516885136
sS'Diablo'
p30
F0.026704940848999999
sS'Documentaries'
p31
F0.010511758552000001
sS'Steam'
p32
F0.0827953372233
sS'HistoryPorn'
p33
F0.0132054570896
sS'PKA'
p34
F0.0078621245126200001
sS'2007scape'
p35
F0.0126392514668
sS'woahdude'
p36
F0.026538258913000001
sS'Fallout'
p37
F0.017869384741699999
sS'4chan'
p38
F0.038311932031400001
sS'Nexus5'
p39
F0.0072471837923499998
sS'esports'
p40
F0.00758630429958
sS'CoDCompetitive'
p41
F0.0093369913122999994
sS'MensRights'
p42
F0.0091795847330699998
sS'nononono'
p43
F0.0089496581727799996
sS'MilitaryPorn'
p44
F0.0097041502962000002
sS'australia'
p45
F0.010303874319300001
sS'electronicmusic'
p46
F0.0080096217820799995
sS'photoshopbattles'
p47
F0.020672968509100002
sS'skyrimmods'
p48
F0.0076495453746599999
sS'jailbreak'
p49
F0.0110103579997
sS'FIFA'
p50
F0.0105830555898
sS'NSFW_GIF'
p51
F0.0098780820317100008
sS'UpliftingNews'
p52
F0.0099545635956200008
sS'trees'
p53
F0.021567913536700001
sS'diablo3'
p54
F0.019499868888399999
sS'geek'
p55
F0.0107041601574
sS'Jokes'
p56
F0.015791842028600001
sS'NoStupidQuestions'
p57
F0.0080144631601000004
sS'Fitness'
p58
F0.019008983368099999
sS'elderscrollsonline'
p59
F0.012088086184999999
sS'GrandTheftAutoV'
p60
F0.015547931321800001
sS'halo'
p61
F0.014200310559
sS'hardwareswap'
p62
F0.010407223075400001
sS'linux'
p63
F0.0097033119234100004
sS'gifs'
p64
F0.0302721933634
sS'AbandonedPorn'
p65
F0.0079580017499299993
sS'gonewild'
p66
F0.0094210573711100004
sS'Art'
p67
F0.0094075233872300008
sS'creepyPMs'
p68
F0.0074156014421499997
sS'dadjokes'
p69
F0.0086855188256100002
sS'holdmybeer'
p70
F0.00955840676045
sS'Celebs'
p71
F0.0106359259779
sS'techsupportgore'
p72
F0.0158712570001
sS'guns'
p73
F0.0110800633573
sS'thatHappened'
p74
F0.017833696452
sS'SteamGameSwap'
p75
F0.033071729668600003
sS'montageparodies'
p76
F0.0354575512823
sS'techsupport'
p77
F0.0290884966478
sS'ClashOfClans'
p78
F0.00976176641488
sS'DeepIntoYouTube'
p79
F0.0081626338826700003
sS'starcitizen'
p80
F0.012148142995
sS'cringe'
p81
F0.030336730833200001
sS'depression'
p82
F0.0073432658432000001
sS'motorcycles'
p83
F0.00983150161793
sS'YouShouldKnow'
p84
F0.0112104496576
sS'StarWars'
p85
F0.0136648007903
sS'mildlyinteresting'
p86
F0.026288036057199999
sS'truetf2'
p87
F0.0089615861214399992
sS'pcgaming'
p88
F0.038161438073999999
sS'Destiny'
p89
F0.0072450178164300003
sS'MechanicalKeyboards'
p90
F0.032601284522599999
sS'starbound'
p91
F0.011725396503499999
sS'NetflixBestOf'
p92
F0.0073456126444999999
sS'gentlemanboners'
p93
F0.0134104082172
sS'counterstrike'
p94
F0.032623857261799998
sS'heroesofthestorm'
p95
F0.0142114415345
sS'ShouldIbuythisgame'
p96
F0.013401502126500001
sS'SubredditDrama'
p97
F0.0207021527136
sS'tumblr'
p98
F0.00835444591526
sS'osugame'
p99
F0.0073115420706899997
sS'books'
p100
F0.014420603945999999
sS'changemyview'
p101
F0.0102743584688
sS'TwoXChromosomes'
p102
F0.010030955255600001
sS'fatpeoplestories'
p103
F0.0076628040488300004
sS'Naruto'
p104
F0.0084915418237599995
sS'Android'
p105
F0.025747410092299999
sS'CrappyDesign'
p106
F0.014256714920599999
sS'amiugly'
p107
F0.0070384809975899999
sS'hockey'
p108
F0.016391516725399999
sS'PS4'
p109
F0.015684524831
sS'notinteresting'
p110
F0.0105151138926
sS'firstworldanarchists'
p111
F0.015990915666599999
sS'offbeat'
p112
F0.0093246453103899996
sS'gameofthrones'
p113
F0.024812366976600001
sS'truegaming'
p114
F0.018804691863699999
sS'movies'
p115
F0.025217660299300001
sS'shittyfoodporn'
p116
F0.0095512308118999995
sS'WTF'
p117
F0.026572680961999998
sS'AdviceAnimals'
p118
F0.024992642224200001
sS'breakingbad'
p119
F0.0117008472752
sS'malefashionadvice'
p120
F0.017482727545799999
sS'AnimalsBeingJerks'
p121
F0.010542244640599999
sS'outside'
p122
F0.010620741056200001
sS'mindcrack'
p123
F0.0097592151172799999
sS'gamedev'
p124
F0.011784847578199999
sS'leagueoflegends'
p125
F0.047231086066000003
sS'facepalm'
p126
F0.0193183167729
sS'cars'
p127
F0.0123571468783
sS'worldnews'
p128
F0.0297736802393
sS'lifehacks'
p129
F0.0130842928977
sS'pcmasterrace'
p130
F0.077430146422700005
sS'tf2'
p131
F0.0399891227169
sS'DarkSouls2'
p132
F0.0187914047902
sS'magicTCG'
p133
F0.0118322301919
sS'civ'
p134
F0.018121239169600002
sS'europe'
p135
F0.0127857017362
sS'tattoos'
p136
F0.0079694931231
sS'bestof'
p137
F0.0263810283621
sS'TeamRedditTeams'
p138
F0.0083421454588199998
sS'TalesFromRetail'
p139
F0.0093469261100899998
sS'casualiama'
p140
F0.0120206223481
sS'Justrolledintotheshop'
p141
F0.0097307614086099992
sS'titanfall'
p142
F0.024249304290900001
sS'tf2trade'
p143
F0.0121957178177
sS'whatisthisthing'
p144
F0.0080713113663600008
sS'Frugal'
p145
F0.00979135822437
sS'promos'
p146
F0.021864473070000001
sS'baseball'
p147
F0.0089862761590500002
sS'shittyaskscience'
p148
F0.0130642525807
sS'news'
p149
F0.0238635909149
sS'doctorwho'
p150
F0.0074056449454200004
sS'lewronggeneration'
p151
F0.0114663688087
sS'WritingPrompts'
p152
F0.0099514458284700007
sS'dayz'
p153
F0.053521164607600001
sS'Cynicalbrit'
p154
F0.019077562775300001
sS'headphones'
p155
F0.015857814589499999
sS'programming'
p156
F0.0128673212577
sS'personalfinance'
p157
F0.0098152753782799994
sS'creepy'
p158
F0.0148196438563
sS'pics'
p159
F0.025095243218
sS'fffffffuuuuuuuuuuuu'
p160
F0.0123590917146
sS'Planetside'
p161
F0.0133561098228
sS'Rainmeter'
p162
F0.0092835423793199996
sS'dogecoin'
p163
F0.023902582159599998
sS'anime'
p164
F0.0248059280169
sS'GameDeals'
p165
F0.033441933788799998
sS'battlestations'
p166
F0.033440274565399997
sS'thewalkingdead'
p167
F0.0163158253287
sS'GetMotivated'
p168
F0.0145819244517
sS'HalfLife'
p169
F0.0075707409640300002
sS'QuotesPorn'
p170
F0.0078630454280299994
sS'gamingpc'
p171
F0.0099513021384699998
sS'apple'
p172
F0.011925945309400001
sS'TrueReddit'
p173
F0.0095024860720099996
sS'todayilearned'
p174
F0.027466425178599999
sS'reactiongifs'
p175
F0.0288771931637
sS'patientgamers'
p176
F0.0099642722490500008
sS'community'
p177
F0.00811244453904
sS'hearthstone'
p178
F0.045955697309099999
sS'skyrim'
p179
F0.023096175422100001
sS'Music'
p180
F0.022194269617600001
sS'Showerthoughts'
p181
F0.023332581421
sS'EarthPorn'
p182
F0.015677631956900001
sS'TrollXChromosomes'
p183
F0.012756255151700001
sS'Unexpected'
p184
F0.023589539360100002
sS'ContagiousLaughter'
p185
F0.0097156854650000003
sS'canada'
p186
F0.010853741153399999
sS'pokemon'
p187
F0.017630313733499998
sS'GamePhysics'
p188
F0.0117426108947
sS'TheLastAirbender'
p189
F0.0109999778226
sS'electronic_cigarette'
p190
F0.011363341884999999
sS'MorbidReality'
p191
F0.0130248203148
sS'FiftyFifty'
p192
F0.0148863345312
sS'CrazyIdeas'
p193
F0.01126122482
sS'OldSchoolCool'
p194
F0.0129656262694
sS'AskHistorians'
p195
F0.0074330713543799996
sS'Damnthatsinteresting'
p196
F0.0094644345651599994
sS'Drugs'
p197
F0.0084236449755499994
sS'harrypotter'
p198
F0.0071012381645999996
sS'OutOfTheLoop'
p199
F0.0163165167784
sS'nosleep'
p200
F0.0095477855477900005
sS'nfl'
p201
F0.015181550496
sS'sports'
p202
F0.017160608761
sS'Guitar'
p203
F0.0078905162500800003
sS'sysadmin'
p204
F0.0085529534058900007
sS'wheredidthesodago'
p205
F0.012831959998999999
sS'iphone'
p206
F0.0095506853331399997
sS'whowouldwin'
p207
F0.0090394419943099994
sS'battlefield_4'
p208
F0.0303014705882
sS'explainlikeimfive'
p209
F0.0222927656507
sS'arma'
p210
F0.0137671493902
sS'CombatFootage'
p211
F0.0079527464286700007
sS'fatlogic'
p212
F0.0110690381171
sS'tipofmytongue'
p213
F0.014471286736
sS'hiphopheads'
p214
F0.0180104884609
sS'unitedkingdom'
p215
F0.0086636871332900003
sS'3DS'
p216
F0.0105847081025
sS'sweden'
p217
F0.015618763802799999
sS'gamegrumps'
p218
F0.0084464229357300007
sS'Eve'
p219
F0.012135361668399999
sS'mildlyinfuriating'
p220
F0.022664844021999999
sS'ftlgame'
p221
F0.0071857653410400003
sS'Dota2Trade'
p222
F0.0109133727108
sS'youtubehaiku'
p223
F0.015704587637999999
sS'xboxone'
p224
F0.0124825625773
sS'MapPorn'
p225
F0.013213401666500001
sS'Shitty_Car_Mods'
p226
F0.0087693148507000003
sS'dogemarket'
p227
F0.0090086932136800007
sS'Twitch'
p228
F0.022154281618799999
sS'web_design'
p229
F0.0071968577100099997
sS'blunderyears'
p230
F0.0072241508107399998
sS'buildapcforme'
p231
F0.013282832731399999
sS'Battlefield'
p232
F0.0123938640522
sS'television'
p233
F0.019317244269
sS'soccer'
p234
F0.027549144133200001
sS'pathofexile'
p235
F0.017566907516900002
sS'darksouls'
p236
F0.014504300882900001
sS'rage'
p237
F0.0181241640492
sS'comics'
p238
F0.014392595449299999
sS'science'
p239
F0.021964422646200001
sS'Borderlands'
p240
F0.0099079084100799995
sS'sex'
p241
F0.0105350265763
sS'interestingasfuck'
p242
F0.020029857340800001
sS'PerfectTiming'
p243
F0.0082150065507600005
sS'behindthegifs'
p244
F0.010524901469
sS'standupshots'
p245
F0.0110250222279
sS'DotA2'
p246
F0.061243703583300002
sS'cats'
p247
F0.0100006267802
sS'AskMen'
p248
F0.0112554257281
sS'KerbalSpaceProgram'
p249
F0.014952592230000001
sS'MMA'
p250
F0.0087760929895800005
sS'learnprogramming'
p251
F0.0136372996926
sS'formula1'
p252
F0.010562857661199999
sS'gamernews'
p253
F0.010306575414300001
sS'roosterteeth'
p254
F0.011430177542499999
sS'videos'
p255
F0.031554896875400001
sS'FoodPorn'
p256
F0.011519465210299999
sS'youtube'
p257
F0.0077026912221400002
sS'teenagers'
p258
F0.020659555809400001
sS'gadgets'
p259
F0.012952033905
sS'conspiracy'
p260
F0.014597540601999999
sS'DIY'
p261
F0.013458211599699999
sS'polandball'
p262
F0.016951367955000001
sS'politics'
p263
F0.020841127752300001
sS'airsoft'
p264
F0.0075681512493600001
sS'technology'
p265
F0.032207743785599999
sS'nba'
p266
F0.017183439261000001
sS'southpark'
p267
F0.0113091187121
sS'starcraft'
p268
F0.038860697582000003
sS'funny'
p269
F0.024476671753000001
sS'MURICA'
p270
F0.015081776745000001
sS'bicycling'
p271
F0.0082530843895099997
sS'self'
p272
F0.00816685413729
sS'DestinyTheGame'
p273
F0.0128260235868
sS'RealGirls'
p274
F0.010247975708499999
sS'food'
p275
F0.0172118085251
sS'JusticePorn'
p276
F0.027444328733300001
sS'fantasyfootball'
p277
F0.0074793183222100004
sS'britishproblems'
p278
F0.0071345009968500003
sS'nottheonion'
p279
F0.021255982763899998
sS'watchpeopledie'
p280
F0.0095040457589299996
sS'nonononoyes'
p281
F0.0130726563604
sS'GlobalOffensiveTrade'
p282
F0.089487311287499996
sS'Whatcouldgowrong'
p283
F0.014748890483
sS'wallpapers'
p284
F0.0145044647959
sS'talesfromtechsupport'
p285
F0.016998644279899999
sS'gaming'
p286
F0.045603139067400003
sS'paydaytheheist'
p287
F0.021493427293700001
sS'wow'
p288
F0.036281167463800001
sS'GiftofGames'
p289
F0.0107199474152
sS'aww'
p290
F0.0233419373617
sS'askscience'
p291
F0.013397563973400001
sS'Futurology'
p292
F0.016703563305500001
sS'hardware'
p293
F0.0089645181924199995
sS'nerdcubed'
p294
F0.0085779525781600006
sS'Games'
p295
F0.052272488214399997
sS'Terraria'
p296
F0.0089817356178199994
sS'progresspics'
p297
F0.0076699021664800001
sS'nintendo'
p298
F0.0070044909176200003
sS'playrust'
p299
F0.021288525539
sS'bindingofisaac'
p300
F0.015709073947599999
sS'Minecraft'
p301
F0.030971620839
sS'oddlysatisfying'
p302
F0.020780696889399999
sS'ProgrammerHumor'
p303
F0.0092463879895599999
sS'oculus'
p304
F0.013500681226999999
sS'offmychest'
p305
F0.0105568403772
sS'speedrun'
p306
F0.0099377939614600005
sS'dataisbeautiful'
p307
F0.016579778435000001
sS'space'
p308
F0.014892723627899999
sS'CFB'
p309
F0.0082712007048299993
sS'asoiaf'
p310
F0.0107647066651
sS'atheism'
p311
F0.0204406656384
sS'Warframe'
p312
F0.0078436356703900003
sS'TumblrInAction'
p313
F0.023670837528200001
sS'cringepics'
p314
F0.032084199804799998
sS'listentothis'
p315
F0.0087310615666600002
sS'buildapcsales'
p316
F0.0180905302932
sS'ImGoingToHellForThis'
p317
F0.024185578160300002
sS'WildStar'
p318
F0.016399403107199999
sS'Warthunder'
p319
F0.010677779094899999
s.