(dp1
S'PJRP_Community'
p2
F0.0103626943005
sS'TheNarutoWorld'
p3
F0.043307086614199998
sS'PotterPlayRP'
p4
F0.010670731707300001
sS'DWMA'
p5
F0.073529411764700001
sS'randomsuperpowers'
p6
F0.025531914893599999
sS'PercyJacksonRP'
p7
F0.0116772823779
s.