(dp1
S'HalfLife'
p2
F0.0340186362964
sS'truetf2'
p3
F0.0088691796008900006
sS'pcgaming'
p4
F0.0080169830169800008
sS'starbound'
p5
F0.0096864644404800002
sS'youtube'
p6
F0.0082891813365200007
sS'stalker'
p7
F0.0085274542429299993
sS'AntiJokes'
p8
F0.0072030277133399998
sS'DeepIntoYouTube'
p9
F0.0087277823787999999
sS'ChivalryGame'
p10
F0.0072741194486999998
sS'counterstrike'
p11
F0.011710794297400001
sS'RandomActsOfGaming'
p12
F0.010437293729400001
sS'airsoft'
p13
F0.0092805373873100002
sS'tf2'
p14
F0.0140744784373
sS'battlefield3'
p15
F0.0094442032131999993
sS'techsupportmacgyver'
p16
F0.0079781862250100002
sS'mountandblade'
p17
F0.0081457178413800006
sS'shittyama'
p18
F0.0071126687970300001
sS'onetruegod'
p19
F0.0072869955157000002
sS'outside'
p20
F0.00894616326748
sS'shittybattlestations'
p21
F0.0097728138088599998
sS'Rainmeter'
p22
F0.0073338699579600002
sS'Fallout'
p23
F0.0085386373339400006
sS'FreeKarma'
p24
F0.0071468453378000004
sS'Portal'
p25
F0.017824421122799999
sS'admincraft'
p26
F0.0080335950337800006
sS'SCP'
p27
F0.010116492949099999
sS'spaceengineers'
p28
F0.0100229095074
sS'arma'
p29
F0.0102337891487
sS'GTA'
p30
F0.013751199232500001
sS'paydaytheheist'
p31
F0.0122407914594
sS'GiftofGames'
p32
F0.0133966244726
sS'needamod'
p33
F0.010635571501800001
sS'skyrimmods'
p34
F0.0084372971803599994
sS'softwaregore'
p35
F0.0122462488967
sS'Terraria'
p36
F0.0114039043876
sS'minecraftsuggestions'
p37
F0.0095028392629499994
sS'JonTron'
p38
F0.0098771380390300003
sS'tf2trade'
p39
F0.0130373502467
sS'skyrim'
p40
F0.0072192331267499996
sS'playrust'
p41
F0.0092072759937100006
sS'GamePhysics'
p42
F0.0131521262604
sS'Minecraft'
p43
F0.0084995777629100003
sS'Steam'
p44
F0.010928427869600001
sS'lewronggeneration'
p45
F0.0075484398288399998
sS'Braveryjerk'
p46
F0.0071770334928200003
sS'dayz'
p47
F0.0071298346138799996
sS'techsupportgore'
p48
F0.0075691411936000003
sS'prisonarchitect'
p49
F0.0082542302930300009
sS'TF2fashionadvice'
p50
F0.0179379715004
sS'terriblefacebookmemes'
p51
F0.0093660765276999992
sS'oblivion'
p52
F0.0073089700996700003
sS'montageparodies'
p53
F0.011574301128
sS'classic4chan'
p54
F0.010279779567599999
sS'KerbalSpaceProgram'
p55
F0.00707200863025
sS'roblox'
p56
F0.012439530062199999
sS'GifSound'
p57
F0.0076650943396200004
s.