(dp1
S'Awwducational'
p2
F0.0074644835058999999
sS'AnimalsBeingJerks'
p3
F0.0071180069580500001
sS'puppy101'
p4
F0.017163289630500001
sS'pitbulls'
p5
F0.0081468732071099999
sS'lookatmydog'
p6
F0.019422572178499999
sS'germanshepherds'
p7
F0.015674566150399999
sS'AnimalsBeingBros'
p8
F0.0101733232856
sS'dogpictures'
p9
F0.021387133085099999
sS'corgi'
p10
F0.012530315278900001
sS'Dogtraining'
p11
F0.0136882948911
sS'dogs'
p12
F0.013514715035099999
s.