(dp1
S'redheads'
p2
F0.0206260177311
sS'GWCouples'
p3
F0.059792659008099998
sS'milf'
p4
F0.045762926130399999
sS'BBW'
p5
F0.0137791542886
sS'nsfw'
p6
F0.0264472084541
sS'BDSMGW'
p7
F0.0258952053409
sS'Amateur'
p8
F0.046557345607999998
sS'hugeboobs'
p9
F0.017029386450299999
sS'AsianHotties'
p10
F0.0127057115198
sS'BigBoobsGW'
p11
F0.067660805697800003
sS'offmychest'
p12
F0.0079974947606800007
sS'cumsluts'
p13
F0.0321077639895
sS'tightdresses'
p14
F0.030826140567200001
sS'NSFW_GIF'
p15
F0.026504528527400002
sS'altgonewild'
p16
F0.054335620711200003
sS'beards'
p17
F0.0074652277549300001
sS'PrettyGirlsUglyFaces'
p18
F0.0115631923056
sS'feet'
p19
F0.041038573966899999
sS'gonewildstories'
p20
F0.0257604669435
sS'creepyPMs'
p21
F0.0079645312873300005
sS'Pegging'
p22
F0.0098159509202499998
sS'tipofmypenis'
p23
F0.016494067622200001
sS'ConfusedBoners'
p24
F0.0087580053642799995
sS'Celebs'
p25
F0.017765806943099999
sS'WatchItForThePlot'
p26
F0.016323547326099998
sS'pornvids'
p27
F0.0123675861698
sS'Whatcouldgowrong'
p28
F0.00753057135619
sS'anal'
p29
F0.0118525542254
sS'gentlemanboners'
p30
F0.016231443391200001
sS'Rateme'
p31
F0.0290368928439
sS'sex'
p32
F0.0123378490992
sS'burstingout'
p33
F0.021528043950399998
sS'AmISexy'
p34
F0.030393072417000001
sS'firstworldanarchists'
p35
F0.0070147574614499997
sS'Blowjobs'
p36
F0.020384186101199998
sS'randomsexiness'
p37
F0.029297477333000001
sS'Hotwife'
p38
F0.033672714862599998
sS'AsiansGoneWild'
p39
F0.065882236123499999
sS'ass'
p40
F0.038013261397800001
sS'pornID'
p41
F0.010729485104599999
sS'Bondage'
p42
F0.0099434587638900004
sS'casualiama'
p43
F0.0076821947317599996
sS'facepalm'
p44
F0.0072884818802300003
sS'celebnsfw'
p45
F0.017094017093999998
sS'TributeMe'
p46
F0.0473708826084
sS'Unexpected'
p47
F0.0075967051838099998
sS'GoneWildCD'
p48
F0.0085740667458100005
sS'GWNerdy'
p49
F0.067735659965799999
sS'GoneWildPlus'
p50
F0.055189701321300001
sS'watchpeopledie'
p51
F0.0075896362208800004
sS'NSFWFunny'
p52
F0.0126997132323
sS'amiugly'
p53
F0.01476661496
sS'bigdickproblems'
p54
F0.0070545078305000002
sS'boltedontits'
p55
F0.0124646620406
sS'TinyTits'
p56
F0.037640117994099997
sS'pussy'
p57
F0.033200448486399997
sS'confession'
p58
F0.0079834110938300003
sS'reactiongifs'
p59
F0.0070619351994699996
sS'snapchat'
p60
F0.0090851468413299993
sS'BBWGW'
p61
F0.0274970180175
sS'incest'
p62
F0.0143299564327
sS'TrollXChromosomes'
p63
F0.0077325755309600001
sS'thick'
p64
F0.026063859222
sS'DirtySnapchat'
p65
F0.017891939769700001
sS'gonewildcurvy'
p66
F0.085757845254699996
sS'gonewildaudio'
p67
F0.030829257569900001
sS'FiftyFifty'
p68
F0.0092586469148899994
sS'seduction'
p69
F0.00724211651523
sS'MorbidReality'
p70
F0.00714402351404
sS'firstimpression'
p71
F0.012246641667099999
sS'asstastic'
p72
F0.11265004616800001
sS'Boobies'
p73
F0.033074382472000001
sS'Stacked'
p74
F0.0192320020514
sS'bdsm'
p75
F0.010452182661699999
sS'ladybonersgw'
p76
F0.023800710690000001
sS'dirtykikpals'
p77
F0.018100794781100001
sS'treesgonewild'
p78
F0.040923276217400002
sS'Kikpals'
p79
F0.0119231819423
sS'nsfw_gifs'
p80
F0.021424199142999999
sS'ginger'
p81
F0.031084695393799999
sS'r4r'
p82
F0.0229537506902
sS'penis'
p83
F0.014693218514500001
sS'AskMen'
p84
F0.0085587091919899997
sS'gonewild'
p85
F0.055845687331499999
sS'showerbeer'
p86
F0.0078091339939700003
sS'AmateurArchives'
p87
F0.026658163265299999
sS'BustyPetite'
p88
F0.0358814352574
sS'OnOff'
p89
F0.038475222363400001
sS'RandomActsOfBlowJob'
p90
F0.023839529510600001
sS'wifesharing'
p91
F0.054084192918900001
sS'Tgirls'
p92
F0.0082721155626900005
sS'shorthairedhotties'
p93
F0.0220728291317
sS'hardbodies'
p94
F0.0157323072427
sS'girlsinyogapants'
p95
F0.031272502828899998
sS'RealGirls'
p96
F0.049750832282200001
sS'Hotchickswithtattoos'
p97
F0.020503053050200001
sS'workgonewild'
p98
F0.061254415783500001
sS'progresspics'
p99
F0.0111771022814
sS'traps'
p100
F0.014148208280199999
sS'cosplaygirls'
p101
F0.0149703250952
sS'Cuckold'
p102
F0.017043033660000002
sS'curvy'
p103
F0.0298802651272
sS'PrettyGirls'
p104
F0.020171149144299998
sS'dirtypenpals'
p105
F0.037967167306999998
sS'pantyselling'
p106
F0.020049071153199999
sS'MassiveCock'
p107
F0.013329661250300001
sS'ImGoingToHellForThis'
p108
F0.0100889907212
sS'EmmaWatson'
p109
F0.0094155844155800004
sS'rule34'
p110
F0.0097757105128300006
s.