(dp1
S'redheads'
p2
F0.0112471384493
sS'GWCouples'
p3
F0.038553598905799999
sS'milf'
p4
F0.0219052470708
sS'BBW'
p5
F0.0072754913671400001
sS'nsfw'
p6
F0.0118394212773
sS'BDSMGW'
p7
F0.016724822524399999
sS'Amateur'
p8
F0.024692197809700001
sS'hugeboobs'
p9
F0.0083513764305599997
sS'AsianHotties'
p10
F0.0078811761139700003
sS'BigBoobsGW'
p11
F0.0216247327742
sS'cumsluts'
p12
F0.022600720602699999
sS'NSFW_GIF'
p13
F0.0147015504914
sS'BDSMcommunity'
p14
F0.011907523389799999
sS'altgonewild'
p15
F0.019919517102599999
sS'tightdresses'
p16
F0.0125076266016
sS'Pegging'
p17
F0.0142873471254
sS'WatchItForThePlot'
p18
F0.0081686720388600004
sS'Celebs'
p19
F0.0075286846171500003
sS'pornvids'
p20
F0.0138667114884
sS'anal'
p21
F0.0130674002751
sS'polyamory'
p22
F0.0108345050037
sS'Rateme'
p23
F0.0070090957731399998
sS'sex'
p24
F0.012851854438799999
sS'burstingout'
p25
F0.0118421052632
sS'AmISexy'
p26
F0.0105026256564
sS'Swingers'
p27
F0.017219865235799998
sS'Blowjobs'
p28
F0.0184349495919
sS'randomsexiness'
p29
F0.011825874197199999
sS'Hotwife'
p30
F0.039351430133
sS'AsiansGoneWild'
p31
F0.021462804751
sS'ass'
p32
F0.014300643529
sS'DeadBedrooms'
p33
F0.0085174156914300005
sS'Bondage'
p34
F0.0085028151212199997
sS'celebnsfw'
p35
F0.011362839307
sS'TributeMe'
p36
F0.016189716109899999
sS'tipofmypenis'
p37
F0.0138248847926
sS'GoneWildPlus'
p38
F0.018656295795299999
sS'NSFWFunny'
p39
F0.0116613542719
sS'boltedontits'
p40
F0.0078431372549000004
sS'TinyTits'
p41
F0.015478424015000001
sS'pussy'
p42
F0.0164511122607
sS'confession'
p43
F0.010220125786199999
sS'BBWGW'
p44
F0.0124393843559
sS'incest'
p45
F0.0263093389983
sS'thick'
p46
F0.010379138788800001
sS'DirtySnapchat'
p47
F0.0085804887147900005
sS'gonewildcurvy'
p48
F0.0217897727273
sS'gonewildaudio'
p49
F0.025827418113399999
sS'seduction'
p50
F0.0074267100977200001
sS'bdsm'
p51
F0.011080332409999999
sS'confessions'
p52
F0.0084841139295299996
sS'asstastic'
p53
F0.025425883549500001
sS'Boobies'
p54
F0.013318462144100001
sS'Stacked'
p55
F0.00983751519841
sS'ladybonersgw'
p56
F0.0131885182312
sS'dirtykikpals'
p57
F0.0092416595660999995
sS'treesgonewild'
p58
F0.0142166883479
sS'nsfw_gifs'
p59
F0.0146930589466
sS'ginger'
p60
F0.014083157693
sS'r4r'
p61
F0.010849738977300001
sS'penis'
p62
F0.0135814889336
sS'gonewild'
p63
F0.0144337031205
sS'rule34'
p64
F0.0078580210616299995
sS'AmateurArchives'
p65
F0.017438692098099999
sS'BustyPetite'
p66
F0.0143343585237
sS'feet'
p67
F0.010727901409699999
sS'OnOff'
p68
F0.017492928390700001
sS'bisexual'
p69
F0.0091629955947100002
sS'RandomActsOfBlowJob'
p70
F0.0265194260842
sS'wifesharing'
p71
F0.036006825938600003
sS'Tgirls'
p72
F0.0080050558247300001
sS'shorthairedhotties'
p73
F0.0074587574587600004
sS'hardbodies'
p74
F0.0077957373766300003
sS'girlsinyogapants'
p75
F0.0118802832991
sS'RealGirls'
p76
F0.016540380705999998
sS'GoneMild'
p77
F0.0257604669435
sS'Hotchickswithtattoos'
p78
F0.0099638479851900004
sS'workgonewild'
p79
F0.025184687709900001
sS'bigdickproblems'
p80
F0.0112514668323
sS'traps'
p81
F0.00817669172932
sS'Cuckold'
p82
F0.023777663407100001
sS'curvy'
p83
F0.012059894779399999
sS'GaybrosGoneWild'
p84
F0.0081355363582999995
sS'dirtypenpals'
p85
F0.0284050179211
sS'MassiveCock'
p86
F0.0141213389121
sS'GWNerdy'
p87
F0.025018063583800002
s.