(dp1
S'malehairadvice'
p2
F0.010638297872299999
sS'churning'
p3
F0.0070281124497999998
sS'BuyItForLife'
p4
F0.0251492598348
sS'Sneakers'
p5
F0.0079797779539999992
sS'malegrooming'
p6
F0.011564002747899999
sS'malefashion'
p7
F0.0582704088902
sS'femalefashionadvice'
p8
F0.010638777442199999
sS'rawdenim'
p9
F0.12113377382
sS'Coffee'
p10
F0.0117294856694
sS'frugalmalefashion'
p11
F0.060525053122200002
sS'TeenMFA'
p12
F0.0143175310213
sS'wicked_edge'
p13
F0.01233729485
sS'fountainpens'
p14
F0.0099215002180499997
sS'malelivingspace'
p15
F0.0152831884927
sS'MaleFashionMarket'
p16
F0.093854128100699999
sS'knifeclub'
p17
F0.0095353047676500005
sS'EDC'
p18
F0.010335313099199999
sS'headphones'
p19
F0.0074884057354399998
sS'Watches'
p20
F0.0201885003625
sS'knives'
p21
F0.0078826919816900008
sS'minimalism'
p22
F0.0077553931182000003
sS'streetwear'
p23
F0.012161605056999999
sS'malefashionadvice'
p24
F0.028330601732599998
s.