(dp1
S'inthenews'
p2
F0.0082465085346900002
sS'AndroidGaming'
p3
F0.024813242504999999
sS'BuyItForLife'
p4
F0.017482334467399999
sS'everymanshouldknow'
p5
F0.0158591626562
sS'wiiu'
p6
F0.0117757581054
sS'IndieGaming'
p7
F0.0098859315589400008
sS'AskMen'
p8
F0.011066056768499999
sS'unixporn'
p9
F0.010155262682800001
sS'Showerthoughts'
p10
F0.0109563959686
sS'HistoryPorn'
p11
F0.0146396201985
sS'picrequests'
p12
F0.00752503734853
sS'archlinux'
p13
F0.0080351303372899995
sS'holdmybeer'
p14
F0.0129263523789
sS'YouShouldKnow'
p15
F0.026003184063399999
sS'UpliftingNews'
p16
F0.011148755121299999
sS'PandR'
p17
F0.0086597938144299998
sS'Jokes'
p18
F0.0094594716803700005
sS'Military'
p19
F0.0085904675248199992
sS'Steam'
p20
F0.019123925375799999
sS'AlienBlue'
p21
F0.0092541052045599995
sS'photoshopbattles'
p22
F0.0127146688961
sS'IWantToLearn'
p23
F0.0127775260535
sS'Celebs'
p24
F0.0088597289401800006
sS'techsupportgore'
p25
F0.023129895389799999
sS'Surface'
p26
F0.011729011729
sS'CrappyDesign'
p27
F0.023019127104699999
sS'techsupport'
p28
F0.019428341486099999
sS'Libertarian'
p29
F0.013536379018599999
sS'starcitizen'
p30
F0.0082582373127200008
sS'Anarcho_Capitalism'
p31
F0.0071050145796499996
sS'pcgaming'
p32
F0.016880286632400002
sS'EatCheapAndHealthy'
p33
F0.00909340659341
sS'gentlemanboners'
p34
F0.0122453096631
sS'SelfDrivingCars'
p35
F0.011541072640899999
sS'nba'
p36
F0.0072066507090799998
sS'forwardsfromgrandma'
p37
F0.0111888111888
sS'frugalmalefashion'
p38
F0.010134525099300001
sS'movies'
p39
F0.0103420387773
sS'skeptic'
p40
F0.0157369849645
sS'boardgames'
p41
F0.0083280572736600007
sS'InteriorDesign'
p42
F0.0076145151695399997
sS'socialskills'
p43
F0.0087775834023900001
sS'gamedev'
p44
F0.0104240239655
sS'Nexus7'
p45
F0.033535026418999997
sS'worldnews'
p46
F0.0113814256688
sS'guns'
p47
F0.0087924970691699994
sS'Economics'
p48
F0.017213138308599999
sS'needamod'
p49
F0.0070896687028999998
sS'AskTechnology'
p50
F0.0071249167051100001
sS'malelivingspace'
p51
F0.0093469748642200003
sS'answers'
p52
F0.0153793444745
sS'lgbt'
p53
F0.0082111249560699994
sS'baseball'
p54
F0.0085759838885600004
sS'doctorwho'
p55
F0.013468137030000001
sS'MotoX'
p56
F0.026016650656399999
sS'Ingress'
p57
F0.0125682156441
sS'TopGear'
p58
F0.013376513658099999
sS'sanfrancisco'
p59
F0.0090664504477899997
sS'Cynicalbrit'
p60
F0.0078379139878600006
sS'personalfinance'
p61
F0.010570550416
sS'pics'
p62
F0.0078476868397399993
sS'HalfLife'
p63
F0.0071040534893399999
sS'QuotesPorn'
p64
F0.0117455882772
sS'design_critiques'
p65
F0.0074818298418099999
sS'apple'
p66
F0.033664796400200002
sS'TrueReddit'
p67
F0.0218576164522
sS'todayilearned'
p68
F0.010058901348100001
sS'PlayStationPlus'
p69
F0.00760441135486
sS'confession'
p70
F0.0080205251479300004
sS'jailbreak'
p71
F0.0105103311778
sS'findareddit'
p72
F0.0101410420795
sS'IdiotsFightingThings'
p73
F0.0118494180153
sS'chromeos'
p74
F0.035385488022999997
sS'gamernews'
p75
F0.013450894581
sS'ContagiousLaughter'
p76
F0.0089031821259299999
sS'Multicopter'
p77
F0.0073693613220199997
sS'graphic_design'
p78
F0.011622121126
sS'HIMYM'
p79
F0.0099945030233400001
sS'FiftyFifty'
p80
F0.0094941136495400001
sS'AskHistorians'
p81
F0.010445456023399999
sS'OutOfTheLoop'
p82
F0.020762417351300001
sS'sports'
p83
F0.0079541761455999994
sS'ifyoulikeblank'
p84
F0.0077296668718800001
sS'misleadingthumbnails'
p85
F0.0108789436171
sS'WebGames'
p86
F0.0073496386427699999
sS'battlefield_4'
p87
F0.0099364002901599999
sS'Pareidolia'
p88
F0.0116185604677
sS'hockey'
p89
F0.0079677933406000004
sS'tipofmytongue'
p90
F0.011382508030799999
sS'galaxys4'
p91
F0.00965429811302
sS'cordcutters'
p92
F0.027646641365099998
sS'LifeProTips'
p93
F0.017398389270200001
sS'Shitty_Car_Mods'
p94
F0.010183002405999999
sS'NeutralPolitics'
p95
F0.0073965936739700004
sS'EDC'
p96
F0.0133634750758
sS'hardwareswap'
p97
F0.0078630575464499995
sS'trackers'
p98
F0.011371006096200001
sS'science'
p99
F0.0149701885374
sS'firstworldproblems'
p100
F0.0180500117398
sS'Entrepreneur'
p101
F0.0134382022472
sS'standupshots'
p102
F0.0142516583748
sS'legaladvice'
p103
F0.0092260379292700007
sS'history'
p104
F0.011024995156
sS'headphones'
p105
F0.0131344251662
sS'AskScienceFiction'
p106
F0.0093467138921700006
sS'audiophile'
p107
F0.012019313084299999
sS'awesome'
p108
F0.0091850517784800006
sS'india'
p109
F0.0091484647040200005
sS'gadgets'
p110
F0.0247689722767
sS'learnprogramming'
p111
F0.018495588918099999
sS'Infographics'
p112
F0.0106359307552
sS'BasicIncome'
p113
F0.0102801676594
sS'counting'
p114
F0.00725478816019
sS'CampingandHiking'
p115
F0.0079097167063800003
sS'Pizza'
p116
F0.0081936530383099997
sS'HouseOfCards'
p117
F0.013399469532599999
sS'asmr'
p118
F0.0073449920508699999
sS'techsupportmacgyver'
p119
F0.0160141616236
sS'MURICA'
p120
F0.013510336221100001
sS'travel'
p121
F0.0118925716339
sS'scifi'
p122
F0.019587209719499999
sS'spaceporn'
p123
F0.014045424959700001
sS'howtonotgiveafuck'
p124
F0.0072958500669300002
sS'economy'
p125
F0.0101203501094
sS'polandball'
p126
F0.0106944539659
sS'gaming'
p127
F0.0095088311435899998
sS'kickstarter'
p128
F0.0087809474856500001
sS'askscience'
p129
F0.0142640692641
sS'wallpaper'
p130
F0.010281937247499999
sS'netsec'
p131
F0.016549746133899999
sS'mac'
p132
F0.0172899634719
sS'nexus4'
p133
F0.029379531276300001
sS'MachinePorn'
p134
F0.0096518441916600001
sS'oculus'
p135
F0.014761028972699999
sS'CFB'
p136
F0.0074146556595300001
sS'eFreebies'
p137
F0.0098102730217500007
sS'listentothis'
p138
F0.0079145299145300003
sS'tall'
p139
F0.00796178343949
sS'ImGoingToHellForThis'
p140
F0.011210815984699999
sS'DataHoarder'
p141
F0.0080471553049699992
sS'cableporn'
p142
F0.011687992126
sS'photoshop'
p143
F0.0074264110180899999
sS'shield'
p144
F0.0088791470074700007
sS'softwareswap'
p145
F0.0071708205744400004
sS'DoesAnybodyElse'
p146
F0.014379949796700001
sS'pettyrevenge'
p147
F0.0111309311452
sS'malehairadvice'
p148
F0.0074543908978000001
sS'CityPorn'
p149
F0.0121345835632
sS'electronic_cigarette'
p150
F0.0074909351715300001
sS'thatHappened'
p151
F0.0121462205288
sS'london'
p152
F0.0083358747585599996
sS'dataisbeautiful'
p153
F0.020031602652600001
sS'japan'
p154
F0.0079824316787500006
sS'vita'
p155
F0.0076884506100600002
sS'spotify'
p156
F0.0114002916354
sS'beards'
p157
F0.0086182735426000006
sS'arduino'
p158
F0.0091329524697799994
sS'cyanogenmod'
p159
F0.018981921979100001
sS'nostalgia'
p160
F0.011835496543800001
sS'Documentaries'
p161
F0.0118215118215
sS'writing'
p162
F0.0075242995997700001
sS'AndroidQuestions'
p163
F0.041369287905699999
sS'Rainmeter'
p164
F0.0074114314539600002
sS'WTF'
p165
F0.0082854661376599997
sS'soccer'
p166
F0.0088232406121599993
sS'MensRights'
p167
F0.0115010590084
sS'MilitaryPorn'
p168
F0.0103522645579
sS'Frisson'
p169
F0.0095712789395700007
sS'electronicmusic'
p170
F0.0092895738507799992
sS'childfree'
p171
F0.0077911039758200001
sS'smallbusiness'
p172
F0.0075957337951099999
sS'food'
p173
F0.010248869609999999
sS'unitedkingdom'
p174
F0.0128496319664
sS'NoStupidQuestions'
p175
F0.014499670462
sS'nyc'
p176
F0.0115476542149
sS'halo'
p177
F0.0080646775129600001
sS'tmobile'
p178
F0.025082935512600001
sS'creepyPMs'
p179
F0.0071959419605999997
sS'WatchItForThePlot'
p180
F0.0095005428881700001
sS'nfl'
p181
F0.0080570273665800003
sS'freebies'
p182
F0.0164268842603
sS'Watches'
p183
F0.0078804433141800006
sS'AdviceAnimals'
p184
F0.0073087524903799996
sS'SubredditDrama'
p185
F0.015715545477499999
sS'arrow'
p186
F0.0075375258799200004
sS'minimalism'
p187
F0.019169418481000001
sS'wallpapers'
p188
F0.018220495745499998
sS'mildlyinteresting'
p189
F0.0119108781127
sS'TrueAtheism'
p190
F0.010331850838200001
sS'energy'
p191
F0.0098658786087699995
sS'perfectloops'
p192
F0.0153294691885
sS'books'
p193
F0.0084521262770699997
sS'Cinemagraphs'
p194
F0.012254276231800001
sS'canada'
p195
F0.0126229812512
sS'htcone'
p196
F0.0150445194965
sS'DunderMifflin'
p197
F0.0076175833391600003
sS'psychology'
p198
F0.010410751467000001
sS'space'
p199
F0.019018755215900001
sS'shittyfoodporn'
p200
F0.0095578341762199998
sS'malefashionadvice'
p201
F0.0121893016685
sS'LearnUselessTalents'
p202
F0.0121583635317
sS'RoomPorn'
p203
F0.014938192080000001
sS'electronics'
p204
F0.0094037450722700006
sS'Astronomy'
p205
F0.0126880359904
sS'math'
p206
F0.0123202706513
sS'bestof'
p207
F0.017225325884500001
sS'Cyberpunk'
p208
F0.0123563020582
sS'cars'
p209
F0.0118195412173
sS'Roadcam'
p210
F0.010166785699299999
sS'GamePhysics'
p211
F0.0119743507989
sS'youtubehaiku'
p212
F0.011058330779399999
sS'PoliticalHumor'
p213
F0.0078947368421099992
sS'recipes'
p214
F0.0086626090876899993
sS'computers'
p215
F0.0071730329167400001
sS'programming'
p216
F0.024912837804700001
sS'running'
p217
F0.0097388409114599998
sS'beermoney'
p218
F0.0092136206952099994
sS'dogecoin'
p219
F0.0131948253057
sS'xbmc'
p220
F0.0101435849931
sS'gamingpc'
p221
F0.0099005850345699996
sS'StarWars'
p222
F0.012978634017500001
sS'misc'
p223
F0.010690128186900001
sS'patientgamers'
p224
F0.011446312092299999
sS'webhosting'
p225
F0.0080608132238200007
sS'pokemon'
p226
F0.0077822603742999999
sS'tf2'
p227
F0.0083583557217900006
sS'OldSchoolCool'
p228
F0.0083740269786799996
sS'lego'
p229
F0.0112383660113
sS'ANormalDayInRussia'
p230
F0.010656799259900001
sS'seduction'
p231
F0.0074345027434000004
sS'europe'
p232
F0.0146209661604
sS'Autos'
p233
F0.010788602506499999
sS'Seattle'
p234
F0.0080171031533899997
sS'PenmanshipPorn'
p235
F0.00954449710374
sS'SuggestALaptop'
p236
F0.0103790466894
sS'SEO'
p237
F0.0084950902032399998
sS'explainlikeimfive'
p238
F0.0111935891262
sS'dogs'
p239
F0.0076184344653699998
sS'CombatFootage'
p240
F0.0070734797297300001
sS'3DS'
p241
F0.0106542559329
sS'mildlyinfuriating'
p242
F0.019625706030900001
sS'BitcoinMarkets'
p243
F0.0071618037135300003
sS'Awwducational'
p244
F0.0087149187592300004
sS'skyrim'
p245
F0.0094169422956000004
sS'dogemarket'
p246
F0.0075381238447300002
sS'learnpython'
p247
F0.0086196022368899994
sS'toronto'
p248
F0.0074826296098300001
sS'Battlefield'
p249
F0.0076895043731799997
sS'television'
p250
F0.0121546961326
sS'worldpolitics'
p251
F0.0160654132957
sS'typography'
p252
F0.0083057275913400001
sS'PerfectTiming'
p253
F0.0137428046171
sS'kindle'
p254
F0.0097359422492399993
sS'hacking'
p255
F0.013316864168000001
sS'KerbalSpaceProgram'
p256
F0.011538058842
sS'torrents'
p257
F0.016426488248400001
sS'gallifrey'
p258
F0.0089813956803800003
sS'formula1'
p259
F0.0090889572747399998
sS'FoodPorn'
p260
F0.010890419719699999
sS'boston'
p261
F0.0078240377062099992
sS'teenagers'
p262
F0.0090242282479999995
sS'sysadmin'
p263
F0.021700462468899999
sS'conspiracy'
p264
F0.0140775684471
sS'homelab'
p265
F0.0088158317645400004
sS'GalaxyNote3'
p266
F0.0073306370070799999
sS'pebble'
p267
F0.017847002514799998
sS'HighQualityGifs'
p268
F0.0123726630498
sS'self'
p269
F0.0172432444127
sS'IAmA'
p270
F0.0087645805026099997
sS'Parenting'
p271
F0.0087512154465900008
sS'DaftPunk'
p272
F0.0075348005619199996
sS'britishproblems'
p273
F0.0104916139279
sS'conspiratard'
p274
F0.011100740049299999
sS'firefly'
p275
F0.0095917092352399997
sS'aww'
p276
F0.0075940436785099999
sS'Futurology'
p277
F0.020473949147999999
sS'germany'
p278
F0.00708449060097
sS'Gaming4Gamers'
p279
F0.0074159263959400002
sS'Minecraft'
p280
F0.013821161395800001
sS'windows'
p281
F0.033051078940199999
sS'chicago'
p282
F0.0089714166492800007
sS'androiddev'
p283
F0.021407706774400001
sS'TumblrInAction'
p284
F0.0115036242001
sS'secretsanta'
p285
F0.0096170401160900008
sS'HailCorporate'
p286
F0.0113345367533
sS'microsoft'
p287
F0.0237971083195
sS'RandomActsOfGaming'
p288
F0.0101030927835
sS'adventuretime'
p289
F0.0075199020208200004
sS'fffffffuuuuuuuuuuuu'
p290
F0.0127555062589
sS'PleX'
p291
F0.018197649107500002
sS'PoliticalDiscussion'
p292
F0.011579353661499999
sS'spacex'
p293
F0.0081431726168599994
sS'Foodforthought'
p294
F0.0140672139199
sS'help'
p295
F0.0072483221476499996
sS'TheoryOfReddit'
p296
F0.0133543540759
sS'harrypotter'
p297
F0.0089815212720199995
sS'wicked_edge'
p298
F0.010746173469399999
sS'shittybattlestations'
p299
F0.0090864549463299995
sS'whowouldwin'
p300
F0.0075382073523300001
sS'GrandTheftAutoV'
p301
F0.010487455460500001
sS'Nexus5'
p302
F0.047335783832299999
sS'ipad'
p303
F0.0127844151891
sS'buildapcsales'
p304
F0.0132020286044
sS'arresteddevelopment'
p305
F0.0086536212676400007
sS'shutupandtakemymoney'
p306
F0.019430485762099999
sS'photography'
p307
F0.0158802809894
sS'JusticePorn'
p308
F0.01414890553
sS'geek'
p309
F0.0334981184977
sS'lostgeneration'
p310
F0.0072262612910299999
sS'Fitness'
p311
F0.0080318957823900007
sS'Conservative'
p312
F0.0095774457896300007
sS'AbandonedPorn'
p313
F0.0128645366776
sS'motorcycles'
p314
F0.00849260572516
sS'progressive'
p315
F0.0078707539353800003
sS'dadjokes'
p316
F0.013099994942100001
sS'vexillology'
p317
F0.0090051789441099993
sS'WeAreTheMusicMakers'
p318
F0.0074938545619400001
sS'privacy'
p319
F0.0175586340477
sS'futurama'
p320
F0.012498819381
sS'DeepIntoYouTube'
p321
F0.0090551571433300001
sS'PHP'
p322
F0.0109777455043
sS'cringe'
p323
F0.012086559298399999
sS'hometheater'
p324
F0.0099336383496100005
sS'playstation'
p325
F0.0070775582424100003
sS'AskWomen'
p326
F0.0076570370203100004
sS'TheSimpsons'
p327
F0.010125979092800001
sS'Christianity'
p328
F0.00933658829072
sS'Justrolledintotheshop'
p329
F0.0129651910551
sS'MotoG'
p330
F0.0102326954297
sS'changemyview'
p331
F0.014916745612500001
sS'PS3'
p332
F0.0119083600314
sS'Android'
p333
F0.059214324413099997
sS'PS4'
p334
F0.0114544679701
sS'firstworldanarchists'
p335
F0.0170401776701
sS'nononono'
p336
F0.015668735548299999
sS'truegaming'
p337
F0.013265487512200001
sS'lotr'
p338
F0.00744940338849
sS'wikipedia'
p339
F0.0163555194805
sS'Music'
p340
F0.0077165999392199997
sS'breakingbad'
p341
F0.012473155599900001
sS'outside'
p342
F0.012823600240800001
sS'AskCulinary'
p343
F0.0084705563461399992
sS'foodhacks'
p344
F0.0074838187702300002
sS'pcmasterrace'
p345
F0.013735633791
sS'TheLastAirbender'
p346
F0.00779396814639
sS'glitch_art'
p347
F0.0080783464211599994
sS'jobs'
p348
F0.0103974872739
sS'linguistics'
p349
F0.0072797255459799998
sS'casualiama'
p350
F0.0118896028902
sS'cscareerquestions'
p351
F0.0118237874261
sS'javascript'
p352
F0.014180591752299999
sS'Roku'
p353
F0.0091549985312800002
sS'news'
p354
F0.0113454557052
sS'environment'
p355
F0.013364604273700001
sS'Unexpected'
p356
F0.017737718453300001
sS'RedditDayOf'
p357
F0.0089700247915299996
sS'itookapicture'
p358
F0.0131819158076
sS'Sherlock'
p359
F0.0096711798839500002
sS'GetMotivated'
p360
F0.0106504242899
sS'buildapc'
p361
F0.013211367520099999
sS'drunk'
p362
F0.0082385816149500007
sS'AppHookup'
p363
F0.0079223860362699992
sS'robotics'
p364
F0.0073714935932299996
sS'reactiongifs'
p365
F0.014066616083700001
sS'community'
p366
F0.0132760086932
sS'Wordpress'
p367
F0.0104554004987
sS'startrek'
p368
F0.0140853021707
sS'EarthPorn'
p369
F0.010285936657
sS'linux'
p370
F0.0276312135518
sS'3Dprinting'
p371
F0.0093073343332900002
sS'usenet'
p372
F0.0109339407745
sS'java'
p373
F0.0097921319360899997
sS'chrome'
p374
F0.047099958864700003
sS'Homebrewing'
p375
F0.0072781761746800004
sS'TheWire'
p376
F0.0075584157560599999
sS'beer'
p377
F0.011620051344399999
sS'California'
p378
F0.008811737234
sS'HomeImprovement'
p379
F0.0084042825300499995
sS'web_design'
p380
F0.0280063291139
sS'investing'
p381
F0.013280601533099999
sS'fatlogic'
p382
F0.0086402531698299995
sS'hiphopheads'
p383
F0.0074986958789800004
sS'verizon'
p384
F0.0099097766602599998
sS'androidapps'
p385
F0.043727689954100001
sS'androidthemes'
p386
F0.0233998623538
sS'marvelstudios'
p387
F0.0072500487234499998
sS'somethingimade'
p388
F0.010223520446999999
sS'keto'
p389
F0.00820015562339
sS'MapPorn'
p390
F0.0159287889435
sS'aviation'
p391
F0.011649218725699999
sS'Chromecast'
p392
F0.052443503292200003
sS'sex'
p393
F0.0076999503228999998
sS'Perfectfit'
p394
F0.011247230003800001
sS'offbeat'
p395
F0.022529200359399999
sS'softwaregore'
p396
F0.018732664817600001
sS'socialism'
p397
F0.0070206064285999997
sS'windowsphone'
p398
F0.011428732680500001
sS'Cooking'
p399
F0.013118100710699999
sS'FanTheories'
p400
F0.010686102586600001
sS'hardware'
p401
F0.020827820827799999
sS'LosAngeles'
p402
F0.0088075688268899992
sS'DIY'
p403
F0.013040377930300001
sS'webdev'
p404
F0.0240433457501
sS'technology'
p405
F0.020900460051300002
sS'southpark'
p406
F0.011831184884299999
sS'funny'
p407
F0.0071699704765899996
sS'productivity'
p408
F0.0081659165777400004
sS'Python'
p409
F0.013408584369800001
sS'daddit'
p410
F0.0097127121167000004
sS'watchpeopledie'
p411
F0.0076017586157999997
sS'windows8'
p412
F0.017217226264200001
sS'Whatcouldgowrong'
p413
F0.0166317114094
sS'talesfromtechsupport'
p414
F0.022457619419699999
sS'notinteresting'
p415
F0.012804360681900001
sS'AnimalsBeingJerks'
p416
F0.012546256399900001
sS'linux_gaming'
p417
F0.0120939265537
sS'Physics'
p418
F0.0106946171611
sS'HumanPorn'
p419
F0.0096868171886399998
sS'titanfall'
p420
F0.0095323265787300004
sS'AskEngineers'
p421
F0.0089076940207100004
sS'whatsthisbug'
p422
F0.0079870249097300002
sS'Piracy'
p423
F0.012761227212100001
sS'circlebroke'
p424
F0.0071411377677899996
sS'PublicFreakout'
p425
F0.0092950265572200007
sS'ArtisanVideos'
p426
F0.0095116655753499993
sS'Bitcoin'
p427
F0.0170537781108
sS'rickandmorty'
p428
F0.0089035497431100008
sS'quotes'
p429
F0.0075015628255899998
sS'woodworking'
p430
F0.0090500077571499995
sS'whitepeoplegifs'
p431
F0.0082501443775299995
sS'InternetIsBeautiful'
p432
F0.017979821772099999
sS'firefox'
p433
F0.019097142331199999
sS'startups'
p434
F0.013940925328900001
sS'carporn'
p435
F0.0095706863549399994
sS'TalesFromRetail'
p436
F0.0115229315862
sS'quityourbullshit'
p437
F0.013197105151099999
sS'ProtectAndServe'
p438
F0.0081642174014499996
sS'woahdude'
p439
F0.015408735311800001
sS'Fallout'
p440
F0.0073636079842799998
sS'offmychest'
p441
F0.0080840098513200002
sS'australia'
p442
F0.0098134413156199998
sS'slowcooking'
p443
F0.0099935316947000006
sS'howto'
p444
F0.015461590549999999
sS'HomeNetworking'
p445
F0.00736464968153
sS'cringepics'
p446
F0.0108884476982
sS'toosoon'
p447
F0.0093673863731799992
sS'nonononoyes'
p448
F0.017153204296899999
sS'thewalkingdead'
p449
F0.0102742235706
sS'gifs'
p450
F0.00980432459097
sS'4chan'
p451
F0.0129980695936
sS'compsci'
p452
F0.0152296066654
sS'montageparodies'
p453
F0.00788410149953
sS'Health'
p454
F0.011001978273699999
sS'ArcherFX'
p455
F0.012486896466700001
sS'getdisciplined'
p456
F0.0072930511536
sS'gardening'
p457
F0.0075198287455100002
sS'whatisthisthing'
p458
F0.015486205337
sS'MechanicalKeyboards'
p459
F0.016341200431299999
sS'NetflixBestOf'
p460
F0.0159668835009
sS'ShouldIbuythisgame'
p461
F0.0078760162601600008
sS'tumblr'
p462
F0.0093769958776099994
sS'interestingasfuck'
p463
F0.018775164229699999
sS'PropagandaPosters'
p464
F0.0090952818225500005
sS'Coffee'
p465
F0.0122026522391
sS'gameofthrones'
p466
F0.0111381278253
sS'humor'
p467
F0.015771089863499999
sS'AMA'
p468
F0.0105122533453
sS'ExpectationVsReality'
p469
F0.0093133325699499992
sS'facepalm'
p470
F0.0144711669855
sS'lifehacks'
p471
F0.019222009656599998
sS'Enhancement'
p472
F0.015989136148600001
sS'starbound'
p473
F0.0073278252999699998
sS'blackpeoplegifs'
p474
F0.0075908909308800001
sS'ProgrammerHumor'
p475
F0.0233656711686
sS'business'
p476
F0.0177873740489
sS'marketing'
p477
F0.0082180114966999996
sS'FloridaMan'
p478
F0.011206985458399999
sS'delusionalartists'
p479
F0.0082991768571500004
sS'Frugal'
p480
F0.019084632959200001
sS'promos'
p481
F0.013554067460300001
sS'shittyaskscience'
p482
F0.0125966275484
sS'htpc'
p483
F0.0070087609511900002
sS'lewronggeneration'
p484
F0.0090847342503
sS'calvinandhobbes'
p485
F0.0071010860484499996
sS'netflix'
p486
F0.0194218319339
sS'bayarea'
p487
F0.0090424673017899995
sS'PickAnAndroidForMe'
p488
F0.012236739469599999
sS'wheredidthesodago'
p489
F0.0161906256539
sS'AnimalsBeingBros'
p490
F0.0110548795808
sS'classic4chan'
p491
F0.0073581376013300004
sS'Games'
p492
F0.015910841167700002
sS'GameDeals'
p493
F0.014820180800200001
sS'battlestations'
p494
F0.0190847706679
sS'androidcirclejerk'
p495
F0.0245461518793
sS'software'
p496
F0.016710039720599999
sS'applehelp'
p497
F0.0134561639582
sS'linuxquestions'
p498
F0.0099599781699100005
sS'TrollXChromosomes'
p499
F0.00809552439144
sS'tifu'
p500
F0.0095719575212599994
sS'SimCity'
p501
F0.0079985700880299999
sS'Damnthatsinteresting'
p502
F0.014683501493700001
sS'CrazyIdeas'
p503
F0.018783297664000002
sS'networking'
p504
F0.013063752536200001
sS'Bad_Cop_No_Donut'
p505
F0.0111405377397
sS'linux4noobs'
p506
F0.0118486543629
sS'gopro'
p507
F0.0082848837209299996
sS'MorbidReality'
p508
F0.0102963710431
sS'gif'
p509
F0.0102714853882
sS'cats'
p510
F0.0089410885074300006
sS'Ubuntu'
p511
F0.024836706717200001
sS'happy'
p512
F0.0088622847591999995
sS'cablefail'
p513
F0.0081566865292600002
sS'explainlikeIAmA'
p514
F0.0074877872987899998
sS'tasker'
p515
F0.0199893519191
sS'batman'
p516
F0.0092280163599200004
sS'teslamotors'
p517
F0.0144422088084
sS'xboxone'
p518
F0.010792552315
sS'xbox360'
p519
F0.0093401519994300002
sS'lgg2'
p520
F0.0096085912109699998
sS'blunderyears'
p521
F0.0073900293255100002
sS'Marvel'
p522
F0.010951521594000001
sS'webcomics'
p523
F0.00776855076346
sS'rage'
p524
F0.012909140918699999
sS'comics'
p525
F0.017386126823499999
sS'nsfw'
p526
F0.0076415891800499999
sS'forhire'
p527
F0.0099240658597100004
sS'behindthegifs'
p528
F0.0116828237634
sS'civ'
p529
F0.0097957441855999992
sS'RealEstate'
p530
F0.0072724518010700004
sS'fullmoviesonyoutube'
p531
F0.011708599553699999
sS'iphone'
p532
F0.021558695459
sS'videos'
p533
F0.0091815361355700002
sS'TrueAskReddit'
p534
F0.0108265013925
sS'engineering'
p535
F0.011885798309
sS'politics'
p536
F0.014886606590899999
sS'bicycling'
p537
F0.0123095649442
sS'excel'
p538
F0.0093518481033199995
sS'zelda'
p539
F0.0092934335253999998
sS'nottheonion'
p540
F0.014771413152399999
sS'GalaxyS3'
p541
F0.0083901945918600004
sS'raspberry_pi'
p542
F0.017958611013699999
sS'GTAV'
p543
F0.0070200395843600001
sS'nintendo'
p544
F0.0121150677988
sS'comicbooks'
p545
F0.00898253861652
sS'oddlysatisfying'
p546
F0.0190095491894
sS'entertainment'
p547
F0.0149541563758
sS'youtube'
p548
F0.015599248783099999
sS'atheism'
p549
F0.011606084551599999
sS'Design'
p550
F0.0172503557669
sS'PrettyGirls'
p551
F0.00716681915218
sS'urbanexploration'
p552
F0.0085564562351599996
s.