(dp1
S'getdisciplined'
p2
F0.0083328544336500002
sS'C25K'
p3
F0.0070603337612300003
sS'weddingplanning'
p4
F0.0077961215932900001
sS'TrueReddit'
p5
F0.0079838900734399993
sS'EatCheapAndHealthy'
p6
F0.0107535674858
sS'xxfitness'
p7
F0.012328980908299999
sS'EngineeringStudents'
p8
F0.0100527631214
sS'Cooking'
p9
F0.0076322930800499997
sS'DecidingToBeBetter'
p10
F0.0074287774972999999
sS'literature'
p11
F0.0085625797048599992
sS'engineering'
p12
F0.0096056865664500002
sS'AskScienceDiscussion'
p13
F0.0123483074303
sS'college'
p14
F0.0141046753061
sS'changemyview'
p15
F0.00718051621026
sS'dataisbeautiful'
p16
F0.0072696388213100002
sS'askphilosophy'
p17
F0.0083284260116099993
sS'Foodforthought'
p18
F0.0082348728965300003
sS'femalefashionadvice'
p19
F0.010093847758100001
sS'Feminism'
p20
F0.0082298478947800003
sS'linguistics'
p21
F0.011316010058699999
sS'statistics'
p22
F0.0260171919771
sS'languagelearning'
p23
F0.0084422861411999998
sS'psychology'
p24
F0.012484480617999999
sS'AskHistorians'
p25
F0.0086930936714300008
sS'skeptic'
p26
F0.0074753974261899999
sS'SkincareAddiction'
p27
F0.00719982277359
sS'HomeworkHelp'
p28
F0.0073321234119799999
sS'education'
p29
F0.0113099100769
sS'learnmath'
p30
F0.0070378619153699997
sS'AskCulinary'
p31
F0.0076626177772700001
sS'slowcooking'
p32
F0.0071271355203899999
sS'math'
p33
F0.014562900692100001
sS'SampleSize'
p34
F0.0096614368290700008
sS'biology'
p35
F0.031094232138599999
sS'AskAcademia'
p36
F0.115170278638
sS'jobs'
p37
F0.010542709955700001
sS'Scholar'
p38
F0.0146135110883
sS'geology'
p39
F0.00805500982318
sS'askscience'
p40
F0.0096757451435900005
sS'Economics'
p41
F0.0077562804326300003
sS'budgetfood'
p42
F0.0074464220850000004
sS'Frugal'
p43
F0.0076658660415099998
sS'running'
p44
F0.0075611236823200003
sS'TrueAskReddit'
p45
F0.0076906174467199998
sS'TheGirlSurvivalGuide'
p46
F0.0081123862287299994
sS'productivity'
p47
F0.0076731646619700002
sS'Physics'
p48
F0.014944729204
sS'chemistry'
p49
F0.0173955567975
sS'MachineLearning'
p50
F0.0134560906516
sS'fitmeals'
p51
F0.0077709935770400003
sS'vegetarian'
p52
F0.0076763153686200004
sS'compsci'
p53
F0.0101822842495
sS'resumes'
p54
F0.0086258776329000003
sS'AskPhysics'
p55
F0.0085806220951000003
sS'AskEngineers'
p56
F0.0083073037814800008
sS'IWantOut'
p57
F0.0087894231479399999
sS'AskSocialScience'
p58
F0.017724970783000001
s.