(dp1
S'IDAP'
p2
F0.014687100894000001
sS'photoshop'
p3
F0.0078027465667899996
sS'awwwtf'
p4
F0.0081323611890099998
sS'Heavymind'
p5
F0.017860165904899999
sS'Psychonaut'
p6
F0.0106747230614
sS'wikipedia'
p7
F0.0100621727749
sS'CityPorn'
p8
F0.012086243546899999
sS'ArtisanVideos'
p9
F0.00912020429258
sS'OFWGKTA'
p10
F0.00773453093812
sS'mycology'
p11
F0.0074520547945199998
sS'shrooms'
p12
F0.0084467852529100003
sS'quotes'
p13
F0.0074600667017700002
sS'futurama'
p14
F0.0070364238410600003
sS'perfectloops'
p15
F0.0089085246614
sS'everymanshouldknow'
p16
F0.00797958376766
sS'stencils'
p17
F0.044950645406200002
sS'Foodforthought'
p18
F0.0079587141702399996
sS'carporn'
p19
F0.010090901509500001
sS'graffhelp'
p20
F0.0706490522688
sS'Stance'
p21
F0.0079787234042600005
sS'quityourbullshit'
p22
F0.0070218590074199996
sS'JoeRogan'
p23
F0.0072440437862200001
sS'Anticonsumption'
p24
F0.0083398488402399995
sS'environment'
p25
F0.0074911562738399998
sS'StonerEngineering'
p26
F0.0118713576516
sS'badtattoos'
p27
F0.0091843943794600001
sS'woahdude'
p28
F0.0092326505655799997
sS'hiphopheads'
p29
F0.0093861176292500004
sS'ImaginaryMonsters'
p30
F0.0089969372128600004
sS'PublicFreakout'
p31
F0.0078204692281500007
sS'nononono'
p32
F0.00882668487272
sS'Frisson'
p33
F0.0075952711181599998
sS'electronicmusic'
p34
F0.0097685963648000002
sS'shutupandtakemymoney'
p35
F0.0104070417741
sS'EDC'
p36
F0.0074057649667400001
sS'foodhacks'
p37
F0.0076758005942599997
sS'howto'
p38
F0.0102459016393
sS'DJs'
p39
F0.0094801223241599997
sS'FixedGearBicycle'
p40
F0.0116398174877
sS'geek'
p41
F0.0071435930899499999
sS'realdubstep'
p42
F0.0078249760459900009
sS'toosoon'
p43
F0.0073777777777800004
sS'PrettyGirlsUglyFaces'
p44
F0.0071214392803600002
sS'IWantToLearn'
p45
F0.0071065989847700003
sS'Art'
p46
F0.011150489819099999
sS'freebies'
p47
F0.0077264902518099999
sS'PropagandaPosters'
p48
F0.0109066121336
sS'CrappyDesign'
p49
F0.0090785795344499997
sS'WeAreTheMusicMakers'
p50
F0.0070619541484699998
sS'comics'
p51
F0.0078664018398500006
sS'architecture'
p52
F0.0093666369313100007
sS'zombies'
p53
F0.0076300790586500003
sS'minimalism'
p54
F0.00931756296801
sS'DeepIntoYouTube'
p55
F0.0087659766994699993
sS'whatisthisthing'
p56
F0.00828729281768
sS'TheSimpsons'
p57
F0.0077405261658300001
sS'Marijuana'
p58
F0.0095107363467000008
sS'see'
p59
F0.0096973488699500007
sS'glitch_art'
p60
F0.0156974294142
sS'dubstep'
p61
F0.0088944231966599993
sS'skateboarding'
p62
F0.019861030689100001
sS'Cinemagraphs'
p63
F0.0103825136612
sS'firstworldanarchists'
p64
F0.0093492994722600004
sS'PerfectTiming'
p65
F0.0102759552296
sS'LSD'
p66
F0.0083934426229499998
sS'humor'
p67
F0.00770145889425
sS'shittyfoodporn'
p68
F0.0071232518625
sS'InteriorDesign'
p69
F0.00800951625694
sS'ExpectationVsReality'
p70
F0.0079923742484199999
sS'firstworldproblems'
p71
F0.0070522507670500003
sS'LearnUselessTalents'
p72
F0.0086252420348499996
sS'RoomPorn'
p73
F0.0099049128367700006
sS'glassheads'
p74
F0.010156867170699999
sS'lifehacks'
p75
F0.0083947392967100003
sS'Astronomy'
p76
F0.0070607348162999998
sS'trap'
p77
F0.0109341748
sS'tattoos'
p78
F0.0102494236009
sS'blackpeoplegifs'
p79
F0.0099185549552500002
sS'StandUpComedy'
p80
F0.010599196512500001
sS'ExposurePorn'
p81
F0.0089992800575999995
sS'Cyberpunk'
p82
F0.0111292566382
sS'FloridaMan'
p83
F0.0077757685352600001
sS'delusionalartists'
p84
F0.011076230527699999
sS'whitepeoplegifs'
p85
F0.0089331729943299999
sS'adventuretime'
p86
F0.0070118280331499996
sS'vinyl'
p87
F0.0085829757093500002
sS'eldertrees'
p88
F0.0103787811585
sS'Unexpected'
p89
F0.0074660000986699997
sS'sanfrancisco'
p90
F0.0073408342480800002
sS'ThriftStoreHauls'
p91
F0.0092312130390900006
sS'calvinandhobbes'
p92
F0.0083038869258000008
sS'punk'
p93
F0.010409614082600001
sS'itookapicture'
p94
F0.0105318376241
sS'wheredidthesodago'
p95
F0.0074727475829099999
sS'AnimalsBeingBros'
p96
F0.0070945066389000002
sS'Images'
p97
F0.0092304702681699994
sS'snowboarding'
p98
F0.00725278613126
sS'holdmybeer'
p99
F0.0089809309001400005
sS'Bombing'
p100
F0.099838391093600001
sS'QuotesPorn'
p101
F0.0097461569131299993
sS'TrueReddit'
p102
F0.0077030475181700002
sS'drunk'
p103
F0.0082644628099199993
sS'nostalgia'
p104
F0.0088278744640200007
sS'NotTimAndEric'
p105
F0.0077631478803599999
sS'IdiotsFightingThings'
p106
F0.0081885856079400004
sS'Buddhism'
p107
F0.0071810542398799996
sS'Sneakers'
p108
F0.010077227349800001
sS'marijuanaenthusiasts'
p109
F0.0087506076810899992
sS'graphic_design'
p110
F0.0105107992053
sS'Damnthatsinteresting'
p111
F0.0082626752033200003
sS'HistoryPorn'
p112
F0.0073677306515099999
sS'longboarding'
p113
F0.011077372919500001
sS'CrazyIdeas'
p114
F0.0088130685216100003
sS'AbandonedPorn'
p115
F0.012544284578099999
sS'DnB'
p116
F0.0119787546615
sS'Drugs'
p117
F0.0093074617447500008
sS'Bad_Cop_No_Donut'
p118
F0.0077731847591700001
sS'ANormalDayInRussia'
p119
F0.0082080286936100002
sS'Whatcouldgowrong'
p120
F0.0082288290827100003
sS'gif'
p121
F0.0094120523163399999
sS'PenmanshipPorn'
p122
F0.013701719763200001
sS'misleadingthumbnails'
p123
F0.0080639456744700001
sS'trailerparkboys'
p124
F0.0072342793544799998
sS'Standup'
p125
F0.0072321520818299997
sS'aves'
p126
F0.0072036673215499997
sS'Calligraphy'
p127
F0.0097402597402600002
sS'Pareidolia'
p128
F0.0114012008365
sS'ObscureMedia'
p129
F0.0100439422473
sS'makinghiphop'
p130
F0.0070378619153699997
sS'alternativeart'
p131
F0.0097572044474700005
sS'occupywallstreet'
p132
F0.0084700188222600007
sS'mildlyinfuriating'
p133
F0.0070099550565199996
sS'DumpsterDiving'
p134
F0.0083378895571400002
sS'somethingimade'
p135
F0.012281630492299999
sS'HipHopImages'
p136
F0.0087106346319499994
sS'Awwducational'
p137
F0.0081368087160400004
sS'Shitty_Car_Mods'
p138
F0.0093699741276799999
sS'PoliticalHumor'
p139
F0.0083511559221900004
sS'ghettoglamourshots'
p140
F0.0080087008107599996
sS'blunderyears'
p141
F0.0072558139534900003
sS'webcomics'
p142
F0.0074466999898
sS'worldpolitics'
p143
F0.0071766069359000002
sS'House'
p144
F0.0078761180082799996
sS'typography'
p145
F0.013421181063900001
sS'Perfectfit'
p146
F0.0076295711654800003
sS'offbeat'
p147
F0.0083550913838099997
sS'standupshots'
p148
F0.0079274334934099997
sS'knives'
p149
F0.0077495350279000001
sS'fullmoviesonyoutube'
p150
F0.0087532762969199998
sS'Design'
p151
F0.013606687412300001
sS'FoodPorn'
p152
F0.0070876745339900002
sS'awesome'
p153
F0.0089285714285700004
sS'conspiracy'
p154
F0.0073683634572900003
sS'Infographics'
p155
F0.0074446680080499997
sS'YouShouldKnow'
p156
F0.00815713212407
sS'supremeclothing'
p157
F0.0070188750829900002
sS'bestofworldstar'
p158
F0.0085675119945199992
sS'Pizza'
p159
F0.0076815642458100001
sS'tattoo'
p160
F0.0095016678459499994
sS'eatsandwiches'
p161
F0.0087658133280200008
sS'HighQualityGifs'
p162
F0.0091449474165499998
sS'bicycling'
p163
F0.0076219116998900004
sS'ImaginaryLandscapes'
p164
F0.0085164546314799999
sS'Hotchickswithtattoos'
p165
F0.00747442958301
sS'TheWayWeWere'
p166
F0.0081932326026799996
sS'animation'
p167
F0.0078406442042799999
sS'spaceporn'
p168
F0.0085913728297799998
sS'nyc'
p169
F0.00726069944738
sS'nonononoyes'
p170
F0.0085583540014700001
sS'Autos'
p171
F0.00754451733833
sS'wallpapers'
p172
F0.0089498422509800002
sS'Anarchism'
p173
F0.0097313482491899993
sS'AnimalsBeingJerks'
p174
F0.0080636212317400004
sS'microgrowery'
p175
F0.0076702629804499996
sS'interestingasfuck'
p176
F0.0085719620457300003
sS'gratefuldead'
p177
F0.00703664365374
sS'HailCorporate'
p178
F0.0097474523704000008
sS'oddlysatisfying'
p179
F0.0080814611281700005
sS'MachinePorn'
p180
F0.0087381377431199996
sS'cosplaygirls'
p181
F0.0072121865732000003
sS'futurebeats'
p182
F0.0144904584686
sS'HumanPorn'
p183
F0.0104201680672
sS'CannabisExtracts'
p184
F0.0089095487119899997
sS'streetwear'
p185
F0.0112330865458
sS'urbanexploration'
p186
F0.0177307987384
sS'painting'
p187
F0.0081026333558399995
sS'drawing'
p188
F0.013927932532599999
s.