(dp1
S'RedHotChiliPeppers'
p2
F0.010999755561
sS'beatles'
p3
F0.0092959201239500005
sS'Blink182'
p4
F0.045614987781699999
sS'poppunkers'
p5
F0.019643608811599999
sS'punk'
p6
F0.013126626683300001
sS'Muse'
p7
F0.011515800749899999
s.