(dp1
S'PublicFreakout'
p2
F0.0078997803019699997
sS'rickandmorty'
p3
F0.0071498356870100003
sS'futurama'
p4
F0.0087553477265900001
sS'perfectloops'
p5
F0.00937906483193
sS'WouldYouRather'
p6
F0.0104957570344
sS'quityourbullshit'
p7
F0.0088959063426700003
sS'LearnUselessTalents'
p8
F0.0076677673924000003
sS'HistoryPorn'
p9
F0.0075202509615199999
sS'Screenwriting'
p10
F0.0109852385857
sS'whowouldwin'
p11
F0.0089678742310299996
sS'holdmybeer'
p12
F0.0080507634344599999
sS'PerfectTiming'
p13
F0.0097001763668400007
sS'Frisson'
p14
F0.0091685506154200007
sS'arresteddevelopment'
p15
F0.010762007945100001
sS'moviescirclejerk'
p16
F0.0093314976288799995
sS'horror'
p17
F0.014320536258399999
sS'PandR'
p18
F0.0104923325262
sS'NoStupidQuestions'
p19
F0.0101455532256
sS'toosoon'
p20
F0.0072139303482600002
sS'nonononoyes'
p21
F0.0091100686654400007
sS'AbandonedPorn'
p22
F0.0072337154039699997
sS'firstimpression'
p23
F0.0076107831282500003
sS'WatchItForThePlot'
p24
F0.010289461781999999
sS'Celebs'
p25
F0.0072589238145999999
sS'seinfeld'
p26
F0.0098696124592500007
sS'nononono'
p27
F0.0082059457938700002
sS'dvdcollection'
p28
F0.016516913319200001
sS'DeepIntoYouTube'
p29
F0.0096903421394499995
sS'ArcherFX'
p30
F0.0093435438038800001
sS'Whatisthis'
p31
F0.0081707520426900007
sS'StarWars'
p32
F0.0074064684364899998
sS'whatisthisthing'
p33
F0.0095135973717799995
sS'NetflixBestOf'
p34
F0.012607978530099999
sS'gentlemanboners'
p35
F0.0076570887274999997
sS'TheSimpsons'
p36
F0.011382934777600001
sS'tumblr'
p37
F0.0070400844810100003
sS'interestingasfuck'
p38
F0.0080669456066899993
sS'MarkMyWords'
p39
F0.010634028892499999
sS'xmen'
p40
F0.0070575461454899999
sS'CrappyDesign'
p41
F0.0087420158059999999
sS'Cinemagraphs'
p42
F0.0106085037766
sS'firstworldanarchists'
p43
F0.0080398062066299996
sS'forwardsfromgrandma'
p44
F0.0086120884314400004
sS'no_sob_story'
p45
F0.0079773275952600003
sS'humor'
p46
F0.0073279714030399998
sS'findareddit'
p47
F0.012189875233000001
sS'shittyfoodporn'
p48
F0.0083508637725499997
sS'ExpectationVsReality'
p49
F0.0090783090783100005
sS'breakingbad'
p50
F0.00951717734448
sS'outside'
p51
F0.0070797279163399996
sS'facepalm'
p52
F0.0071062874493299996
sS'vexillology'
p53
F0.0073649174987599998
sS'blackpeoplegifs'
p54
F0.0072496601721800001
sS'StandUpComedy'
p55
F0.0107174278173
sS'casualiama'
p56
F0.00717127209804
sS'FloridaMan'
p57
F0.0072384672832800003
sS'delusionalartists'
p58
F0.0095969289827299992
sS'answers'
p59
F0.0075613079019100004
sS'DunderMifflin'
p60
F0.00832639467111
sS'NotTimAndEric'
p61
F0.0073102558589600002
sS'GamePhysics'
p62
F0.0079753489215199994
sS'lewronggeneration'
p63
F0.0079284321207499994
sS'youtubehaiku'
p64
F0.0091051462286499997
sS'ThriftStoreHauls'
p65
F0.0089942763695799993
sS'RedditDayOf'
p66
F0.0073860911270999998
sS'netflix'
p67
F0.0089624791128700004
sS'itookapicture'
p68
F0.0073240095056299999
sS'wheredidthesodago'
p69
F0.0081492280662399993
sS'AnimalsBeingBros'
p70
F0.0072356215213400001
sS'classic4chan'
p71
F0.0078341765954000001
sS'whatstheword'
p72
F0.0107306604234
sS'misc'
p73
F0.0074349442379200003
sS'reactiongifs'
p74
F0.0079645267884900003
sS'AntiJokes'
p75
F0.0075564457392599997
sS'community'
p76
F0.0093737794558000007
sS'nostalgia'
p77
F0.011657303370799999
sS'IdiotsFightingThings'
p78
F0.0075569724879000003
sS'conspiratard'
p79
F0.0077015512344299998
sS'ContagiousLaughter'
p80
F0.0085542236479299993
sS'Damnthatsinteresting'
p81
F0.0086560173956700005
sS'FiftyFifty'
p82
F0.0080121095075300006
sS'CrazyIdeas'
p83
F0.010018746734700001
sS'lego'
p84
F0.0074131876706999998
sS'OutOfTheLoop'
p85
F0.0101922734556
sS'onetruegod'
p86
F0.010099281068099999
sS'TheWire'
p87
F0.0074817357627000002
sS'gif'
p88
F0.0073824332965200003
sS'ifyoulikeblank'
p89
F0.012438097431800001
sS'misleadingthumbnails'
p90
F0.0109381291102
sS'Standup'
p91
F0.0074391988555099998
sS'Pareidolia'
p92
F0.0095809913132299997
sS'ObscureMedia'
p93
F0.011301369863
sS'explainlikeIAmA'
p94
F0.00858271304876
sS'alternativeart'
p95
F0.0072583990045600004
sS'batman'
p96
F0.0100274473925
sS'mildlyinfuriating'
p97
F0.0088646023072299993
sS'marvelstudios'
p98
F0.0085982658959500007
sS'oddlysatisfying'
p99
F0.0087149056770900006
sS'Unexpected'
p100
F0.0092508291604299995
sS'MapPorn'
p101
F0.0070071776224799997
sS'shittyaskreddit'
p102
F0.0083746898263
sS'IASIP'
p103
F0.0107969458363
sS'blunderyears'
p104
F0.0098422542807100003
sS'Marvel'
p105
F0.0077460141026100002
sS'calvinandhobbes'
p106
F0.0075807514831900003
sS'rage'
p107
F0.0076227660415099999
sS'thatHappened'
p108
F0.0082806352606799999
sS'Perfectfit'
p109
F0.0072861236184999997
sS'offbeat'
p110
F0.0071854136103700001
sS'behindthegifs'
p111
F0.0088797814207700002
sS'standupshots'
p112
F0.0077634011090600002
sS'ICanDrawThat'
p113
F0.0071845886625600004
sS'fullmoviesonyoutube'
p114
F0.012699322066299999
sS'AskScienceFiction'
p115
F0.0082172776265900006
sS'NewsOfTheStupid'
p116
F0.0072471847474600004
sS'awesome'
p117
F0.0081363070737999997
sS'Filmmakers'
p118
F0.0098805485916499992
sS'FanTheories'
p119
F0.013538710985000001
sS'tipofmytongue'
p120
F0.0146917011742
sS'southpark'
p121
F0.0117200100355
sS'HouseOfCards'
p122
F0.0070050528249900003
sS'DAE'
p123
F0.0074249767969499997
sS'HighQualityGifs'
p124
F0.0120239038088
sS'shittyama'
p125
F0.0088162218482000006
sS'TheWayWeWere'
p126
F0.0076388208794400001
sS'scifi'
p127
F0.0074370147102199996
sS'Sherlock'
p128
F0.0082933709449900007
sS'Whatcouldgowrong'
p129
F0.0093512082092000008
sS'wallpapers'
p130
F0.0070468852767099997
sS'firefly'
p131
F0.0081479565442299992
sS'MovieSuggestions'
p132
F0.022168340838200001
sS'notinteresting'
p133
F0.0090602303572700008
sS'AnimalsBeingJerks'
p134
F0.0071046682694000003
sS'Images'
p135
F0.0074653714696899997
sS'shittyreactiongifs'
p136
F0.010867704946099999
sS'comicbookmovies'
p137
F0.0072663216998800004
sS'comicbooks'
p138
F0.0072635182144500004
sS'whitepeoplegifs'
p139
F0.0089163788256099996
sS'TrueFilm'
p140
F0.0213356598985
sS'entertainment'
p141
F0.00896636221876
sS'HumanPorn'
p142
F0.0084012219959300003
sS'terriblefacebookmemes'
p143
F0.0077827741265999997
s.