(dp1
S'audioengineering'
p2
F0.015240641711199999
sS'Luthier'
p3
F0.033486539724200001
sS'everymanshouldknow'
p4
F0.0073448805086600002
sS'singing'
p5
F0.015078236130899999
sS'Bass'
p6
F0.0196527521241
sS'classicalmusic'
p7
F0.0075112669003500002
sS'Jazz'
p8
F0.016282612835700001
sS'socialskills'
p9
F0.0076738118381300003
sS'Guitar'
p10
F0.054975348565999997
sS'LearnUselessTalents'
p11
F0.0077173519836
sS'ifyoulikeblank'
p12
F0.0083555115429800007
sS'musictheory'
p13
F0.040646000433599998
sS'piano'
p14
F0.0110312721384
sS'MetalMemes'
p15
F0.0081459385039
sS'LetsTalkMusic'
p16
F0.013751611517
sS'beatles'
p17
F0.0083092485549099999
sS'YouShouldKnow'
p18
F0.0071129934299800001
sS'ukulele'
p19
F0.0094134685010900006
sS'howto'
p20
F0.0077287641268699997
sS'Metal'
p21
F0.0095878702292900003
sS'drums'
p22
F0.0097848819838699998
sS'pinkfloyd'
p23
F0.0100942126514
sS'gratefuldead'
p24
F0.0098011363636400003
sS'IWantToLearn'
p25
F0.012434099273800001
sS'rocksmith'
p26
F0.036497229583200001
sS'WeAreTheMusicMakers'
p27
F0.020484891075200001
sS'progmetal'
p28
F0.0099209424895400009
sS'guitarpedals'
p29
F0.042060180101000003
sS'mathrock'
p30
F0.0071583152988200002
s.