(dp1
S'climateskeptics'
p2
F0.0089312295325999994
sS'circlebroke'
p3
F0.021049451102800001
sS'PublicFreakout'
p4
F0.0073048408198899996
sS'PanicHistory'
p5
F0.031828275351600002
sS'ShitPoliticsSays'
p6
F0.0128644939966
sS'inthenews'
p7
F0.017270705220500001
sS'Conservative'
p8
F0.014914243102200001
sS'PurplePillDebate'
p9
F0.0072187687988799999
sS'PoliticalDiscussion'
p10
F0.018664119332799999
sS'whitepeoplegifs'
p11
F0.0071208417472599997
sS'Foodforthought'
p12
F0.0091205211726400007
sS'syriancivilwar'
p13
F0.0081575246132200002
sS'ShitRConservativeSays'
p14
F0.037059538274599998
sS'badlinguistics'
p15
F0.013998250218699999
sS'quityourbullshit'
p16
F0.0095213137666000005
sS'ProtectAndServe'
p17
F0.010576414595499999
sS'environment'
p18
F0.011388957662800001
sS'CCW'
p19
F0.0168440536789
sS'texas'
p20
F0.0077332529878500001
sS'MensRights'
p21
F0.0073547018780099997
sS'nononono'
p22
F0.0071639505632699997
sS'MilitaryPorn'
p23
F0.0071910112359600004
sS'BasicIncome'
p24
F0.0112187659357
sS'MosinNagant'
p25
F0.010443864229800001
sS'WhiteRights'
p26
F0.0108558444837
sS'lostgeneration'
p27
F0.0112748238309
sS'toosoon'
p28
F0.0074477545575800004
sS'magicskyfairy'
p29
F0.011504424778799999
sS'Braveryjerk'
p30
F0.0071606994171499998
sS'Liberal'
p31
F0.039948689756299997
sS'progressive'
p32
F0.0389746664668
sS'progun'
p33
F0.038822985672499997
sS'PropagandaPosters'
p34
F0.014382191095499999
sS'guns'
p35
F0.012215435869000001
sS'NewsOfTheWeird'
p36
F0.0126631599455
sS'shittyadviceanimals'
p37
F0.0100905562743
sS'SubredditDrama'
p38
F0.012012748222599999
sS'Libertarian'
p39
F0.0144711383425
sS'Anarcho_Capitalism'
p40
F0.013684098864999999
sS'TrueAtheism'
p41
F0.0099147195451700001
sS'badhistory'
p42
F0.024127310061599998
sS'energy'
p43
F0.0086302895322899996
sS'circlebroke2'
p44
F0.017206477732799999
sS'POLITIC'
p45
F0.0164603058995
sS'MarkMyWords'
p46
F0.0089491916859099994
sS'changemyview'
p47
F0.0075184829372200003
sS'OneY'
p48
F0.0090020176936199993
sS'Feminism'
p49
F0.0077693531779499999
sS'forwardsfromgrandma'
p50
F0.0165185045079
sS'no_sob_story'
p51
F0.0094456488076800002
sS'humor'
p52
F0.0070663655569300002
sS'skeptic'
p53
F0.0146619453358
sS'wikipedia'
p54
F0.00880969065973
sS'religion'
p55
F0.00748819794888
sS'Anticonsumption'
p56
F0.0088560885608899992
sS'Gunsforsale'
p57
F0.013572298590599999
sS'Republican'
p58
F0.0121535181237
sS'vexillology'
p59
F0.0086917157084700006
sS'Economics'
p60
F0.0087883874790200007
sS'FloridaMan'
p61
F0.0136803704223
sS'delusionalartists'
p62
F0.0079683988285799996
sS'conservatives'
p63
F0.0124280084874
sS'ainbow'
p64
F0.0082374062731000001
sS'lewronggeneration'
p65
F0.0097613353506800001
sS'longrange'
p66
F0.010437375745500001
sS'PoliticalHumor'
p67
F0.019641902725799999
sS'TheoryOfReddit'
p68
F0.0116022910853
sS'RedditDayOf'
p69
F0.0091144062032399997
sS'WarshipPorn'
p70
F0.0082459818308900003
sS'Ask_Politics'
p71
F0.0115358126722
sS'florida'
p72
F0.0078014184397200001
sS'ar15'
p73
F0.015669807455999999
sS'gunpolitics'
p74
F0.041488162345000003
sS'GunPorn'
p75
F0.012923297834199999
sS'ShitAmericansSay'
p76
F0.039612523784799999
sS'TrueReddit'
p77
F0.0087647778230700007
sS'AmIFreeToGo'
p78
F0.013040712468200001
sS'misc'
p79
F0.0088258471237200008
sS'conspiratard'
p80
F0.029894765064699999
sS'Firearms'
p81
F0.0260576333538
sS'Bad_Cop_No_Donut'
p82
F0.015055387714
sS'TheFacebookDelusion'
p83
F0.0117720922932
sS'MorbidReality'
p84
F0.0071351295657100001
sS'California'
p85
F0.0087763927753800007
sS'ak47'
p86
F0.0122448979592
sS'CombatFootage'
p87
F0.0089430894308900003
sS'collapse'
p88
F0.0136743886744
sS'occupywallstreet'
p89
F0.016715257531600001
sS'NeutralPolitics'
p90
F0.0128906939785
sS'SRSGaming'
p91
F0.0147163541419
sS'Colorado'
p92
F0.0076069730586400004
sS'SelfDrivingCars'
p93
F0.00754975978037
sS'worldpolitics'
p94
F0.013008373205700001
sS'offbeat'
p95
F0.0087481843391000007
sS'socialism'
p96
F0.016160196732799999
sS'knives'
p97
F0.0076980848666900002
sS'TheBluePill'
p98
F0.0176185291498
sS'gundeals'
p99
F0.0135615111398
sS'NewsOfTheStupid'
p100
F0.015878436059400002
sS'Glocks'
p101
F0.0122608211035
sS'urbanplanning'
p102
F0.0079597821533300001
sS'TrueAskReddit'
p103
F0.0074605987130499998
sS'blackladies'
p104
F0.0072545907957399999
sS'conspiracy'
p105
F0.0081277600121799996
sS'Infographics'
p106
F0.0085959885386800005
sS'AnythingGoesNews'
p107
F0.018940118614900001
sS'ShitRedditSays'
p108
F0.015336177127799999
sS'SRSsucks'
p109
F0.0136054421769
sS'Israel'
p110
F0.0071601941747599998
sS'MURICA'
p111
F0.0076792855565599996
sS'rage'
p112
F0.0079841818090800008
sS'AskSocialScience'
p113
F0.0077988436197400004
sS'gats'
p114
F0.015894765689200001
sS'TheWayWeWere'
p115
F0.0075513914137899998
sS'againstmensrights'
p116
F0.020104712041900001
sS'911truth'
p117
F0.0083501295709800007
sS'Frugal_Jerk'
p118
F0.0078508341511300001
sS'FutureWhatIf'
p119
F0.0076910215683000001
sS'economy'
p120
F0.0112485939258
sS'Anarchism'
p121
F0.0102354145343
sS'badphilosophy'
p122
F0.0177977703892
sS'ukpolitics'
p123
F0.0071421583015399996
sS'EnoughLibertarianSpam'
p124
F0.067055909412600007
sS'law'
p125
F0.0081003106968500008
sS'MachinePorn'
p126
F0.0079771401357300008
sS'HumanPorn'
p127
F0.0071033938437300003
sS'preppers'
p128
F0.0086488250652700001
sS'Shitstatistssay'
p129
F0.0188340807175
sS'reloading'
p130
F0.0106555478341
sS'HailCorporate'
p131
F0.0105204872647
s.