(dp1
S'GTA'
p2
F0.0093432995194900007
sS'gtaglitches'
p3
F0.017619367854699999
sS'RedditDads'
p4
F0.062857142857100007
sS'gtavcustoms'
p5
F0.021120563214999999
sS'GTAV'
p6
F0.0118245390973
sS'GrandTheftAutoV'
p7
F0.0086485633921300001
sS'gtaonline'
p8
F0.0207285787583
sS'chiliadmystery'
p9
F0.0081829626521200006
s.