(dp1
S'buildapc'
p2
F0.0093470497139799998
sS'computers'
p3
F0.0079407093700399993
sS'pcgaming'
p4
F0.0074909987192799997
sS'apple'
p5
F0.0156351358095
sS'watercooling'
p6
F0.0117239101717
sS'applehelp'
p7
F0.017158108795100002
sS'AppHookup'
p8
F0.0074417705615200001
sS'linuxquestions'
p9
F0.0089020771513400009
sS'jailbreak'
p10
F0.0133916732962
sS'editors'
p11
F0.0095992686271499997
sS'hardware'
p12
F0.018063745614699998
sS'buildapcsales'
p13
F0.014768897949
sS'chromeos'
p14
F0.0094486654977600001
sS'torrents'
p15
F0.0089843749999999993
sS'gamingpc'
p16
F0.0148852223816
sS'linux'
p17
F0.0103841145833
sS'webdev'
p18
F0.0075728155339800001
sS'pebble'
p19
F0.0088609772883700005
sS'macgaming'
p20
F0.0128244274809
sS'ipad'
p21
F0.0111407859596
sS'techsupportmacgyver'
p22
F0.0128021486124
sS'softwareswap'
p23
F0.0116260423348
sS'Piracy'
p24
F0.0080342795929300003
sS'CableManagement'
p25
F0.016837899543399999
sS'PleX'
p26
F0.010792818236800001
sS'cyanogenmod'
p27
F0.0072554415811900003
sS'audioengineering'
p28
F0.0093577487545400007
sS'linux4noobs'
p29
F0.0081872572688100002
sS'unixporn'
p30
F0.012808988764000001
sS'MechanicalKeyboards'
p31
F0.013289615961500001
sS'AndroidQuestions'
p32
F0.0082242990654200002
sS'audiophile'
p33
F0.0097941359950100004
sS'shittybattlestations'
p34
F0.011985181956899999
sS'usenet'
p35
F0.0096120837624400005
sS'SuggestALaptop'
p36
F0.0082084022117100003
sS'Nexus7'
p37
F0.0088954781319499996
sS'Ubuntu'
p38
F0.012178733411699999
sS'web_design'
p39
F0.0087822936357900006
sS'windows8'
p40
F0.0088270991945299995
sS'iphone'
p41
F0.0107233691543
sS'iOSthemes'
p42
F0.012495816133
sS'overclocking'
p43
F0.0152682448522
sS'Filmmakers'
p44
F0.0072402494450900003
sS'raspberry_pi'
p45
F0.0105215595146
sS'androidthemes'
p46
F0.0074410514109000004
sS'iOSProgramming'
p47
F0.011900142284299999
sS'HomeNetworking'
p48
F0.0090975788701400002
sS'cordcutters'
p49
F0.0084467148854400001
sS'mac'
p50
F0.023005541951300001
sS'emulation'
p51
F0.0107134447846
sS'homelab'
p52
F0.0116402116402
sS'htpc'
p53
F0.0094240837696300001
sS'tmobile'
p54
F0.0078296009429199998
sS'AlienBlue'
p55
F0.00864014443227
sS'techsupportgore'
p56
F0.012438106555800001
sS'hardwareswap'
p57
F0.019806510655000002
sS'trackers'
p58
F0.0079428916147199994
sS'windows'
p59
F0.0171503957784
sS'headphones'
p60
F0.0089935581025699998
sS'battlestations'
p61
F0.014027875036699999
sS'buildapcforme'
p62
F0.0099028576817900005
sS'softwaregore'
p63
F0.010677183532099999
sS'PickAnAndroidForMe'
p64
F0.00721775840937
sS'androidcirclejerk'
p65
F0.0090799031477000001
sS'techsupport'
p66
F0.0072605002008500003
sS'hacking'
p67
F0.0071127090823799996
sS'hometheater'
p68
F0.0075099529496899997
sS'DataHoarder'
p69
F0.00913022585296
sS'xbmc'
p70
F0.0110179640719
sS'nexus4'
p71
F0.0079328895778200004
s.