(dp1
S'IDAP'
p2
F0.0071676559525099999
sS'FancyFollicles'
p3
F0.056743083724500001
sS'awwwtf'
p4
F0.0081792621623900004
sS'Awwducational'
p5
F0.0083665851460900005
sS'DoesAnybodyElse'
p6
F0.0081685510783499997
sS'pettyrevenge'
p7
F0.0070475382557299996
sS'ABraThatFits'
p8
F0.018600823045299999
sS'uglyduckling'
p9
F0.011267872360599999
sS'Pets'
p10
F0.013978347266
sS'RandomActsofMakeup'
p11
F0.023536220700299999
sS'BeardPorn'
p12
F0.0081193767829700007
sS'TalesFromRetail'
p13
F0.00714164257779
sS'BabyBumps'
p14
F0.0092565808504500007
sS'Advice'
p15
F0.0074096542161399999
sS'nostalgia'
p16
F0.0077019150707700003
sS'harrypotter'
p17
F0.0080794815428099995
sS'malehairadvice'
p18
F0.0176276945949
sS'offmychest'
p19
F0.0082747750705999996
sS'Anxiety'
p20
F0.0097748815165900008
sS'TalesFromYourServer'
p21
F0.0077342121191700001
sS'childfree'
p22
F0.0096942094990199994
sS'recipes'
p23
F0.0096997690531200002
sS'vegan'
p24
F0.0072442428882699998
sS'xxketo'
p25
F0.0088283191908800004
sS'wedding'
p26
F0.012273310130099999
sS'makeupexchange'
p27
F0.015784858228599999
sS'beards'
p28
F0.0073465998019599998
sS'PrettyGirlsUglyFaces'
p29
F0.0099315068493199994
sS'Rabbits'
p30
F0.00825396825397
sS'creepyPMs'
p31
F0.0093646354945699992
sS'gardening'
p32
F0.0078414026057600002
sS'AskWomen'
p33
F0.0139725776726
sS'tea'
p34
F0.0074485278617100002
sS'Rateme'
p35
F0.0083943176926399993
sS'tumblr'
p36
F0.0073193046660600001
sS'TwoXChromosomes'
p37
F0.0079400598783900007
sS'entwives'
p38
F0.00800193986421
sS'Baking'
p39
F0.014470886770499999
sS'LongDistance'
p40
F0.00745156482861
sS'popping'
p41
F0.00922023182297
sS'cosplay'
p42
F0.0071729957805900003
sS'shittyfoodporn'
p43
F0.0070783037350699999
sS'InteriorDesign'
p44
F0.0102797562229
sS'ExpectationVsReality'
p45
F0.0095530535653399994
sS'disney'
p46
F0.0085399122286800005
sS'tattoos'
p47
F0.0099048478385699995
sS'LetsNotMeet'
p48
F0.0077731317679899997
sS'delusionalartists'
p49
F0.0070031124944399999
sS'Frugal'
p50
F0.0071073103763900003
sS'LadyBoners'
p51
F0.0181968243987
sS'ThriftStoreHauls'
p52
F0.0091915464609200002
sS'braswap'
p53
F0.0070170413862200003
sS'vegetarian'
p54
F0.0099711770662900007
sS'piercing'
p55
F0.019661981258400001
sS'relationship_advice'
p56
F0.0079551697615600006
sS'Stretched'
p57
F0.0087064676616900004
sS'MakeupAddicts'
p58
F0.0226850493791
sS'amiugly'
p59
F0.0091983926041200002
sS'weddingplanning'
p60
F0.014300438031399999
sS'xxfitness'
p61
F0.015990979447500001
sS'confession'
p62
F0.0081057213145800007
sS'rant'
p63
F0.0083075296427800004
sS'TrollXChromosomes'
p64
F0.0129356568365
sS'femalefashionadvice'
p65
F0.0265191062852
sS'BeautyBoxes'
p66
F0.013701707097899999
sS'loseit'
p67
F0.0102798859575
sS'EatCheapAndHealthy'
p68
F0.0116152450091
sS'cats'
p69
F0.0109998858143
sS'PenmanshipPorn'
p70
F0.0074128984432900004
sS'catpictures'
p71
F0.0085054678007300006
sS'firstimpression'
p72
F0.0123734533183
sS'ketorecipes'
p73
F0.0071086807928900002
sS'raisedbynarcissists'
p74
F0.0096088343910199995
sS'dogs'
p75
F0.0103317868143
sS'happy'
p76
F0.011309818336
sS'TrollYChromosome'
p77
F0.0087534626038799999
sS'Indiemakeupandmore'
p78
F0.013993659123200001
sS'MakeupAddiction'
p79
F0.027837383286000002
sS'SkincareAddiction'
p80
F0.027811197224500001
sS'breakingmom'
p81
F0.0080059777967500002
sS'somethingimade'
p82
F0.0096105716287899993
sS'namenerds'
p83
F0.0083178150217300007
sS'introvert'
p84
F0.0084136454030899997
sS'redditgetsdrawn'
p85
F0.0093397537407500005
sS'curlyhair'
p86
F0.031111513068600001
sS'TheGirlSurvivalGuide'
p87
F0.028999802722399999
sS'AskMen'
p88
F0.0070368705036
sS'ghettoglamourshots'
p89
F0.0082503811317400002
sS'blunderyears'
p90
F0.0106837606838
sS'Random_Acts_Of_Amazon'
p91
F0.0088237337594699993
sS'fitmeals'
p92
F0.0073982737361300002
sS'lookatmydog'
p93
F0.0085720730882000006
sS'Cooking'
p94
F0.0081711127132899995
sS'bigboobproblems'
p95
F0.016160779032399999
sS'RandomActsOfPolish'
p96
F0.0106810930781
sS'Dogtraining'
p97
F0.0083756140774699991
sS'shorthairedhotties'
p98
F0.0105347736809
sS'tattoo'
p99
F0.0081308240453100006
sS'yoga'
p100
F0.0085378047842499995
sS'pitbulls'
p101
F0.0079607046070499995
sS'Parenting'
p102
F0.0077338299820099996
sS'badtattoos'
p103
F0.0096579769080000002
sS'slowcooking'
p104
F0.0073567239427899996
sS'RedditLaqueristas'
p105
F0.0241610738255
sS'Dreams'
p106
F0.0074497397693599997
sS'knitting'
p107
F0.00986012382481
sS'birthcontrol'
p108
F0.013932427725499999
sS'sewing'
p109
F0.0150612661675
sS'budgetfood'
p110
F0.0078289936664300008
sS'Mommit'
p111
F0.010005717552900001
sS'progresspics'
p112
F0.0112695670114
sS'crochet'
p113
F0.0101175420324
sS'dogpictures'
p114
F0.0090675328190600001
sS'thesims'
p115
F0.0104693770721
sS'short'
p116
F0.0072610294117599998
sS'GirlGamers'
p117
F0.0077032625582599996
sS'HumanPorn'
p118
F0.0074566075568599996
sS'crafts'
p119
F0.0145498117083
sS'AsianBeauty'
p120
F0.0119450317125
sS'AmericanHorrorStory'
p121
F0.0088868998145899998
s.