(dp1
S'canada'
p2
F0.021496675997199999
sS'CanadaPolitics'
p3
F0.015745148297300001
sS'canadaguns'
p4
F0.0079283005859999995
sS'Habs'
p5
F0.0115084258118
sS'CanadianForces'
p6
F0.016773733047799999
sS'Torontobluejays'
p7
F0.0081706134884400004
sS'leafs'
p8
F0.0091371612501299996
sS'PersonalFinanceCanada'
p9
F0.013760932944600001
s.