(dp1
S'MapPorn'
p2
F0.014356471179399999
sS'ABraThatFits'
p3
F0.0085931905474900001
sS'Shitty_Car_Mods'
p4
F0.0103373398171
sS'uglyduckling'
p5
F0.0141124586549
sS'KitchenConfidential'
p6
F0.0080424267148399998
sS'BuyItForLife'
p7
F0.0138986335238
sS'SampleSize'
p8
F0.0076340774955099997
sS'spiders'
p9
F0.0080185553346599995
sS'financialindependence'
p10
F0.0071147249396500004
sS'relationships'
p11
F0.011665989536300001
sS'AskMen'
p12
F0.0144558009236
sS'Showerthoughts'
p13
F0.0092746802095499993
sS'HistoryPorn'
p14
F0.0181575001013
sS'holdmybeer'
p15
F0.0167161436245
sS'ImaginaryMonsters'
p16
F0.0102349223794
sS'seinfeld'
p17
F0.0075720736366799999
sS'YouShouldKnow'
p18
F0.024245993766699999
sS'horror'
p19
F0.0077770576798399998
sS'UpliftingNews'
p20
F0.018924966673000001
sS'PandR'
p21
F0.0125640601752
sS'Jokes'
p22
F0.010279980008400001
sS'inthenews'
p23
F0.00865985235662
sS'3amjokes'
p24
F0.00869304556355
sS'Military'
p25
F0.0108164326573
sS'photoshopbattles'
p26
F0.0106348818989
sS'IWantToLearn'
p27
F0.017130533854199999
sS'Celebs'
p28
F0.014216722004200001
sS'CrappyDesign'
p29
F0.017101079145699999
sS'NewsOfTheWeird'
p30
F0.0081462865066299992
sS'math'
p31
F0.0083984087225599992
sS'techsupport'
p32
F0.0071366091387499997
sS'Libertarian'
p33
F0.0114258281325
sS'Seattle'
p34
F0.0078814218993300007
sS'everymanshouldknow'
p35
F0.015288591873400001
sS'Paleo'
p36
F0.0086662971733799995
sS'pcgaming'
p37
F0.0073610599926400002
sS'EatCheapAndHealthy'
p38
F0.016216216216200001
sS'tea'
p39
F0.010829906758600001
sS'blackpeoplegifs'
p40
F0.015454822026200001
sS'redditgetsdrawn'
p41
F0.011841988982800001
sS'polandball'
p42
F0.0104732789855
sS'POLITIC'
p43
F0.0078142610263699994
sS'AmISexy'
p44
F0.0072841815139299999
sS'fatpeoplestories'
p45
F0.0130412102243
sS'OneY'
p46
F0.011336095692299999
sS'LongDistance'
p47
F0.0085216123787600004
sS'depression'
p48
F0.0123890462701
sS'forwardsfromgrandma'
p49
F0.0152572122958
sS'no_sob_story'
p50
F0.0089570838850400007
sS'movies'
p51
F0.0070279150923000001
sS'skeptic'
p52
F0.014039539928800001
sS'InteriorDesign'
p53
F0.0112049853197
sS'socialskills'
p54
F0.0177727595868
sS'Anticonsumption'
p55
F0.0089853352547299998
sS'guns'
p56
F0.0076426777518000004
sS'disney'
p57
F0.0119688207191
sS'tattoos'
p58
F0.015120967741900001
sS'Economics'
p59
F0.011558734939799999
sS'LetsNotMeet'
p60
F0.010186678958299999
sS'legaladvice'
p61
F0.0078191439100400006
sS'malelivingspace'
p62
F0.0071745369162499999
sS'answers'
p63
F0.017099287996900001
sS'lgbt'
p64
F0.0146300621337
sS'baseball'
p65
F0.0077981472071299998
sS'Random_Acts_Of_Pizza'
p66
F0.0079896070152600009
sS'gentlemanboners'
p67
F0.017393853520299998
sS'doctorwho'
p68
F0.0111284316273
sS'TopGear'
p69
F0.0114950998453
sS'sanfrancisco'
p70
F0.0075911472254900003
sS'ThriftStoreHauls'
p71
F0.0148661487733
sS'Breadit'
p72
F0.0072373540855999998
sS'environment'
p73
F0.017862977889100001
sS'vegetarian'
p74
F0.010302801859499999
sS'personalfinance'
p75
F0.0072717522891799996
sS'creepy'
p76
F0.011958410377
sS'Hair'
p77
F0.011309818336
sS'IWantOut'
p78
F0.0106144592523
sS'whatsthisbug'
p79
F0.011520928305000001
sS'QuotesPorn'
p80
F0.022996357012799999
sS'apple'
p81
F0.0090188032094100003
sS'TrueReddit'
p82
F0.019469300965700001
sS'Assistance'
p83
F0.011613175675699999
sS'confession'
p84
F0.0216087133788
sS'AntiJokes'
p85
F0.0080402712717599998
sS'KingOfTheHill'
p86
F0.0075931345408499999
sS'IdiotsFightingThings'
p87
F0.0147109984593
sS'Health'
p88
F0.016080501159200001
sS'gamernews'
p89
F0.0077679276748899998
sS'ContagiousLaughter'
p90
F0.015660809778499998
sS'HIMYM'
p91
F0.010808240887500001
sS'FiftyFifty'
p92
F0.0130813602684
sS'eldertrees'
p93
F0.0075787019043899997
sS'AskHistorians'
p94
F0.0089898099157400008
sS'Drugs'
p95
F0.0099076743422299995
sS'OutOfTheLoop'
p96
F0.015351608065300001
sS'stopsmoking'
p97
F0.00945547583292
sS'sports'
p98
F0.00753505895486
sS'ifyoulikeblank'
p99
F0.010036188178499999
sS'firstimpression'
p100
F0.0125433526012
sS'WebGames'
p101
F0.0091284231586799998
sS'Pareidolia'
p102
F0.020128867351800001
sS'tipofmytongue'
p103
F0.011614872439
sS'FreeKarma'
p104
F0.0072290754742000002
sS'cordcutters'
p105
F0.010029354207400001
sS'LifeProTips'
p106
F0.012741579692499999
sS'TheGirlSurvivalGuide'
p107
F0.017183434518600001
sS'FanTheories'
p108
F0.0098294098792699996
sS'ghettoglamourshots'
p109
F0.012765357218399999
sS'popping'
p110
F0.013866231647599999
sS'EDC'
p111
F0.0085919033504699999
sS'showerbeer'
p112
F0.010782585107800001
sS'techsupportgore'
p113
F0.012255636593699999
sS'science'
p114
F0.0096868966675100008
sS'firstworldproblems'
p115
F0.021559131385699998
sS'Entrepreneur'
p116
F0.0078829139218900002
sS'standupshots'
p117
F0.021694869997700001
sS'Meditation'
p118
F0.0137455387287
sS'history'
p119
F0.0110256647827
sS'AskScienceFiction'
p120
F0.0093466424682399993
sS'NewsOfTheStupid'
p121
F0.012425406686800001
sS'awesome'
p122
F0.017889874624200001
sS'DecidingToBeBetter'
p123
F0.017079568638899999
sS'Glitch_in_the_Matrix'
p124
F0.011758258183400001
sS'gadgets'
p125
F0.0112134624107
sS'Infographics'
p126
F0.0101161216784
sS'TalesFromYourServer'
p127
F0.0117942984908
sS'CampingandHiking'
p128
F0.0092064076597299996
sS'Pizza'
p129
F0.0095758354755800003
sS'HouseOfCards'
p130
F0.00703851901846
sS'hardbodies'
p131
F0.0127740478878
sS'techsupportmacgyver'
p132
F0.0088080959520199995
sS'MURICA'
p133
F0.017563775783400001
sS'travel'
p134
F0.012026763784199999
sS'RealGirls'
p135
F0.0102403029064
sS'scifi'
p136
F0.0160901045857
sS'RedditLaqueristas'
p137
F0.017896227629700001
sS'spaceporn'
p138
F0.015274900014499999
sS'nyc'
p139
F0.010578890777299999
sS'wheredidthesodago'
p140
F0.017449664429500002
sS'BasicIncome'
p141
F0.0076448309720899997
sS'asmr'
p142
F0.0098586634095300003
sS'askscience'
p143
F0.0083569086540199993
sS'philosophy'
p144
F0.0087732167483300007
sS'budgetfood'
p145
F0.011872526557
sS'Mommit'
p146
F0.0098659991164799996
sS'Images'
p147
F0.0188335783799
sS'piercing'
p148
F0.0077703147635999996
sS'vegan'
p149
F0.0090831960872399999
sS'dogpictures'
p150
F0.022283964617799999
sS'MachinePorn'
p151
F0.0085961824827399998
sS'dating_advice'
p152
F0.0087971354051499997
sS'listentothis'
p153
F0.0081157797945099995
sS'crafts'
p154
F0.0145015924646
sS'tall'
p155
F0.0141326160284
sS'ImGoingToHellForThis'
p156
F0.0129845891324
sS'needadvice'
p157
F0.013991605036999999
sS'DoesAnybodyElse'
p158
F0.026486791919799999
sS'pettyrevenge'
p159
F0.018461907330800002
sS'malehairadvice'
p160
F0.0087826519987300004
sS'CityPorn'
p161
F0.0130343854871
sS'Fitness'
p162
F0.0082467817437099997
sS'zen'
p163
F0.0071634489385900002
sS'actuallesbians'
p164
F0.0084140495059200002
sS'DeepIntoYouTube'
p165
F0.0107032936745
sS'dataisbeautiful'
p166
F0.0121398354715
sS'linguistics'
p167
F0.0077795786061600003
sS'BabyBumps'
p168
F0.010715690129800001
sS'beards'
p169
F0.0161271405114
sS'nostalgia'
p170
F0.024854220437800001
sS'Documentaries'
p171
F0.010679668001599999
sS'writing'
p172
F0.011474943052400001
sS'AndroidQuestions'
p173
F0.00717743990487
sS'WTF'
p174
F0.0072724363995099999
sS'wallpaper'
p175
F0.0129189290395
sS'texas'
p176
F0.0086972499540600001
sS'MensRights'
p177
F0.0141310798971
sS'MilitaryPorn'
p178
F0.0100994760422
sS'Frisson'
p179
F0.017818772601
sS'electronicmusic'
p180
F0.0071284142705399997
sS'childfree'
p181
F0.0147360289967
sS'food'
p182
F0.0127937131631
sS'whitepeoplegifs'
p183
F0.016222775755300001
sS'NoStupidQuestions'
p184
F0.0177574835109
sS'creepyPMs'
p185
F0.0190328450822
sS'penpals'
p186
F0.0071073652431000002
sS'freebies'
p187
F0.015261627906999999
sS'PropagandaPosters'
p188
F0.0096480877351299999
sS'SubredditDrama'
p189
F0.0132331643736
sS'minimalism'
p190
F0.016067329762799998
sS'economy'
p191
F0.0096317700229700005
sS'mildlyinteresting'
p192
F0.0108240135543
sS'TrueAtheism'
p193
F0.0101005242653
sS'energy'
p194
F0.0097424164145000006
sS'ADHD'
p195
F0.0082995290716699997
sS'Rateme'
p196
F0.0096244715244999997
sS'books'
p197
F0.0089023250471199997
sS'malegrooming'
p198
F0.0075676447490500001
sS'TwoXChromosomes'
p199
F0.012583282858899999
sS'Cinemagraphs'
p200
F0.014426273102
sS'canada'
p201
F0.0121320565507
sS'DunderMifflin'
p202
F0.011860268101900001
sS'psychology'
p203
F0.018680578929700001
sS'space'
p204
F0.0127361071956
sS'shittyfoodporn'
p205
F0.0176852148114
sS'malefashionadvice'
p206
F0.0088876473083599992
sS'LearnUselessTalents'
p207
F0.015261005990299999
sS'RoomPorn'
p208
F0.0199784017279
sS'medicine'
p209
F0.0083544440252299994
sS'memes'
p210
F0.0130060450632
sS'Astronomy'
p211
F0.010462335591899999
sS'CatsStandingUp'
p212
F0.0073633531577500001
sS'ass'
p213
F0.0070127547418500002
sS'bestof'
p214
F0.0129443148372
sS'Cyberpunk'
p215
F0.0102075371293
sS'cars'
p216
F0.0085335481980699998
sS'LadyBoners'
p217
F0.0237381397482
sS'corgi'
p218
F0.013026676639199999
sS'Roadcam'
p219
F0.00759888289927
sS'GamePhysics'
p220
F0.0126876611232
sS'youtubehaiku'
p221
F0.0107393907837
sS'PoliticalHumor'
p222
F0.012598085091099999
sS'recipes'
p223
F0.013383726100499999
sS'TalesFromThePizzaGuy'
p224
F0.0071687236715700002
sS'programming'
p225
F0.0078828199250900004
sS'howtonotgiveafuck'
p226
F0.021261483094999999
sS'whatstheword'
p227
F0.011060315587699999
sS'weddingplanning'
p228
F0.0102292202228
sS'misc'
p229
F0.0148640101202
sS'patientgamers'
p230
F0.010478786846099999
sS'rant'
p231
F0.012231851988399999
sS'Buddhism'
p232
F0.011662487608599999
sS'TheLastAirbender'
p233
F0.0070953250624499996
sS'OldSchoolCool'
p234
F0.0133776432487
sS'lego'
p235
F0.0108462124887
sS'ANormalDayInRussia'
p236
F0.0130528586839
sS'seduction'
p237
F0.0110404917495
sS'onetruegod'
p238
F0.0086533981228799992
sS'TheFacebookDelusion'
p239
F0.0075876095118900004
sS'Autos'
p240
F0.0119066393313
sS'PenmanshipPorn'
p241
F0.018490409824799998
sS'shittyreactiongifs'
p242
F0.0149933065596
sS'alternativeart'
p243
F0.0095039406583199999
sS'shittyadvice'
p244
F0.011958050901600001
sS'explainlikeimfive'
p245
F0.0077184679522499999
sS'dogs'
p246
F0.0169188734763
sS'nutrition'
p247
F0.0079165388155900008
sS'TrollYChromosome'
p248
F0.0225365619755
sS'collapse'
p249
F0.0080734525882500009
sS'mildlyinfuriating'
p250
F0.019435196542299998
sS'short'
p251
F0.0078762709437199992
sS'Awwducational'
p252
F0.022201665124899999
sS'skyrim'
p253
F0.0091453994933
sS'sex'
p254
F0.012748133309100001
sS'toronto'
p255
F0.0071676450556200002
sS'television'
p256
F0.0079643351183999993
sS'bisexual'
p257
F0.0074814711229199997
sS'worldpolitics'
p258
F0.017993685091500001
sS'Justrolledintotheshop'
p259
F0.011241593897399999
sS'PerfectTiming'
p260
F0.0211917836079
sS'ChronicPain'
p261
F0.0073495208856600002
sS'FoodPorn'
p262
F0.017903369662199999
sS'boston'
p263
F0.0075751091329300003
sS'teenagers'
p264
F0.0112078059072
sS'conspiracy'
p265
F0.0145006746486
sS'AnythingGoesNews'
p266
F0.0086620926243599992
sS'HighQualityGifs'
p267
F0.013921248835
sS'self'
p268
F0.031380641011900003
sS'Parenting'
p269
F0.0147987257457
sS'DaftPunk'
p270
F0.0075883645077500003
sS'britishproblems'
p271
F0.010295582862799999
sS'UnresolvedMysteries'
p272
F0.0071847230100200001
sS'conspiratard'
p273
F0.0116478722911
sS'startrek'
p274
F0.0108856088561
sS'firefly'
p275
F0.013212795549400001
sS'aww'
p276
F0.0089703358555300004
sS'teslamotors'
p277
F0.0071855435401299997
sS'Futurology'
p278
F0.010198982664299999
sS'sewing'
p279
F0.011495798319299999
sS'Games'
p280
F0.0072571055962600004
sS'progresspics'
p281
F0.020885083805599999
sS'crochet'
p282
F0.010654397966
sS'beyondthebump'
p283
F0.0076858580212399996
sS'chicago'
p284
F0.0080895871636300007
sS'cableporn'
p285
F0.00774322467841
sS'TumblrInAction'
p286
F0.0131778828935
sS'secretsanta'
p287
F0.0119188398581
sS'HailCorporate'
p288
F0.010324004934699999
sS'IDAP'
p289
F0.0090825764519600009
sS'Heavymind'
p290
F0.0107379198402
sS'Psychonaut'
p291
F0.0095805390094599995
sS'adventuretime'
p292
F0.0109464152816
sS'fffffffuuuuuuuuuuuu'
p293
F0.017507404222800001
sS'PoliticalDiscussion'
p294
F0.0083958467882199999
sS'Foodforthought'
p295
F0.0168679508933
sS'RandomActsofMakeup'
p296
F0.0096344781937200002
sS'languagelearning'
p297
F0.0080750504690700001
sS'TheoryOfReddit'
p298
F0.0116173120729
sS'TheBluePill'
p299
F0.0106408706167
sS'harrypotter'
p300
F0.0164797375939
sS'wicked_edge'
p301
F0.0075240290523199997
sS'booksuggestions'
p302
F0.010232983097300001
sS'whowouldwin'
p303
F0.0078870277172699999
sS'GrandTheftAutoV'
p304
F0.0081981434891999997
sS'Anxiety'
p305
F0.016195856873799999
sS'arresteddevelopment'
p306
F0.013142523364499999
sS'shutupandtakemymoney'
p307
F0.018123928484000001
sS'webcomics'
p308
F0.0138638168821
sS'photography'
p309
F0.0097608473650500002
sS'JusticePorn'
p310
F0.0147587183289
sS'trees'
p311
F0.0078905357189599998
sS'geek'
p312
F0.022782799902300001
sS'lostgeneration'
p313
F0.0088009575441799996
sS'wedding'
p314
F0.00897244178594
sS'pugs'
p315
F0.0074475835829399999
sS'Conservative'
p316
F0.0086702478560000008
sS'PrettyGirlsUglyFaces'
p317
F0.0143517888723
sS'AbandonedPorn'
p318
F0.015625493229
sS'Rabbits'
p319
F0.0094326241134800003
sS'motorcycles'
p320
F0.0095939312806800001
sS'progressive'
p321
F0.0103560359816
sS'dadjokes'
p322
F0.0154267310789
sS'Marijuana'
p323
F0.0082270096911399998
sS'vexillology'
p324
F0.0086657101865100002
sS'WeAreTheMusicMakers'
p325
F0.0071159480954400001
sS'thatHappened'
p326
F0.0168568817685
sS'futurama'
p327
F0.0143378407384
sS'nsfw'
p328
F0.010186723633199999
sS'cringe'
p329
F0.012457001636399999
sS'StarWars'
p330
F0.0119932055659
sS'AskWomen'
p331
F0.0168481274258
sS'TheSimpsons'
p332
F0.012927938712000001
sS'Christianity'
p333
F0.010338149078699999
sS'see'
p334
F0.0083854966339900004
sS'glitch_art'
p335
F0.0078843626806799991
sS'college'
p336
F0.0078254412520699992
sS'changemyview'
p337
F0.012799614714899999
sS'entwives'
p338
F0.0075804319083300001
sS'PS3'
p339
F0.0077553823161100001
sS'Android'
p340
F0.0089939857845799994
sS'firstworldanarchists'
p341
F0.019665659421000001
sS'nononono'
p342
F0.016649621599500002
sS'cosplay'
p343
F0.011582577404599999
sS'truegaming'
p344
F0.00922926138684
sS'lotr'
p345
F0.010270989041199999
sS'AmericanHorrorStory'
p346
F0.0078937543335600002
sS'wikipedia'
p347
F0.020645320806000001
sS'breakingbad'
p348
F0.013686616349500001
sS'outside'
p349
F0.014337641357000001
sS'AskCulinary'
p350
F0.010421623679499999
sS'foodhacks'
p351
F0.013556174559
sS'catpictures'
p352
F0.0186785818928
sS'pcmasterrace'
p353
F0.00713090427796
sS'europe'
p354
F0.010038507502300001
sS'StandUpComedy'
p355
F0.0087702694176300007
sS'jobs'
p356
F0.0114195361911
sS'LucidDreaming'
p357
F0.0088571022592699999
sS'tonightsdinner'
p358
F0.0085753098998100005
sS'casualiama'
p359
F0.0154499151104
sS'facepalm'
p360
F0.021373167736600002
sS'celebnsfw'
p361
F0.0080649840441000004
sS'NotTimAndEric'
p362
F0.0071750954750600003
sS'bigboobproblems'
p363
F0.010080487614300001
sS'news'
p364
F0.0072917992304800004
sS'Unexpected'
p365
F0.020287866265399999
sS'RedditDayOf'
p366
F0.0145744836678
sS'fitmeals'
p367
F0.0106754900737
sS'relationship_advice'
p368
F0.012128850961800001
sS'lookatmydog'
p369
F0.013616878204600001
sS'watchpeopledie'
p370
F0.0095373452519
sS'Sherlock'
p371
F0.0079312310030399992
sS'GetMotivated'
p372
F0.016952415173800001
sS'drunk'
p373
F0.018117934616599999
sS'xxfitness'
p374
F0.0116422649497
sS'reactiongifs'
p375
F0.016899514657
sS'community'
p376
F0.0114201618837
sS'MMFB'
p377
F0.0141422257935
sS'EarthPorn'
p378
F0.0095994039773099997
sS'linux'
p379
F0.0073285786488500003
sS'femalefashionadvice'
p380
F0.0128725543975
sS'ainbow'
p381
F0.0113909631692
sS'Guitar'
p382
F0.0071386484159000002
sS'beer'
p383
F0.0083402604599599993
sS'California'
p384
F0.0088483146067399997
sS'ireland'
p385
F0.0073866764544000003
sS'ketorecipes'
p386
F0.0081893143567200004
sS'web_design'
p387
F0.0079774908970500005
sS'confessions'
p388
F0.0098886660673499997
sS'fatlogic'
p389
F0.015752239413699999
sS'MakeupAddiction'
p390
F0.0157560286024
sS'Aquariums'
p391
F0.00724500426177
sS'somethingimade'
p392
F0.0247304730473
sS'WritingPrompts'
p393
F0.0075721913625900004
sS'curlyhair'
p394
F0.0115663322185
sS'aviation'
p395
F0.0090683907804700002
sS'Perfectfit'
p396
F0.011500936874100001
sS'offbeat'
p397
F0.029070576125999999
sS'softwaregore'
p398
F0.0078166053599600001
sS'socialism'
p399
F0.0084010081209699994
sS'Needafriend'
p400
F0.0081247542917000006
sS'OnOff'
p401
F0.00757621674041
sS'ICanDrawThat'
p402
F0.0089570936423399999
sS'C25K'
p403
F0.0092108017584300005
sS'stopdrinking'
p404
F0.0083144368858700003
sS'Cooking'
p405
F0.017038274056700001
sS'IASIP'
p406
F0.011008717310100001
sS'hardware'
p407
F0.0085157486762399998
sS'LosAngeles'
p408
F0.0092786590841100001
sS'DIY'
p409
F0.012433666246099999
sS'technology'
p410
F0.0079170739055300001
sS'shorthairedhotties'
p411
F0.014191372769399999
sS'southpark'
p412
F0.012374571217899999
sS'productivity'
p413
F0.0090985549353899998
sS'selfimprovement'
p414
F0.0110775427996
sS'pitbulls'
p415
F0.0117211182216
sS'transpassing'
p416
F0.00744680851064
sS'daddit'
p417
F0.013291208192600001
sS'itookapicture'
p418
F0.022689075630299999
sS'Whatcouldgowrong'
p419
F0.018201284796599999
sS'talesfromtechsupport'
p420
F0.0104982432375
sS'Anarchism'
p421
F0.0072898004571599999
sS'knitting'
p422
F0.00995794161306
sS'notinteresting'
p423
F0.016703456001100001
sS'AnimalsBeingJerks'
p424
F0.0223885453954
sS'running'
p425
F0.0106391043946
sS'yoga'
p426
F0.00920340774827
sS'Physics'
p427
F0.0097348273589199993
sS'thesims'
p428
F0.0087632926348999995
sS'HumanPorn'
p429
F0.024224961314799998
sS'Fantasy'
p430
F0.0081176344928299993
sS'Portland'
p431
F0.00831440779091
sS'drawing'
p432
F0.0097777329771700002
sS'EmmaWatson'
p433
F0.010413121894800001
sS'FancyFollicles'
p434
F0.022468415937799999
sS'awwwtf'
p435
F0.017906992578500001
sS'circlebroke'
p436
F0.0085194425850399994
sS'PublicFreakout'
p437
F0.00968630947556
sS'ArtisanVideos'
p438
F0.0093339815264900008
sS'rickandmorty'
p439
F0.0077039216445400002
sS'quotes'
p440
F0.0166363400052
sS'woodworking'
p441
F0.0091005361043099992
sS'perfectloops'
p442
F0.016344641653600001
sS'Pets'
p443
F0.0180134106148
sS'InternetIsBeautiful'
p444
F0.011759206509199999
sS'carporn'
p445
F0.011616719523900001
sS'BeardPorn'
p446
F0.0089373565103299992
sS'TalesFromRetail'
p447
F0.0137814973165
sS'WouldYouRather'
p448
F0.0094227099236600005
sS'quityourbullshit'
p449
F0.020197486535
sS'Advice'
p450
F0.010307698202899999
sS'ProtectAndServe'
p451
F0.010701158516699999
sS'woahdude'
p452
F0.0160590756695
sS'Fallout'
p453
F0.0084240313452299993
sS'offmychest'
p454
F0.017708811089
sS'australia'
p455
F0.010114413038600001
sS'slowcooking'
p456
F0.0139825776189
sS'NSFW_GIF'
p457
F0.0081447293728599997
sS'howto'
p458
F0.0179752977503
sS'cringepics'
p459
F0.0141544443642
sS'toosoon'
p460
F0.0119490695397
sS'bodyweightfitness'
p461
F0.0083135391924000004
sS'thewalkingdead'
p462
F0.0097127954796199997
sS'gifs'
p463
F0.0079589777920299996
sS'Art'
p464
F0.0110567223934
sS'ConfusedBoners'
p465
F0.0081362476729000006
sS'Paranormal'
p466
F0.0082435644565799996
sS'WatchItForThePlot'
p467
F0.011342515369600001
sS'compsci'
p468
F0.0072405929304399999
sS'wallpapers'
p469
F0.014486542088099999
sS'zombies'
p470
F0.0112314480546
sS'ArcherFX'
p471
F0.0127911337028
sS'getdisciplined'
p472
F0.0152093090628
sS'google'
p473
F0.0088622847591999995
sS'gardening'
p474
F0.015715109573199999
sS'whatisthisthing'
p475
F0.018465027708200001
sS'NetflixBestOf'
p476
F0.0154994996022
sS'tumblr'
p477
F0.0198624013682
sS'interestingasfuck'
p478
F0.019399419620699999
sS'MarkMyWords'
p479
F0.010082010383
sS'Coffee'
p480
F0.0084121976866500005
sS'gameofthrones'
p481
F0.0093141785486800001
sS'humor'
p482
F0.023802304426900001
sS'4chan'
p483
F0.0124017787756
sS'AMA'
p484
F0.0128184413206
sS'SkincareAddiction'
p485
F0.0148721605378
sS'ExpectationVsReality'
p486
F0.021907804655400001
sS'nonononoyes'
p487
F0.019157206317900001
sS'religion'
p488
F0.0083872513779100002
sS'lifehacks'
p489
F0.019965147049300001
sS'Enhancement'
p490
F0.0106844971393
sS'biology'
p491
F0.0072591959982899997
sS'ProgrammerHumor'
p492
F0.010166319282
sS'business'
p493
F0.0121530040401
sS'FloridaMan'
p494
F0.0141310153936
sS'delusionalartists'
p495
F0.0155913721364
sS'OkCupid'
p496
F0.010825379000600001
sS'Frugal'
p497
F0.019929269814900001
sS'promos'
p498
F0.0085281677527799995
sS'shittyaskscience'
p499
F0.011722228908400001
sS'whatsthisplant'
p500
F0.0095163050066700006
sS'lewronggeneration'
p501
F0.0117497855198
sS'worldbuilding'
p502
F0.0072862609425000001
sS'calvinandhobbes'
p503
F0.014323849208899999
sS'netflix'
p504
F0.0096291476903099995
sS'masseffect'
p505
F0.0074250759820000001
sS'sixwordstories'
p506
F0.0100193923723
sS'AnimalsBeingBros'
p507
F0.022972339428000001
sS'classic4chan'
p508
F0.0104253812987
sS'battlestations'
p509
F0.0089274844783499997
sS'NSFWFunny'
p510
F0.0089088266885699995
sS'amiugly'
p511
F0.0098679216638799996
sS'RandomKindness'
p512
F0.0151348039216
sS'marijuanaenthusiasts'
p513
F0.0071099620263399997
sS'TrollXChromosomes'
p514
F0.024364696972099999
sS'tifu'
p515
F0.0099577870639099998
sS'unitedkingdom'
p516
F0.0086536014253000004
sS'Damnthatsinteresting'
p517
F0.0196340422373
sS'loseit'
p518
F0.016144981554000001
sS'CrazyIdeas'
p519
F0.020312720101399999
sS'TinyHouses'
p520
F0.010373016418199999
sS'Bad_Cop_No_Donut'
p521
F0.0161241020938
sS'MorbidReality'
p522
F0.016406616219100001
sS'gif'
p523
F0.021334386883299999
sS'cats'
p524
F0.020707803992699999
sS'introvert'
p525
F0.014185279661499999
sS'raisedbynarcissists'
p526
F0.0139730912628
sS'iphone'
p527
F0.0095287202227499999
sS'explainlikeIAmA'
p528
F0.0132212270761
sS'misleadingthumbnails'
p529
F0.015103075735899999
sS'batman'
p530
F0.011768551814299999
sS'snackexchange'
p531
F0.0095173351461600008
sS'blunderyears'
p532
F0.021602373887199999
sS'Marvel'
p533
F0.0080047343175699993
sS'Random_Acts_Of_Amazon'
p534
F0.0110060189166
sS'rage'
p535
F0.019335690279799998
sS'comics'
p536
F0.021369155750999999
sS'behindthegifs'
p537
F0.0161972426626
sS'findareddit'
p538
F0.0139904795077
sS'BustyPetite'
p539
F0.0082831325301200003
sS'fullmoviesonyoutube'
p540
F0.013283280392700001
sS'Design'
p541
F0.0122283932573
sS'keto'
p542
F0.0109760500662
sS'TrueAskReddit'
p543
F0.012987012987
sS'politics'
p544
F0.00930976281425
sS'DAE'
p545
F0.0116431490477
sS'ForeverAlone'
p546
F0.0130342213221
sS'eatsandwiches'
p547
F0.0107496463932
sS'bicycling'
p548
F0.0116131458931
sS'Survival'
p549
F0.0076566451250400002
sS'shittyama'
p550
F0.0096927462781100007
sS'AskSocialScience'
p551
F0.00752205988717
sS'zelda'
p552
F0.0076565490839500001
sS'ImaginaryLandscapes'
p553
F0.0094658056941599993
sS'TheWayWeWere'
p554
F0.015636634400600001
sS'badtattoos'
p555
F0.012070400761099999
sS'Feminism'
p556
F0.0096853721530900001
sS'nottheonion'
p557
F0.011803483507200001
sS'Frugal_Jerk'
p558
F0.0088091615279900001
sS'Baking'
p559
F0.014099660249199999
sS'SuicideWatch'
p560
F0.0091155995379799994
sS'socialanxiety'
p561
F0.0083005064715799999
sS'bigdickproblems'
p562
F0.0075545126767000001
sS'comicbooks'
p563
F0.0097025405336399993
sS'oddlysatisfying'
p564
F0.019442753770200001
sS'GirlGamers'
p565
F0.0103282323041
sS'cosplaygirls'
p566
F0.0114334109676
sS'entertainment'
p567
F0.023016440314500002
sS'atheism'
p568
F0.0099806239352899992
sS'terriblefacebookmemes'
p569
F0.010778039744
sS'PrettyGirls'
p570
F0.015151515151500001
sS'urbanexploration'
p571
F0.0092755076460299991
s.