(dp1
S'tightdresses'
p2
F0.032114624505899997
sS'FancyFollicles'
p3
F0.0101698877805
sS'awwwtf'
p4
F0.0092810638592600008
sS'battlestations'
p5
F0.0083367388639100006
sS'MapPorn'
p6
F0.010274403958599999
sS'Hunting'
p7
F0.0074729479284999997
sS'DoesAnybodyElse'
p8
F0.0092705025219500005
sS'GWCouples'
p9
F0.013349848609999999
sS'malehairadvice'
p10
F0.0080533824206200002
sS'CityPorn'
p11
F0.0086308936673899998
sS'skyrim'
p12
F0.0072270471464000001
sS'pussy'
p13
F0.0134847989539
sS'fffffffuuuuuuuuuuuu'
p14
F0.011377790552800001
sS'uglyduckling'
p15
F0.0096305770822400008
sS'Conservative'
p16
F0.0081986862923699999
sS'milf'
p17
F0.032789347216700002
sS'thatHappened'
p18
F0.0132901387561
sS'BuyItForLife'
p19
F0.0088194701585500006
sS'woodworking'
p20
F0.0092158176943700001
sS'perfectloops'
p21
F0.0097458110110600002
sS'everymanshouldknow'
p22
F0.013436067244
sS'dataisbeautiful'
p23
F0.0078894375327600002
sS'bodybuilding'
p24
F0.035920276852100003
sS'tipofmypenis'
p25
F0.0106395648894
sS'Fitness'
p26
F0.0139648329504
sS'breakingbad'
p27
F0.0095434131736499995
sS'carporn'
p28
F0.016253673402800001
sS'NSFWFunny'
p29
F0.016827550221799999
sS'AnimalsBeingJerks'
p30
F0.018472946812399998
sS'crossfit'
p31
F0.0143532085402
sS'quityourbullshit'
p32
F0.0128467761536
sS'drunk'
p33
F0.012104082823900001
sS'cumsluts'
p34
F0.019965229095400001
sS'LearnUselessTalents'
p35
F0.0082672434510899992
sS'ProtectAndServe'
p36
F0.0082664147378400006
sS'harrypotter'
p37
F0.0073601440258400002
sS'HistoryPorn'
p38
F0.0135371356559
sS'pettyrevenge'
p39
F0.010130159016400001
sS'swoleacceptance'
p40
F0.020318391286099999
sS'offmychest'
p41
F0.0071319086406299997
sS'woahdude'
p42
F0.012077520037299999
sS'WTF'
p43
F0.0071812896309000002
sS'ImaginaryMonsters'
p44
F0.0070279007660399998
sS'AsianHotties'
p45
F0.015533980582500001
sS'PublicFreakout'
p46
F0.0085087142387400005
sS'Gore'
p47
F0.010297283146200001
sS'MensRights'
p48
F0.014573510501500001
sS'nononono'
p49
F0.013667992047700001
sS'pornID'
p50
F0.0112485041883
sS'australia'
p51
F0.0080453972257299999
sS'ketogains'
p52
F0.0075726397234299999
sS'childfree'
p53
F0.0091422425383199998
sS'popping'
p54
F0.0118790071982
sS'gonewild'
p55
F0.0138030961641
sS'Jeep'
p56
F0.0081542283183899996
sS'cringepics'
p57
F0.0120771677136
sS'whitepeoplegifs'
p58
F0.0125814863103
sS'foodhacks'
p59
F0.0073682221802399998
sS'UpliftingNews'
p60
F0.0083903783989399995
sS'AbandonedPorn'
p61
F0.012708220530600001
sS'trees'
p62
F0.0075954121788699997
sS'altgonewild'
p63
F0.014117084064399999
sS'geek'
p64
F0.0103747101184
sS'spaceporn'
p65
F0.0104008984814
sS'Hotwife'
p66
F0.0096001154901100005
sS'toosoon'
p67
F0.012387010378299999
sS'Military'
p68
F0.0135592026484
sS'beards'
p69
F0.016338028168999999
sS'bodyweightfitness'
p70
F0.0139265351902
sS'PrettyGirlsUglyFaces'
p71
F0.0145888594164
sS'motorcycles'
p72
F0.01298088754
sS'gifs'
p73
F0.0076424647530300002
sS'IWantToLearn'
p74
F0.0072004254796900003
sS'gonewildstories'
p75
F0.0077957373766300003
sS'Art'
p76
F0.0076666196321900004
sS'creepyPMs'
p77
F0.0092617489767299992
sS'fitnesscirclejerk'
p78
F0.00814746919238
sS'WatchItForThePlot'
p79
F0.025889649062399999
sS'Celebs'
p80
F0.031609998447399999
sS'techsupportgore'
p81
F0.0096875105116199997
sS'CrappyDesign'
p82
F0.011104969599499999
sS'facepalm'
p83
F0.015623785464400001
sS'comics'
p84
F0.011850152905199999
sS'humor'
p85
F0.00877816115283
sS'workgonewild'
p86
F0.012247714335
sS'zombies'
p87
F0.0078589489510000003
sS'Libertarian'
p88
F0.0111398963731
sS'nsfw'
p89
F0.029529438047099999
sS'anal'
p90
F0.0135262661214
sS'ArcherFX'
p91
F0.010856249736000001
sS'cringe'
p92
F0.0090802740794400007
sS'YouShouldKnow'
p93
F0.0103825670592
sS'StarWars'
p94
F0.010919252729800001
sS'mildlyinteresting'
p95
F0.0077568375086200002
sS'gardening'
p96
F0.0079031322505799997
sS'whatisthisthing'
p97
F0.0097722655832400002
sS'AskWomen'
p98
F0.00738780322605
sS'NetflixBestOf'
p99
F0.0089841939968100006
sS'gentlemanboners'
p100
F0.034233872988799999
sS'TheSimpsons'
p101
F0.0083464376436400006
sS'Rateme'
p102
F0.015503093043800001
sS'TheRedPill'
p103
F0.0117932495931
sS'tumblr'
p104
F0.016989145823500001
sS'DCcomics'
p105
F0.0070159027128200002
sS'interestingasfuck'
p106
F0.0142985524922
sS'bigdickproblems'
p107
F0.0095522737927799996
sS'malegrooming'
p108
F0.0070386391964200002
sS'fatpeoplestories'
p109
F0.0122958018619
sS'redheads'
p110
F0.016114878340599999
sS'EatCheapAndHealthy'
p111
F0.0074959261270999998
sS'thick'
p112
F0.0244772711054
sS'Cinemagraphs'
p113
F0.0079929553613800001
sS'notinteresting'
p114
F0.00970552187883
sS'firstworldanarchists'
p115
F0.014235745909099999
sS'offbeat'
p116
F0.0108779679735
sS'gameofthrones'
p117
F0.0079029705818900002
sS'Blowjobs'
p118
F0.015247189280800001
sS'Sneakers'
p119
F0.0075857388110399998
sS'space'
p120
F0.0081393996777500005
sS'lotr'
p121
F0.0070687811003100004
sS'shittyfoodporn'
p122
F0.0120478404538
sS'ExpectationVsReality'
p123
F0.011246323317399999
sS'socialskills'
p124
F0.0083750683893799999
sS'malefashionadvice'
p125
F0.0099086079081700008
sS'firstworldproblems'
p126
F0.0114572706584
sS'outside'
p127
F0.0073709073138900003
sS'pornvids'
p128
F0.0096545065857500008
sS'RoomPorn'
p129
F0.016436858920500001
sS'randomsexiness'
p130
F0.024334289225699999
sS'lifehacks'
p131
F0.014145552560599999
sS'pcmasterrace'
p132
F0.0070524993426599996
sS'guns'
p133
F0.011858313971299999
sS'AsiansGoneWild'
p134
F0.0134279347954
sS'SubredditDrama'
p135
F0.0077220077220099999
sS'ass'
p136
F0.034045065433400003
sS'tattoos'
p137
F0.0129576586582
sS'blackpeoplegifs'
p138
F0.0157553867231
sS'bestof'
p139
F0.0087964420654900004
sS'DeadBedrooms'
p140
F0.0070501145643600003
sS'Bondage'
p141
F0.0081690641093900007
sS'cars'
p142
F0.0084814514344699991
sS'FloridaMan'
p143
F0.0097498522749699997
sS'celebnsfw'
p144
F0.020964738391299999
sS'loseit'
p145
F0.0092638386912699995
sS'OkCupid'
p146
F0.0087017448693599998
sS'delusionalartists'
p147
F0.0072925722012900001
sS'boltedontits'
p148
F0.032016409524700001
sS'Frugal'
p149
F0.0097435755886200008
sS'Supplements'
p150
F0.011339182254600001
sS'LadyBoners'
p151
F0.014125393847099999
sS'corgi'
p152
F0.0078725160307299997
sS'shittyaskscience'
p153
F0.0075224342694000003
sS'TrueReddit'
p154
F0.0083051708523800005
sS'lewronggeneration'
p155
F0.0073064175956599996
sS'Paleo'
p156
F0.010027769206999999
sS'CCW'
p157
F0.0070310192023599997
sS'TopGear'
p158
F0.0097710151413399997
sS'PoliticalHumor'
p159
F0.0092906650936400003
sS'calvinandhobbes'
p160
F0.0083582089552199992
sS'fitmeals'
p161
F0.012422360248400001
sS'minimalism'
p162
F0.0085050223623399993
sS'weightroom'
p163
F0.020223885212400001
sS'creepy'
p164
F0.0088679841603299999
sS'4chan'
p165
F0.012913648783399999
sS'howtonotgiveafuck'
p166
F0.0076085405868100003
sS'wheredidthesodago'
p167
F0.0106321936072
sS'AnimalsBeingBros'
p168
F0.015180265654599999
sS'classic4chan'
p169
F0.010885341074
sS'GunPorn'
p170
F0.0102260869565
sS'OnOff'
p171
F0.029465813319799999
sS'thewalkingdead'
p172
F0.0092312348668299998
sS'OutOfTheLoop'
p173
F0.00731006331223
sS'amiugly'
p174
F0.0077458488795799996
sS'QuotesPorn'
p175
F0.016326998814700001
sS'seduction'
p176
F0.012694574580600001
sS'itookapicture'
p177
F0.012609321765999999
sS'wifesharing'
p178
F0.011893304001100001
sS'steroids'
p179
F0.021192361434600002
sS'TinyTits'
p180
F0.020094382706700002
sS'xxfitness'
p181
F0.013976899914600001
sS'confession'
p182
F0.0080464778504000002
sS'reactiongifs'
p183
F0.0153164790552
sS'cosplay'
p184
F0.012095393861
sS'nostalgia'
p185
F0.0153005813582
sS'feet'
p186
F0.0095341278439899993
sS'IdiotsFightingThings'
p187
F0.0139654910692
sS'subaru'
p188
F0.0084513655215600007
sS'MilitaryPorn'
p189
F0.0154096329565
sS'EarthPorn'
p190
F0.00815552939149
sS'TrollXChromosomes'
p191
F0.018979585254900001
sS'holdmybeer'
p192
F0.015051841258500001
sS'Unexpected'
p193
F0.0155969461835
sS'ContagiousLaughter'
p194
F0.0076195987654299998
sS'hugeboobs'
p195
F0.0173719743125
sS'burstingout'
p196
F0.022166421335199998
sS'gonewildcurvy'
p197
F0.0134357005758
sS'dbz'
p198
F0.0083954737445899996
sS'environment'
p199
F0.0075932651039899999
sS'FiftyFifty'
p200
F0.0141899305132
sS'CrazyIdeas'
p201
F0.0097486757579199994
sS'OldSchoolCool'
p202
F0.012377130968299999
sS'lego'
p203
F0.0082994817201299999
sS'Bad_Cop_No_Donut'
p204
F0.0149438637244
sS'ANormalDayInRussia'
p205
F0.012989872303
sS'FoodPorn'
p206
F0.0137381238397
sS'sports'
p207
F0.0078951053847800007
sS'futurama'
p208
F0.0093770349468200002
sS'gif'
p209
F0.019482801908099999
sS'cats'
p210
F0.012689665174099999
sS'PenmanshipPorn'
p211
F0.0119490422168
sS'shittyreactiongifs'
p212
F0.0117695360613
sS'firstimpression'
p213
F0.0099587507365899997
sS'Whatcouldgowrong'
p214
F0.017959141666199999
sS'BigBoobsGW'
p215
F0.0115299035803
sS'Pareidolia'
p216
F0.010492897115800001
sS'asstastic'
p217
F0.023188405797099999
sS'happy'
p218
F0.0127740478878
sS'CombatFootage'
p219
F0.0079787234042600005
sS'fatlogic'
p220
F0.0207574936101
sS'TrollYChromosome'
p221
F0.0169433925624
sS'MorbidReality'
p222
F0.011355237519299999
sS'Stacked'
p223
F0.0193194674093
sS'misleadingthumbnails'
p224
F0.010249229907600001
sS'MakeupAddiction'
p225
F0.0079534565366199995
sS'batman'
p226
F0.0127202862064
sS'treesgonewild'
p227
F0.0083707025411099995
sS'SkincareAddiction'
p228
F0.0078382311639899997
sS'mildlyinfuriating'
p229
F0.014611978900300001
sS'teenagers'
p230
F0.010138829064599999
sS'somethingimade'
p231
F0.0099188855581000008
sS'leangains'
p232
F0.0119554536521
sS'nsfw_gifs'
p233
F0.023965141612200001
sS'weightlifting'
p234
F0.011220438460200001
sS'rule34'
p235
F0.0114210203407
sS'Awwducational'
p236
F0.011429199406599999
sS'Shitty_Car_Mods'
p237
F0.0124945743164
sS'Cyberpunk'
p238
F0.0084595711194200007
sS'AskMen'
p239
F0.00992145966877
sS'ghettoglamourshots'
p240
F0.0126747302093
sS'blunderyears'
p241
F0.011248012718600001
sS'Marvel'
p242
F0.0088632349230399997
sS'Boobies'
p243
F0.029946279574799999
sS'EDC'
p244
F0.0086387334931700005
sS'getdisciplined'
p245
F0.00721951219512
sS'showerbeer'
p246
F0.0124756063563
sS'rage'
p247
F0.014673674988999999
sS'worldpolitics'
p248
F0.0108433273305
sS'science'
p249
F0.0078027919889800002
sS'sex'
p250
F0.010616001458000001
sS'AmateurArchives'
p251
F0.013873521150700001
sS'Perfectfit'
p252
F0.0087157477715399997
sS'PerfectTiming'
p253
F0.016525528241399998
sS'behindthegifs'
p254
F0.0087865216464100004
sS'standupshots'
p255
F0.014564247122400001
sS'conspiracy'
p256
F0.0135146738104
sS'knives'
p257
F0.0079841517589099992
sS'LifeProTips'
p258
F0.0076713912278200003
sS'MMA'
p259
F0.014414868306899999
sS'BustyPetite'
p260
F0.040850642927800003
sS'AmISexy'
p261
F0.015725337513299999
sS'fullmoviesonyoutube'
p262
F0.0085067344981399999
sS'Damnthatsinteresting'
p263
F0.015022665118199999
sS'watchpeopledie'
p264
F0.0134419862153
sS'Economics'
p265
F0.0072629097269800002
sS'nutrition'
p266
F0.00766139161015
sS'keto'
p267
F0.010855838352399999
sS'awesome'
p268
F0.0077606148794899998
sS'Cooking'
p269
F0.0070987515211600001
sS'Images'
p270
F0.0113449875134
sS'DecidingToBeBetter'
p271
F0.0070796460176999997
sS'ginger'
p272
F0.0190461443171
sS'IASIP'
p273
F0.0077409562357700001
sS'oddlysatisfying'
p274
F0.014252344358299999
sS'Tgirls'
p275
F0.0093900614924400001
sS'DIY'
p276
F0.0084726180389700003
sS'politics'
p277
F0.0085045814429300006
sS'arresteddevelopment'
p278
F0.0073023034908599998
sS'bikesgonewild'
p279
F0.0087869842795399999
sS'shorthairedhotties'
p280
F0.0246355685131
sS'southpark'
p281
F0.010427798827700001
sS'shutupandtakemymoney'
p282
F0.0097837704513699993
sS'atheism'
p283
F0.010420130805899999
sS'girlsinyogapants'
p284
F0.036456291650300003
sS'MURICA'
p285
F0.0178829830889
sS'HighQualityGifs'
p286
F0.0129074470616
sS'bicycling'
p287
F0.0099445944026100002
sS'bestofworldstar'
p288
F0.0080336896663400006
sS'self'
p289
F0.0082012751660100001
sS'pitbulls'
p290
F0.0080556320572800003
sS'RealGirls'
p291
F0.033915610503200001
sS'GoneMild'
p292
F0.0157323072427
sS'Hotchickswithtattoos'
p293
F0.032070614196399998
sS'food'
p294
F0.0088321884200199992
sS'JusticePorn'
p295
F0.0137313272722
sS'badtattoos'
p296
F0.0097682320106800002
sS'scifi'
p297
F0.0085232370357100004
sS'Justrolledintotheshop'
p298
F0.013892063492099999
sS'RedditLaqueristas'
p299
F0.0072066629266800001
sS'nottheonion'
p300
F0.0078017853769900003
sS'nyc'
p301
F0.0072854640980700002
sS'nonononoyes'
p302
F0.015737256243599999
sS'Autos'
p303
F0.0122488191498
sS'wallpapers'
p304
F0.010587186052499999
sS'firefly'
p305
F0.0082559339525299993
sS'canada'
p306
F0.0081884729977700008
sS'NSFW_GIF'
p307
F0.026220362622000001
sS'powerlifting'
p308
F0.0148023683789
sS'Trucks'
p309
F0.0093672212760400001
sS'forwardsfromgrandma'
p310
F0.0088696838753700002
sS'aww'
p311
F0.0071157795691600004
sS'Futurology'
p312
F0.0087679827211600003
sS'wallpaper'
p313
F0.0073076189870999999
sS'JoeRogan'
p314
F0.00760291754234
sS'running'
p315
F0.0083746977217800007
sS'progresspics'
p316
F0.0292436397537
sS'dogpictures'
p317
F0.011692554593899999
sS'comicbooks'
p318
F0.0084970517805199996
sS'polandball'
p319
F0.0074158585282400004
sS'memes'
p320
F0.0117955439056
sS'Amateur'
p321
F0.026654251294900001
sS'wicked_edge'
p322
F0.0084078237012099998
sS'MachinePorn'
p323
F0.0083315975838400003
sS'traps'
p324
F0.0081079033113599999
sS'cosplaygirls'
p325
F0.0330373393635
sS'ConfusedBoners'
p326
F0.014892404161300001
sS'Cuckold'
p327
F0.0071577931478200001
sS'entertainment'
p328
F0.0087048019896700003
sS'HumanPorn'
p329
F0.015927005722900001
sS'GetMotivated'
p330
F0.0130115344106
sS'curvy'
p331
F0.025011894243200002
sS'terriblefacebookmemes'
p332
F0.0071610548784699999
sS'PrettyGirls'
p333
F0.032062238462900003
sS'TumblrInAction'
p334
F0.0110442512939
sS'Fishing'
p335
F0.0079099199702199995
sS'tall'
p336
F0.013352987080600001
sS'ImGoingToHellForThis'
p337
F0.0154722252068
sS'gainit'
p338
F0.0137374725006
sS'cableporn'
p339
F0.00715746421268
sS'EmmaWatson'
p340
F0.0213907518532
sS'GWNerdy'
p341
F0.0108151266604
s.