(dp1
S'StandUpComedy'
p2
F0.014362657091599999
sS'arresteddevelopment'
p3
F0.0103427118941
sS'shield'
p4
F0.0070771408351000004
sS'comicbookmovies'
p5
F0.00753920386007
sS'TrueFilm'
p6
F0.0088186839810099997
sS'JoeRogan'
p7
F0.0083557701234800007
sS'PandR'
p8
F0.0102984954542
sS'rickandmorty'
p9
F0.031119273543500001
sS'madmen'
p10
F0.0088667220836799992
sS'Screenwriting'
p11
F0.011952624144299999
sS'podcasts'
p12
F0.0151251505823
sS'community'
p13
F0.039209261686299998
sS'Standup'
p14
F0.010358167977
sS'comicbooks'
p15
F0.0071368848542799996
sS'marvelstudios'
p16
F0.0094869992972600008
sS'ObscureMedia'
p17
F0.0077250512375800001
s.