(dp1
S'uhccourtroom'
p2
F0.0088137208194400008
sS'kohi'
p3
F0.20853634769099999
sS'ShotBow'
p4
F0.188994023904
sS'Civcraft'
p5
F0.044154540893100003
sS'CivcraftExchange'
p6
F0.02239863907
sS'ultrahardcore'
p7
F0.0092656142759099999
sS'admincraft'
p8
F0.0098004900244999995
sS'minerapocalypse'
p9
F0.012066752246499999
s.