(dp1
S'Poetry'
p2
F0.010527854949600001
sS'uglyduckling'
p3
F0.0072155856650399997
sS'shrooms'
p4
F0.020282393322399998
sS'BuyItForLife'
p5
F0.00894125801421
sS'spiders'
p6
F0.0077871512005199999
sS'askphilosophy'
p7
F0.010580132074099999
sS'AskMen'
p8
F0.0072680020702799997
sS'JoeRogan'
p9
F0.0131855156127
sS'Showerthoughts'
p10
F0.0085261716967599994
sS'HistoryPorn'
p11
F0.0145113544621
sS'holdmybeer'
p12
F0.0155644893593
sS'ImaginaryMonsters'
p13
F0.034236585553100003
sS'YouShouldKnow'
p14
F0.013893060979299999
sS'horror'
p15
F0.0096435100548399998
sS'UpliftingNews'
p16
F0.0082955344798300006
sS'PandR'
p17
F0.0073460272684499998
sS'synthesizers'
p18
F0.0075233483223800003
sS'3amjokes'
p19
F0.0084962468035999997
sS'magicskyfairy'
p20
F0.0080453842186699997
sS'photoshopbattles'
p21
F0.0115190220585
sS'DJs'
p22
F0.0070621468926599998
sS'Celebs'
p23
F0.0079409566517199999
sS'CrappyDesign'
p24
F0.0177251821611
sS'NewsOfTheWeird'
p25
F0.0072646261139100001
sS'Cyberpunk'
p26
F0.0240800583759
sS'Libertarian'
p27
F0.0093395818792200002
sS'everymanshouldknow'
p28
F0.012917361588
sS'EatCheapAndHealthy'
p29
F0.0095844253088699996
sS'tea'
p30
F0.0085183112603400002
sS'redditgetsdrawn'
p31
F0.0098191687250299992
sS'fatpeoplestories'
p32
F0.0078001255192600002
sS'OneY'
p33
F0.0072301600964000002
sS'depression'
p34
F0.0085114577315600001
sS'forwardsfromgrandma'
p35
F0.0147520700485
sS'LSD'
p36
F0.028248904863499999
sS'findareddit'
p37
F0.011464888778100001
sS'skeptic'
p38
F0.0114725218064
sS'socialskills'
p39
F0.011470098940500001
sS'DebateReligion'
p40
F0.0075449416087100003
sS'Anticonsumption'
p41
F0.0139707279985
sS'vexillology'
p42
F0.0093885114268099992
sS'tattoos'
p43
F0.014061601316899999
sS'Economics'
p44
F0.00703229354915
sS'ExposurePorn'
p45
F0.0111457868926
sS'malelivingspace'
p46
F0.0083031722375999997
sS'answers'
p47
F0.0102168847464
sS'ThriftStoreHauls'
p48
F0.0096039131472200005
sS'leaves'
p49
F0.0098400984009799995
sS'creepy'
p50
F0.0102928344233
sS'cripplingalcoholism'
p51
F0.0070521861777200004
sS'progmetal'
p52
F0.0092097992263799992
sS'learnart'
p53
F0.0097797189517699994
sS'vinyl'
p54
F0.0102371291367
sS'whatsthisbug'
p55
F0.0101124575015
sS'QuotesPorn'
p56
F0.0236370871468
sS'TrueReddit'
p57
F0.0151848242413
sS'confession'
p58
F0.010117288924699999
sS'AntiJokes'
p59
F0.0091855480710299996
sS'IdiotsFightingThings'
p60
F0.0166410514601
sS'gamernews'
p61
F0.0073713490959700003
sS'ContagiousLaughter'
p62
F0.014839199797399999
sS'graphic_design'
p63
F0.0095567193996000006
sS'environment'
p64
F0.010243648359300001
sS'FiftyFifty'
p65
F0.0139369353675
sS'eldertrees'
p66
F0.019578527694700001
sS'AskHistorians'
p67
F0.0082767670140600005
sS'Drugs'
p68
F0.023567686167700001
sS'OutOfTheLoop'
p69
F0.0148670297981
sS'ifyoulikeblank'
p70
F0.016145672134500001
sS'misleadingthumbnails'
p71
F0.020308788598600001
sS'trailerparkboys'
p72
F0.0098388245193899992
sS'musictheory'
p73
F0.0082939307030499999
sS'Pareidolia'
p74
F0.022535371976300001
sS'Filmmakers'
p75
F0.0072898608703400002
sS'opiates'
p76
F0.0081952920662600008
sS'LifeProTips'
p77
F0.0080743207527200003
sS'Shitty_Car_Mods'
p78
F0.0111284219898
sS'UFOs'
p79
F0.0098897189612199999
sS'ghettoglamourshots'
p80
F0.011559802712700001
sS'EDC'
p81
F0.00746327284154
sS'showerbeer'
p82
F0.0083345626198600004
sS'techsupportgore'
p83
F0.0100446815143
sS'science'
p84
F0.0088617144658799992
sS'EDM'
p85
F0.0070142494200799996
sS'firstworldproblems'
p86
F0.0099692008429200004
sS'Glitch_in_the_Matrix'
p87
F0.016521878164500001
sS'standupshots'
p88
F0.016716273274699999
sS'Meditation'
p89
F0.021741375748800001
sS'AskScienceFiction'
p90
F0.0098524535012300008
sS'NewsOfTheStupid'
p91
F0.0074990964944000003
sS'audiophile'
p92
F0.0086650695754100001
sS'awesome'
p93
F0.012892376681599999
sS'DecidingToBeBetter'
p94
F0.012299431853699999
sS'oddlysatisfying'
p95
F0.0169246397273
sS'Infographics'
p96
F0.010459761142800001
sS'BasicIncome'
p97
F0.0079048349961599994
sS'CampingandHiking'
p98
F0.00818633661437
sS'Pizza'
p99
F0.0077276524644900001
sS'asmr'
p100
F0.0112121072302
sS'techsupportmacgyver'
p101
F0.0087244690923799998
sS'MURICA'
p102
F0.010702662560300001
sS'travel'
p103
F0.0075955941226100001
sS'Hotchickswithtattoos'
p104
F0.0071859949545099999
sS'scifi'
p105
F0.0117592735109
sS'spaceporn'
p106
F0.018641195501500001
sS'Dreams'
p107
F0.010487406515899999
sS'wheredidthesodago'
p108
F0.0168507900993
sS'polandball'
p109
F0.0089879087741899996
sS'askscience'
p110
F0.0075488454706900002
sS'philosophy'
p111
F0.0114739090632
sS'Images'
p112
F0.0074130105900200001
sS'MachinePorn'
p113
F0.0107232657891
sS'futurebeats'
p114
F0.0195583187617
sS'FanTheories'
p115
F0.0119020968584
sS'listentothis'
p116
F0.0146218730021
sS'tall'
p117
F0.0077422242112300003
sS'ImGoingToHellForThis'
p118
F0.011446973182200001
sS'DoesAnybodyElse'
p119
F0.0104467288382
sS'pettyrevenge'
p120
F0.0098368744025400003
sS'malehairadvice'
p121
F0.0080455916862200005
sS'CityPorn'
p122
F0.012870877700800001
sS'zen'
p123
F0.0150857818971
sS'thatHappened'
p124
F0.013294705929000001
sS'DeepIntoYouTube'
p125
F0.024164118749399999
sS'dataisbeautiful'
p126
F0.0105507668197
sS'stencils'
p127
F0.0097766800452799996
sS'linguistics'
p128
F0.0073912431366999999
sS'beards'
p129
F0.0109810327616
sS'nostalgia'
p130
F0.0148308560554
sS'Documentaries'
p131
F0.0102600669479
sS'writing'
p132
F0.0106103922898
sS'StonerEngineering'
p133
F0.016994793848400001
sS'Rainmeter'
p134
F0.0073387648485600003
sS'wallpaper'
p135
F0.013585670834699999
sS'Gore'
p136
F0.0090453489793399997
sS'MensRights'
p137
F0.0089394910022699992
sS'MilitaryPorn'
p138
F0.0086673027989800002
sS'Frisson'
p139
F0.0240427927928
sS'electronicmusic'
p140
F0.0149248350698
sS'childfree'
p141
F0.0078988457888099998
sS'IWantToLearn'
p142
F0.0151657552973
sS'NoStupidQuestions'
p143
F0.013484452194099999
sS'occult'
p144
F0.014980311590499999
sS'creepyPMs'
p145
F0.0099693251533700001
sS'WatchItForThePlot'
p146
F0.00959741374956
sS'freebies'
p147
F0.00933807420177
sS'PropagandaPosters'
p148
F0.015717991759500002
sS'trap'
p149
F0.0110748002905
sS'minimalism'
p150
F0.019429358219199999
sS'wallpapers'
p151
F0.0160090124811
sS'mildlyinteresting'
p152
F0.0082274717552300002
sS'TrueAtheism'
p153
F0.0100664282064
sS'badhistory'
p154
F0.0075687159739700003
sS'Anarchism'
p155
F0.013517148621400001
sS'dubstep'
p156
F0.010763347967699999
sS'Cinemagraphs'
p157
F0.0205195372189
sS'DunderMifflin'
p158
F0.0078744318782399993
sS'psychology'
p159
F0.016760783371399999
sS'space'
p160
F0.0101461998177
sS'shittyfoodporn'
p161
F0.0128736046093
sS'malefashionadvice'
p162
F0.0073240143969199997
sS'LearnUselessTalents'
p163
F0.0174968394437
sS'RoomPorn'
p164
F0.016075629519899999
sS'highdeas'
p165
F0.0126378058618
sS'Astronomy'
p166
F0.0101824352991
sS'LetsTalkMusic'
p167
F0.011578449905500001
sS'bestof'
p168
F0.010124092160000001
sS'Metal'
p169
F0.0124511557057
sS'LadyBoners'
p170
F0.0076507487581099999
sS'GamePhysics'
p171
F0.0148448043185
sS'youtubehaiku'
p172
F0.018544448618599999
sS'PoliticalHumor'
p173
F0.0088050314465400008
sS'TinyHouses'
p174
F0.0077786088257300002
sS'punk'
p175
F0.00779396814639
sS'howtonotgiveafuck'
p176
F0.016091149867600001
sS'whatstheword'
p177
F0.0102825682131
sS'classicalmusic'
p178
F0.0084696071405299996
sS'misc'
p179
F0.0102751654476
sS'patientgamers'
p180
F0.0089734386216799994
sS'rant'
p181
F0.0071400238000800002
sS'Buddhism'
p182
F0.0190337675477
sS'longboarding'
p183
F0.0097049876876999994
sS'OldSchoolCool'
p184
F0.0103476290247
sS'lego'
p185
F0.0079373669589099995
sS'gratefuldead'
p186
F0.0083421229264599994
sS'ANormalDayInRussia'
p187
F0.0156268086584
sS'seduction'
p188
F0.0083387380709700008
sS'onetruegod'
p189
F0.011702282308499999
sS'PenmanshipPorn'
p190
F0.016678012253200002
sS'shittyreactiongifs'
p191
F0.015454147834999999
sS'alternativeart'
p192
F0.020969968933400002
sS'gentlemanboners'
p193
F0.012248578513600001
sS'aves'
p194
F0.0095076650943399996
sS'ObscureMedia'
p195
F0.0134810710988
sS'CombatFootage'
p196
F0.0094238594988200006
sS'TrollYChromosome'
p197
F0.0119371411303
sS'makinghiphop'
p198
F0.0078589634664399995
sS'collapse'
p199
F0.0094786729857799998
sS'mildlyinfuriating'
p200
F0.014511834319500001
sS'indieheads'
p201
F0.0083599069206200007
sS'Psychonaut'
p202
F0.057998344218599999
sS'skyrim'
p203
F0.0085289859633699994
sS'worldpolitics'
p204
F0.0118122720786
sS'TheRedPill'
p205
F0.0073141637368200002
sS'nononono'
p206
F0.0183684028976
sS'knives'
p207
F0.00726927939317
sS'FoodPorn'
p208
F0.0107827476038
sS'crappymusic'
p209
F0.0081567514850599994
sS'mflb'
p210
F0.0099529620287699995
sS'teenagers'
p211
F0.0076937260094899996
sS'conspiracy'
p212
F0.0138223144097
sS'Nootropics'
p213
F0.0129451922458
sS'HighQualityGifs'
p214
F0.0139176227196
sS'self'
p215
F0.0121172603037
sS'animation'
p216
F0.0086738002594000004
sS'conspiratard'
p217
F0.0126046282619
sS'getdisciplined'
p218
F0.0116023511372
sS'MovieSuggestions'
p219
F0.010012334034699999
sS'edmproduction'
p220
F0.010036060303300001
sS'Futurology'
p221
F0.012643528183700001
sS'no_sob_story'
p222
F0.0113038225904
sS'INTP'
p223
F0.0081330868761599999
sS'askdrugs'
p224
F0.015600158982499999
sS'TumblrInAction'
p225
F0.010681943263099999
sS'shroomers'
p226
F0.0108695652174
sS'HailCorporate'
p227
F0.015164399093
sS'painting'
p228
F0.0117761557178
sS'vaporents'
p229
F0.0100015308466
sS'IDAP'
p230
F0.021988348054899999
sS'Awwducational'
p231
F0.014860645310499999
sS'Justrolledintotheshop'
p232
F0.0074788528987000001
sS'photocritique'
p233
F0.0070300863866499998
sS'adventuretime'
p234
F0.0153761491648
sS'LucidDreaming'
p235
F0.0181135521843
sS'fffffffuuuuuuuuuuuu'
p236
F0.0093697386721299999
sS'PoliticalDiscussion'
p237
F0.00755774007716
sS'Foodforthought'
p238
F0.0174338258743
sS'StonerPhilosophy'
p239
F0.0217877638362
sS'Bass'
p240
F0.0074941451990600001
sS'TheoryOfReddit'
p241
F0.0095198329853899994
sS'TheBluePill'
p242
F0.0075491344526899999
sS'MDMA'
p243
F0.0091240875912399991
sS'booksuggestions'
p244
F0.0073816760746900001
sS'whowouldwin'
p245
F0.0091553302643100007
sS'GrandTheftAutoV'
p246
F0.00734606651529
sS'MetalMemes'
p247
F0.0102734051367
sS'Anxiety'
p248
F0.0081447255070900004
sS'shutupandtakemymoney'
p249
F0.013422245020100001
sS'JusticePorn'
p250
F0.011352719104799999
sS'trees'
p251
F0.0112281936775
sS'geek'
p252
F0.0108746748566
sS'realdubstep'
p253
F0.00741225201657
sS'lostgeneration'
p254
F0.0096383684169899994
sS'mycology'
p255
F0.0124425887265
sS'PrettyGirlsUglyFaces'
p256
F0.0107884430651
sS'AbandonedPorn'
p257
F0.017461935611200002
sS'quotes'
p258
F0.012649332396300001
sS'Marijuana'
p259
F0.011934817535
sS'WeAreTheMusicMakers'
p260
F0.0141258828677
sS'privacy'
p261
F0.0081909829179500002
sS'futurama'
p262
F0.0127068825179
sS'dadjokes'
p263
F0.0112153276144
sS'architecture'
p264
F0.0074252174528000002
sS'nsfw'
p265
F0.0075204690185000003
sS'cringe'
p266
F0.0129735222718
sS'StarWars'
p267
F0.0082760065649299993
sS'TheSimpsons'
p268
F0.00978342670792
sS'typography'
p269
F0.0072606669057000001
sS'see'
p270
F0.019433719433700002
sS'glitch_art'
p271
F0.033711560598599997
sS'DMT'
p272
F0.015995872033
sS'changemyview'
p273
F0.0126766968583
sS'skateboarding'
p274
F0.0105760243986
sS'firstworldanarchists'
p275
F0.017539903280000001
sS'PerfectTiming'
p276
F0.017908920347899999
sS'cosplay'
p277
F0.0073538040289499998
sS'truegaming'
p278
F0.0098915034521599998
sS'lotr'
p279
F0.0079965106135500008
sS'wikipedia'
p280
F0.0140041149532
sS'breakingbad'
p281
F0.0109008244091
sS'outside'
p282
F0.0181624387124
sS'foodhacks'
p283
F0.0097372282246200002
sS'StandUpComedy'
p284
F0.0117259823082
sS'PixelArt'
p285
F0.0118793265533
sS'casualiama'
p286
F0.0106803319703
sS'facepalm'
p287
F0.0120236077102
sS'NotTimAndEric'
p288
F0.021152996148300001
sS'pinkfloyd'
p289
F0.0093511140022799998
sS'Unexpected'
p290
F0.018112034511200002
sS'RedditDayOf'
p291
F0.0125170504694
sS'watchpeopledie'
p292
F0.0126592231483
sS'GunPorn'
p293
F0.00885870367636
sS'GetMotivated'
p294
F0.010989723053800001
sS'drunk'
p295
F0.012942327724999999
sS'reactiongifs'
p296
F0.0121250324447
sS'community'
p297
F0.0073585307264299998
sS'startrek'
p298
F0.0071219587311400004
sS'EarthPorn'
p299
F0.0094016928844700004
sS'Guitar'
p300
F0.0095801107554300009
sS'beer'
p301
F0.0070176443629700004
sS'fatlogic'
p302
F0.0096841555729600005
sS'hiphopheads'
p303
F0.0093584189261500007
sS'somethingimade'
p304
F0.0144440866645
sS'MapPorn'
p305
F0.010712196548700001
sS'IndieGaming'
p306
F0.0085554288084600007
sS'darksouls'
p307
F0.0070687757112199998
sS'Perfectfit'
p308
F0.013279932546399999
sS'offbeat'
p309
F0.0163142337426
sS'softwaregore'
p310
F0.0084339932813999995
sS'socialism'
p311
F0.010666505966
sS'ICanDrawThat'
p312
F0.0097074197271100008
sS'Cooking'
p313
F0.0073772752344199999
sS'IASIP'
p314
F0.010442618605899999
sS'shorthairedhotties'
p315
F0.0084791077839699996
sS'southpark'
p316
F0.0105904685783
sS'tattoo'
p317
F0.0077229113035299996
sS'astrophotography'
p318
F0.0073033261887800001
sS'selfimprovement'
p319
F0.0073303784521
sS'Jazz'
p320
F0.0102604577743
sS'itookapicture'
p321
F0.0142857142857
sS'Whatcouldgowrong'
p322
F0.016571683693600001
sS'fifthworldproblems'
p323
F0.0156289600406
sS'literature'
p324
F0.0081756245268700001
sS'notinteresting'
p325
F0.0158762815897
sS'AnimalsBeingJerks'
p326
F0.0162962962963
sS'girlsinyogapants'
p327
F0.0077894171367199998
sS'eatsandwiches'
p328
F0.0102119758626
sS'Physics'
p329
F0.0099475590636300005
sS'TrueFilm'
p330
F0.0110586648685
sS'HumanPorn'
p331
F0.026108318098700001
sS'TimAndEric'
p332
F0.0105811358188
sS'Graffiti'
p333
F0.017860165904899999
sS'drawing'
p334
F0.024465998256300001
sS'GifSound'
p335
F0.0073928337208599999
sS'FancyFollicles'
p336
F0.0080016083634900006
sS'awwwtf'
p337
F0.016527088119799999
sS'circlebroke'
p338
F0.0098090849242899996
sS'PublicFreakout'
p339
F0.013525660231999999
sS'ArtisanVideos'
p340
F0.0119183335061
sS'rickandmorty'
p341
F0.013819609125800001
sS'postrock'
p342
F0.0077803203661299999
sS'woodworking'
p343
F0.0071944922547300004
sS'perfectloops'
p344
F0.0196540880503
sS'InternetIsBeautiful'
p345
F0.0117944522942
sS'carporn'
p346
F0.0085047909084200006
sS'WouldYouRather'
p347
F0.0092616413686599994
sS'quityourbullshit'
p348
F0.015748313961800001
sS'audioengineering'
p349
F0.0087885856887100003
sS'woahdude'
p350
F0.023710565199699999
sS'Fallout'
p351
F0.0092660981669200008
sS'Braveryjerk'
p352
F0.0074332795987799996
sS'offmychest'
p353
F0.0087085893111400001
sS'NSFW_GIF'
p354
F0.0070931001169499998
sS'howto'
p355
F0.0102028849537
sS'cringepics'
p356
F0.0116441115668
sS'toosoon'
p357
F0.0127085552006
sS'bodyweightfitness'
p358
F0.0089566690873900002
sS'Art'
p359
F0.019058331994200001
sS'ConfusedBoners'
p360
F0.0112554766581
sS'Paranormal'
p361
F0.0086290583540100003
sS'4chan'
p362
F0.013156598548600001
sS'montageparodies'
p363
F0.0078100856861900003
sS'zombies'
p364
F0.0076158700224799999
sS'ArcherFX'
p365
F0.0093171777262599995
sS'gardening'
p366
F0.0077415011780499997
sS'whatisthisthing'
p367
F0.0121812783793
sS'NetflixBestOf'
p368
F0.011850092372700001
sS'SubredditDrama'
p369
F0.0103364896543
sS'tumblr'
p370
F0.012963863231199999
sS'interestingasfuck'
p371
F0.0183751470012
sS'MarkMyWords'
p372
F0.0111138757568
sS'radiohead'
p373
F0.0089679043423499995
sS'festivals'
p374
F0.0089113458888399992
sS'gameofthrones'
p375
F0.0070244679599199998
sS'humor'
p376
F0.011806626602100001
sS'ExpectationVsReality'
p377
F0.0146620429519
sS'DarkNetMarkets'
p378
F0.0078226857887899997
sS'nonononoyes'
p379
F0.016817469706199999
sS'glassheads'
p380
F0.011578409671399999
sS'lifehacks'
p381
F0.0126540637747
sS'SCP'
p382
F0.0087535014005600004
sS'Enhancement'
p383
F0.0073518379594900004
sS'blackpeoplegifs'
p384
F0.016375115086200001
sS'ProgrammerHumor'
p385
F0.0081948860328700003
sS'FloridaMan'
p386
F0.0139842097115
sS'delusionalartists'
p387
F0.023173726212399999
sS'whitepeoplegifs'
p388
F0.0156390561207
sS'Frugal'
p389
F0.0087893077373800005
sS'drums'
p390
F0.0074999999999999997
sS'shittyaskscience'
p391
F0.0110777923719
sS'lewronggeneration'
p392
F0.0152941176471
sS'worldbuilding'
p393
F0.011588658865899999
sS'calvinandhobbes'
p394
F0.011208233469599999
sS'DrugNerds'
p395
F0.018387689925499998
sS'sixwordstories'
p396
F0.013311746717
sS'AnimalsBeingBros'
p397
F0.016346366247000001
sS'classic4chan'
p398
F0.013024298018300001
sS'battlestations'
p399
F0.0076259740259700002
sS'marijuanaenthusiasts'
p400
F0.0108910891089
sS'TrollXChromosomes'
p401
F0.0098007451806300001
sS'Damnthatsinteresting'
p402
F0.0183187145851
sS'CrazyIdeas'
p403
F0.0214915610582
sS'DnB'
p404
F0.0089983022071300003
sS'Bad_Cop_No_Donut'
p405
F0.0113659022931
sS'MorbidReality'
p406
F0.018016361798000001
sS'gif'
p407
F0.011705337634
sS'cats'
p408
F0.0085625229189599996
sS'introvert'
p409
F0.010326560718800001
sS'Standup'
p410
F0.0076287349014600003
sS'happy'
p411
F0.0107379198402
sS'explainlikeIAmA'
p412
F0.011231527093600001
sS'firstimpression'
p413
F0.0082352941176499998
sS'batman'
p414
F0.0094435763299100008
sS'occupywallstreet'
p415
F0.0083123912623199996
sS'WebGames'
p416
F0.0083203679902599994
sS'HipHopImages'
p417
F0.0089894374110400001
sS'blunderyears'
p418
F0.017252792718199999
sS'webcomics'
p419
F0.0113717128643
sS'rage'
p420
F0.0152712659076
sS'comics'
p421
F0.0170588235294
sS'behindthegifs'
p422
F0.0174976565639
sS'fullmoviesonyoutube'
p423
F0.0150104420466
sS'Design'
p424
F0.0132206553297
sS'TrueAskReddit'
p425
F0.013167890605199999
sS'tipofmytongue'
p426
F0.0088879758970100003
sS'politics'
p427
F0.0075809909480700002
sS'bestofworldstar'
p428
F0.011419137373599999
sS'ForeverAlone'
p429
F0.0073869900771799998
sS'ToolBand'
p430
F0.0118430792006
sS'yoga'
p431
F0.0080672268907600007
sS'bicycling'
p432
F0.0071564540613500002
sS'AskSocialScience'
p433
F0.0076990237320399999
sS'zelda'
p434
F0.0078498537072699999
sS'ImaginaryLandscapes'
p435
F0.028160919540199999
sS'TheWayWeWere'
p436
F0.0129000653168
sS'badtattoos'
p437
F0.0128312054918
sS'popping'
p438
F0.0083525929530099997
sS'saplings'
p439
F0.010745555850400001
sS'nottheonion'
p440
F0.0093262102952700009
sS'Frugal_Jerk'
p441
F0.0088786291396599996
sS'microgrowery'
p442
F0.0078537576167900004
sS'comicbooks'
p443
F0.0085823351322900001
sS'Thetruthishere'
p444
F0.0076080065211500004
sS'CannabisExtracts'
p445
F0.0094525105868100007
sS'cosplaygirls'
p446
F0.0084062059238399992
sS'atheism'
p447
F0.00755837141942
sS'terriblefacebookmemes'
p448
F0.0096781288950800008
sS'PrettyGirls'
p449
F0.0098223488752799994
sS'urbanexploration'
p450
F0.013426020582000001
s.