(dp1
S'pettyrevenge'
p2
F0.0071897364862599997
sS'inthenews'
p3
F0.0084293340826100006
sS'thatHappened'
p4
F0.0071116424802099999
sS'PoliticalDiscussion'
p5
F0.0073511833612199999
sS'SampleSize'
p6
F0.0082209799408099991
sS'perfectloops'
p7
F0.0086741016109000008
sS'InternetIsBeautiful'
p8
F0.0076238881829699999
sS'Foodforthought'
p9
F0.0077966908701300004
sS'TheoryOfReddit'
p10
F0.023622047244100001
sS'quityourbullshit'
p11
F0.0087715908651799998
sS'Advice'
p12
F0.00716168717047
sS'AndroidQuestions'
p13
F0.0080055690915400001
sS'FreeKarma'
p14
F0.0085015027908999993
sS'PerfectTiming'
p15
F0.0078626593467900005
sS'YouShouldKnow'
p16
F0.0082144173555900001
sS'UpliftingNews'
p17
F0.0072163365576500002
sS'geek'
p18
F0.0081194430464700002
sS'NoStupidQuestions'
p19
F0.010674504950499999
sS'progressive'
p20
F0.0073089026494800001
sS'rant'
p21
F0.0085953229053700002
sS'freebies'
p22
F0.0071959236065199999
sS'CrappyDesign'
p23
F0.0074790667425400003
sS'worldpolitics'
p24
F0.0074314106718500004
sS'Enhancement'
p25
F0.0214877538013
sS'techsupport'
p26
F0.0079946313424599999
sS'DeepIntoYouTube'
p27
F0.0072727272727299997
sS'csshelp'
p28
F0.025603991596600002
sS'google'
p29
F0.0072483221476499996
sS'whatisthisthing'
p30
F0.0078515509095500001
sS'POLITIC'
p31
F0.0077832811078500002
sS'interestingasfuck'
p32
F0.0074376842669500003
sS'MarkMyWords'
p33
F0.0085884611498400001
sS'changemyview'
p34
F0.00737332625494
sS'KarmaCourt'
p35
F0.0091923029783100001
sS'firstworldanarchists'
p36
F0.0071074510215299999
sS'nononono'
p37
F0.0077668988890999997
sS'humor'
p38
F0.0076701821668299997
sS'findareddit'
p39
F0.018371941035500002
sS'skeptic'
p40
F0.0075099187606299999
sS'tipofmytongue'
p41
F0.0074153438407499996
sS'wikipedia'
p42
F0.0094230323627100005
sS'ExpectationVsReality'
p43
F0.0070996032574699997
sS'firstworldproblems'
p44
F0.0071837169083400002
sS'outside'
p45
F0.0078593684602100006
sS'lifehacks'
p46
F0.0070779027418299998
sS'memes'
p47
F0.0072014096376299998
sS'SubredditDrama'
p48
F0.0105619577137
sS'bestof'
p49
F0.0077714957342900001
sS'needamod'
p50
F0.021366698748800001
sS'casualiama'
p51
F0.0080296147930900008
sS'FloridaMan'
p52
F0.0073351045396799998
sS'answers'
p53
F0.010379433599099999
sS'promos'
p54
F0.0084277784202600008
sS'shittyaskscience'
p55
F0.0072038211573100001
sS'GamePhysics'
p56
F0.0072243807673600001
sS'Unexpected'
p57
F0.0073620230124199996
sS'netflix'
p58
F0.0070064987814800004
sS'wheredidthesodago'
p59
F0.0081395348837200003
sS'AnimalsBeingBros'
p60
F0.0074650077760500004
sS'whatstheword'
p61
F0.0085444902769600001
sS'OutOfTheLoop'
p62
F0.0121768661885
sS'firefox'
p63
F0.0088267380739900005
sS'TrueReddit'
p64
F0.0080962075659300001
sS'Assistance'
p65
F0.0075626482086800003
sS'misc'
p66
F0.010108613829400001
sS'IdiotsFightingThings'
p67
F0.0081967213114800003
sS'conspiratard'
p68
F0.0079064404546200003
sS'Damnthatsinteresting'
p69
F0.0078010317493600002
sS'CrazyIdeas'
p70
F0.0093006066951999995
sS'privacy'
p71
F0.00835332065172
sS'chrome'
p72
F0.010266786570699999
sS'Bad_Cop_No_Donut'
p73
F0.0078359670889400004
sS'ANormalDayInRussia'
p74
F0.0070246848739499998
sS'misleadingthumbnails'
p75
F0.0081470509022399992
sS'Pareidolia'
p76
F0.0077598922593499998
sS'explainlikeIAmA'
p77
F0.0082575120422099992
sS'mildlyinfuriating'
p78
F0.00728464760517
sS'oddlysatisfying'
p79
F0.0075850213550300001
sS'Awwducational'
p80
F0.0081482454987499998
sS'Random_Acts_Of_Amazon'
p81
F0.0074526226133900001
sS'rage'
p82
F0.0070058653756599996
sS'comics'
p83
F0.0072556660855299998
sS'offbeat'
p84
F0.0090228277542199996
sS'behindthegifs'
p85
F0.0082280340875700003
sS'softwaregore'
p86
F0.0093299406276499998
sS'torrents'
p87
F0.0085153965250300001
sS'fullmoviesonyoutube'
p88
F0.0071050498307200002
sS'NewsOfTheStupid'
p89
F0.0072088308177499999
sS'TrueAskReddit'
p90
F0.00715485142732
sS'conspiracy'
p91
F0.0073632664818299998
sS'AnythingGoesNews'
p92
F0.0078759239064600008
sS'counting'
p93
F0.00760425183974
sS'SRSsucks'
p94
F0.0072960906021999998
sS'techsupportmacgyver'
p95
F0.0076929177571600001
sS'HighQualityGifs'
p96
F0.0087408798670799998
sS'self'
p97
F0.0105251016465
sS'shittyama'
p98
F0.0073363431151199998
sS'circlebroke'
p99
F0.0096116878123800008
sS'nonononoyes'
p100
F0.0077640809099000004
sS'Whatcouldgowrong'
p101
F0.0078142257565700004
sS'talesfromtechsupport'
p102
F0.0077574047954900001
sS'notinteresting'
p103
F0.0071633237822299996
sS'AnimalsBeingJerks'
p104
F0.0080354569040100004
sS'windows'
p105
F0.0075041689827700002
sS'youtube'
p106
F0.0090315409198299997
sS'secretsanta'
p107
F0.0070312770600299999
sS'HailCorporate'
p108
F0.010086695565199999
sS'needadvice'
p109
F0.0078358655341499994
s.