(dp1
S'nl_Kripparrian'
p2
F0.0087303936075799997
sS'heroesofthestorm'
p3
F0.0078106282045100001
sS'pathofexile'
p4
F0.0088293613677999996
sS'DotA2'
p5
F0.0080680674383500003
sS'strife'
p6
F0.036589245943400003
s.