(dp1
S'awwwtf'
p2
F0.0073109664496700004
sS'Heavymind'
p3
F0.0126378058618
sS'DoesAnybodyElse'
p4
F0.0077323613642300004
sS'shrooms'
p5
F0.0127929477532
sS'dadjokes'
p6
F0.0086334204248600006
sS'futurama'
p7
F0.0072572841629900001
sS'perfectloops'
p8
F0.0096352374397800002
sS'everymanshouldknow'
p9
F0.0070786019761099996
sS'StonerPhilosophy'
p10
F0.028386902973900001
sS'LucidDreaming'
p11
F0.0086058519793499998
sS'WouldYouRather'
p12
F0.0098179071914099997
sS'quityourbullshit'
p13
F0.0081363970888899996
sS'LearnUselessTalents'
p14
F0.0082680058794700004
sS'StonerEngineering'
p15
F0.0293277764915
sS'holdmybeer'
p16
F0.00712839547832
sS'PerfectTiming'
p17
F0.0089847259658600003
sS'ploompax'
p18
F0.0073553448839499998
sS'trees'
p19
F0.0089664494198600005
sS'NoStupidQuestions'
p20
F0.010291928280099999
sS'3amjokes'
p21
F0.0101391181325
sS'toosoon'
p22
F0.0078874845576400003
sS'IWantToLearn'
p23
F0.0072645290581199997
sS'IdiotsFightingThings'
p24
F0.0089686098654700001
sS'ConfusedBoners'
p25
F0.0070386088396600004
sS'Marijuana'
p26
F0.013128639491799999
sS'CrappyDesign'
p27
F0.0074153438407499996
sS'NewsOfTheWeird'
p28
F0.0080753701211300002
sS'whitepeoplegifs'
p29
F0.0075896122896900002
sS'fifthworldproblems'
p30
F0.00892641737033
sS'see'
p31
F0.027665317139000001
sS'MarkMyWords'
p32
F0.012818991097900001
sS'entwives'
p33
F0.0105084221913
sS'firstworldanarchists'
p34
F0.0084879912663799999
sS'forwardsfromgrandma'
p35
F0.0078731172980399996
sS'LSD'
p36
F0.012648603815300001
sS'findareddit'
p37
F0.0092295345104299997
sS'shittyfoodporn'
p38
F0.0072965826555499999
sS'ExpectationVsReality'
p39
F0.0086767895878500003
sS'socialskills'
p40
F0.00719946133527
sS'outside'
p41
F0.0092828267704699995
sS'glassheads'
p42
F0.0095752516572599998
sS'blackpeoplegifs'
p43
F0.0073435231833299999
sS'glitch_art'
p44
F0.0070040668775399996
sS'FloridaMan'
p45
F0.0090226512713700007
sS'delusionalartists'
p46
F0.0082048118445399998
sS'answers'
p47
F0.0082946503310299992
sS'NotTimAndEric'
p48
F0.0077307134804299998
sS'shittyaskscience'
p49
F0.0075143097414800001
sS'Unexpected'
p50
F0.0075731096353300002
sS'leaves'
p51
F0.0092111709946099997
sS'TalesFromThePizzaGuy'
p52
F0.0077286884300400002
sS'DeepIntoYouTube'
p53
F0.0097969782814000001
sS'howtonotgiveafuck'
p54
F0.0090160958489700002
sS'wheredidthesodago'
p55
F0.0080076111948000003
sS'AnimalsBeingBros'
p56
F0.0080667213563000006
sS'classic4chan'
p57
F0.0083963056255200001
sS'ANormalDayInRussia'
p58
F0.0071785947357
sS'drunk'
p59
F0.0073698756333499997
sS'misc'
p60
F0.0076103500760999997
sS'AntiJokes'
p61
F0.0070832011840599998
sS'rant'
p62
F0.0071341569514500004
sS'marijuanaenthusiasts'
p63
F0.0091950959488299993
sS'Damnthatsinteresting'
p64
F0.0083057961954099997
sS'FiftyFifty'
p65
F0.0070061099796300003
sS'CrazyIdeas'
p66
F0.0149040953862
sS'eldertrees'
p67
F0.017558927378600001
sS'Drugs'
p68
F0.0102310495335
sS'OutOfTheLoop'
p69
F0.0080222508275099996
sS'onetruegod'
p70
F0.0071652925009799999
sS'ifyoulikeblank'
p71
F0.0077271013946500003
sS'misleadingthumbnails'
p72
F0.010611268868599999
sS'shittyadvice'
p73
F0.0075569071974899999
sS'MeanJokes'
p74
F0.0079500283929599992
sS'Pareidolia'
p75
F0.010841836734699999
sS'woahdude'
p76
F0.0091319786246700004
sS'explainlikeIAmA'
p77
F0.0091995529189200006
sS'treesgonewild'
p78
F0.0079712585606800009
sS'mildlyinfuriating'
p79
F0.0072452525754
sS'oddlysatisfying'
p80
F0.0082617557140800008
sS'Psychonaut'
p81
F0.014314177852300001
sS'shittyaskreddit'
p82
F0.0095893779198400007
sS'blunderyears'
p83
F0.0083835220428800008
sS'interestingasfuck'
p84
F0.0077957312361599997
sS'Perfectfit'
p85
F0.0108950878182
sS'nononono'
p86
F0.0076736672051700002
sS'Glitch_in_the_Matrix'
p87
F0.0095618573580499994
sS'standupshots'
p88
F0.0078372976997499993
sS'NewsOfTheStupid'
p89
F0.0082077502691099997
sS'awesome'
p90
F0.0092041755528099994
sS'mflb'
p91
F0.014918584553799999
sS'TrueAskReddit'
p92
F0.00709682682111
sS'FanTheories'
p93
F0.0078175336111000002
sS'DAE'
p94
F0.00771586037967
sS'eatsandwiches'
p95
F0.0072867552507500004
sS'shittyama'
p96
F0.0088592565531099999
sS'saplings'
p97
F0.025868178596700001
sS'nonononoyes'
p98
F0.0084199211752099996
sS'Whatcouldgowrong'
p99
F0.00761822624695
sS'sixwordstories'
p100
F0.0088847632939899994
sS'notinteresting'
p101
F0.0080354023523899996
sS'microgrowery'
p102
F0.0098030398417099998
sS'askdrugs'
p103
F0.00969230769231
sS'terriblefacebookmemes'
p104
F0.0082751744765700002
sS'CannabisExtracts'
p105
F0.0102157823413
sS'vaporents'
p106
F0.015162954574099999
s.