(dp1
S'Heavymind'
p2
F0.0089894374110400001
sS'malehairadvice'
p3
F0.0089225849708600008
sS'CityPorn'
p4
F0.0075673269530400003
sS'OFWGKTA'
p5
F0.041224712957899999
sS'rickandmorty'
p6
F0.00773886727194
sS'Hiphopcirclejerk'
p7
F0.096882558452
sS'dbz'
p8
F0.0072901849217599998
sS'DeepIntoYouTube'
p9
F0.0123917038593
sS'carporn'
p10
F0.0097560975609800003
sS'Stance'
p11
F0.0070002058884099999
sS'quityourbullshit'
p12
F0.0111182301285
sS'nostalgia'
p13
F0.0094630734416800005
sS'Eminem'
p14
F0.0187665117974
sS'HistoryPorn'
p15
F0.0076761593757300002
sS'StonerEngineering'
p16
F0.0073400454693099996
sS'badtattoos'
p17
F0.0081071554458899998
sS'GrandTheftAutoV'
p18
F0.011509926734
sS'hiphopheads'
p19
F0.060198622915799999
sS'PublicFreakout'
p20
F0.010840849047999999
sS'nononono'
p21
F0.0076951097350000004
sS'electronicmusic'
p22
F0.0076330108827099997
sS'CollegeBasketball'
p23
F0.0108581941488
sS'trees'
p24
F0.0073538818526300001
sS'cringepics'
p25
F0.010142514651
sS'toosoon'
p26
F0.0086839820004700006
sS'magicskyfairy'
p27
F0.0074164133738600004
sS'Braveryjerk'
p28
F0.0100362131402
sS'creepyPMs'
p29
F0.0071762670596500003
sS'WatchItForThePlot'
p30
F0.0096048897620600003
sS'Celebs'
p31
F0.011364752890299999
sS'nfl'
p32
F0.0079000849868799995
sS'seinfeld'
p33
F0.0082142551553000005
sS'CrappyDesign'
p34
F0.0084344401873100005
sS'WeAreTheMusicMakers'
p35
F0.00771333723882
sS'4chan'
p36
F0.011157864351499999
sS'montageparodies'
p37
F0.0082983901709499999
sS'minimalism'
p38
F0.0075666586596199997
sS'whitepeoplegifs'
p39
F0.0148495806725
sS'ArcherFX'
p40
F0.0086440519577599996
sS'cringe'
p41
F0.0119980270931
sS'badhistory'
p42
F0.00758133372589
sS'shittyreactiongifs'
p43
F0.014016787547900001
sS'NetflixBestOf'
p44
F0.0087594437753199996
sS'gentlemanboners'
p45
F0.0087594267499399997
sS'TheSimpsons'
p46
F0.0093070894193099992
sS'circlebroke2'
p47
F0.0075560187597699998
sS'SubredditDrama'
p48
F0.0112807657247
sS'tumblr'
p49
F0.0095732806731299996
sS'see'
p50
F0.011485343855700001
sS'MarkMyWords'
p51
F0.0099065949617899995
sS'rapbattles'
p52
F0.0078627591136499995
sS'skateboarding'
p53
F0.0113570026004
sS'nba'
p54
F0.012717766710600001
sS'Cinemagraphs'
p55
F0.0073109986342099996
sS'firstworldanarchists'
p56
F0.0093395252838000004
sS'rawdenim'
p57
F0.0092684307344000003
sS'no_sob_story'
p58
F0.00857480780603
sS'DunderMifflin'
p59
F0.0090669115115299993
sS'frugalmalefashion'
p60
F0.0085498389378900006
sS'trapmuzik'
p61
F0.052097248196599999
sS'shittyfoodporn'
p62
F0.010934611649
sS'ExpectationVsReality'
p63
F0.0076280180419199999
sS'breakingbad'
p64
F0.0103827942267
sS'malefashionadvice'
p65
F0.0107376682093
sS'RoomPorn'
p66
F0.0074279123414100002
sS'trap'
p67
F0.019150930762000001
sS'LetsTalkMusic'
p68
F0.017927572606699999
sS'blackpeoplegifs'
p69
F0.034743314319599997
sS'StandUpComedy'
p70
F0.0081306990881499994
sS'FloridaMan'
p71
F0.0086072856508199996
sS'delusionalartists'
p72
F0.0109758095342
sS'NotTimAndEric'
p73
F0.013177866703499999
sS'baseball'
p74
F0.0084651278027799998
sS'vinyl'
p75
F0.0134328947888
sS'GamePhysics'
p76
F0.0078588892769800005
sS'lewronggeneration'
p77
F0.038646520536300001
sS'youtubehaiku'
p78
F0.013846153846200001
sS'chicagobulls'
p79
F0.0098393743167099999
sS'headphones'
p80
F0.0074495046463399998
sS'lakers'
p81
F0.0076380728554599998
sS'wheredidthesodago'
p82
F0.0081458211572200002
sS'AnimalsBeingBros'
p83
F0.0079242135366999998
sS'classic4chan'
p84
F0.0106672895741
sS'mashups'
p85
F0.0086327386335600005
sS'NYKnicks'
p86
F0.0083825900053700001
sS'holdmybeer'
p87
F0.0080105259084399996
sS'Bombing'
p88
F0.0078561917443399996
sS'QuotesPorn'
p89
F0.0075659945957199997
sS'drunk'
p90
F0.010367142102499999
sS'reactiongifs'
p91
F0.0094480218204299991
sS'community'
p92
F0.010248714919699999
sS'KingOfTheHill'
p93
F0.0079484857631600004
sS'conspiratard'
p94
F0.0094708994708999992
sS'Sneakers'
p95
F0.0415358718894
sS'malefashion'
p96
F0.0159747659748
sS'ContagiousLaughter'
p97
F0.0083709300429399992
sS'Damnthatsinteresting'
p98
F0.0078179078952699994
sS'FiftyFifty'
p99
F0.0084003390962599997
sS'CrazyIdeas'
p100
F0.0094936708860800002
sS'Drugs'
p101
F0.0093207011622099996
sS'TeenMFA'
p102
F0.0107490382439
sS'OutOfTheLoop'
p103
F0.0098962104754999995
sS'TheWire'
p104
F0.0094457911894999993
sS'MorbidReality'
p105
F0.0081237637750799993
sS'Autos'
p106
F0.0072874138460899997
sS'ifyoulikeblank'
p107
F0.010374479888999999
sS'misleadingthumbnails'
p108
F0.0089354589868900006
sS'trailerparkboys'
p109
F0.0090077209036299993
sS'Pareidolia'
p110
F0.0073547438097599999
sS'woahdude'
p111
F0.0084304530722000004
sS'fatlogic'
p112
F0.00717593219421
sS'TrollYChromosome'
p113
F0.0075277552125599997
sS'makinghiphop'
p114
F0.049563642351399997
sS'sneakermarket'
p115
F0.016664851323399999
sS'mildlyinfuriating'
p116
F0.0085683362395500007
sS'madmen'
p117
F0.0071839080459800003
sS'Unexpected'
p118
F0.0091732784009500006
sS'indieheads'
p119
F0.032554847841499999
sS'MapPorn'
p120
F0.0073204523328099999
sS'Shitty_Car_Mods'
p121
F0.0086175345200499992
sS'IASIP'
p122
F0.0136693967009
sS'ghettoglamourshots'
p123
F0.010768562744200001
sS'blunderyears'
p124
F0.012181228638999999
sS'rage'
p125
F0.0112883943351
sS'thatHappened'
p126
F0.012022861808500001
sS'interestingasfuck'
p127
F0.0072987868456299999
sS'PerfectTiming'
p128
F0.0094701240135299999
sS'behindthegifs'
p129
F0.0089970641159200001
sS'standupshots'
p130
F0.0113133657263
sS'fullmoviesonyoutube'
p131
F0.0077512226630999997
sS'GTA'
p132
F0.0084053233714699999
sS'crappymusic'
p133
F0.0084685236200400006
sS'teenagers'
p134
F0.01213575473
sS'FanTheories'
p135
F0.0082202556538799997
sS'blackladies'
p136
F0.0070370370370399999
sS'supremeclothing'
p137
F0.022638629811799999
sS'bestofworldstar'
p138
F0.0249728555917
sS'southpark'
p139
F0.0096917532626600005
sS'MURICA'
p140
F0.0088300220750599998
sS'eatsandwiches'
p141
F0.0073126142595999997
sS'NBA2k'
p142
F0.013858547241900001
sS'circlebroke'
p143
F0.0124990863241
sS'bonnaroo'
p144
F0.00755186721992
sS'DaftPunk'
p145
F0.0086928263872000002
sS'saplings'
p146
F0.00739926739927
sS'Whatcouldgowrong'
p147
F0.0081800698827199994
sS'wallpapers'
p148
F0.0071889400921700004
sS'notinteresting'
p149
F0.0092174162542099994
sS'facepalm'
p150
F0.00787262981038
sS'forwardsfromgrandma'
p151
F0.0112147627058
sS'torontoraptors'
p152
F0.0078132927448000006
sS'PandR'
p153
F0.0096098032892599997
sS'glitch_art'
p154
F0.0087360087360099994
sS'HighQualityGifs'
p155
F0.0087924165407299998
sS'oddlysatisfying'
p156
F0.0081418966241800002
sS'TrueFilm'
p157
F0.0070832090665099998
sS'futurebeats'
p158
F0.017413645446800002
sS'CFB'
p159
F0.0073624028798099997
sS'HumanPorn'
p160
F0.0106748466258
sS'TimAndEric'
p161
F0.0085470085470099998
sS'terriblefacebookmemes'
p162
F0.013280541120199999
sS'PrettyGirls'
p163
F0.0071044419361300003
sS'TumblrInAction'
p164
F0.0078657110907800008
sS'Graffiti'
p165
F0.0087106346319499994
sS'listentothis'
p166
F0.0075602390556000001
sS'streetwear'
p167
F0.057758198727399998
s.