(dp1
S'circlebroke2'
p2
F0.019265816193699999
sS'badhistory'
p3
F0.0103388269014
sS'crappymusic'
p4
F0.011507671781199999
sS'PanicHistory'
p5
F0.0091584158415799997
sS'OFWGKTA'
p6
F0.026642664266399999
sS'NotTimAndEric'
p7
F0.0113551749814
sS'blackladies'
p8
F0.0071975853262100003
sS'MarkMyWords'
p9
F0.0093827884474399995
sS'DeepIntoYouTube'
p10
F0.0098621905819300006
sS'malefashion'
p11
F0.0103227920695
sS'supremeclothing'
p12
F0.0116607340125
sS'ShitRedditSays'
p13
F0.0089759281925699992
sS'forwardsfromgrandma'
p14
F0.0090714375708700005
sS'no_sob_story'
p15
F0.0107154112827
sS'NBA2k'
p16
F0.0079488350845099993
sS'ShitRConservativeSays'
p17
F0.0073059360730599997
sS'badlinguistics'
p18
F0.0071126917092700003
sS'TeenMFA'
p19
F0.0100730792021
sS'TheBluePill'
p20
F0.0082235212523499995
sS'circlebroke'
p21
F0.018475281697299999
sS'HipHopImages'
p22
F0.096882558452
sS'Eminem'
p23
F0.017829993089100001
sS'shittyreactiongifs'
p24
F0.0072412987619700003
sS'hiphopheads'
p25
F0.022953368558400002
sS'Frugal_Jerk'
p26
F0.0093317780369900002
sS'SubredditDrama'
p27
F0.0083431928521900001
sS'LetsTalkMusic'
p28
F0.016453135536099998
sS'blackpeoplegifs'
p29
F0.015814232809499999
sS'makinghiphop'
p30
F0.030229606553599998
sS'sneakermarket'
p31
F0.0093338213762799993
sS'badphilosophy'
p32
F0.0097029702970299996
sS'moviescirclejerk'
p33
F0.0076854862547999997
sS'bestofworldstar'
p34
F0.0128260400948
sS'delusionalartists'
p35
F0.0081641053786999998
sS'whitepeoplegifs'
p36
F0.0078511507851199997
sS'realdubstep'
p37
F0.007164790174
sS'EnoughLibertarianSpam'
p38
F0.0081660428717300008
sS'Sneakers'
p39
F0.0149515802916
sS'shittyadviceanimals'
p40
F0.0106411279596
sS'magicskyfairy'
p41
F0.018003646308099999
sS'TheoryOfReddit'
p42
F0.0071269487750599998
sS'NYKnicks'
p43
F0.0072411296162200002
sS'blunderyears'
p44
F0.0071036824236100004
sS'lewronggeneration'
p45
F0.030539701612100002
sS'Braveryjerk'
p46
F0.018683579019500001
sS'trapmuzik'
p47
F0.0637126376508
sS'thatHappened'
p48
F0.0071530758226000003
sS'futurebeats'
p49
F0.0121217998448
sS'conspiratard'
p50
F0.0100608948901
sS'terriblefacebookmemes'
p51
F0.015109725386699999
sS'trap'
p52
F0.010906189040599999
sS'quityourbullshit'
p53
F0.0075757575757600002
sS'indieheads'
p54
F0.0286357786358
sS'streetwear'
p55
F0.0248820575255
sS'Bombing'
p56
F0.0086067778375499993
s.