(dp1
S'asoiaf'
p2
F0.0270667877297
sS'inthenews'
p3
F0.0143240599052
sS'KitchenConfidential'
p4
F0.0070575712699000002
sS'BuyItForLife'
p5
F0.019811796942600001
sS'everymanshouldknow'
p6
F0.024044865054300001
sS'askphilosophy'
p7
F0.0110097972645
sS'relationships'
p8
F0.0153218128643
sS'NeutralPolitics'
p9
F0.011859269996
sS'syriancivilwar'
p10
F0.0146230861335
sS'JoeRogan'
p11
F0.00884144190749
sS'Showerthoughts'
p12
F0.043646277761499999
sS'HistoryPorn'
p13
F0.070382709482299993
sS'holdmybeer'
p14
F0.0177292495605
sS'ImaginaryMonsters'
p15
F0.00775556430963
sS'DeepIntoYouTube'
p16
F0.010455297839799999
sS'YouShouldKnow'
p17
F0.032983234788999997
sS'geology'
p18
F0.0070300098269000001
sS'skyrimmods'
p19
F0.0070136581764500003
sS'horror'
p20
F0.00895966116191
sS'UpliftingNews'
p21
F0.064705700888500001
sS'PandR'
p22
F0.0082059860746899992
sS'Jokes'
p23
F0.047500243009399999
sS'Military'
p24
F0.028870269567299999
sS'Steam'
p25
F0.016002403753000001
sS'photoshopbattles'
p26
F0.0302670215169
sS'IWantToLearn'
p27
F0.015181845208599999
sS'Astronomy'
p28
F0.018505945993300001
sS'Celebs'
p29
F0.014670963364999999
sS'CrappyDesign'
p30
F0.0226417403543
sS'NewsOfTheWeird'
p31
F0.0071833346635800004
sS'Patriots'
p32
F0.0076187178044199999
sS'techsupport'
p33
F0.0156939373682
sS'Libertarian'
p34
F0.0292986828053
sS'starcitizen'
p35
F0.0084486989752900008
sS'Anarcho_Capitalism'
p36
F0.0115496130161
sS'Paleo'
p37
F0.0079558829940299999
sS'pcgaming'
p38
F0.0170124133304
sS'EatCheapAndHealthy'
p39
F0.013104988830999999
sS'totalwar'
p40
F0.026194904430099999
sS'tea'
p41
F0.0080779172821300003
sS'blackpeoplegifs'
p42
F0.0086970829513700002
sS'polandball'
p43
F0.034758196584300002
sS'POLITIC'
p44
F0.0121032607308
sS'MechanicAdvice'
p45
F0.0078376637320200001
sS'fatpeoplestories'
p46
F0.014391829155100001
sS'OneY'
p47
F0.0082648883853899992
sS'nba'
p48
F0.015225527181999999
sS'fantasyfootball'
p49
F0.0104751798596
sS'forwardsfromgrandma'
p50
F0.016927246195500002
sS'frugalmalefashion'
p51
F0.010387677172999999
sS'movies'
p52
F0.034746327185400001
sS'skeptic'
p53
F0.029160696627899999
sS'Warthunder'
p54
F0.011820925553300001
sS'boardgames'
p55
F0.012176742592900001
sS'socialskills'
p56
F0.011847108265
sS'DebateReligion'
p57
F0.0118400529376
sS'Anticonsumption'
p58
F0.0072385279898600002
sS'gamedev'
p59
F0.0091743119266099998
sS'worldnews'
p60
F0.041429030530299997
sS'vexillology'
p61
F0.0219318712086
sS'tattoos'
p62
F0.0112463648763
sS'Economics'
p63
F0.037987800109500001
sS'LetsNotMeet'
p64
F0.0074080274557399997
sS'legaladvice'
p65
F0.015478278815400001
sS'answers'
p66
F0.018643522983
sS'lgbt'
p67
F0.011273100616
sS'baseball'
p68
F0.0198091192742
sS'doctorwho'
p69
F0.017354426494799999
sS'TopGear'
p70
F0.0161668938361
sS'sanfrancisco'
p71
F0.0089089850920000008
sS'ThriftStoreHauls'
p72
F0.00707948537587
sS'Frugal'
p73
F0.029364424267400002
sS'WarshipPorn'
p74
F0.016364609619900002
sS'personalfinance'
p75
F0.0424625208218
sS'creepy'
p76
F0.046714638699300003
sS'pics'
p77
F0.022222875740100002
sS'howtonotgiveafuck'
p78
F0.0101883362574
sS'IWantOut'
p79
F0.0115237473173
sS'vinyl'
p80
F0.0089630574190100003
sS'whatsthisbug'
p81
F0.0104574119901
sS'QuotesPorn'
p82
F0.025808193812199998
sS'apple'
p83
F0.017136106173200001
sS'TrueReddit'
p84
F0.0501293567047
sS'todayilearned'
p85
F0.034171081372900002
sS'Catholicism'
p86
F0.0087732232379800004
sS'confession'
p87
F0.015824620126299999
sS'findareddit'
p88
F0.0091931721063499994
sS'IdiotsFightingThings'
p89
F0.0144420036105
sS'Health'
p90
F0.014341110461200001
sS'Firearms'
p91
F0.011177417827
sS'gamernews'
p92
F0.013203971490999999
sS'ContagiousLaughter'
p93
F0.010961878206099999
sS'finance'
p94
F0.0076148190585300004
sS'HIMYM'
p95
F0.0095368794079800003
sS'FiftyFifty'
p96
F0.0145339323436
sS'eldertrees'
p97
F0.0074268766125699997
sS'AskHistorians'
p98
F0.079884026398400004
sS'army'
p99
F0.0070341106186200004
sS'Drugs'
p100
F0.014299391965
sS'OutOfTheLoop'
p101
F0.028762367406300001
sS'sports'
p102
F0.046155662814199999
sS'wheredidthesodago'
p103
F0.015681414021700001
sS'ifyoulikeblank'
p104
F0.0085980109079199993
sS'misleadingthumbnails'
p105
F0.0084261413694199996
sS'trailerparkboys'
p106
F0.0070160667929600002
sS'battlefield_4'
p107
F0.0106987411713
sS'Pareidolia'
p108
F0.010375153066899999
sS'hockey'
p109
F0.016228678650200001
sS'Filmmakers'
p110
F0.0082074389974099993
sS'Eve'
p111
F0.0094862323707200005
sS'cordcutters'
p112
F0.0148653758134
sS'LifeProTips'
p113
F0.047016401070100002
sS'Shitty_Car_Mods'
p114
F0.0132861393249
sS'PoliticalHumor'
p115
F0.014452613556200001
sS'UFOs'
p116
F0.0083765070449800007
sS'popping'
p117
F0.0095890410958900003
sS'EDC'
p118
F0.0100038037277
sS'dwarffortress'
p119
F0.0092365649963699996
sS'techsupportgore'
p120
F0.013986890647899999
sS'science'
p121
F0.052891694562100001
sS'firstworldproblems'
p122
F0.016850442615299999
sS'Entrepreneur'
p123
F0.0133628132918
sS'standupshots'
p124
F0.021826288632
sS'Meditation'
p125
F0.00914236889886
sS'MMA'
p126
F0.011215344264400001
sS'AskScienceFiction'
p127
F0.018234527960999999
sS'NewsOfTheStupid'
p128
F0.0088317525018900001
sS'awesome'
p129
F0.0074604370761099997
sS'india'
p130
F0.0080117125543899999
sS'DecidingToBeBetter'
p131
F0.0092905015022
sS'Glitch_in_the_Matrix'
p132
F0.0087146914088799994
sS'gadgets'
p133
F0.056435770165200003
sS'learnprogramming'
p134
F0.011635600046
sS'Infographics'
p135
F0.0096459004922899994
sS'TalesFromYourServer'
p136
F0.0072261231167799998
sS'CampingandHiking'
p137
F0.0135994273925
sS'Ask_Politics'
p138
F0.0113645311147
sS'HouseOfCards'
p139
F0.011616421884399999
sS'asmr'
p140
F0.0084764803202699995
sS'techsupportmacgyver'
p141
F0.0073698975346499999
sS'MURICA'
p142
F0.030079074575999998
sS'backpacking'
p143
F0.0080108966663600002
sS'technology'
p144
F0.033574215213399997
sS'travel'
p145
F0.0234358797096
sS'RealGirls'
p146
F0.014415813038
sS'scifi'
p147
F0.038260300850199998
sS'spaceporn'
p148
F0.0185647829083
sS'nyc'
p149
F0.016974061283000001
sS'photography'
p150
F0.016713009524899999
sS'economy'
p151
F0.015777936378500002
sS'BasicIncome'
p152
F0.0116893474902
sS'gaming'
p153
F0.024596837325800001
sS'askscience'
p154
F0.046525390294799997
sS'philosophy'
p155
F0.052426847269299998
sS'netsec'
p156
F0.0086579092412299996
sS'Images'
p157
F0.0086328443861800001
sS'dragonage'
p158
F0.0081048990759399996
sS'law'
p159
F0.014065346775200001
sS'MachinePorn'
p160
F0.011336808971099999
sS'oculus'
p161
F0.0102573572616
sS'CFB'
p162
F0.0182132202858
sS'FanTheories'
p163
F0.017771230373300001
sS'listentothis'
p164
F0.026116056488899999
sS'tall'
p165
F0.0101467437442
sS'ImGoingToHellForThis'
p166
F0.0233587312394
sS'needadvice'
p167
F0.0075376884422100002
sS'shield'
p168
F0.0070506343325499998
sS'Hunting'
p169
F0.0072552792007599997
sS'DoesAnybodyElse'
p170
F0.018986602842900002
sS'pettyrevenge'
p171
F0.017422898183399999
sS'CityPorn'
p172
F0.018926351804899998
sS'electronic_cigarette'
p173
F0.0083537236049300006
sS'washingtondc'
p174
F0.00927377805654
sS'london'
p175
F0.0101332652105
sS'dataisbeautiful'
p176
F0.066578209600400007
sS'japan'
p177
F0.012116737601
sS'islam'
p178
F0.012633332562100001
sS'linguistics'
p179
F0.017465653317699999
sS'beards'
p180
F0.012945091514099999
sS'gaybros'
p181
F0.00745008090183
sS'badlinguistics'
p182
F0.0071835588322699999
sS'nostalgia'
p183
F0.0177625156882
sS'Documentaries'
p184
F0.071240357703600002
sS'writing'
p185
F0.0231822098495
sS'AndroidQuestions'
p186
F0.0081558493994099996
sS'WorldofTanks'
p187
F0.0087255134878299993
sS'soccer'
p188
F0.020971993097799999
sS'wallpaper'
p189
F0.00838459894064
sS'texas'
p190
F0.0108201534236
sS'MensRights'
p191
F0.021984170081099999
sS'MilitaryPorn'
p192
F0.028362305580999999
sS'Frisson'
p193
F0.0112770294222
sS'electronicmusic'
p194
F0.0081762146482999998
sS'childfree'
p195
F0.014568490388499999
sS'food'
p196
F0.047003152444699998
sS'whitepeoplegifs'
p197
F0.00856930847117
sS'DebateAnAtheist'
p198
F0.0073852244752900002
sS'NoStupidQuestions'
p199
F0.0206982380297
sS'halo'
p200
F0.0093270856193799993
sS'Liberal'
p201
F0.0099322918038800001
sS'creepyPMs'
p202
F0.013324606890499999
sS'WatchItForThePlot'
p203
F0.0118146339383
sS'nfl'
p204
F0.020757314761600001
sS'freebies'
p205
F0.012316662111700001
sS'Watches'
p206
F0.00756763319237
sS'AdviceAnimals'
p207
F0.0193342971038
sS'SubredditDrama'
p208
F0.034029437665099999
sS'minimalism'
p209
F0.013788968824899999
sS'eu4'
p210
F0.0175960346964
sS'wallpapers'
p211
F0.0161821354492
sS'mildlyinteresting'
p212
F0.036920283373899999
sS'TrueAtheism'
p213
F0.018153202681999998
sS'badhistory'
p214
F0.035006797436399999
sS'energy'
p215
F0.0137950307403
sS'ADHD'
p216
F0.0074746283741099996
sS'Rateme'
p217
F0.0082231878809800006
sS'literature'
p218
F0.0142778966221
sS'TwoXChromosomes'
p219
F0.043708038912499997
sS'Cinemagraphs'
p220
F0.0082883671187599997
sS'canada'
p221
F0.025391295167200002
sS'DunderMifflin'
p222
F0.0074264928766300002
sS'psychology'
p223
F0.017515302964300001
sS'space'
p224
F0.064990361857399995
sS'shittyfoodporn'
p225
F0.014518935941
sS'malefashionadvice'
p226
F0.019015853407500002
sS'LearnUselessTalents'
p227
F0.0124699423318
sS'China'
p228
F0.0097544321701200001
sS'RoomPorn'
p229
F0.017838888777499999
sS'medicine'
p230
F0.0084614521378100008
sS'TheLastAirbender'
p231
F0.012941802842299999
sS'math'
p232
F0.014498239769799999
sS'bestof'
p233
F0.042153262580200003
sS'Cyberpunk'
p234
F0.0148436995066
sS'cars'
p235
F0.015882139777800001
sS'Metal'
p236
F0.0120683641437
sS'LadyBoners'
p237
F0.0079912424739999998
sS'Roadcam'
p238
F0.0075801467748200001
sS'GamePhysics'
p239
F0.0093829100113500003
sS'youtubehaiku'
p240
F0.0118528201233
sS'dayz'
p241
F0.0107333183217
sS'CanadaPolitics'
p242
F0.0075872145182399996
sS'recipes'
p243
F0.011452744531599999
sS'privacy'
p244
F0.010184134951900001
sS'programming'
p245
F0.019020670228000001
sS'Planetside'
p246
F0.0074888927691400004
sS'dogecoin'
p247
F0.0107933812638
sS'classicalmusic'
p248
F0.011377019833200001
sS'AskUK'
p249
F0.0078374236981599999
sS'misc'
p250
F0.0081821232222599998
sS'patientgamers'
p251
F0.0132884299365
sS'rant'
p252
F0.0077424228118199998
sS'Buddhism'
p253
F0.0098732240943800002
sS'pokemon'
p254
F0.0085282197430800004
sS'tf2'
p255
F0.0086066839426899994
sS'OldSchoolCool'
p256
F0.063176612101899995
sS'lego'
p257
F0.012631617432
sS'ANormalDayInRussia'
p258
F0.017268658740600001
sS'seduction'
p259
F0.0108982660321
sS'Autos'
p260
F0.010870412218500001
sS'Seattle'
p261
F0.0119564833457
sS'PenmanshipPorn'
p262
F0.0106989865218
sS'gentlemanboners'
p263
F0.020171957672000002
sS'explainlikeimfive'
p264
F0.041437961544999999
sS'dogs'
p265
F0.0126825871011
sS'ObscureMedia'
p266
F0.0081049180327900008
sS'CombatFootage'
p267
F0.024353557919900001
sS'TrollYChromosome'
p268
F0.011982292597800001
sS'DaystromInstitute'
p269
F0.0097383460188100006
sS'mildlyinfuriating'
p270
F0.023695318495800002
sS'madmen'
p271
F0.010133070014599999
sS'Awwducational'
p272
F0.0127582017011
sS'skyrim'
p273
F0.020510991215899999
sS'sex'
p274
F0.018645743629000001
sS'toronto'
p275
F0.011996678386500001
sS'television'
p276
F0.047743050310900002
sS'DCcomics'
p277
F0.0078311487080699998
sS'worldpolitics'
p278
F0.045957043588100002
sS'TheRedPill'
p279
F0.013583209927
sS'newzealand'
p280
F0.0073982737361300002
sS'PerfectTiming'
p281
F0.016153937522299999
sS'sweden'
p282
F0.0072321861366900003
sS'knives'
p283
F0.0077567988109299999
sS'AskMen'
p284
F0.022385942590900001
sS'KerbalSpaceProgram'
p285
F0.016636115775000002
sS'russia'
p286
F0.0121089309544
sS'gallifrey'
p287
F0.010410946868999999
sS'formula1'
p288
F0.0110554965704
sS'FoodPorn'
p289
F0.017304316326200001
sS'boston'
p290
F0.010517980060500001
sS'teenagers'
p291
F0.0095798028704800007
sS'sysadmin'
p292
F0.0137476624591
sS'conspiracy'
p293
F0.0358585980788
sS'AnythingGoesNews'
p294
F0.0091925927893900007
sS'collapse'
p295
F0.0113176201848
sS'HighQualityGifs'
p296
F0.010351055946599999
sS'self'
p297
F0.0251085131325
sS'IAmA'
p298
F0.023793564723699999
sS'Parenting'
p299
F0.0155149264864
sS'depression'
p300
F0.0117357801886
sS'britishproblems'
p301
F0.0190193266407
sS'UnresolvedMysteries'
p302
F0.012838972882199999
sS'conspiratard'
p303
F0.023006134969299999
sS'FutureWhatIf'
p304
F0.012086647132699999
sS'firefly'
p305
F0.0113755962111
sS'aww'
p306
F0.025216291732000001
sS'Futurology'
p307
F0.066789184579000002
sS'MLS'
p308
F0.00966446322483
sS'germany'
p309
F0.010839210488900001
sS'EnoughLibertarianSpam'
p310
F0.0098400020880600007
sS'progresspics'
p311
F0.0120014171415
sS'Minecraft'
p312
F0.0132081774997
sS'chemistry'
p313
F0.00769423387739
sS'windows'
p314
F0.0088166099449499997
sS'chicago'
p315
F0.012026350271900001
sS'investing'
p316
F0.016850458621
sS'TumblrInAction'
p317
F0.028129689072900001
sS'secretsanta'
p318
F0.0087928695323599999
sS'Fishing'
p319
F0.0076202008392699996
sS'HailCorporate'
p320
F0.012258345850099999
sS'Psychonaut'
p321
F0.0098258955373200004
sS'adventuretime'
p322
F0.0090743790311499997
sS'PanicHistory'
p323
F0.0079616963064300002
sS'fffffffuuuuuuuuuuuu'
p324
F0.016377222517600001
sS'PoliticalDiscussion'
p325
F0.026658427858900002
sS'spacex'
p326
F0.0078888436482100009
sS'Foodforthought'
p327
F0.029674967408400001
sS'languagelearning'
p328
F0.011756440280999999
sS'TheoryOfReddit'
p329
F0.012157043407000001
sS'TheBluePill'
p330
F0.0090234044553100003
sS'printSF'
p331
F0.0094535160002000001
sS'harrypotter'
p332
F0.014483429575700001
sS'wicked_edge'
p333
F0.0091124550506699997
sS'booksuggestions'
p334
F0.012674669515799999
sS'whowouldwin'
p335
F0.019898436661
sS'GrandTheftAutoV'
p336
F0.0107595640569
sS'CCW'
p337
F0.0082236082236100006
sS'ipad'
p338
F0.0073429117031899999
sS'Anxiety'
p339
F0.0076896852153499999
sS'arresteddevelopment'
p340
F0.0087051142546200003
sS'shutupandtakemymoney'
p341
F0.015057432499499999
sS'gonewild'
p342
F0.010329165424500001
sS'CrusaderKings'
p343
F0.022118247554199999
sS'JusticePorn'
p344
F0.030761472516400001
sS'trees'
p345
F0.0140343824635
sS'geek'
p346
F0.0269666013139
sS'lostgeneration'
p347
F0.0124079390838
sS'Fitness'
p348
F0.032420551332499999
sS'Conservative'
p349
F0.019783325482799999
sS'homestead'
p350
F0.0079620272546299994
sS'AbandonedPorn'
p351
F0.027410274454599998
sS'motorcycles'
p352
F0.013495672583200001
sS'progressive'
p353
F0.016535716119799999
sS'dadjokes'
p354
F0.0146524007801
sS'Marijuana'
p355
F0.0077778603452999997
sS'guns'
p356
F0.024210007741599999
sS'WeAreTheMusicMakers'
p357
F0.0099974711287200008
sS'thatHappened'
p358
F0.0213042686575
sS'futurama'
p359
F0.0150259594828
sS'architecture'
p360
F0.0089514685246999993
sS'nsfw'
p361
F0.016183740008400001
sS'cringe'
p362
F0.023398810407600001
sS'StarWars'
p363
F0.028337637886500001
sS'rpg'
p364
F0.015440353572700001
sS'AskWomen'
p365
F0.017879073487000002
sS'TheSimpsons'
p366
F0.0150457272101
sS'Christianity'
p367
F0.020335248288299999
sS'Justrolledintotheshop'
p368
F0.018463516947900001
sS'AskScienceDiscussion'
p369
F0.0076834125658500002
sS'changemyview'
p370
F0.034156131357900001
sS'Android'
p371
F0.019633098560099999
sS'PS4'
p372
F0.010065345699800001
sS'firstworldanarchists'
p373
F0.0209386389885
sS'nononono'
p374
F0.016903259203199999
sS'cosplay'
p375
F0.0083570210346799994
sS'truegaming'
p376
F0.0218103740536
sS'camping'
p377
F0.0080414370520999999
sS'lotr'
p378
F0.015765765765800001
sS'wow'
p379
F0.0100996861597
sS'WTF'
p380
F0.019856626071499999
sS'wikipedia'
p381
F0.031348794555600003
sS'breakingbad'
p382
F0.0142445204292
sS'outside'
p383
F0.0145044956032
sS'AskCulinary'
p384
F0.0122864273373
sS'foodhacks'
p385
F0.00733068482785
sS'pcmasterrace'
p386
F0.015905922722200001
sS'magicTCG'
p387
F0.0081293948787199994
sS'CollegeBasketball'
p388
F0.0098204314608300002
sS'europe'
p389
F0.040413853402600002
sS'StandUpComedy'
p390
F0.0102673336046
sS'jobs'
p391
F0.0135984227304
sS'casualiama'
p392
F0.0205330771147
sS'facepalm'
p393
F0.025935184358500001
sS'celebnsfw'
p394
F0.0070682805137200003
sS'NotTimAndEric'
p395
F0.0084130726205299995
sS'news'
p396
F0.042857516956
sS'environment'
p397
F0.0254572022192
sS'Unexpected'
p398
F0.025075494911100001
sS'RedditDayOf'
p399
F0.0131712003236
sS'relationship_advice'
p400
F0.010982511325300001
sS'nosleep'
p401
F0.0179844012846
sS'watchpeopledie'
p402
F0.015572519084
sS'Sherlock'
p403
F0.0097684515195400005
sS'ukpolitics'
p404
F0.0150534076945
sS'GunPorn'
p405
F0.0089055715021699993
sS'GetMotivated'
p406
F0.046319444444399997
sS'buildapc'
p407
F0.011999439218999999
sS'drunk'
p408
F0.013721250915
sS'reactiongifs'
p409
F0.0244180380103
sS'community'
p410
F0.0136860245278
sS'Music'
p411
F0.028023321421900001
sS'startrek'
p412
F0.0236345239686
sS'EarthPorn'
p413
F0.040459646825900003
sS'linux'
p414
F0.016001047103300001
sS'ainbow'
p415
F0.0080970692908500005
sS'Homebrewing'
p416
F0.0116083507002
sS'TheWire'
p417
F0.0070457111994899997
sS'Guitar'
p418
F0.0135106062562
sS'beer'
p419
F0.018146636530699999
sS'California'
p420
F0.0095759233926100001
sS'ireland'
p421
F0.013078491978399999
sS'HomeImprovement'
p422
F0.0089781005636400003
sS'web_design'
p423
F0.0110064575975
sS'fatlogic'
p424
F0.016912929165599999
sS'hiphopheads'
p425
F0.0127884042016
sS'androidapps'
p426
F0.0074699902131100003
sS'somethingimade'
p427
F0.0124327750854
sS'WritingPrompts'
p428
F0.034109731907300003
sS'MapPorn'
p429
F0.053631455638200001
sS'aviation'
p430
F0.016339406685400001
sS'Chromecast'
p431
F0.0070389583969100002
sS'offbeat'
p432
F0.040626851912800001
sS'socialism'
p433
F0.022588550818499999
sS'bodybuilding'
p434
F0.0082637558171400009
sS'Cooking'
p435
F0.024796596038299999
sS'IASIP'
p436
F0.00957052019358
sS'hardware'
p437
F0.0102610464459
sS'exmormon'
p438
F0.0078930728473899994
sS'DIY'
p439
F0.044052653333799999
sS'webdev'
p440
F0.0092595871250999995
sS'assassinscreed'
p441
F0.0098142306344199993
sS'ShitRedditSays'
p442
F0.0085591336832600007
sS'southpark'
p443
F0.016477332676799999
sS'starcraft'
p444
F0.0085217510823999993
sS'funny'
p445
F0.0196225426461
sS'Israel'
p446
F0.0115334271813
sS'Python'
p447
F0.0070893966330900001
sS'daddit'
p448
F0.0082547965541300006
sS'itookapicture'
p449
F0.013585913072099999
sS'tolkienfans'
p450
F0.0086895439290299997
sS'Whatcouldgowrong'
p451
F0.023972019747100001
sS'talesfromtechsupport'
p452
F0.0203755052491
sS'Anarchism'
p453
F0.013922994397399999
sS'notinteresting'
p454
F0.011464110424
sS'AnimalsBeingJerks'
p455
F0.019292320206499999
sS'DebateAChristian'
p456
F0.0080392254467599993
sS'running'
p457
F0.013608462044800001
sS'Teachers'
p458
F0.0077825586043099998
sS'Physics'
p459
F0.015382922535199999
sS'TrueFilm'
p460
F0.0130291605021
sS'HumanPorn'
p461
F0.019346006239199999
sS'Fantasy'
p462
F0.0175945966117
sS'Portland'
p463
F0.0094165222414799993
sS'AskEngineers'
p464
F0.0094248374834099997
sS'circlebroke'
p465
F0.012922771058699999
sS'PublicFreakout'
p466
F0.0155297388541
sS'ArtisanVideos'
p467
F0.0131096640649
sS'Bitcoin'
p468
F0.0153649167734
sS'rickandmorty'
p469
F0.0101295186546
sS'quotes'
p470
F0.012772133526900001
sS'woodworking'
p471
F0.0148332379044
sS'perfectloops'
p472
F0.0088549965854799999
sS'InternetIsBeautiful'
p473
F0.050185321645800002
sS'startups'
p474
F0.0080870798359599996
sS'carporn'
p475
F0.0105284582932
sS'TalesFromRetail'
p476
F0.0182942614699
sS'quityourbullshit'
p477
F0.019355192455299999
sS'Advice'
p478
F0.0090176515732900003
sS'ProtectAndServe'
p479
F0.015761710060799999
sS'woahdude'
p480
F0.027900260618400001
sS'Fallout'
p481
F0.0196048119624
sS'Seahawks'
p482
F0.0073215738407499996
sS'offmychest'
p483
F0.0193776479743
sS'australia'
p484
F0.017485136105899999
sS'slowcooking'
p485
F0.011914119058500001
sS'NSFW_GIF'
p486
F0.0108818520249
sS'howto'
p487
F0.0154293635104
sS'cringepics'
p488
F0.024363133180599999
sS'toosoon'
p489
F0.0085573390059900008
sS'bodyweightfitness'
p490
F0.0106086920131
sS'thewalkingdead'
p491
F0.016964474394799998
sS'gifs'
p492
F0.0305174840219
sS'Art'
p493
F0.044372679944400001
sS'Paranormal'
p494
F0.0088294431331400001
sS'4chan'
p495
F0.0254611631821
sS'compsci'
p496
F0.0083162948838699999
sS'montageparodies'
p497
F0.0075248973877600003
sS'zombies'
p498
F0.0083152478724200004
sS'ArcherFX'
p499
F0.015024907600800001
sS'getdisciplined'
p500
F0.0100254376777
sS'google'
p501
F0.011024995156
sS'gardening'
p502
F0.015303075544899999
sS'whatisthisthing'
p503
F0.026887927557000001
sS'NetflixBestOf'
p504
F0.025274639657200001
sS'ShouldIbuythisgame'
p505
F0.0088580467394599998
sS'tumblr'
p506
F0.010400215708199999
sS'interestingasfuck'
p507
F0.033166904422299998
sS'PropagandaPosters'
p508
F0.025376625336400001
sS'Coffee'
p509
F0.0109990300679
sS'gameofthrones'
p510
F0.028610202674099999
sS'humor'
p511
F0.026545350146900001
sS'mountandblade'
p512
F0.0104956696188
sS'AMA'
p513
F0.016400229284799998
sS'SkincareAddiction'
p514
F0.0079782771192799997
sS'ExpectationVsReality'
p515
F0.0095150960658699994
sS'nonononoyes'
p516
F0.021988066084900001
sS'religion'
p517
F0.0091175935787199992
sS'lifehacks'
p518
F0.021743956928400001
sS'Enhancement'
p519
F0.0085845379643799992
sS'biology'
p520
F0.0084001887682900005
sS'ProgrammerHumor'
p521
F0.0092295264061400002
sS'business'
p522
F0.023913781701799999
sS'FloridaMan'
p523
F0.0192124621376
sS'delusionalartists'
p524
F0.0126098830759
sS'OkCupid'
p525
F0.0123072550274
sS'Cynicalbrit'
p526
F0.0092002830856299997
sS'promos'
p527
F0.0245666824674
sS'shittyaskscience'
p528
F0.020116574503100001
sS'lewronggeneration'
p529
F0.014008477314600001
sS'worldbuilding'
p530
F0.014829372878300001
sS'calvinandhobbes'
p531
F0.0087596525096500007
sS'netflix'
p532
F0.013720792119800001
sS'bayarea'
p533
F0.0075289119660100004
sS'masseffect'
p534
F0.0105275335493
sS'anime'
p535
F0.0097817636103899996
sS'AnimalsBeingBros'
p536
F0.0134352764397
sS'classic4chan'
p537
F0.0085640741898999999
sS'Games'
p538
F0.0251529350514
sS'GameDeals'
p539
F0.014354981250100001
sS'battlestations'
p540
F0.0107933296956
sS'paradoxplaza'
p541
F0.026594184918700001
sS'amiugly'
p542
F0.0090524710611999994
sS'ShitAmericansSay'
p543
F0.0103731187291
sS'Scotland'
p544
F0.0154378308107
sS'TrollXChromosomes'
p545
F0.018916097406000001
sS'tifu'
p546
F0.040510362220500001
sS'unitedkingdom'
p547
F0.026914920159700002
sS'Damnthatsinteresting'
p548
F0.019828306617
sS'DnD'
p549
F0.0133543586458
sS'loseit'
p550
F0.013267019436199999
sS'CrazyIdeas'
p551
F0.023019578930099999
sS'TinyHouses'
p552
F0.0086493679308100001
sS'Bad_Cop_No_Donut'
p553
F0.025831261653199999
sS'SquaredCircle'
p554
F0.0075731591872600004
sS'MorbidReality'
p555
F0.026801173356200001
sS'gif'
p556
F0.013088835611999999
sS'cats'
p557
F0.016805997385999999
sS'introvert'
p558
F0.0071524998223699999
sS'raisedbynarcissists'
p559
F0.0118785745711
sS'happy'
p560
F0.0110256647827
sS'explainlikeIAmA'
p561
F0.0120920126588
sS'batman'
p562
F0.012861394557800001
sS'occupywallstreet'
p563
F0.0082758987732500008
sS'WebGames'
p564
F0.0071319893495599999
sS'xboxone'
p565
F0.0090286219471799999
sS'NoFap'
p566
F0.0074744019306900002
sS'Austin'
p567
F0.00852562498797
sS'blunderyears'
p568
F0.012607739751299999
sS'Marvel'
p569
F0.0123023758099
sS'webcomics'
p570
F0.0084401923462199997
sS'rage'
p571
F0.023176206509499999
sS'comics'
p572
F0.026819352821200002
sS'behindthegifs'
p573
F0.0128794291934
sS'books'
p574
F0.0491160638308
sS'civ'
p575
F0.026172541634800001
sS'BustyPetite'
p576
F0.0089998517671499995
sS'RealEstate'
p577
F0.0071867182169700001
sS'fullmoviesonyoutube'
p578
F0.018857704576000001
sS'iphone'
p579
F0.012404040404
sS'videos'
p580
F0.0259405397961
sS'keto'
p581
F0.0112201339894
sS'TrueAskReddit'
p582
F0.017488001872899998
sS'engineering'
p583
F0.0108407564616
sS'tipofmytongue'
p584
F0.0169445505923
sS'politics'
p585
F0.0430864380888
sS'education'
p586
F0.0093446330491800001
sS'ForeverAlone'
p587
F0.0078233466293499993
sS'bicycling'
p588
F0.017318624498699999
sS'Survival'
p589
F0.010511370712600001
sS'DestinyTheGame'
p590
F0.0073481569492799999
sS'AskSocialScience'
p591
F0.018310002028799999
sS'zelda'
p592
F0.0077247318052700003
sS'ImaginaryLandscapes'
p593
F0.0080175478405599999
sS'TheWayWeWere'
p594
F0.016161101198099999
sS'LosAngeles'
p595
F0.0120610280409
sS'Feminism'
p596
F0.010612301892100001
sS'nottheonion'
p597
F0.066678572704199995
sS'raspberry_pi'
p598
F0.0073967049081299996
sS'SuicideWatch'
p599
F0.0078321341274499995
sS'Warhammer'
p600
F0.0076447625244000002
sS'comicbooks'
p601
F0.0179541549939
sS'oddlysatisfying'
p602
F0.022525290725200001
sS'cosplaygirls'
p603
F0.0070420970787500002
sS'entertainment'
p604
F0.022161258519399998
sS'atheism'
p605
F0.030192469188999999
sS'Design'
p606
F0.012167284003800001
sS'PrettyGirls'
p607
F0.00756018455073
sS'urbanexploration'
p608
F0.0094438614900300005
s.