(dp1
S'Random_Acts_Of_Amazon'
p2
F0.013179800222
sS'beermoney'
p3
F0.058706947345899999
sS'eFreebies'
p4
F0.0087503686953100002
sS'RandomKindness'
p5
F0.00744269127717
sS'Assistance'
p6
F0.00875382980054
sS'EatCheapAndHealthy'
p7
F0.0085350216380800006
sS'mturk'
p8
F0.182193144645
sS'budgetfood'
p9
F0.0085626911314999991
sS'Random_Acts_Of_Pizza'
p10
F0.0074223477208600003
sS'freebies'
p11
F0.0154012429073
sS'Frugal'
p12
F0.011098842795100001
sS'slowcooking'
p13
F0.00722114104271
sS'Flipping'
p14
F0.0136784693966
sS'giftcardexchange'
p15
F0.016634676903400002
s.