(dp1
S'CombatFootage'
p2
F0.0143718127028
sS'Helicopters'
p3
F0.0241910147659
sS'MilitaryPorn'
p4
F0.016189934309199999
sS'KerbalSpaceProgram'
p5
F0.0121830855592
sS'flightsim'
p6
F0.12856440511299999
sS'simracing'
p7
F0.019148936170199998
sS'oculus'
p8
F0.00765182337352
sS'WarshipPorn'
p9
F0.0144026682838
sS'Warthunder'
p10
F0.022905936568199999
sS'flying'
p11
F0.023941453214799999
sS'wargame'
p12
F0.033775914279099997
sS'radiocontrol'
p13
F0.0112526539278
sS'modelmakers'
p14
F0.0144801621778
sS'KerbalAcademy'
p15
F0.0084235860409099996
sS'MachinePorn'
p16
F0.0083788244255400008
sS'WorldofTanks'
p17
F0.0078253092860300008
sS'stalker'
p18
F0.0089485458613000005
sS'aviation'
p19
F0.0252146244822
sS'starcitizen'
p20
F0.0129003776917
sS'spaceengineers'
p21
F0.0104231166151
sS'arma'
p22
F0.038173142467600001
s.