(dp1
S'PJRP_Community'
p2
F0.112546125461
sS'PotterPlayRP'
p3
F0.13618677042800001
sS'DWMA'
p4
F0.0140845070423
sS'ExploreFiction'
p5
F0.0079155672823200008
sS'randomsuperpowers'
p6
F0.0088888888888900008
sS'PercyJacksonRP'
p7
F0.104166666667
s.