(dp1
S'gamemusic'
p2
F0.0086939142600200008
sS'ShingekiNoKyojin'
p3
F0.0123456790123
sS'AskScienceFiction'
p4
F0.0074954194658800001
sS'HPMOR'
p5
F0.0097484276729600007
sS'adventuretime'
p6
F0.0121453176604
sS'zelda'
p7
F0.0080629145648799996
sS'tumblr'
p8
F0.0087947140578700008
sS'rpg'
p9
F0.0094380654140600005
sS'TwoBestFriendsPlay'
p10
F0.0087039592399999997
sS'polandball'
p11
F0.0070754716981100002
sS'MLPLounge'
p12
F0.0127663852031
sS'pokemon'
p13
F0.0087530348113400002
sS'GamePhysics'
p14
F0.0073971043813599998
sS'tf2'
p15
F0.012156543745500001
sS'DnD'
p16
F0.009039148197
sS'furry'
p17
F0.010857563489100001
sS'smashbros'
p18
F0.0086406774291100004
sS'Yogscast'
p19
F0.0075223319228999996
sS'outside'
p20
F0.0095599538816299994
sS'touhou'
p21
F0.0078702974972499999
sS'whowouldwin'
p22
F0.0097190415014200005
sS'WebGames'
p23
F0.0080375083724000002
sS'Portal'
p24
F0.0085090640029600005
sS'TheLastAirbender'
p25
F0.0099905619115599996
sS'SCP'
p26
F0.0179894179894
sS'RWBY'
p27
F0.013749612323
sS'fifthworldproblems'
p28
F0.0116009280742
sS'starbound'
p29
F0.0132956545909
sS'explainlikeIAmA'
p30
F0.0122798513492
sS'gaymers'
p31
F0.00710051462445
sS'CookieClicker'
p32
F0.00962089107777
sS'custommagic'
p33
F0.0080896962815799993
sS'gamegrumps'
p34
F0.017869881580799999
sS'KingdomHearts'
p35
F0.0074583494769499999
sS'mylittlepony'
p36
F0.017774299927300001
sS'ftlgame'
p37
F0.0087935822277099996
sS'JonTron'
p38
F0.015447391431100001
sS'AnimalCrossing'
p39
F0.0100431263662
sS'nintendo'
p40
F0.0070079669518999998
sS'ainbow'
p41
F0.0078032230703999998
sS'bindingofisaac'
p42
F0.0119449764931
sS'Minecraft'
p43
F0.0083759638793299996
sS'lewronggeneration'
p44
F0.0077912982579000003
sS'KillLaKill'
p45
F0.0149949169773
sS'webcomics'
p46
F0.0072955719931100003
sS'dwarffortress'
p47
F0.0108610217935
sS'forwardsfromgrandma'
p48
F0.0070929725010899997
sS'feedthebeast'
p49
F0.0072442936813700001
sS'Terraria'
p50
F0.0108101957214
sS'fireemblem'
p51
F0.0085717236393699995
sS'worldbuilding'
p52
F0.0118481826093
sS'katawashoujo'
p53
F0.0076628352490400002
sS'Megaten'
p54
F0.0078026680090599997
sS'softwaregore'
p55
F0.0078888390856099999
sS'TumblrInAction'
p56
F0.0104629905742
sS'wheredidthesodago'
p57
F0.00741537633995
sS'classic4chan'
p58
F0.0073810350816299998
sS'evangelion'
p59
F0.00934800615312
s.