(dp1
S'RandomActsOfGaming'
p2
F0.0091370893257700005
sS'NoStupidQuestions'
p3
F0.0119047619048
sS'malehairadvice'
p4
F0.0080315818132300001
sS'EngineeringStudents'
p5
F0.015277581911299999
sS'teenagers'
p6
F0.0141656185874
sS'self'
p7
F0.0080816562147399996
sS'dadjokes'
p8
F0.0076548587534400001
sS'engineering'
p9
F0.0075879417707900004
sS'AskScienceDiscussion'
p10
F0.0076419213973799999
sS'college'
p11
F0.017718587145299999
sS'changemyview'
p12
F0.010043280434999999
sS'dataisbeautiful'
p13
F0.0071642282671400001
sS'counting'
p14
F0.0070567102899700002
sS'cheatatmathhomework'
p15
F0.039444132509800001
sS'notinteresting'
p16
F0.0078554595443799998
sS'firstworldanarchists'
p17
F0.0079623597538899995
sS'statistics'
p18
F0.0102132527167
sS'AskHistorians'
p19
F0.0086088492102400008
sS'OutOfTheLoop'
p20
F0.0093727319854800002
sS'learnmath'
p21
F0.029450856942999998
sS'socialskills'
p22
F0.0072629176177600001
sS'picrequests'
p23
F0.0072413917954999999
sS'SuggestALaptop'
p24
F0.0085335728722200008
sS'casualiama'
p25
F0.0086272391146499997
sS'tipofmytongue'
p26
F0.0101780483525
sS'math'
p27
F0.015884825713300001
sS'needadvice'
p28
F0.0079242461998500005
sS'biology'
p29
F0.0096395898569400004
sS'AskAcademia'
p30
F0.0077915753591400001
sS'YouShouldKnow'
p31
F0.0072761554825000003
sS'GiftofGames'
p32
F0.0078280397818399992
sS'askscience'
p33
F0.01054243687
sS'mildlyinfuriating'
p34
F0.0070896384428799997
sS'oddlysatisfying'
p35
F0.0071737930803799999
sS'CrazyIdeas'
p36
F0.0082842877465099992
sS'answers'
p37
F0.0075255030938199997
sS'GradSchool'
p38
F0.0073321234119799999
sS'shittyaskscience'
p39
F0.0090410695392900003
sS'explainlikeIAmA'
p40
F0.0074209245742099996
sS'Physics'
p41
F0.011930862183200001
sS'lewronggeneration'
p42
F0.007109622185
sS'IWantToLearn'
p43
F0.0086995225378300005
sS'chemistry'
p44
F0.0119918928049
sS'grammar'
p45
F0.0075443541701200002
sS'thatHappened'
p46
F0.00723142487996
sS'findareddit'
p47
F0.00916420161244
sS'SampleSize'
p48
F0.011971010741600001
sS'techsupport'
p49
F0.0113882182184
sS'AskPhysics'
p50
F0.018002571796
sS'whatstheword'
p51
F0.0076809453471200001
sS'AskEngineers'
p52
F0.0081918298703399992
sS'Advice'
p53
F0.0094814018655699998
sS'learnprogramming'
p54
F0.0125054596446
s.