(dp1
S'TrueAtheism'
p2
F0.0084400257492299995
sS'SelfDrivingCars'
p3
F0.0081946222791300007
sS'haskell'
p4
F0.0070242656449600004
sS'AskScienceFiction'
p5
F0.013407304669400001
sS'homestuck'
p6
F0.0097484276729600007
sS'badphilosophy'
p7
F0.00722942802467
sS'TheoryOfReddit'
p8
F0.011499684940099999
sS'badlinguistics'
p9
F0.0070048309178699997
sS'skeptic'
p10
F0.0070434439623599998
sS'printSF'
p11
F0.0093374833259199999
sS'DebateReligion'
p12
F0.0073819920981499998
sS'compsci'
p13
F0.0085253887951999997
sS'whowouldwin'
p14
F0.0072481275670499999
sS'dwarffortress'
p15
F0.0072804758945200004
sS'SCP'
p16
F0.0103519668737
sS'math'
p17
F0.0080748399803100002
sS'explainlikeIAmA'
p18
F0.0085009330292300008
sS'BasicIncome'
p19
F0.010422306442900001
sS'DaystromInstitute'
p20
F0.0077083667897900002
sS'dresdenfiles'
p21
F0.013649425287399999
sS'DebateAnAtheist'
p22
F0.0095296649246799994
sS'NeutralPolitics'
p23
F0.0070718654434300003
sS'KingkillerChronicle'
p24
F0.0072727272727299997
sS'worldbuilding'
p25
F0.0081047891936100007
sS'conlangs'
p26
F0.0071111111111100004
s.