(dp1
S'Welding'
p2
F0.00832155754436
sS'Cartalk'
p3
F0.0102681686771
sS'Justrolledintotheshop'
p4
F0.0074551801668499996
sS'hometheater'
p5
F0.0085035777247699992
sS'howto'
p6
F0.0070068419751100003
sS'cablefail'
p7
F0.0098157396245899999
sS'HomeImprovement'
p8
F0.030795207847599999
sS'electricians'
p9
F0.035774269398700001
sS'woodworking'
p10
F0.0079817085844900004
sS'MechanicAdvice'
p11
F0.010478519036
sS'Plumbing'
p12
F0.0400242571255
sS'electronics'
p13
F0.0070878274268100002
sS'AskEngineers'
p14
F0.0086998943003499998
sS'RealEstate'
p15
F0.012597480503899999
sS'homestead'
p16
F0.0070210631895699996
s.