(dp1
S'IDAP'
p2
F0.018590167028399999
sS'FancyFollicles'
p3
F0.0086791538834200006
sS'awwwtf'
p4
F0.0093278057447400003
sS'Heavymind'
p5
F0.0097074197271100008
sS'DoesAnybodyElse'
p6
F0.0093576185815599996
sS'pettyrevenge'
p7
F0.00939373339101
sS'PublicFreakout'
p8
F0.0078588818177900005
sS'cringepics'
p9
F0.0077744936046399999
sS'LucidDreaming'
p10
F0.0088343682164700003
sS'fffffffuuuuuuuuuuuu'
p11
F0.00756558877364
sS'uglyduckling'
p12
F0.0070195255768899997
sS'rickandmorty'
p13
F0.0077886066141999999
sS'dadjokes'
p14
F0.0105358217941
sS'futurama'
p15
F0.0076318641618499999
sS'perfectloops'
p16
F0.011148607930599999
sS'everymanshouldknow'
p17
F0.0083561822692299996
sS'InternetIsBeautiful'
p18
F0.0090890189205999998
sS'RandomActsOfGaming'
p19
F0.0118616599428
sS'TalesFromRetail'
p20
F0.0085087535258900008
sS'WouldYouRather'
p21
F0.011403395101699999
sS'quityourbullshit'
p22
F0.0112830431979
sS'LearnUselessTalents'
p23
F0.0122240743547
sS'writing'
p24
F0.0087287310902099992
sS'booksuggestions'
p25
F0.00711829935596
sS'badtattoos'
p26
F0.011073198995699999
sS'whowouldwin'
p27
F0.011534265080299999
sS'woahdude'
p28
F0.0086302373528300003
sS'ImaginaryMonsters'
p29
F0.0117869285984
sS'adventuretime'
p30
F0.011477529906200001
sS'nononono'
p31
F0.0077499464782699997
sS'offmychest'
p32
F0.0088213767511099994
sS'Anxiety'
p33
F0.00706325537592
sS'YouShouldKnow'
p34
F0.0087596705764900005
sS'shutupandtakemymoney'
p35
F0.0086236338797799992
sS'Random_Acts_Of_Amazon'
p36
F0.011277030795
sS'whitepeoplegifs'
p37
F0.0077332044465899998
sS'AbandonedPorn'
p38
F0.00731213684142
sS'patientgamers'
p39
F0.0071470310603699997
sS'tipofmytongue'
p40
F0.0110048635727
sS'NoStupidQuestions'
p41
F0.012013147561
sS'3amjokes'
p42
F0.00847035376183
sS'toosoon'
p43
F0.0070297521834799996
sS'beards'
p44
F0.0070990544663599997
sS'PrettyGirlsUglyFaces'
p45
F0.0083055246570299997
sS'photoshopbattles'
p46
F0.0121533228676
sS'IWantToLearn'
p47
F0.0100230316472
sS'firstimpression'
p48
F0.0087167673245800003
sS'Art'
p49
F0.0086156100202299992
sS'creepyPMs'
p50
F0.0099323493234900005
sS'IdiotsFightingThings'
p51
F0.0081279358209699996
sS'penpals'
p52
F0.0080943888050499999
sS'freebies'
p53
F0.010056953355900001
sS'CrappyDesign'
p54
F0.0099956317290599995
sS'ConfusedBoners'
p55
F0.0082600788117600001
sS'Frisson'
p56
F0.0099854959277000006
sS'CatsStandingUp'
p57
F0.0074120308964699998
sS'minimalism'
p58
F0.0076984337669199999
sS'DeepIntoYouTube'
p59
F0.0119362097642
sS'fifthworldproblems'
p60
F0.0080202617138000008
sS'cringe'
p61
F0.0074746816235199999
sS'whatisthisthing'
p62
F0.011672131147500001
sS'glitch_art'
p63
F0.0077456833951900003
sS'AskWomen'
p64
F0.0075780654988600003
sS'redditgetsdrawn'
p65
F0.029706982543600002
sS'Paranormal'
p66
F0.00703082747431
sS'tumblr'
p67
F0.0089878542510099992
sS'DCcomics'
p68
F0.0072885584307600003
sS'interestingasfuck'
p69
F0.010040877238499999
sS'MarkMyWords'
p70
F0.0109367173151
sS'changemyview'
p71
F0.0080476055539800001
sS'fatpeoplestories'
p72
F0.0072761026439499997
sS'KarmaCourt'
p73
F0.0071935452512900001
sS'notinteresting'
p74
F0.011572964459400001
sS'firstworldanarchists'
p75
F0.010572775104100001
sS'forwardsfromgrandma'
p76
F0.00830683058812
sS'cosplay'
p77
F0.0093182354328899993
sS'Glitch_in_the_Matrix'
p78
F0.0098372859725600007
sS'AMA'
p79
F0.0074390717814899997
sS'shittyfoodporn'
p80
F0.0076009216865699997
sS'PixelArt'
p81
F0.0089239746009999992
sS'ExpectationVsReality'
p82
F0.011149698409800001
sS'socialskills'
p83
F0.0071747309475900002
sS'firstworldproblems'
p84
F0.0070542447093199998
sS'outside'
p85
F0.012163484030099999
sS'GuessTheMovie'
p86
F0.0071845886625600004
sS'facepalm'
p87
F0.0093264573569299992
sS'lifehacks'
p88
F0.0090853364858399996
sS'disney'
p89
F0.0075538412086100003
sS'SubredditDrama'
p90
F0.00802286978975
sS'tattoos'
p91
F0.0091928118142499994
sS'blackpeoplegifs'
p92
F0.0070090396960600003
sS'bestof'
p93
F0.0078474557774499999
sS'needamod'
p94
F0.0107108854332
sS'casualiama'
p95
F0.013321784322200001
sS'LetsNotMeet'
p96
F0.0070887313615300004
sS'delusionalartists'
p97
F0.013483260404999999
sS'Random_Acts_Of_Pizza'
p98
F0.0088080693280300007
sS'promos'
p99
F0.0077665003084199996
sS'LadyBoners'
p100
F0.0071241640011599997
sS'shittyaskscience'
p101
F0.0106987712548
sS'doctorwho'
p102
F0.0078834580622199994
sS'lewronggeneration'
p103
F0.0080068741944300005
sS'worldbuilding'
p104
F0.011528028933099999
sS'youtubehaiku'
p105
F0.00772514738768
sS'ThriftStoreHauls'
p106
F0.0081403004728600008
sS'calvinandhobbes'
p107
F0.0082708892973299992
sS'4chan'
p108
F0.0072317762505899998
sS'itookapicture'
p109
F0.0071495630822600003
sS'sixwordstories'
p110
F0.0082942661377599994
sS'AnimalsBeingBros'
p111
F0.0086985245540600001
sS'classic4chan'
p112
F0.0073529411764700001
sS'learnart'
p113
F0.014906712829400001
sS'whatstheword'
p114
F0.0078048780487800003
sS'holdmybeer'
p115
F0.0078933842426000007
sS'AnimeSketch'
p116
F0.0086040982678600008
sS'whatsthisbug'
p117
F0.0075483223526300004
sS'QuotesPorn'
p118
F0.0073462973875499998
sS'drunk'
p119
F0.0075232938806299998
sS'Assistance'
p120
F0.0085325196360999996
sS'confession'
p121
F0.0082718666945399994
sS'reactiongifs'
p122
F0.0075821242877300004
sS'AntiJokes'
p123
F0.0083891326098700005
sS'findareddit'
p124
F0.0157222816175
sS'rant'
p125
F0.0083183602848199995
sS'RandomKindness'
p126
F0.011540757445100001
sS'rpg'
p127
F0.0072463768115899998
sS'TrollXChromosomes'
p128
F0.0070530760146900002
sS'ContagiousLaughter'
p129
F0.0091019417475699995
sS'harrypotter'
p130
F0.0075202258782599996
sS'nostalgia'
p131
F0.0082695953454900006
sS'TheLastAirbender'
p132
F0.0070360218418799997
sS'Damnthatsinteresting'
p133
F0.0088324912253599994
sS'DnD'
p134
F0.0087727071333599995
sS'FiftyFifty'
p135
F0.0100862047549
sS'CrazyIdeas'
p136
F0.0138275621659
sS'lego'
p137
F0.0078879762637000007
sS'OutOfTheLoop'
p138
F0.013505139218300001
sS'EatCheapAndHealthy'
p139
F0.0076461769115399999
sS'onetruegod'
p140
F0.0080868424887099999
sS'GamePhysics'
p141
F0.0088390643527000001
sS'MorbidReality'
p142
F0.0093359811910799992
sS'gif'
p143
F0.0070726506838599996
sS'wheredidthesodago'
p144
F0.0107684265551
sS'PenmanshipPorn'
p145
F0.010283773951
sS'ifyoulikeblank'
p146
F0.0091049382715999994
sS'misleadingthumbnails'
p147
F0.0125532922785
sS'shittyadvice'
p148
F0.0072197153766099999
sS'raisedbynarcissists'
p149
F0.0074313191432099999
sS'Pareidolia'
p150
F0.0116813155656
sS'dogs'
p151
F0.0070125717607700004
sS'happy'
p152
F0.0089570936423399999
sS'explainlikeIAmA'
p153
F0.0139036016949
sS'alternativeart'
p154
F0.0113626581734
sS'FloridaMan'
p155
F0.0072579399804399997
sS'Unexpected'
p156
F0.0114057644071
sS'batman'
p157
F0.0089200599210100002
sS'WebGames'
p158
F0.0076813268982400002
sS'snackexchange'
p159
F0.0080314565381100003
sS'mildlyinfuriating'
p160
F0.0099969036139199996
sS'somethingimade'
p161
F0.011882282503599999
sS'WritingPrompts'
p162
F0.0112393514702
sS'Awwducational'
p163
F0.0112886418895
sS'skyrim'
p164
F0.0073812933788700002
sS'shittyaskreddit'
p165
F0.0074352619434200004
sS'AskMen'
p166
F0.0072301638910599996
sS'blunderyears'
p167
F0.010473794895099999
sS'Marvel'
p168
F0.0076923076923099999
sS'webcomics'
p169
F0.0094399492305299992
sS'rage'
p170
F0.0094738246675300005
sS'comics'
p171
F0.0100729250506
sS'Perfectfit'
p172
F0.00993097619383
sS'PerfectTiming'
p173
F0.0089058524173000007
sS'behindthegifs'
p174
F0.0122108828379
sS'standupshots'
p175
F0.0078092748039099999
sS'cats'
p176
F0.0072991362077499998
sS'fullmoviesonyoutube'
p177
F0.010168165819299999
sS'AskScienceFiction'
p178
F0.0112576701937
sS'teenagers'
p179
F0.0078058115525999998
sS'TrueAskReddit'
p180
F0.0075302157818100002
sS'FanTheories'
p181
F0.010614838348
sS'PhotoshopRequest'
p182
F0.0079234972677599998
sS'counting'
p183
F0.0073898494143900002
sS'HighQualityGifs'
p184
F0.0088401253918499994
sS'self'
p185
F0.0085467766442400006
sS'shittyama'
p186
F0.0111333932646
sS'zelda'
p187
F0.0077646974630600002
sS'ImaginaryLandscapes'
p188
F0.0079397229198699994
sS'animation'
p189
F0.0089788588686600009
sS'RedditLaqueristas'
p190
F0.0081000810008099999
sS'spaceporn'
p191
F0.00703507340946
sS'secretsanta'
p192
F0.011246515848799999
sS'nonononoyes'
p193
F0.010158588624899999
sS'Whatcouldgowrong'
p194
F0.0088014834547800007
sS'wallpapers'
p195
F0.0079601403343300004
sS'mylittlepony'
p196
F0.00777687100955
sS'GiftofGames'
p197
F0.0094247416922599997
sS'AnimalsBeingJerks'
p198
F0.0090506838294399997
sS'shittyreactiongifs'
p199
F0.0085943190094700007
sS'comicbooks'
p200
F0.0077235343736799999
sS'Minecraft'
p201
F0.0071262861125799999
sS'oddlysatisfying'
p202
F0.010744580584400001
sS'SketchDaily'
p203
F0.015868491068
sS'HumanPorn'
p204
F0.0088590452544899997
sS'ArtistLounge'
p205
F0.0094395280235999995
sS'picrequests'
p206
F0.0164881407804
sS'terriblefacebookmemes'
p207
F0.0095132743362800008
sS'TumblrInAction'
p208
F0.0077151631669600002
sS'thatHappened'
p209
F0.0099841521394600004
sS'crafts'
p210
F0.0084933530280600009
sS'ImGoingToHellForThis'
p211
F0.00756993077764
sS'painting'
p212
F0.0070298769771499998
sS'drawing'
p213
F0.024744074013200001
sS'GifSound'
p214
F0.0079726651480600003
s.