(dp1
S'ICanDrawThat'
p2
F0.018590167028399999
sS'photoshop'
p3
F0.0101751064837
sS'awwwtf'
p4
F0.0094280326838500003
sS'Heavymind'
p5
F0.021988348054899999
sS'Design'
p6
F0.0121089147794
sS'awesome'
p7
F0.0076434619002799997
sS'ArtisanVideos'
p8
F0.0073030777256099999
sS'redditgetsdrawn'
p9
F0.0205265192788
sS'nostalgia'
p10
F0.0072781842055899999
sS'tumblr'
p11
F0.0070266628164400002
sS'glitch_art'
p12
F0.0103509815586
sS'perfectloops'
p13
F0.0076474298328599996
sS'stencils'
p14
F0.012720848056500001
sS'CrappyDesign'
p15
F0.0075908909308800001
sS'shorthairedhotties'
p16
F0.0077330976579799999
sS'Cinemagraphs'
p17
F0.0088253195374299997
sS'graphic_design'
p18
F0.0120465245084
sS'Damnthatsinteresting'
p19
F0.0073191798881699997
sS'Hair'
p20
F0.0071676559525099999
sS'wikipedia'
p21
F0.0073767542281400001
sS'ExpectationVsReality'
p22
F0.0082432973189300006
sS'ImaginaryLandscapes'
p23
F0.014905637696800001
sS'animation'
p24
F0.015420106847999999
sS'PenmanshipPorn'
p25
F0.0118446368446
sS'ifyoulikeblank'
p26
F0.0083279535184000008
sS'misleadingthumbnails'
p27
F0.0094768472147299995
sS'ImaginaryMonsters'
p28
F0.018101018859699999
sS'Graffiti'
p29
F0.014687100894000001
sS'Calligraphy'
p30
F0.0084637496007699993
sS'Pareidolia'
p31
F0.0108068638189
sS'adventuretime'
p32
F0.0087242615799800003
sS'happy'
p33
F0.0090825764519600009
sS'tattoos'
p34
F0.0071711441721099998
sS'Frisson'
p35
F0.0087236324633499993
sS'alternativeart'
p36
F0.019600105235500001
sS'PixelArt'
p37
F0.0093652445369399994
sS'wallpaper'
p38
F0.0075687649990799997
sS'howto'
p39
F0.0075867882596400002
sS'delusionalartists'
p40
F0.011949405707700001
sS'whitepeoplegifs'
p41
F0.0075109336375700003
sS'somethingimade'
p42
F0.014850367024299999
sS'tattoo'
p43
F0.0072942785502600003
sS'PrettyGirlsUglyFaces'
p44
F0.0091463414634100001
sS'HumanPorn'
p45
F0.010850568016299999
sS'Awwducational'
p46
F0.0075542258788299996
sS'badtattoos'
p47
F0.0087023953127700008
sS'blunderyears'
p48
F0.0081608573816399996
sS'webcomics'
p49
F0.0134711415631
sS'IWantToLearn'
p50
F0.0079373207701800008
sS'Art'
p51
F0.0153145907839
sS'ThriftStoreHauls'
p52
F0.0071350164654200004
sS'calvinandhobbes'
p53
F0.0076568175125200002
sS'comics'
p54
F0.0094426158743899993
sS'SketchDaily'
p55
F0.031120012324799998
sS'typography'
p56
F0.0085963923337100002
sS'PropagandaPosters'
p57
F0.0080803668923300001
sS'ArtistLounge'
p58
F0.034036759700499998
sS'PerfectTiming'
p59
F0.0073802616175499998
sS'findareddit'
p60
F0.0077114427860699997
sS'itookapicture'
p61
F0.011215032375500001
sS'Cyberpunk'
p62
F0.0083554634367499995
sS'crafts'
p63
F0.010886632471500001
sS'Images'
p64
F0.0078551167357600003
sS'learnart'
p65
F0.035708642755599998
sS'wallpapers'
p66
F0.0070380253502300002
sS'painting'
p67
F0.025324675324700001
sS'drawing'
p68
F0.042120911793899998
sS'FancyFollicles'
p69
F0.0094262492184899998
sS'AnimeSketch'
p70
F0.0075913007796500004
s.