(dp1
S'asoiaf'
p2
F0.0099882401453899993
sS'uglyduckling'
p3
F0.0109585741811
sS'AndroidGaming'
p4
F0.0107777339124
sS'milf'
p5
F0.0090809720003400003
sS'KitchenConfidential'
p6
F0.0093523032534100006
sS'BuyItForLife'
p7
F0.0210706847973
sS'SampleSize'
p8
F0.0075431034482799997
sS'everymanshouldknow'
p9
F0.029750760589700002
sS'wiiu'
p10
F0.0090578365134799995
sS'aviation'
p11
F0.014488401771600001
sS'golf'
p12
F0.0070080665766300001
sS'relationships'
p13
F0.0077146311971
sS'NeutralPolitics'
p14
F0.0087812666311900007
sS'syriancivilwar'
p15
F0.0083849799489599999
sS'JoeRogan'
p16
F0.0093899122581999998
sS'Showerthoughts'
p17
F0.015758388569400001
sS'MachinePorn'
p18
F0.023391478410099999
sS'HistoryPorn'
p19
F0.031766028374300002
sS'picrequests'
p20
F0.0079315859908000007
sS'swoleacceptance'
p21
F0.0096564114080399995
sS'holdmybeer'
p22
F0.0797525156377
sS'ImaginaryMonsters'
p23
F0.018119068162199999
sS'seinfeld'
p24
F0.0100444495757
sS'DeepIntoYouTube'
p25
F0.029914706003500002
sS'YouShouldKnow'
p26
F0.029080200616600001
sS'skyrimmods'
p27
F0.0097726975262899998
sS'horror'
p28
F0.0090483858599799995
sS'UpliftingNews'
p29
F0.019478640279600001
sS'PandR'
p30
F0.013133564079500001
sS'Jokes'
p31
F0.0162858648273
sS'inthenews'
p32
F0.0109896567936
sS'Scrubs'
p33
F0.0073548387096800004
sS'3amjokes'
p34
F0.014427523275199999
sS'Military'
p35
F0.017694913108200001
sS'magicskyfairy'
p36
F0.0081371066464999992
sS'Steam'
p37
F0.015634335789699999
sS'AlienBlue'
p38
F0.0102870916369
sS'photoshopbattles'
p39
F0.028521778550100001
sS'IWantToLearn'
p40
F0.013983480655
sS'Astronomy'
p41
F0.0158875649251
sS'Celebs'
p42
F0.020867042347799999
sS'techsupportgore'
p43
F0.037829100742900003
sS'CrappyDesign'
p44
F0.0432213930348
sS'NewsOfTheWeird'
p45
F0.011759822910899999
sS'Patriots'
p46
F0.0074730021598300002
sS'math'
p47
F0.0093728188254100005
sS'techsupport'
p48
F0.012900976290099999
sS'Libertarian'
p49
F0.0182786836993
sS'starcitizen'
p50
F0.0098340098340099994
sS'spiders'
p51
F0.0116705568523
sS'Whatisthis'
p52
F0.0091411680989700005
sS'Paleo'
p53
F0.00708971553611
sS'pcgaming'
p54
F0.016482275908800002
sS'EatCheapAndHealthy'
p55
F0.014802524562400001
sS'totalwar'
p56
F0.0087170317389399996
sS'gentlemanboners'
p57
F0.0263018737786
sS'blackpeoplegifs'
p58
F0.031281110819999999
sS'redditgetsdrawn'
p59
F0.0098983124188700006
sS'polandball'
p60
F0.023084245597300001
sS'POLITIC'
p61
F0.0084209232282299994
sS'AutoDetailing'
p62
F0.0084850528208599996
sS'MechanicAdvice'
p63
F0.010874664164799999
sS'AmISexy'
p64
F0.0073428375128800003
sS'fatpeoplestories'
p65
F0.022525799585099999
sS'OneY'
p66
F0.0083560169652500006
sS'nba'
p67
F0.0095029239766099994
sS'forwardsfromgrandma'
p68
F0.025156475686100001
sS'no_sob_story'
p69
F0.017287573360599998
sS'Design'
p70
F0.0109731201089
sS'frugalmalefashion'
p71
F0.0077350053965199997
sS'movies'
p72
F0.013283036067100001
sS'skeptic'
p73
F0.0208455882353
sS'Warthunder'
p74
F0.0095533698806800002
sS'boardgames'
p75
F0.0074993680307800003
sS'socialskills'
p76
F0.0118095661188
sS'DebateReligion'
p77
F0.0074592314419500002
sS'Nexus5'
p78
F0.0077671749675000002
sS'GuessTheMovie'
p79
F0.0075569724879000003
sS'worldnews'
p80
F0.0137057104937
sS'vexillology'
p81
F0.012054713639
sS'tattoos'
p82
F0.014366078463699999
sS'Economics'
p83
F0.0135777325187
sS'ExposurePorn'
p84
F0.0094021527687699995
sS'LetsNotMeet'
p85
F0.010097323601
sS'titanfall'
p86
F0.0094005169140699996
sS'malelivingspace'
p87
F0.0091416684913499992
sS'answers'
p88
F0.017965513919699999
sS'netsec'
p89
F0.0090221897098300002
sS'lgbt'
p90
F0.0083714440740999992
sS'baseball'
p91
F0.012395620708900001
sS'doctorwho'
p92
F0.014059502918
sS'WritingPrompts'
p93
F0.0095895914056499994
sS'sanfrancisco'
p94
F0.0086358178627500004
sS'ThriftStoreHauls'
p95
F0.013026819923400001
sS'environment'
p96
F0.0132242990654
sS'WarshipPorn'
p97
F0.0141995246511
sS'personalfinance'
p98
F0.0082267273348100006
sS'creepy'
p99
F0.017152050610799999
sS'pics'
p100
F0.0094173835474999999
sS'cripplingalcoholism'
p101
F0.0089797365156300008
sS'howtonotgiveafuck'
p102
F0.012825271145200001
sS'thewalkingdead'
p103
F0.014694112750900001
sS'IWantOut'
p104
F0.0071039071489299999
sS'vinyl'
p105
F0.0078727506426700001
sS'whatsthisbug'
p106
F0.0158300585749
sS'Dexter'
p107
F0.00906086163665
sS'firefox'
p108
F0.00770584309205
sS'apple'
p109
F0.0118085950122
sS'TrueReddit'
p110
F0.022954924874800001
sS'todayilearned'
p111
F0.012626596441000001
sS'AmIFreeToGo'
p112
F0.014643545279400001
sS'AntiJokes'
p113
F0.012149750029099999
sS'KingOfTheHill'
p114
F0.0097560975609800003
sS'FinalFantasy'
p115
F0.0074997928234
sS'Health'
p116
F0.0071721311475400002
sS'Firearms'
p117
F0.012691807542299999
sS'AskScienceFiction'
p118
F0.015204537226999999
sS'ContagiousLaughter'
p119
F0.035107925944899997
sS'GamePhysics'
p120
F0.042795036681499997
sS'graphic_design'
p121
F0.0076923076923099999
sS'HIMYM'
p122
F0.0094918393332599996
sS'FiftyFifty'
p123
F0.031920508525099998
sS'eldertrees'
p124
F0.011231054410599999
sS'AskHistorians'
p125
F0.016331600496799999
sS'Drugs'
p126
F0.010898757645600001
sS'OutOfTheLoop'
p127
F0.032364913400900003
sS'stopsmoking'
p128
F0.0079618593563800001
sS'sports'
p129
F0.012904769637
sS'wheredidthesodago'
p130
F0.053109094932500003
sS'ifyoulikeblank'
p131
F0.0100899227424
sS'misleadingthumbnails'
p132
F0.035501813784800003
sS'trailerparkboys'
p133
F0.014531313958200001
sS'battlefield_4'
p134
F0.013336317684099999
sS'Pareidolia'
p135
F0.0374221347946
sS'GrandTheftAutoV'
p136
F0.018589426877499999
sS'Filmmakers'
p137
F0.0072298183180400004
sS'QuotesPorn'
p138
F0.027972267984600001
sS'Eve'
p139
F0.0087218045112800006
sS'cordcutters'
p140
F0.015432437374299999
sS'LifeProTips'
p141
F0.018738345385899999
sS'Shitty_Car_Mods'
p142
F0.035555172314699998
sS'PoliticalHumor'
p143
F0.015900428775599999
sS'UFOs'
p144
F0.0109763459744
sS'ghettoglamourshots'
p145
F0.022750044203499999
sS'popping'
p146
F0.018446567958299999
sS'EDC'
p147
F0.0146034980472
sS'dwarffortress'
p148
F0.0085949000427399998
sS'showerbeer'
p149
F0.0141659111514
sS'trackers'
p150
F0.0075620767494399997
sS'science'
p151
F0.019668558658200001
sS'firstworldproblems'
p152
F0.0248215729705
sS'Entrepreneur'
p153
F0.0073591199612899998
sS'standupshots'
p154
F0.033301558992700001
sS'legaladvice'
p155
F0.0114086971932
sS'MMA'
p156
F0.014313514620799999
sS'history'
p157
F0.0144420036105
sS'Aquariums'
p158
F0.0098639031090000003
sS'weightroom'
p159
F0.00709687230699
sS'gamernews'
p160
F0.014698983580900001
sS'NewsOfTheStupid'
p161
F0.0171980420691
sS'audiophile'
p162
F0.0089060662073599996
sS'punk'
p163
F0.0072788649190399998
sS'awesome'
p164
F0.021425977484600001
sS'DecidingToBeBetter'
p165
F0.0085356226564
sS'Glitch_in_the_Matrix'
p166
F0.0143224065126
sS'gadgets'
p167
F0.017201196866499999
sS'learnprogramming'
p168
F0.010446384521299999
sS'Infographics'
p169
F0.011009714453899999
sS'TalesFromYourServer'
p170
F0.0120424123207
sS'counting'
p171
F0.010123310537900001
sS'CampingandHiking'
p172
F0.011734611011900001
sS'SRSsucks'
p173
F0.011869436201799999
sS'HouseOfCards'
p174
F0.011306373067999999
sS'asmr'
p175
F0.0127057912067
sS'techsupportmacgyver'
p176
F0.028144806101600001
sS'MURICA'
p177
F0.0304650356072
sS'backpacking'
p178
F0.0074453922390399999
sS'technology'
p179
F0.018473299023599999
sS'travel'
p180
F0.0094607755450900003
sS'RealGirls'
p181
F0.0176425049912
sS'gats'
p182
F0.0075943540963500002
sS'Hotchickswithtattoos'
p183
F0.0095138647174799994
sS'Jeep'
p184
F0.0079114647642600008
sS'scifi'
p185
F0.0194860519445
sS'spaceporn'
p186
F0.029521242459200001
sS'nyc'
p187
F0.0125429390817
sS'Pizza'
p188
F0.013274096548699999
sS'wallpapers'
p189
F0.0242643537487
sS'BasicIncome'
p190
F0.0108891865137
sS'gaming'
p191
F0.012439444725800001
sS'mylittlepony'
p192
F0.0092540885520500001
sS'hardbodies'
p193
F0.0139654910692
sS'askscience'
p194
F0.016425566249799999
sS'philosophy'
p195
F0.0088268638989399996
sS'budgetfood'
p196
F0.0098298459415999996
sS'Images'
p197
F0.013517416671500001
sS'dogpictures'
p198
F0.0098962336664099992
sS'law'
p199
F0.00718132854578
sS'GameDeals'
p200
F0.0149349474481
sS'short'
p201
F0.0072583500531100001
sS'oculus'
p202
F0.013412694058900001
sS'CFB'
p203
F0.00865943056779
sS'eFreebies'
p204
F0.0102990445465
sS'FanTheories'
p205
F0.018255050997200001
sS'listentothis'
p206
F0.0110520239965
sS'tall'
p207
F0.0156071998177
sS'ImGoingToHellForThis'
p208
F0.0304520842847
sS'cableporn'
p209
F0.0188528518933
sS'shield'
p210
F0.0073625349487400002
sS'Hunting'
p211
F0.0072720027892599999
sS'DoesAnybodyElse'
p212
F0.016094560997999999
sS'pettyrevenge'
p213
F0.033745247148300003
sS'malehairadvice'
p214
F0.0090219560878200006
sS'CityPorn'
p215
F0.017860194838500001
sS'electronic_cigarette'
p216
F0.0083314213605600006
sS'thatHappened'
p217
F0.033533337071700003
sS'london'
p218
F0.0087887370876400008
sS'dataisbeautiful'
p219
F0.024223910392999998
sS'japan'
p220
F0.0078023967583399998
sS'MLPLounge'
p221
F0.0073934984156800001
sS'islam'
p222
F0.0070622854340399999
sS'battlefield3'
p223
F0.0128388017118
sS'beards'
p224
F0.0176240032437
sS'arduino'
p225
F0.0076456370542099996
sS'nostalgia'
p226
F0.024777006937599998
sS'Documentaries'
p227
F0.0158917010006
sS'writing'
p228
F0.0093026912292700006
sS'AndroidQuestions'
p229
F0.011475099413
sS'StonerEngineering'
p230
F0.013660680168100001
sS'Bioshock'
p231
F0.0088816115907500003
sS'WTF'
p232
F0.013550583170600001
sS'soccer'
p233
F0.0104111110299
sS'wallpaper'
p234
F0.015746367239100001
sS'texas'
p235
F0.0087073701668900008
sS'Gore'
p236
F0.015722962382400001
sS'MensRights'
p237
F0.019698360655699999
sS'MilitaryPorn'
p238
F0.023869650949599999
sS'Frisson'
p239
F0.0199308336367
sS'electronicmusic'
p240
F0.0100442947158
sS'childfree'
p241
F0.015194578049799999
sS'food'
p242
F0.015399896820700001
sS'whitepeoplegifs'
p243
F0.038110928061500002
sS'unitedkingdom'
p244
F0.014446877380000001
sS'NoStupidQuestions'
p245
F0.021180464873300001
sS'martialarts'
p246
F0.0075244544770500001
sS'chicago'
p247
F0.0086411489076900008
sS'halo'
p248
F0.0091152573653500001
sS'Braveryjerk'
p249
F0.0091288471570200001
sS'tightdresses'
p250
F0.0082408874801899994
sS'creepyPMs'
p251
F0.0235556657575
sS'WatchItForThePlot'
p252
F0.027410047522099999
sS'nfl'
p253
F0.0101585992649
sS'freebies'
p254
F0.019552191737599998
sS'Watches'
p255
F0.0075096715466899996
sS'mashups'
p256
F0.0084683977342800004
sS'shittyadviceanimals'
p257
F0.0089299228091399997
sS'AdviceAnimals'
p258
F0.0100949103563
sS'SubredditDrama'
p259
F0.027623346520500001
sS'arrow'
p260
F0.0077131950730000001
sS'minimalism'
p261
F0.018401873165600002
sS'mildlyinteresting'
p262
F0.0190025798442
sS'TrueAtheism'
p263
F0.014588354687299999
sS'badhistory'
p264
F0.014642054071000001
sS'energy'
p265
F0.0082234853065699994
sS'Rateme'
p266
F0.0085608514576599997
sS'books'
p267
F0.0098451942277200007
sS'dubstep'
p268
F0.0081739414745800008
sS'malegrooming'
p269
F0.0072425366543000004
sS'TwoXChromosomes'
p270
F0.0075083262106199998
sS'highdeas'
p271
F0.0089686098654700001
sS'Cinemagraphs'
p272
F0.024587403165999999
sS'canada'
p273
F0.0152851044793
sS'DunderMifflin'
p274
F0.013705782534900001
sS'psychology'
p275
F0.01162178966
sS'space'
p276
F0.022668497174400001
sS'shittyfoodporn'
p277
F0.030105777054499998
sS'malefashionadvice'
p278
F0.0123696801813
sS'LearnUselessTalents'
p279
F0.032438621040600003
sS'BMW'
p280
F0.0080121749250299992
sS'RoomPorn'
p281
F0.026185421089900001
sS'randomsexiness'
p282
F0.0081935975609800007
sS'electronics'
p283
F0.0089006622516600003
sS'tf2'
p284
F0.0127454424796
sS'DarkSouls2'
p285
F0.0073275936736700003
sS'CatsStandingUp'
p286
F0.010562760401399999
sS'ass'
p287
F0.010984911291699999
sS'bestof'
p288
F0.025438171782700001
sS'Cyberpunk'
p289
F0.019123233875399999
sS'cars'
p290
F0.0147138488423
sS'Metal'
p291
F0.0116569767442
sS'LadyBoners'
p292
F0.0093631778057999999
sS'corgi'
p293
F0.010235683166200001
sS'Roadcam'
p294
F0.031605351170600003
sS'knifeclub'
p295
F0.0090991810737000006
sS'youtubehaiku'
p296
F0.032881366214700003
sS'dayz'
p297
F0.0102689556102
sS'Borderlands'
p298
F0.0090262172284600005
sS'recipes'
p299
F0.0088426324438499997
sS'headphones'
p300
F0.0083635789805899998
sS'programming'
p301
F0.013675031523600001
sS'Rainmeter'
p302
F0.0073986386504900003
sS'Planetside'
p303
F0.0088588905294200004
sS'49ers'
p304
F0.0075221044296799999
sS'dogecoin'
p305
F0.0123865517438
sS'snowboarding'
p306
F0.00802594918285
sS'whatstheword'
p307
F0.0093655589123899999
sS'gamingpc'
p308
F0.0094369464360999997
sS'nhl'
p309
F0.0087352305641100001
sS'misc'
p310
F0.0142243864932
sS'patientgamers'
p311
F0.018956442138999999
sS'rant'
p312
F0.00917859365277
sS'conspiratard'
p313
F0.027859541478400002
sS'gtaonline'
p314
F0.00775342203503
sS'thick'
p315
F0.0076166657193200002
sS'pokemon'
p316
F0.010403511937000001
sS'TheLastAirbender'
p317
F0.0106281725888
sS'longboarding'
p318
F0.0085452940704500002
sS'OldSchoolCool'
p319
F0.019903734919799999
sS'lego'
p320
F0.0165934447991
sS'ANormalDayInRussia'
p321
F0.053918009776899999
sS'seduction'
p322
F0.0083123701192199997
sS'onetruegod'
p323
F0.0179513070795
sS'TheFacebookDelusion'
p324
F0.012114256567200001
sS'Autos'
p325
F0.0175756284619
sS'Seattle'
p326
F0.0090634441087599996
sS'PenmanshipPorn'
p327
F0.020668372111900001
sS'shittyreactiongifs'
p328
F0.029308390022699998
sS'alternativeart'
p329
F0.013698630137
sS'shittyadvice'
p330
F0.016859396952300001
sS'MeanJokes'
p331
F0.012260675243100001
sS'explainlikeimfive'
p332
F0.012547875588200001
sS'dogs'
p333
F0.0093611119866400007
sS'ObscureMedia'
p334
F0.0105018278498
sS'CombatFootage'
p335
F0.025642165140900001
sS'GTA'
p336
F0.010718345693699999
sS'TrollYChromosome'
p337
F0.0210782667115
sS'DaystromInstitute'
p338
F0.0075394105551700001
sS'GODZILLA'
p339
F0.0076118535735000001
sS'3DS'
p340
F0.0079324243203800007
sS'mildlyinfuriating'
p341
F0.039564801462100001
sS'DumpsterDiving'
p342
F0.0071369179600900001
sS'raisedbynarcissists'
p343
F0.0088018840153099992
sS'nsfw_gifs'
p344
F0.0112122365643
sS'Awwducational'
p345
F0.027797442068999999
sS'skyrim'
p346
F0.0187444079928
sS'sex'
p347
F0.0102687495373
sS'BBQ'
p348
F0.0084992570579500003
sS'toronto'
p349
F0.0100269957578
sS'Battlefield'
p350
F0.00981824824185
sS'television'
p351
F0.013373819163300001
sS'DCcomics'
p352
F0.010264524505000001
sS'worldpolitics'
p353
F0.019462052424199999
sS'TheRedPill'
p354
F0.0097033391720200007
sS'PerfectTiming'
p355
F0.050076609738800001
sS'sweden'
p356
F0.00764939120671
sS'knives'
p357
F0.013522344543300001
sS'hacking'
p358
F0.0092082825822199996
sS'KerbalSpaceProgram'
p359
F0.0180433230183
sS'russia'
p360
F0.00721672917377
sS'torrents'
p361
F0.0090005000277800003
sS'Boobies'
p362
F0.0096276369814499996
sS'gallifrey'
p363
F0.0082351899406700006
sS'ShingekiNoKyojin'
p364
F0.0088253633267799999
sS'FoodPorn'
p365
F0.022573224335499999
sS'boston'
p366
F0.0081683826602299992
sS'teenagers'
p367
F0.012764818837199999
sS'sysadmin'
p368
F0.0115935041311
sS'conspiracy'
p369
F0.023038074312100001
sS'TheSimpsons'
p370
F0.019031203993000002
sS'AnythingGoesNews'
p371
F0.0086136177194399994
sS'collapse'
p372
F0.00768787238132
sS'HighQualityGifs'
p373
F0.031918660529100001
sS'memes'
p374
F0.012774100124099999
sS'self'
p375
F0.018614016993299998
sS'IAmA'
p376
F0.0099240654205599993
sS'Parenting'
p377
F0.00864538029065
sS'DaftPunk'
p378
F0.0089037284362799996
sS'britishproblems'
p379
F0.015601058643299999
sS'lockpicking'
p380
F0.00971139379018
sS'nonononoyes'
p381
F0.065031037540599995
sS'gamegrumps'
p382
F0.0090054372451299994
sS'FutureWhatIf'
p383
F0.0083512755268499994
sS'firefly'
p384
F0.015087004813
sS'paydaytheheist'
p385
F0.0088413731873300001
sS'MovieSuggestions'
p386
F0.0071032186459499998
sS'aww'
p387
F0.012247154251399999
sS'teslamotors'
p388
F0.0087048582519699998
sS'Futurology'
p389
F0.0213923766256
sS'Games'
p390
F0.0173017195667
sS'EnoughLibertarianSpam'
p391
F0.0088097102584200008
sS'progresspics'
p392
F0.0149133413946
sS'Gaming4Gamers'
p393
F0.0134169982655
sS'Minecraft'
p394
F0.014792810332899999
sS'chemistry'
p395
F0.0084855458075699993
sS'windows'
p396
F0.0107661854874
sS'newjersey'
p397
F0.0071234561574299998
sS'investing'
p398
F0.00829782462436
sS'TumblrInAction'
p399
F0.025384689595299999
sS'secretsanta'
p400
F0.0073758865248199999
sS'Fishing'
p401
F0.010740097710699999
sS'Borderlands2'
p402
F0.0097680662932299999
sS'GifSound'
p403
F0.015528099610599999
sS'vaporents'
p404
F0.0076771405797700001
sS'TalesFromThePizzaGuy'
p405
F0.0124261436316
sS'Heavymind'
p406
F0.0166410514601
sS'Psychonaut'
p407
F0.0097901060594800006
sS'Justrolledintotheshop'
p408
F0.034505006093299997
sS'adventuretime'
p409
F0.013640894204800001
sS'PanicHistory'
p410
F0.0082975255593399997
sS'LucidDreaming'
p411
F0.011365528726099999
sS'fffffffuuuuuuuuuuuu'
p412
F0.023779050185200001
sS'PoliticalDiscussion'
p413
F0.0108063536151
sS'dbz'
p414
F0.010456527542899999
sS'bodybuilding'
p415
F0.0103297014292
sS'Foodforthought'
p416
F0.015646051545000001
sS'help'
p417
F0.0081967213114800003
sS'Amateur'
p418
F0.0083017419262
sS'TheoryOfReddit'
p419
F0.015371211649799999
sS'TheBluePill'
p420
F0.0089587386095999998
sS'buildapc'
p421
F0.0105922254109
sS'harrypotter'
p422
F0.012862522619499999
sS'wicked_edge'
p423
F0.0125411263789
sS'shittybattlestations'
p424
F0.0182023674975
sS'whowouldwin'
p425
F0.018583070328299998
sS'hockey'
p426
F0.0117671292839
sS'gamedev'
p427
F0.0085002524827499995
sS'CCW'
p428
F0.0104934910657
sS'MetalMemes'
p429
F0.0076705940108
sS'ipad'
p430
F0.0072629969418999997
sS'buildapcsales'
p431
F0.010284388423800001
sS'arresteddevelopment'
p432
F0.0155290358017
sS'shutupandtakemymoney'
p433
F0.029558102679400001
sS'gonewild'
p434
F0.00762428185596
sS'photography'
p435
F0.011153324890599999
sS'JusticePorn'
p436
F0.043638574279400003
sS'trees'
p437
F0.011661177528199999
sS'smashbros'
p438
F0.0089868532932199999
sS'geek'
p439
F0.027979712595100001
sS'lostgeneration'
p440
F0.0074448903623599997
sS'Fitness'
p441
F0.010154933210199999
sS'spicy'
p442
F0.011503166602000001
sS'Conservative'
p443
F0.0129109930256
sS'PrettyGirlsUglyFaces'
p444
F0.014561731542900001
sS'AbandonedPorn'
p445
F0.0325620999471
sS'motorcycles'
p446
F0.016940006552400001
sS'progressive'
p447
F0.0080724673403999997
sS'dadjokes'
p448
F0.0286344268645
sS'progun'
p449
F0.0092997128947699993
sS'Marijuana'
p450
F0.0082024029574899997
sS'guns'
p451
F0.018652189113000001
sS'WeAreTheMusicMakers'
p452
F0.0094401937579099999
sS'privacy'
p453
F0.0098666377534400006
sS'futurama'
p454
F0.023844319667699999
sS'nsfw'
p455
F0.0179243862027
sS'cringe'
p456
F0.029129510746900001
sS'spotted'
p457
F0.0087033991228100006
sS'StarWars'
p458
F0.020735885104400002
sS'rpg'
p459
F0.0085202689209900005
sS'AskWomen'
p460
F0.0095178353860800001
sS'EngineeringStudents'
p461
F0.0070241352554399998
sS'Christianity'
p462
F0.0092686951036099995
sS'see'
p463
F0.012869688099299999
sS'glitch_art'
p464
F0.014371112855500001
sS'changemyview'
p465
F0.018472732410300001
sS'roosterteeth'
p466
F0.0096457828545099995
sS'skateboarding'
p467
F0.0105250275364
sS'PS3'
p468
F0.010049161365
sS'Android'
p469
F0.016564312978800001
sS'KarmaCourt'
p470
F0.010052327182599999
sS'PS4'
p471
F0.0093487753104299996
sS'firstworldanarchists'
p472
F0.042721923765699998
sS'nononono'
p473
F0.080729672035700001
sS'cosplay'
p474
F0.0127351957572
sS'truegaming'
p475
F0.018766687857599999
sS'camping'
p476
F0.0080582271900199991
sS'lotr'
p477
F0.0155831507183
sS'wow'
p478
F0.0078982737253699992
sS'wikipedia'
p479
F0.0174221480361
sS'breakingbad'
p480
F0.021099141140799998
sS'outside'
p481
F0.030918760315400001
sS'AskCulinary'
p482
F0.0103428142464
sS'foodhacks'
p483
F0.017120949529999999
sS'pcmasterrace'
p484
F0.015933675209700002
sS'magicTCG'
p485
F0.0073272912389599999
sS'CollegeBasketball'
p486
F0.0071049017851800003
sS'europe'
p487
F0.015696177460900001
sS'StandUpComedy'
p488
F0.0124819971195
sS'jobs'
p489
F0.0085692522534000001
sS'linguistics'
p490
F0.0074999999999999997
sS'casualiama'
p491
F0.017448076985400001
sS'facepalm'
p492
F0.0359954157493
sS'celebnsfw'
p493
F0.012779711586300001
sS'NASCAR'
p494
F0.0075945597140899997
sS'NotTimAndEric'
p495
F0.023275645849
sS'news'
p496
F0.013119041251
sS'gamingsuggestions'
p497
F0.0088054744892800008
sS'Unexpected'
p498
F0.052323167074199997
sS'RedditDayOf'
p499
F0.0158596152686
sS'fitmeals'
p500
F0.0078814627994999997
sS'watchpeopledie'
p501
F0.032221418981700001
sS'Sherlock'
p502
F0.0106001168517
sS'ukpolitics'
p503
F0.0070979931573300001
sS'GunPorn'
p504
F0.014975324749000001
sS'Cartalk'
p505
F0.0091155328680099998
sS'GetMotivated'
p506
F0.017217920490799999
sS'bikesgonewild'
p507
F0.0089919017034300001
sS'drunk'
p508
F0.022640234286999999
sS'reactiongifs'
p509
F0.030906000309099999
sS'community'
p510
F0.014639976097999999
sS'formula1'
p511
F0.010889292195999999
sS'Music'
p512
F0.010378380703700001
sS'startrek'
p513
F0.015641711229900001
sS'EarthPorn'
p514
F0.01713440825
sS'linux'
p515
F0.0116342625127
sS'3Dprinting'
p516
F0.0077877829155499996
sS'ainbow'
p517
F0.0070052539404600002
sS'chrome'
p518
F0.010502283104999999
sS'Homebrewing'
p519
F0.010830552232200001
sS'Guitar'
p520
F0.0102873208238
sS'beer'
p521
F0.014502460008800001
sS'California'
p522
F0.00813055345839
sS'ireland'
p523
F0.00775506906858
sS'ketorecipes'
p524
F0.0070538216252799997
sS'HomeImprovement'
p525
F0.0083192393838299999
sS'web_design'
p526
F0.010331702012
sS'Diablo'
p527
F0.0078690418178199995
sS'ArtisanVideos'
p528
F0.0229964256492
sS'fatlogic'
p529
F0.025918133129300001
sS'hiphopheads'
p530
F0.0093912479590499993
sS'androidapps'
p531
F0.010359808399199999
sS'marvelstudios'
p532
F0.0075430499727099998
sS'somethingimade'
p533
F0.018486222532299999
sS'TopGear'
p534
F0.022157316950300002
sS'UnresolvedMysteries'
p535
F0.0125406905384
sS'MapPorn'
p536
F0.024635884722700001
sS'smoking'
p537
F0.0072445019404899997
sS'Scotch'
p538
F0.0079947789198900002
sS'darksouls'
p539
F0.0103132854811
sS'Chromecast'
p540
F0.00953039735608
sS'Perfectfit'
p541
F0.030333167578299999
sS'offbeat'
p542
F0.0327504713692
sS'softwaregore'
p543
F0.024414771775
sS'socialism'
p544
F0.0104908565929
sS'OnOff'
p545
F0.013222457517699999
sS'ICanDrawThat'
p546
F0.0081279358209699996
sS'Cooking'
p547
F0.014887551472899999
sS'IASIP'
p548
F0.017031311410999998
sS'hardware'
p549
F0.0118301362115
sS'gamecollecting'
p550
F0.0084241369837899996
sS'LosAngeles'
p551
F0.0110998650472
sS'DIY'
p552
F0.0175242110811
sS'politics'
p553
F0.018476103221899999
sS'assassinscreed'
p554
F0.0079929577464799995
sS'ShitRedditSays'
p555
F0.0071550785503200001
sS'shorthairedhotties'
p556
F0.010025498377399999
sS'southpark'
p557
F0.021540643559999999
sS'starcraft'
p558
F0.0079803807264799999
sS'funny'
p559
F0.0085562185374000004
sS'astrophotography'
p560
F0.0087060226595099995
sS'deadpool'
p561
F0.0072793448589599996
sS'IndieGaming'
p562
F0.0096367047586600005
sS'daddit'
p563
F0.010954543326599999
sS'itookapicture'
p564
F0.019922716330899998
sS'windows8'
p565
F0.00724035608309
sS'Whatcouldgowrong'
p566
F0.085999747059600007
sS'fifthworldproblems'
p567
F0.011390514129200001
sS'talesfromtechsupport'
p568
F0.025384506558300001
sS'Anarchism'
p569
F0.0072025052192099996
sS'notinteresting'
p570
F0.0304072563463
sS'AnimalsBeingJerks'
p571
F0.0596477181745
sS'girlsinyogapants'
p572
F0.0128481912485
sS'running'
p573
F0.0085640544345399992
sS'playrust'
p574
F0.0075743511677100004
sS'climbing'
p575
F0.0075596298388099998
sS'Physics'
p576
F0.011614042835099999
sS'TrueFilm'
p577
F0.0080239144115799993
sS'HumanPorn'
p578
F0.026699366063599999
sS'TimAndEric'
p579
F0.0079647102070800006
sS'Fantasy'
p580
F0.0076925552801800001
sS'anime'
p581
F0.0084814354601500004
sS'Graffiti'
p582
F0.0081885856079400004
sS'Portland'
p583
F0.0079773457195199994
sS'AskEngineers'
p584
F0.0096086571202000006
sS'EmmaWatson'
p585
F0.014155770324
sS'Sonsofanarchy'
p586
F0.00740774822858
sS'awwwtf'
p587
F0.031266164722099997
sS'Terraria'
p588
F0.0083968846341099992
sS'HalfLife'
p589
F0.0081138434652400001
sS'Piracy'
p590
F0.0087185488589799996
sS'circlebroke'
p591
F0.01173793888
sS'PublicFreakout'
p592
F0.042163050379100002
sS'Boxing'
p593
F0.0072075891674200001
sS'Bitcoin'
p594
F0.0115473441109
sS'rickandmorty'
p595
F0.0143291510852
sS'quotes'
p596
F0.0105736904891
sS'woodworking'
p597
F0.016452161243300002
sS'perfectloops'
p598
F0.038050701452100003
sS'InternetIsBeautiful'
p599
F0.0222112187876
sS'carporn'
p600
F0.022481428385200002
sS'TalesFromRetail'
p601
F0.021538395464699999
sS'WouldYouRather'
p602
F0.0138443528274
sS'quityourbullshit'
p603
F0.048220325334200002
sS'audioengineering'
p604
F0.0091978420447500001
sS'ProtectAndServe'
p605
F0.017454305944299999
sS'crappymusic'
p606
F0.011215559157199999
sS'woahdude'
p607
F0.033271859131400003
sS'Fallout'
p608
F0.017704593289600001
sS'mycology'
p609
F0.0076415850126299997
sS'offmychest'
p610
F0.013265680401000001
sS'australia'
p611
F0.0148456891303
sS'slowcooking'
p612
F0.015374278713100001
sS'DenverBroncos'
p613
F0.0075502088891100001
sS'SelfDrivingCars'
p614
F0.0071355759429199998
sS'NSFW_GIF'
p615
F0.016414726884900002
sS'howto'
p616
F0.0180308422301
sS'cringepics'
p617
F0.026002555277399999
sS'toosoon'
p618
F0.027563212003299999
sS'bodyweightfitness'
p619
F0.0111738604276
sS'RandomActsOfGaming'
p620
F0.011541929666400001
sS'gifs'
p621
F0.0157755640445
sS'Art'
p622
F0.013135428212
sS'ConfusedBoners'
p623
F0.0179149329635
sS'Paranormal'
p624
F0.0075138412865799996
sS'4chan'
p625
F0.028816207655300002
sS'compsci'
p626
F0.0071170907672800003
sS'montageparodies'
p627
F0.018102419580100001
sS'zombies'
p628
F0.0115000279127
sS'ArcherFX'
p629
F0.0201404977206
sS'getdisciplined'
p630
F0.0081850235057099995
sS'google'
p631
F0.0118494180153
sS'blunderyears'
p632
F0.030359377793700001
sS'whatisthisthing'
p633
F0.029442884466700001
sS'MechanicalKeyboards'
p634
F0.0132428496854
sS'NetflixBestOf'
p635
F0.020889794939399998
sS'ShouldIbuythisgame'
p636
F0.0097124797656699992
sS'tumblr'
p637
F0.023494397759099998
sS'interestingasfuck'
p638
F0.0415845301793
sS'MarkMyWords'
p639
F0.013769682000599999
sS'PropagandaPosters'
p640
F0.0155761436016
sS'Coffee'
p641
F0.0104592996817
sS'gameofthrones'
p642
F0.015602462620900001
sS'humor'
p643
F0.0258537015795
sS'mountandblade'
p644
F0.0071333036112300003
sS'AMA'
p645
F0.0123416774708
sS'ExpectationVsReality'
p646
F0.033264136022100002
sS'lifehacks'
p647
F0.033314882014100003
sS'SCP'
p648
F0.0100032061558
sS'Enhancement'
p649
F0.018988802955100002
sS'starbound'
p650
F0.0098664714290699999
sS'biology'
p651
F0.00754171186528
sS'ProgrammerHumor'
p652
F0.020454111810700001
sS'business'
p653
F0.0105331869567
sS'FloridaMan'
p654
F0.043529566015500003
sS'delusionalartists'
p655
F0.035340370069699999
sS'OkCupid'
p656
F0.010824242934800001
sS'Frugal'
p657
F0.017684994348799998
sS'promos'
p658
F0.016312756762499998
sS'shittyaskscience'
p659
F0.029284016093599999
sS'whatsthisplant'
p660
F0.0071249167051100001
sS'lewronggeneration'
p661
F0.023760962675899999
sS'worldbuilding'
p662
F0.0094999999999999998
sS'calvinandhobbes'
p663
F0.0160849108218
sS'netflix'
p664
F0.0142857142857
sS'bayarea'
p665
F0.0077166088352599999
sS'masseffect'
p666
F0.012386371521799999
sS'sixwordstories'
p667
F0.0086588541666699995
sS'AnimalsBeingBros'
p668
F0.044347023534800002
sS'classic4chan'
p669
F0.029178595023099999
sS'Cynicalbrit'
p670
F0.0114884068811
sS'battlestations'
p671
F0.017800258702199999
sS'NSFWFunny'
p672
F0.017767042404699999
sS'amiugly'
p673
F0.0081577020099300006
sS'ShitAmericansSay'
p674
F0.0124606505771
sS'TinyTits'
p675
F0.0071454305272000002
sS'Scotland'
p676
F0.0083083427560099992
sS'gamemusic'
p677
F0.0082125887252899998
sS'subaru'
p678
F0.011347074745
sS'marijuanaenthusiasts'
p679
F0.0128423535579
sS'TrollXChromosomes'
p680
F0.019404242285000001
sS'confession'
p681
F0.0145224898742
sS'gardening'
p682
F0.0118147294622
sS'tifu'
p683
F0.017190391093299999
sS'SimCity'
p684
F0.007458269208
sS'Damnthatsinteresting'
p685
F0.043036154478200001
sS'DnD'
p686
F0.0096075600472500002
sS'loseit'
p687
F0.0091204978718800005
sS'CrazyIdeas'
p688
F0.035275790140700002
sS'networking'
p689
F0.00760472987824
sS'TinyHouses'
p690
F0.010388720817400001
sS'Bad_Cop_No_Donut'
p691
F0.028612154081499998
sS'SquaredCircle'
p692
F0.0091245276951500004
sS'flying'
p693
F0.0085814986974500004
sS'gopro'
p694
F0.0098667757922999994
sS'MorbidReality'
p695
F0.028354065566100001
sS'gif'
p696
F0.033302780323900001
sS'cats'
p697
F0.018623927361499999
sS'introvert'
p698
F0.0089948750130699993
sS'Ubuntu'
p699
F0.0075005067910000004
sS'Standup'
p700
F0.0084098771322899998
sS'Portal'
p701
F0.0078537486800400007
sS'happy'
p702
F0.0147109984593
sS'cablefail'
p703
F0.0146456163923
sS'explainlikeIAmA'
p704
F0.0195355120278
sS'MTB'
p705
F0.0072057646116899998
sS'firstimpression'
p706
F0.0092510579667400006
sS'batman'
p707
F0.016896851313700001
sS'occupywallstreet'
p708
F0.0071453108897299999
sS'WebGames'
p709
F0.0131321154355
sS'snackexchange'
p710
F0.0072660098522199998
sS'beerporn'
p711
F0.0072460044195500001
sS'rule34'
p712
F0.0094834954617599998
sS'xbox360'
p713
F0.0088171758585699998
sS'Austin'
p714
F0.00763332412269
sS'shittyaskreddit'
p715
F0.0090265153889600002
sS'Marvel'
p716
F0.013792114695299999
sS'webcomics'
p717
F0.012542352731399999
sS'rage'
p718
F0.038509758034200002
sS'comics'
p719
F0.030540028849599998
sS'behindthegifs'
p720
F0.045662100456599998
sS'civ'
p721
F0.0123827555439
sS'findareddit'
p722
F0.015989671268200001
sS'arma'
p723
F0.0070353722884499998
sS'BustyPetite'
p724
F0.0145427348652
sS'fullmoviesonyoutube'
p725
F0.026638351775299999
sS'iphone'
p726
F0.011233767497999999
sS'videos'
p727
F0.011895167416399999
sS'keto'
p728
F0.010374562112599999
sS'TrueAskReddit'
p729
F0.015867436605599999
sS'engineering'
p730
F0.012334769321399999
sS'tipofmytongue'
p731
F0.014587892049599999
sS'webdev'
p732
F0.0084199211752099996
sS'xboxone'
p733
F0.0085034517495799992
sS'bestofworldstar'
p734
F0.024184385651699999
sS'atheism'
p735
F0.0175454381861
sS'ForeverAlone'
p736
F0.0084707780566500007
sS'eatsandwiches'
p737
F0.013069980072700001
sS'bicycling'
p738
F0.015780180975500002
sS'Survival'
p739
F0.011610945796099999
sS'shittyama'
p740
F0.013057205544
sS'AskSocialScience'
p741
F0.0075013395249199999
sS'zelda'
p742
F0.0128820960699
sS'ImaginaryLandscapes'
p743
F0.0150284813962
sS'TheWayWeWere'
p744
F0.0172466515809
sS'badtattoos'
p745
F0.022165474974499999
sS'Seahawks'
p746
F0.0083858210048299991
sS'nottheonion'
p747
F0.0260149237943
sS'AskMen'
p748
F0.013428220443100001
sS'Frugal_Jerk'
p749
F0.018222193194400001
sS'raspberry_pi'
p750
F0.0095868621297500005
sS'Trucks'
p751
F0.0070245053354099996
sS'GTAV'
p752
F0.0117554565535
sS'bigdickproblems'
p753
F0.010944785276100001
sS'nintendo'
p754
F0.0085327234341999996
sS'comicbooks'
p755
F0.014669751687599999
sS'ftlgame'
p756
F0.00935748598879
sS'HailCorporate'
p757
F0.0188917568235
sS'oddlysatisfying'
p758
F0.043011815889700003
sS'cosplaygirls'
p759
F0.018620085726100001
sS'entertainment'
p760
F0.014305855034
sS'youtube'
p761
F0.0090506450991699999
sS'curvy'
p762
F0.0081958255928300007
sS'terriblefacebookmemes'
p763
F0.0167787130671
sS'PrettyGirls'
p764
F0.016897979060099998
sS'urbanexploration'
p765
F0.017421417155
sS'gainit'
p766
F0.0075649920588499999
s.