(dp1
S'Shitty_Car_Mods'
p2
F0.00787872743592
sS'uglyduckling'
p3
F0.0073643058459900001
sS'AndroidGaming'
p4
F0.0075465964343600003
sS'everymanshouldknow'
p5
F0.0111084444749
sS'RandomActsOfGaming'
p6
F0.0078626559907700004
sS'Showerthoughts'
p7
F0.0071454153163499996
sS'HistoryPorn'
p8
F0.013023830839399999
sS'holdmybeer'
p9
F0.0148021190402
sS'dwarffortress'
p10
F0.013773745022500001
sS'YouShouldKnow'
p11
F0.011667098781399999
sS'skyrimmods'
p12
F0.011428239935000001
sS'horror'
p13
F0.0149224328983
sS'UpliftingNews'
p14
F0.0083767262848099995
sS'PandR'
p15
F0.0074636468922899997
sS'3amjokes'
p16
F0.0084483244156599996
sS'magicskyfairy'
p17
F0.0071680233264499998
sS'Steam'
p18
F0.0079432548748699996
sS'photoshopbattles'
p19
F0.0126501286341
sS'IWantToLearn'
p20
F0.0086925027164100003
sS'Celebs'
p21
F0.0089842856676100001
sS'CrappyDesign'
p22
F0.015947467167000001
sS'fantasywriters'
p23
F0.010382201939499999
sS'dbz'
p24
F0.0089624881291500008
sS'Cyberpunk'
p25
F0.0234379401656
sS'spiders'
p26
F0.0098609763983200007
sS'pcgaming'
p27
F0.0095628730096599997
sS'EatCheapAndHealthy'
p28
F0.00735265051192
sS'totalwar'
p29
F0.0076522986787800002
sS'gentlemanboners'
p30
F0.0131691955339
sS'redditgetsdrawn'
p31
F0.0083519285941999998
sS'DCcomics'
p32
F0.012771122486700001
sS'fatpeoplestories'
p33
F0.0093613024420799995
sS'OneY'
p34
F0.0080891782578700003
sS'forwardsfromgrandma'
p35
F0.012295918367300001
sS'no_sob_story'
p36
F0.010562685093799999
sS'Glitch_in_the_Matrix'
p37
F0.0097588978185999993
sS'skeptic'
p38
F0.0103985341273
sS'boardgames'
p39
F0.0074826296098300001
sS'socialskills'
p40
F0.0072207211404099999
sS'gamedev'
p41
F0.0080674734140100002
sS'vexillology'
p42
F0.010472628357699999
sS'tattoos'
p43
F0.010296900754999999
sS'answers'
p44
F0.0106139029024
sS'lgbt'
p45
F0.0072413451046500002
sS'doctorwho'
p46
F0.0097566574839300004
sS'WritingPrompts'
p47
F0.0096635247391799999
sS'WarshipPorn'
p48
F0.0071862907683799999
sS'creepy'
p49
F0.0109094024579
sS'learnart'
p50
F0.0149717200843
sS'evangelion'
p51
F0.0076235007115299999
sS'HalfLife'
p52
F0.0076232751133800004
sS'QuotesPorn'
p53
F0.018700621953299999
sS'TrueReddit'
p54
F0.0109474568754
sS'confession'
p55
F0.0083187936191399994
sS'AntiJokes'
p56
F0.0079248858644200004
sS'IdiotsFightingThings'
p57
F0.018119068162199999
sS'FinalFantasy'
p58
F0.0075273475576699998
sS'gamernews'
p59
F0.015091501629499999
sS'ContagiousLaughter'
p60
F0.015265922521299999
sS'graphic_design'
p61
F0.0071963491691999998
sS'environment'
p62
F0.0070613454385000003
sS'FiftyFifty'
p63
F0.0141827481981
sS'AskHistorians'
p64
F0.0105323982875
sS'OutOfTheLoop'
p65
F0.015174239082500001
sS'ifyoulikeblank'
p66
F0.0099240450185700008
sS'misleadingthumbnails'
p67
F0.019879165854599999
sS'WebGames'
p68
F0.011453545324400001
sS'Pareidolia'
p69
F0.019724599925599998
sS'tipofmytongue'
p70
F0.0085083197116400007
sS'worldbuilding'
p71
F0.032413491020599997
sS'rpg_gamers'
p72
F0.0099735992959800006
sS'ftlgame'
p73
F0.0104814478373
sS'asoiaf'
p74
F0.0088494097610699995
sS'FanTheories'
p75
F0.019687388139800002
sS'ghettoglamourshots'
p76
F0.0090129127307399994
sS'KillLaKill'
p77
F0.00829938131885
sS'EDC'
p78
F0.0071687575542899997
sS'techsupportgore'
p79
F0.0097037793666999994
sS'science'
p80
F0.0080606734434600005
sS'firstworldproblems'
p81
F0.010911757094800001
sS'findareddit'
p82
F0.012006861063499999
sS'standupshots'
p83
F0.016211883857300002
sS'history'
p84
F0.00775556430963
sS'AskScienceFiction'
p85
F0.026060001050799999
sS'NewsOfTheStupid'
p86
F0.0082386067368899994
sS'awesome'
p87
F0.0128809869376
sS'Pathfinder_RPG'
p88
F0.013498698095100001
sS'oddlysatisfying'
p89
F0.015412559296
sS'Infographics'
p90
F0.0091565416446599997
sS'polandball'
p91
F0.0127744510978
sS'SRSsucks'
p92
F0.00828785122296
sS'hardbodies'
p93
F0.0070279007660399998
sS'MURICA'
p94
F0.010217200081200001
sS'scifi'
p95
F0.019325083633799998
sS'spaceporn'
p96
F0.0167867036011
sS'Pizza'
p97
F0.0079131109387099996
sS'wheredidthesodago'
p98
F0.0192002363106
sS'BasicIncome'
p99
F0.0085706865206499998
sS'asmr'
p100
F0.00893738889986
sS'askscience'
p101
F0.0076486975221200003
sS'wallpaper'
p102
F0.017162213022200001
sS'Xcom'
p103
F0.0075887392900900004
sS'comicbookmovies'
p104
F0.00845273683125
sS'MachinePorn'
p105
F0.010114408887400001
sS'eFreebies'
p106
F0.0077194320022899998
sS'listentothis'
p107
F0.0070067323723700002
sS'ImGoingToHellForThis'
p108
F0.0099800124060900001
sS'manga'
p109
F0.0073859821290199997
sS'DoesAnybodyElse'
p110
F0.0075910681717400001
sS'pettyrevenge'
p111
F0.0103082789375
sS'CityPorn'
p112
F0.0100942501813
sS'DeepIntoYouTube'
p113
F0.014732965009200001
sS'dataisbeautiful'
p114
F0.0084542784636900004
sS'MLPLounge'
p115
F0.0077396657871600001
sS'LucidDreaming'
p116
F0.0091229975563400009
sS'beards'
p117
F0.010025300442800001
sS'nostalgia'
p118
F0.0116119279923
sS'startrek'
p119
F0.0099860849635799998
sS'writing'
p120
F0.0130936940275
sS'Bioshock'
p121
F0.0114823269005
sS'gamedesign'
p122
F0.0072006203611400003
sS'MensRights'
p123
F0.00900517188926
sS'MilitaryPorn'
p124
F0.011732316814899999
sS'Frisson'
p125
F0.016182017276999999
sS'childfree'
p126
F0.0073053508490900001
sS'NoStupidQuestions'
p127
F0.0116338958403
sS'martialarts'
p128
F0.0072935913643900003
sS'Braveryjerk'
p129
F0.0072194719471899999
sS'creepyPMs'
p130
F0.0104769250546
sS'WatchItForThePlot'
p131
F0.0125861880267
sS'freebies'
p132
F0.0079515335100299993
sS'PropagandaPosters'
p133
F0.017548387096800001
sS'SubredditDrama'
p134
F0.0133196331392
sS'minimalism'
p135
F0.0096670677898100001
sS'wallpapers'
p136
F0.020225278486499999
sS'mildlyinteresting'
p137
F0.00728629756182
sS'TrueAtheism'
p138
F0.0093292851228299993
sS'snakes'
p139
F0.0074045946459100004
sS'DoctorWhumour'
p140
F0.0079408845263000006
sS'Warhammer40k'
p141
F0.0104825158038
sS'xmen'
p142
F0.0071145441609900004
sS'Cinemagraphs'
p143
F0.019343302990900001
sS'psychology'
p144
F0.0093470161448499997
sS'space'
p145
F0.0094977769319900002
sS'shittyfoodporn'
p146
F0.011947693561999999
sS'LearnUselessTalents'
p147
F0.015031042370100001
sS'RoomPorn'
p148
F0.014351400306499999
sS'Astronomy'
p149
F0.0089029293509500004
sS'DarkSouls2'
p150
F0.0085973111765000002
sS'bestof'
p151
F0.0108667137524
sS'Metal'
p152
F0.010770994753499999
sS'GamePhysics'
p153
F0.020748600058899998
sS'Morrowind'
p154
F0.0096221309010699994
sS'youtubehaiku'
p155
F0.016316431184099998
sS'PoliticalHumor'
p156
F0.00924855491329
sS'Borderlands'
p157
F0.0082632853682899996
sS'TalesFromThePizzaGuy'
p158
F0.0070143054914599996
sS'Rainmeter'
p159
F0.0074631975350899996
sS'howtonotgiveafuck'
p160
F0.0075364797691000003
sS'whatstheword'
p161
F0.0080682130741699994
sS'misc'
p162
F0.00897397547113
sS'patientgamers'
p163
F0.0137548262548
sS'rant'
p164
F0.0075468933176999998
sS'conspiratard'
p165
F0.014783302313200001
sS'pokemon'
p166
F0.0083530821701799998
sS'tf2'
p167
F0.0082754705445700003
sS'OldSchoolCool'
p168
F0.0078213864003200007
sS'lego'
p169
F0.011818703385
sS'ANormalDayInRussia'
p170
F0.015679332363900001
sS'onetruegod'
p171
F0.0109747175026
sS'TheFacebookDelusion'
p172
F0.0076335877862599997
sS'PenmanshipPorn'
p173
F0.0125618973156
sS'shittyreactiongifs'
p174
F0.0182428010471
sS'alternativeart'
p175
F0.043671205244599998
sS'ObscureMedia'
p176
F0.0075355550838500001
sS'CombatFootage'
p177
F0.0087113072768499993
sS'TrollYChromosome'
p178
F0.0147235249209
sS'Metroid'
p179
F0.0078921407431800008
sS'DaystromInstitute'
p180
F0.0082899556583799997
sS'GODZILLA'
p181
F0.0166069399528
sS'Spiderman'
p182
F0.0071193866374599998
sS'mildlyinfuriating'
p183
F0.0127847126836
sS'dresdenfiles'
p184
F0.0092411951945800003
sS'Psychonaut'
p185
F0.0091915212905600008
sS'skyrim'
p186
F0.015127930732599999
sS'worldpolitics'
p187
F0.0091924110141
sS'nononono'
p188
F0.0168128990767
sS'knives'
p189
F0.00886561954625
sS'KerbalSpaceProgram'
p190
F0.0079421204373599993
sS'gallifrey'
p191
F0.00821367369852
sS'ShingekiNoKyojin'
p192
F0.0103521033892
sS'FoodPorn'
p193
F0.0096671477332600005
sS'Aquariums'
p194
F0.00705601389492
sS'conspiracy'
p195
F0.0076263955059400002
sS'superman'
p196
F0.0070015559013100002
sS'HighQualityGifs'
p197
F0.018441486411500001
sS'self'
p198
F0.0094254430522600005
sS'animation'
p199
F0.0116300535352
sS'UnresolvedMysteries'
p200
F0.0075199392328100002
sS'nonononoyes'
p201
F0.0161198431583
sS'FutureWhatIf'
p202
F0.012362351963399999
sS'firefly'
p203
F0.014063378961199999
sS'Futurology'
p204
F0.0101109282947
sS'Games'
p205
F0.010745419244299999
sS'mylittlepony'
p206
F0.0102614345382
sS'Gaming4Gamers'
p207
F0.0123730510657
sS'Minecraft'
p208
F0.0093949364677999997
sS'TumblrInAction'
p209
F0.0140371511487
sS'Borderlands2'
p210
F0.0080761284667899991
sS'painting'
p211
F0.0071186440678000003
sS'IDAP'
p212
F0.018101018859699999
sS'Heavymind'
p213
F0.034236585553100003
sS'Awwducational'
p214
F0.019801980197999999
sS'adventuretime'
p215
F0.0156334964655
sS'fffffffuuuuuuuuuuuu'
p216
F0.0095170598359800001
sS'teslore'
p217
F0.0124396011103
sS'Foodforthought'
p218
F0.0101824838396
sS'blender'
p219
F0.0076550387596899996
sS'TheoryOfReddit'
p220
F0.0083666096215999994
sS'TheBluePill'
p221
F0.0087915255458699999
sS'printSF'
p222
F0.0088081475364699992
sS'harrypotter'
p223
F0.00961266610122
sS'booksuggestions'
p224
F0.0072177796240499997
sS'whowouldwin'
p225
F0.019694664783199999
sS'blunderyears'
p226
F0.013689013688999999
sS'MetalMemes'
p227
F0.010471698113199999
sS'shutupandtakemymoney'
p228
F0.0133594747401
sS'JusticePorn'
p229
F0.0104968412922
sS'geek'
p230
F0.012969485499899999
sS'mycology'
p231
F0.0076704545454500004
sS'PrettyGirlsUglyFaces'
p232
F0.0088510215898799996
sS'AbandonedPorn'
p233
F0.015898744654399999
sS'SkyrimPorn'
p234
F0.0076148366494700002
sS'dadjokes'
p235
F0.011408712746200001
sS'thatHappened'
p236
F0.0136770658707
sS'corgi'
p237
F0.00744269127717
sS'cringe'
p238
F0.0095080091533200004
sS'StarWars'
p239
F0.0132178422863
sS'rpg'
p240
F0.0232171090954
sS'TheSimpsons'
p241
F0.0086766930675400006
sS'changemyview'
p242
F0.010030324236100001
sS'firstworldanarchists'
p243
F0.015758456865399999
sS'PerfectTiming'
p244
F0.018237220302
sS'cosplay'
p245
F0.0145048697906
sS'truegaming'
p246
F0.0163609467456
sS'lotr'
p247
F0.016150244620999999
sS'wikipedia'
p248
F0.0104746557281
sS'breakingbad'
p249
F0.0084832612161199993
sS'outside'
p250
F0.018924574651999999
sS'foodhacks'
p251
F0.0093865484109400005
sS'MonsterHunter'
p252
F0.0082715960583999992
sS'magicTCG'
p253
F0.0085829780165000008
sS'europe'
p254
F0.0071294131067099996
sS'glitch_art'
p255
F0.016406966086200001
sS'PixelArt'
p256
F0.016089473167899999
sS'casualiama'
p257
F0.00862114654182
sS'facepalm'
p258
F0.011724835772
sS'NotTimAndEric'
p259
F0.0114301452868
sS'gamingsuggestions'
p260
F0.0090781140042199993
sS'Unexpected'
p261
F0.018316743257100001
sS'RedditDayOf'
p262
F0.0112604431529
sS'watchpeopledie'
p263
F0.0096073864581600003
sS'Sherlock'
p264
F0.0081167946832300004
sS'GunPorn'
p265
F0.0108695652174
sS'GetMotivated'
p266
F0.0080349851155199995
sS'drunk'
p267
F0.0075385982815900001
sS'reactiongifs'
p268
F0.012979561892799999
sS'community'
p269
F0.0086053034166200006
sS'EarthPorn'
p270
F0.0081646238790800008
sS'ainbow'
p271
F0.0085918491484200006
sS'Portal'
p272
F0.00726927939317
sS'TheLastAirbender'
p273
F0.0130044541934
sS'fatlogic'
p274
F0.011035007610400001
sS'marvelstudios'
p275
F0.0085700463058999993
sS'somethingimade'
p276
F0.0118052139695
sS'MapPorn'
p277
F0.011181688340999999
sS'IndieGaming'
p278
F0.0122816901408
sS'darksouls'
p279
F0.014820236026
sS'Perfectfit'
p280
F0.012759295499
sS'offbeat'
p281
F0.0143233405345
sS'softwaregore'
p282
F0.0087887503994899998
sS'ICanDrawThat'
p283
F0.0117869285984
sS'IASIP'
p284
F0.0086642184989700003
sS'shorthairedhotties'
p285
F0.0082594855028800002
sS'southpark'
p286
F0.0096550759112899991
sS'deadpool'
p287
F0.010530662812299999
sS'itookapicture'
p288
F0.0098349407235199995
sS'tolkienfans'
p289
F0.010173671770599999
sS'Whatcouldgowrong'
p290
F0.015633526137699999
sS'fifthworldproblems'
p291
F0.015611448395500001
sS'talesfromtechsupport'
p292
F0.0084664143167499997
sS'notinteresting'
p293
F0.014089074661299999
sS'AnimalsBeingJerks'
p294
F0.0178742419406
sS'TrueFilm'
p295
F0.0084340946409900003
sS'HumanPorn'
p296
F0.020562368388500001
sS'Fantasy'
p297
F0.0177726531748
sS'anime'
p298
F0.0079780755176599993
sS'Graffiti'
p299
F0.0089969372128600004
sS'drawing'
p300
F0.0188856857092
sS'EmmaWatson'
p301
F0.0075593952483799997
sS'GifSound'
p302
F0.0130126182965
sS'awwwtf'
p303
F0.017128128377799999
sS'Terraria'
p304
F0.0086383987358400003
sS'whatsthisbug'
p305
F0.012179188054099999
sS'PublicFreakout'
p306
F0.0098730606487999993
sS'ArtisanVideos'
p307
F0.0117178739628
sS'rickandmorty'
p308
F0.014314305603900001
sS'quotes'
p309
F0.010237574241999999
sS'futurama'
p310
F0.014653081028599999
sS'perfectloops'
p311
F0.017601905770199999
sS'InternetIsBeautiful'
p312
F0.0105849835986
sS'carporn'
p313
F0.0070215353234199997
sS'TalesFromRetail'
p314
F0.0089419137141500005
sS'WouldYouRather'
p315
F0.010813118019500001
sS'quityourbullshit'
p316
F0.016132697114300001
sS'woahdude'
p317
F0.0137605934039
sS'Fallout'
p318
F0.012843440091
sS'NSFW_GIF'
p319
F0.0073177819459500004
sS'howto'
p320
F0.0071643318620900004
sS'cringepics'
p321
F0.0097992876876499997
sS'toosoon'
p322
F0.0094779243345700006
sS'Art'
p323
F0.013384602798
sS'ConfusedBoners'
p324
F0.0145742776783
sS'Paranormal'
p325
F0.0080201381571200006
sS'4chan'
p326
F0.0130806193273
sS'oblivion'
p327
F0.0084790673026000005
sS'montageparodies'
p328
F0.0079132473622500008
sS'zombies'
p329
F0.0136415618363
sS'ArcherFX'
p330
F0.011145974804500001
sS'whatisthisthing'
p331
F0.0115162715226
sS'NetflixBestOf'
p332
F0.010667178544999999
sS'ShouldIbuythisgame'
p333
F0.010854549042799999
sS'tumblr'
p334
F0.0132247781511
sS'interestingasfuck'
p335
F0.015753813290600001
sS'MarkMyWords'
p336
F0.0104746626404
sS'Berserk'
p337
F0.0075663607045400004
sS'gameofthrones'
p338
F0.0100114100629
sS'humor'
p339
F0.0115326951909
sS'mountandblade'
p340
F0.0070875763747500001
sS'ExpectationVsReality'
p341
F0.0142847606969
sS'lifehacks'
p342
F0.010696759311599999
sS'SCP'
p343
F0.022400977497199999
sS'Enhancement'
p344
F0.0095503718728900001
sS'starbound'
p345
F0.0116582564816
sS'blackpeoplegifs'
p346
F0.0143012704174
sS'FloridaMan'
p347
F0.0153699977644
sS'delusionalartists'
p348
F0.0197698111129
sS'whitepeoplegifs'
p349
F0.016643550624100001
sS'Cynicalbrit'
p350
F0.0091944115217500004
sS'promos'
p351
F0.0073890921564100003
sS'shittyaskscience'
p352
F0.0118649302517
sS'lewronggeneration'
p353
F0.014380117202099999
sS'custommagic'
p354
F0.0095170116583399994
sS'calvinandhobbes'
p355
F0.013234599023200001
sS'masseffect'
p356
F0.012031047865499999
sS'sixwordstories'
p357
F0.0125232871041
sS'AnimalsBeingBros'
p358
F0.016825911904299998
sS'classic4chan'
p359
F0.017235976183000001
sS'GameDeals'
p360
F0.0075936156046999999
sS'NSFWFunny'
p361
F0.0079872204472799992
sS'lfg'
p362
F0.0089599113245899999
sS'Animesuggest'
p363
F0.0074239049740200003
sS'marijuanaenthusiasts'
p364
F0.0090052789566299994
sS'TrollXChromosomes'
p365
F0.0099917012448100008
sS'badhistory'
p366
F0.011299852289499999
sS'Damnthatsinteresting'
p367
F0.0178446609926
sS'DnD'
p368
F0.0194546473262
sS'CrazyIdeas'
p369
F0.0189809885932
sS'Bad_Cop_No_Donut'
p370
F0.0094702574726300004
sS'MorbidReality'
p371
F0.010931671152700001
sS'gif'
p372
F0.013941412203000001
sS'cats'
p373
F0.0083647324792800008
sS'happy'
p374
F0.0102349223794
sS'explainlikeIAmA'
p375
F0.017106513633999999
sS'shortscarystories'
p376
F0.0112855007474
sS'batman'
p377
F0.015502481835800001
sS'gamegrumps'
p378
F0.0095829396679699991
sS'rule34'
p379
F0.0093576526566200007
sS'ProgrammerHumor'
p380
F0.0074730538922199996
sS'Marvel'
p381
F0.0129497386135
sS'webcomics'
p382
F0.017796153154800001
sS'rage'
p383
F0.0140614554759
sS'comics'
p384
F0.021678071698500001
sS'behindthegifs'
p385
F0.022354408519600001
sS'civ'
p386
F0.0081521739130399999
sS'BustyPetite'
p387
F0.00770308123249
sS'fullmoviesonyoutube'
p388
F0.0155262179249
sS'Design'
p389
F0.0079249916285299999
sS'TrueAskReddit'
p390
F0.0106486636971
sS'eatsandwiches'
p391
F0.0088904384206400008
sS'shittyama'
p392
F0.0072375438061900001
sS'circlebroke'
p393
F0.0093240093240100005
sS'zelda'
p394
F0.011413022939400001
sS'ImaginaryLandscapes'
p395
F0.0825652088645
sS'TheWayWeWere'
p396
F0.0097993898493099994
sS'badtattoos'
p397
F0.0097416349004699997
sS'popping'
p398
F0.0077131899857799998
sS'nottheonion'
p399
F0.0091629291193399999
sS'animegifs'
p400
F0.0073746312684399998
sS'Warhammer'
p401
F0.013775653640700001
sS'gamemusic'
p402
F0.0106551602677
sS'comicbooks'
p403
F0.0168986083499
sS'HailCorporate'
p404
F0.010861865407299999
sS'roguelikes'
p405
F0.0092942829352600006
sS'GirlGamers'
p406
F0.0080813182650399992
sS'cosplaygirls'
p407
F0.016055045871600001
sS'SketchDaily'
p408
F0.0097826086956499993
sS'terriblefacebookmemes'
p409
F0.0095300690108399994
sS'PrettyGirls'
p410
F0.012749482678099999
sS'urbanexploration'
p411
F0.0107973421927
s.