(dp1
S'IDAP'
p2
F0.014905637696800001
sS'photoshop'
p3
F0.00741839762611
sS'awwwtf'
p4
F0.011202724502600001
sS'Heavymind'
p5
F0.028160919540199999
sS'StarWarsEU'
p6
F0.0081206496519699994
sS'HalfLife'
p7
F0.0078572945423700004
sS'pettyrevenge'
p8
F0.00771199680883
sS'introvert'
p9
F0.0073353532132000004
sS'CityPorn'
p10
F0.018758162174999999
sS'asoiaf'
p11
F0.00719777800359
sS'LucidDreaming'
p12
F0.0086951547394299999
sS'fffffffuuuuuuuuuuuu'
p13
F0.0070613796849499999
sS'uglyduckling'
p14
F0.0075591804257
sS'rickandmorty'
p15
F0.0096618357487899993
sS'quotes'
p16
F0.0091843613077200008
sS'BuyItForLife'
p17
F0.0078192875760200002
sS'teslore'
p18
F0.0099886492622
sS'perfectloops'
p19
F0.017704733018300001
sS'everymanshouldknow'
p20
F0.0102651233585
sS'dataisbeautiful'
p21
F0.010337189268999999
sS'InternetIsBeautiful'
p22
F0.010257358037199999
sS'Foodforthought'
p23
F0.0115019068951
sS'carporn'
p24
F0.0082381729200699996
sS'blender'
p25
F0.0081083964579100002
sS'linguistics'
p26
F0.0070368800339100004
sS'UFOs'
p27
F0.0075387646706099997
sS'TheoryOfReddit'
p28
F0.0122654366286
sS'TheWayWeWere'
p29
F0.0127957753631
sS'quityourbullshit'
p30
F0.0133510825731
sS'rpg'
p31
F0.017691877232999999
sS'drawing'
p32
F0.014880952381
sS'LearnUselessTalents'
p33
F0.0125944584383
sS'Documentaries'
p34
F0.0070492619008099998
sS'writing'
p35
F0.011911946888600001
sS'HistoryPorn'
p36
F0.013932731033000001
sS'shittybattlestations'
p37
F0.0071270345757499997
sS'Fantasy'
p38
F0.016454286774700001
sS'Bioshock'
p39
F0.0081103000811000008
sS'woahdude'
p40
F0.0123975955121
sS'Fallout'
p41
F0.0091309078866399999
sS'ImaginaryMonsters'
p42
F0.0825652088645
sS'dwarffortress'
p43
F0.012078300708000001
sS'Physics'
p44
F0.0079404466501199998
sS'PublicFreakout'
p45
F0.0085445741953900003
sS'circlebroke'
p46
F0.0085964363863699992
sS'ArtisanVideos'
p47
F0.015021968887299999
sS'nononono'
p48
F0.0148989173134
sS'MilitaryPorn'
p49
F0.0125816704927
sS'Frisson'
p50
F0.0165838549397
sS'arresteddevelopment'
p51
F0.0072906694160100004
sS'RoomPorn'
p52
F0.019770563827200001
sS'AskScienceFiction'
p53
F0.017525603811799999
sS'skyrimmods'
p54
F0.0070865660700100003
sS'misc'
p55
F0.0108036600154
sS'whitepeoplegifs'
p56
F0.0117335977524
sS'JusticePorn'
p57
F0.0090425754594499995
sS'UpliftingNews'
p58
F0.0083998969337799999
sS'AbandonedPorn'
p59
F0.018398113746800001
sS'geek'
p60
F0.0114977614978
sS'spaceporn'
p61
F0.021782527007999999
sS'NoStupidQuestions'
p62
F0.0093024702881000006
sS'3amjokes'
p63
F0.0087556654305700008
sS'toosoon'
p64
F0.0075796286833600002
sS'SkyrimPorn'
p65
F0.0082001389854099993
sS'magicskyfairy'
p66
F0.0071350164654200004
sS'IndieGaming'
p67
F0.0115311459819
sS'photoshopbattles'
p68
F0.010915265200500001
sS'IWantToLearn'
p69
F0.0097997443544999997
sS'Sherlock'
p70
F0.0071711318914600003
sS'Art'
p71
F0.0113099285252
sS'dadjokes'
p72
F0.0096756658814999997
sS'WatchItForThePlot'
p73
F0.0089085579631
sS'techsupportgore'
p74
F0.0097850315463400006
sS'PropagandaPosters'
p75
F0.015779645191399998
sS'vexillology'
p76
F0.0150332044078
sS'fantasywriters'
p77
F0.0116442738324
sS'comics'
p78
F0.0171067020778
sS'oblivion'
p79
F0.0082401412595599997
sS'futurama'
p80
F0.0119126070867
sS'architecture'
p81
F0.0099170727537000007
sS'Cyberpunk'
p82
F0.0260460126356
sS'science'
p83
F0.0078859136940100001
sS'minimalism'
p84
F0.0113574679527
sS'DeepIntoYouTube'
p85
F0.013263332412300001
sS'ArcherFX'
p86
F0.0085014902037399993
sS'cringe'
p87
F0.0074333137112299998
sS'thatHappened'
p88
F0.0087950382708599992
sS'Psychonaut'
p89
F0.0089763084318400001
sS'talesfromtechsupport'
p90
F0.0084197039375800004
sS'gamemusic'
p91
F0.011822376009199999
sS'pcgaming'
p92
F0.0079247501469699999
sS'whatisthisthing'
p93
F0.0095362838365700003
sS'glitch_art'
p94
F0.016746891295599999
sS'totalwar'
p95
F0.0083048053759399998
sS'gentlemanboners'
p96
F0.0099992021913099995
sS'ShouldIbuythisgame'
p97
F0.0074769246635400001
sS'watchpeopledie'
p98
F0.0074288429145300001
sS'tumblr'
p99
F0.0101141194898
sS'SelfDrivingCars'
p100
F0.0092879256965899999
sS'interestingasfuck'
p101
F0.012950126796299999
sS'MarkMyWords'
p102
F0.011401326699800001
sS'changemyview'
p103
F0.0092196897752499993
sS'adventuretime'
p104
F0.0097012841987699997
sS'OneY'
p105
F0.0073905010324999999
sS'CrappyDesign'
p106
F0.013381961773699999
sS'Cinemagraphs'
p107
F0.023034154090500001
sS'firstworldanarchists'
p108
F0.0122769336833
sS'offbeat'
p109
F0.0128563613154
sS'no_sob_story'
p110
F0.0094565217391299992
sS'gameofthrones'
p111
F0.0082185180724000002
sS'humor'
p112
F0.012324588163499999
sS'mountandblade'
p113
F0.0078601077453000004
sS'space'
p114
F0.0119882937837
sS'skeptic'
p115
F0.010871647509599999
sS'lotr'
p116
F0.0147521962539
sS'shittyfoodporn'
p117
F0.0103877669527
sS'PixelArt'
p118
F0.015765036173199999
sS'wikipedia'
p119
F0.0119751043882
sS'ExpectationVsReality'
p120
F0.011359602413899999
sS'socialskills'
p121
F0.0076041920545900001
sS'firstworldproblems'
p122
F0.0096525096525099992
sS'outside'
p123
F0.016348386485300001
sS'gamedev'
p124
F0.0097566020823300001
sS'DaystromInstitute'
p125
F0.0091256366723300002
sS'foodhacks'
p126
F0.0079321012136099999
sS'lifehacks'
p127
F0.0089961247462599994
sS'Astronomy'
p128
F0.012677515694499999
sS'SCP'
p129
F0.0116848430892
sS'montageparodies'
p130
F0.0070469192314600001
sS'europe'
p131
F0.0080666451556099996
sS'starbound'
p132
F0.0099153348123299997
sS'blackpeoplegifs'
p133
F0.0103972687772
sS'bestof'
p134
F0.0100869246585
sS'ExposurePorn'
p135
F0.012504262816899999
sS'graphic_design'
p136
F0.0074950445986100003
sS'DnD'
p137
F0.012964260686800001
sS'casualiama'
p138
F0.0074649631237999996
sS'FloridaMan'
p139
F0.011812411847700001
sS'Metal'
p140
F0.0071218953546599998
sS'malelivingspace'
p141
F0.0071850141134199999
sS'answers'
p142
F0.0114597163021
sS'BasicIncome'
p143
F0.0105780128447
sS'Cynicalbrit'
p144
F0.0071224542790399997
sS'promos'
p145
F0.0071405810955699998
sS'NotTimAndEric'
p146
F0.010369171937
sS'shittyaskscience'
p147
F0.0107490054535
sS'doctorwho'
p148
F0.0072792809662000002
sS'worldbuilding'
p149
F0.033156146179399999
sS'gamingsuggestions'
p150
F0.0089675960813900002
sS'Morrowind'
p151
F0.0087350729765599995
sS'Unity3D'
p152
F0.0071684587813600001
sS'WritingPrompts'
p153
F0.0077084099459699996
sS'RedditDayOf'
p154
F0.0137340764331
sS'WarshipPorn'
p155
F0.011655011655
sS'gamedesign'
p156
F0.0094222663030000004
sS'Roadcam'
p157
F0.0073979591836700002
sS'Rainmeter'
p158
F0.0077610191828999999
sS'badhistory'
p159
F0.0096664289675900007
sS'4chan'
p160
F0.00920410265598
sS'howtonotgiveafuck'
p161
F0.0075992119335799996
sS'sixwordstories'
p162
F0.0109877532334
sS'AnimalsBeingBros'
p163
F0.0146115240455
sS'classic4chan'
p164
F0.0131335241623
sS'learnart'
p165
F0.012342631449
sS'GameDeals'
p166
F0.0075596719871100001
sS'battlestations'
p167
F0.0076350907897600002
sS'gif'
p168
F0.011053006893300001
sS'Warhammer'
p169
F0.0093639973031700002
sS'whatsthisbug'
p170
F0.0080190513219299993
sS'QuotesPorn'
p171
F0.016985416120900002
sS'TrueReddit'
p172
F0.0110509105664
sS'StarWars'
p173
F0.0107996491485
sS'Design'
p174
F0.0111695526269
sS'reactiongifs'
p175
F0.010163043992500001
sS'patientgamers'
p176
F0.0122652937614
sS'community'
p177
F0.0079464109804999999
sS'printSF'
p178
F0.011071967790600001
sS'IdiotsFightingThings'
p179
F0.0150284813962
sS'conspiratard'
p180
F0.010814426668200001
sS'marijuanaenthusiasts'
p181
F0.011380618461899999
sS'EarthPorn'
p182
F0.0103678764173
sS'TrollXChromosomes'
p183
F0.0074166260237799996
sS'holdmybeer'
p184
F0.012381528534
sS'TrueAtheism'
p185
F0.0097279664472500003
sS'ContagiousLaughter'
p186
F0.0132374100719
sS'harrypotter'
p187
F0.0084131128517599997
sS'nostalgia'
p188
F0.0098160813636199995
sS'TheLastAirbender'
p189
F0.010467741567700001
sS'Damnthatsinteresting'
p190
F0.0148789222374
sS'environment'
p191
F0.0092710782667099999
sS'FiftyFifty'
p192
F0.0090080598430199998
sS'CrazyIdeas'
p193
F0.0167749593902
sS'truegaming'
p194
F0.014209807196000001
sS'AskHistorians'
p195
F0.011292278668599999
sS'lego'
p196
F0.0101794272587
sS'Bad_Cop_No_Donut'
p197
F0.0084894871118099992
sS'ANormalDayInRussia'
p198
F0.0153153758313
sS'Whatcouldgowrong'
p199
F0.0135795914946
sS'onetruegod'
p200
F0.0089599437807400002
sS'Enhancement'
p201
F0.012710693561799999
sS'MorbidReality'
p202
F0.0086489351450300001
sS'NetflixBestOf'
p203
F0.0087655222790400007
sS'SubredditDrama'
p204
F0.011017899253899999
sS'wheredidthesodago'
p205
F0.0161265726268
sS'PenmanshipPorn'
p206
F0.012383561643800001
sS'ifyoulikeblank'
p207
F0.0076451707032399998
sS'alternativeart'
p208
F0.026767180159500002
sS'WebGames'
p209
F0.010123096857799999
sS'whowouldwin'
p210
F0.0116127961954
sS'fifthworldproblems'
p211
F0.011604599641299999
sS'OutOfTheLoop'
p212
F0.012647422217199999
sS'Pareidolia'
p213
F0.019011907111399998
sS'ObscureMedia'
p214
F0.0077857732688499997
sS'CombatFootage'
p215
F0.0082284310715399992
sS'fatlogic'
p216
F0.0073365940418000002
sS'TrollYChromosome'
p217
F0.0085675119945199992
sS'explainlikeIAmA'
p218
F0.0136054421769
sS'misleadingthumbnails'
p219
F0.017593486960100001
sS'Unexpected'
p220
F0.013588695780599999
sS'rpg_gamers'
p221
F0.0084946236559099997
sS'mildlyinfuriating'
p222
F0.0101090309379
sS'ftlgame'
p223
F0.0075316927665900002
sS'roguelikes'
p224
F0.0082932692307699993
sS'TinyHouses'
p225
F0.0074824345287000001
sS'youtubehaiku'
p226
F0.0155346285036
sS'Awwducational'
p227
F0.016062907453499999
sS'Shitty_Car_Mods'
p228
F0.0073057794546400002
sS'urbanexploration'
p229
F0.010234749411100001
sS'polandball'
p230
F0.012805919180399999
sS'NeutralPolitics'
p231
F0.00746357066698
sS'blunderyears'
p232
F0.010536879076799999
sS'Marvel'
p233
F0.0075488922439499997
sS'webcomics'
p234
F0.0136798905609
sS'darksouls'
p235
F0.0084848862962799993
sS'rage'
p236
F0.0101149964797
sS'worldpolitics'
p237
F0.0089125780942799996
sS'forwardsfromgrandma'
p238
F0.0097279384253599992
sS'entertainment'
p239
F0.0072426865840500001
sS'Perfectfit'
p240
F0.0140416173236
sS'PerfectTiming'
p241
F0.015585030791099999
sS'behindthegifs'
p242
F0.018966121203000001
sS'standupshots'
p243
F0.0128181032214
sS'starcitizen'
p244
F0.0076602550612400004
sS'findareddit'
p245
F0.010101010101000001
sS'civ'
p246
F0.0081950627276399998
sS'skyrim'
p247
F0.010803632905999999
sS'Meditation'
p248
F0.0070806732443399996
sS'KerbalSpaceProgram'
p249
F0.0083780160857900004
sS'cosplay'
p250
F0.010048510048499999
sS'Glitch_in_the_Matrix'
p251
F0.0089128721275700002
sS'history'
p252
F0.0080175478405599999
sS'ICanDrawThat'
p253
F0.0079397229198699994
sS'fullmoviesonyoutube'
p254
F0.014368932038800001
sS'ShingekiNoKyojin'
p255
F0.0084900364861100006
sS'gamernews'
p256
F0.0130729248701
sS'NewsOfTheStupid'
p257
F0.0076282940360600003
sS'Economics'
p258
F0.0073379358256300004
sS'FoodPorn'
p259
F0.0090787841916799995
sS'Anticonsumption'
p260
F0.0082017382788599994
sS'awesome'
p261
F0.011184796595100001
sS'Infographics'
p262
F0.0100893629288
sS'TrueAskReddit'
p263
F0.011477975702500001
sS'FanTheories'
p264
F0.012550241981800001
sS'oddlysatisfying'
p265
F0.013167546292200001
sS'delusionalartists'
p266
F0.014494427441200001
sS'tipofmytongue'
p267
F0.00779514748532
sS'Pathfinder_RPG'
p268
F0.0095550692924900003
sS'YouShouldKnow'
p269
F0.010913725802599999
sS'shorthairedhotties'
p270
F0.0070132784739100002
sS'Pizza'
p271
F0.0071088065568300001
sS'happy'
p272
F0.0094658056941599993
sS'techsupportmacgyver'
p273
F0.0083205428548300004
sS'MURICA'
p274
F0.0087668837294899993
sS'eatsandwiches'
p275
F0.0083515232039500006
sS'HighQualityGifs'
p276
F0.016046735191899999
sS'eFreebies'
p277
F0.0079597821533300001
sS'softwaregore'
p278
F0.0096852300242099999
sS'self'
p279
F0.0095387202458599996
sS'AskSocialScience'
p280
F0.0075593952483799997
sS'zelda'
p281
F0.0080053108403600002
sS'masseffect'
p282
F0.00968479576739
sS'calvinandhobbes'
p283
F0.012494687632800001
sS'animation'
p284
F0.0099889012208700008
sS'scifi'
p285
F0.018609009973900002
sS'batman'
p286
F0.0088747550197800004
sS'nottheonion'
p287
F0.0082311127620199997
sS'itookapicture'
p288
F0.013009161940299999
sS'nonononoyes'
p289
F0.0155601659751
sS'startrek'
p290
F0.011078915970699999
sS'tolkienfans'
p291
F0.0098942340498099999
sS'FutureWhatIf'
p292
F0.0102228348266
sS'wallpapers'
p293
F0.018164374800100001
sS'firefly'
p294
F0.010987556261599999
sS'awwnime'
p295
F0.0076923076923099999
sS'MapPorn'
p296
F0.013693113169600001
sS'notinteresting'
p297
F0.0120585060851
sS'facepalm'
p298
F0.0080755232029100007
sS'asmr'
p299
F0.0093772666045000008
sS'AnimalsBeingJerks'
p300
F0.0140685522181
sS'askscience'
p301
F0.0075641469323199997
sS'Futurology'
p302
F0.011585817129800001
sS'wallpaper'
p303
F0.018566563969499999
sS'Games'
p304
F0.0097946137536000007
sS'shittyreactiongifs'
p305
F0.014650075015399999
sS'Gaming4Gamers'
p306
F0.010715652506700001
sS'comicbooks'
p307
F0.00951041080473
sS'GamePhysics'
p308
F0.019179276418200001
sS'Minecraft'
p309
F0.0078100826887199997
sS'lewronggeneration'
p310
F0.0103807718815
sS'psychology'
p311
F0.0079287800806800007
sS'somethingimade'
p312
F0.0105067985167
sS'ProgrammerHumor'
p313
F0.0093490826840899998
sS'MachinePorn'
p314
F0.0150899069305
sS'oculus'
p315
F0.0076186040321999998
sS'cosplaygirls'
p316
F0.0103382843683
sS'ConfusedBoners'
p317
F0.0086556169429099997
sS'TrueFilm'
p318
F0.0089156626506000005
sS'futurebeats'
p319
F0.0087154225085299998
sS'SketchDaily'
p320
F0.0076114534251500001
sS'HumanPorn'
p321
F0.020638885237299998
sS'howto'
p322
F0.0085895425727700002
sS'GetMotivated'
p323
F0.0072500466455199999
sS'terriblefacebookmemes'
p324
F0.0071955227858200004
sS'PrettyGirls'
p325
F0.0090102873359299996
sS'TumblrInAction'
p326
F0.0097666567883399995
sS'Graffiti'
p327
F0.0085164546314799999
sS'EmmaWatson'
p328
F0.00738938451834
sS'listentothis'
p329
F0.0073453386179599999
sS'HailCorporate'
p330
F0.0090785677923000008
sS'ImGoingToHellForThis'
p331
F0.0071442497841400004
sS'painting'
p332
F0.010020294266899999
sS'cableporn'
p333
F0.0071878533354899996
sS'shutupandtakemymoney'
p334
F0.0112653294039
sS'GifSound'
p335
F0.010196954882
s.