(dp1
S'IDAP'
p2
F0.0078551167357600003
sS'awwwtf'
p3
F0.017866172256900001
sS'daddit'
p4
F0.0089153999101999996
sS'Heavymind'
p5
F0.0074130105900200001
sS'Psychonaut'
p6
F0.0074503701607999996
sS'Justrolledintotheshop'
p7
F0.0110210696921
sS'DoesAnybodyElse'
p8
F0.0164470400319
sS'pettyrevenge'
p9
F0.0093767236624400004
sS'photocritique'
p10
F0.0077237919197300003
sS'CityPorn'
p11
F0.011890003381
sS'fffffffuuuuuuuuuuuu'
p12
F0.012539184953
sS'inthenews'
p13
F0.010516934046300001
sS'Conservative'
p14
F0.0101924020276
sS'milf'
p15
F0.0071075573324399996
sS'quotes'
p16
F0.0115634405196
sS'BuyItForLife'
p17
F0.00899742930591
sS'woodworking'
p18
F0.0085073754929199993
sS'perfectloops'
p19
F0.0146637339199
sS'everymanshouldknow'
p20
F0.0104015981263
sS'Pets'
p21
F0.010614712798099999
sS'InternetIsBeautiful'
p22
F0.0073285083526799999
sS'Foodforthought'
p23
F0.0100403923832
sS'foodhacks'
p24
F0.0088918777553599997
sS'carporn'
p25
F0.0118566103577
sS'TalesFromRetail'
p26
F0.0073426404521499998
sS'creepy'
p27
F0.0086465199897299994
sS'Amateur'
p28
F0.0073152889539100001
sS'comics'
p29
F0.0110854620634
sS'TheoryOfReddit'
p30
F0.0074224021592400003
sS'TopGear'
p31
F0.010233016890599999
sS'WouldYouRather'
p32
F0.0085396483674199993
sS'quityourbullshit'
p33
F0.0124098671727
sS'LearnUselessTalents'
p34
F0.011492365785599999
sS'ProtectAndServe'
p35
F0.0074283882000900003
sS'harrypotter'
p36
F0.0072808657714299998
sS'HistoryPorn'
p37
F0.0129153658641
sS'StonerEngineering'
p38
F0.0078094238089000002
sS'woahdude'
p39
F0.011646029959299999
sS'4chan'
p40
F0.0086639155129600003
sS'seinfeld'
p41
F0.00709956709957
sS'DeepIntoYouTube'
p42
F0.0094986807387900003
sS'PublicFreakout'
p43
F0.0089723048752600003
sS'texas'
p44
F0.0074836988737400001
sS'Gore'
p45
F0.0092975907702700002
sS'MensRights'
p46
F0.0100667033841
sS'nononono'
p47
F0.015617780242099999
sS'MilitaryPorn'
p48
F0.011464859566099999
sS'Frisson'
p49
F0.0085933690882499993
sS'arresteddevelopment'
p50
F0.0092043790530599995
sS'childfree'
p51
F0.0077961405882499999
sS'popping'
p52
F0.0111425462459
sS'webcomics'
p53
F0.012601994560299999
sS'food'
p54
F0.0071777983821999999
sS'misc'
p55
F0.023628518594599999
sS'horror'
p56
F0.00704086656819
sS'randomsexiness'
p57
F0.0075505889459400004
sS'UpliftingNews'
p58
F0.0091230730351300002
sS'AbandonedPorn'
p59
F0.0139100346021
sS'PandR'
p60
F0.00766980825479
sS'geek'
p61
F0.014916467780400001
sS'Jokes'
p62
F0.0079757007653900001
sS'NoStupidQuestions'
p63
F0.011657991659800001
sS'cringepics'
p64
F0.0087271420107699997
sS'toosoon'
p65
F0.0147070642128
sS'Military'
p66
F0.0089049245768199996
sS'beards'
p67
F0.0111029809436
sS'PrettyGirlsUglyFaces'
p68
F0.0076150627615099997
sS'motorcycles'
p69
F0.0084281137795399995
sS'photoshopbattles'
p70
F0.0079237406437400008
sS'IWantToLearn'
p71
F0.0084320875113899994
sS'Art'
p72
F0.0071733672438000001
sS'creepyPMs'
p73
F0.0087374258447299995
sS'progressive'
p74
F0.0122504099547
sS'dadjokes'
p75
F0.0096892396589400003
sS'WatchItForThePlot'
p76
F0.011744596382899999
sS'Celebs'
p77
F0.0134894459103
sS'techsupportgore'
p78
F0.011651841505600001
sS'freebies'
p79
F0.0108089527156
sS'PropagandaPosters'
p80
F0.0116117850953
sS'CrappyDesign'
p81
F0.0132052176714
sS'NewsOfTheWeird'
p82
F0.010729118597100001
sS'shittyadviceanimals'
p83
F0.0089177138224600001
sS'futurama'
p84
F0.0130801893699
sS'YouShouldKnow'
p85
F0.0161315624346
sS'zombies'
p86
F0.012810976113700001
sS'Libertarian'
p87
F0.0092387676959299996
sS'nsfw'
p88
F0.0093608644664099992
sS'ArcherFX'
p89
F0.0092278719397399997
sS'cringe'
p90
F0.0079075356182399994
sS'SubredditDrama'
p91
F0.0075520388607399997
sS'spiders'
p92
F0.00767660269498
sS'spotted'
p93
F0.0070518653321199999
sS'StarWars'
p94
F0.0097901594500200001
sS'mildlyinteresting'
p95
F0.00736335418349
sS'TrueAtheism'
p96
F0.0077265147304100001
sS'whatisthisthing'
p97
F0.015691350455299999
sS'NetflixBestOf'
p98
F0.0096561210453899992
sS'gentlemanboners'
p99
F0.0130107639252
sS'TheSimpsons'
p100
F0.0095058739126500005
sS'Marijuana'
p101
F0.0073887343532700002
sS'tumblr'
p102
F0.0123916811092
sS'POLITIC'
p103
F0.011612284069100001
sS'see'
p104
F0.010529311326100001
sS'StandUpComedy'
p105
F0.00752803810109
sS'dubstep'
p106
F0.0070933290826500003
sS'changemyview'
p107
F0.0074873590042799998
sS'PS3'
p108
F0.0074381673815800001
sS'drawing'
p109
F0.0083426355678299993
sS'torrents'
p110
F0.0072083879423299997
sS'Cinemagraphs'
p111
F0.0112662258144
sS'firstworldanarchists'
p112
F0.014183105189200001
sS'offbeat'
p113
F0.017687237152100001
sS'no_sob_story'
p114
F0.0072934359076799998
sS'humor'
p115
F0.021262848751800002
sS'psychology'
p116
F0.0082442949479000008
sS'space'
p117
F0.0085086472810500004
sS'skeptic'
p118
F0.0118734118734
sS'shittyfoodporn'
p119
F0.010986589435200001
sS'marijuanaenthusiasts'
p120
F0.0087276550998899999
sS'wikipedia'
p121
F0.0169997017596
sS'ExpectationVsReality'
p122
F0.0148448043185
sS'breakingbad'
p123
F0.0081749321137600008
sS'firstworldproblems'
p124
F0.0149956408021
sS'outside'
p125
F0.0089816284871900003
sS'GuessTheMovie'
p126
F0.0074653714696899997
sS'RoomPorn'
p127
F0.012182598954399999
sS'cars'
p128
F0.0078773603120099994
sS'lifehacks'
p129
F0.014556471821
sS'memes'
p130
F0.019698208578
sS'Astronomy'
p131
F0.0081649197984800005
sS'guns'
p132
F0.0093844624737099997
sS'disney'
p133
F0.0081229546517100001
sS'Enhancement'
p134
F0.0082093381221099992
sS'ass'
p135
F0.00739612790951
sS'tattoos'
p136
F0.0088466712870500005
sS'blackpeoplegifs'
p137
F0.012234432234399999
sS'bestof'
p138
F0.0072093116919699999
sS'ProgrammerHumor'
p139
F0.0077234987449300001
sS'Cyberpunk'
p140
F0.0081728616211400006
sS'tonightsdinner'
p141
F0.0071564352007199997
sS'casualiama'
p142
F0.0087699094661899991
sS'Whatisthis'
p143
F0.010368108021199999
sS'FloridaMan'
p144
F0.012478920742000001
sS'celebnsfw'
p145
F0.0082035595105700004
sS'delusionalartists'
p146
F0.0105106757649
sS'answers'
p147
F0.0129353233831
sS'Frugal'
p148
F0.0085772595584399994
sS'hardbodies'
p149
F0.0113449875134
sS'DunderMifflin'
p150
F0.0071639031717600004
sS'LadyBoners'
p151
F0.0085615117624400008
sS'corgi'
p152
F0.0083647324792800008
sS'shittyaskscience'
p153
F0.0090702947845799995
sS'doctorwho'
p154
F0.0074472486553599998
sS'lewronggeneration'
p155
F0.0078125
sS'spaceporn'
p156
F0.0114495331258
sS'PoliticalHumor'
p157
F0.014224879949300001
sS'ThriftStoreHauls'
p158
F0.011044973545
sS'RedditDayOf'
p159
F0.0100257542311
sS'netflix'
p160
F0.0073061164042100002
sS'WarshipPorn'
p161
F0.0083270958083799997
sS'minimalism'
p162
F0.0084250413189799998
sS'Roadcam'
p163
F0.012088703866800001
sS'Liberal'
p164
F0.0084051959393100003
sS'howtonotgiveafuck'
p165
F0.0071109195711900001
sS'sixwordstories'
p166
F0.0073237078886799999
sS'AnimalsBeingBros'
p167
F0.0127453941407
sS'AndroidQuestions'
p168
F0.0073461891643699997
sS'classic4chan'
p169
F0.0098394206549099993
sS'whatstheword'
p170
F0.0075285807231199996
sS'OutOfTheLoop'
p171
F0.0102849843633
sS'whatsthisbug'
p172
F0.0095157736839599997
sS'QuotesPorn'
p173
F0.0153444060366
sS'itookapicture'
p174
F0.019273937611300002
sS'TrueReddit'
p175
F0.0112241072265
sS'drunk'
p176
F0.0116611295681
sS'Design'
p177
F0.0078239333558500004
sS'AmIFreeToGo'
p178
F0.0093486434305500004
sS'reactiongifs'
p179
F0.0116263756937
sS'AntiJokes'
p180
F0.0072406874291199999
sS'community'
p181
F0.0070996833925000002
sS'findareddit'
p182
F0.0101045055021
sS'IdiotsFightingThings'
p183
F0.013517416671500001
sS'conspiratard'
p184
F0.0092780206889200006
sS'confession'
p185
F0.0091806360645499997
sS'Documentaries'
p186
F0.00751035735423
sS'cosplay'
p187
F0.0094181665969000003
sS'TrollXChromosomes'
p188
F0.0092449410551899997
sS'holdmybeer'
p189
F0.0136605605135
sS'gardening'
p190
F0.0086083213773299992
sS'ContagiousLaughter'
p191
F0.0078326121487600001
sS'nostalgia'
p192
F0.018817391304300001
sS'Damnthatsinteresting'
p193
F0.014767758435799999
sS'environment'
p194
F0.011898669396100001
sS'FiftyFifty'
p195
F0.010674592918100001
sS'CrazyIdeas'
p196
F0.0134030331581
sS'OldSchoolCool'
p197
F0.0087868880948000008
sS'lego'
p198
F0.0089388475408600006
sS'eldertrees'
p199
F0.0074668361267799998
sS'Bad_Cop_No_Donut'
p200
F0.0155400488035
sS'ANormalDayInRussia'
p201
F0.013698630137
sS'Whatcouldgowrong'
p202
F0.015505150120499999
sS'onetruegod'
p203
F0.0079612606697300001
sS'TheFacebookDelusion'
p204
F0.0089717741935500007
sS'urbanexploration'
p205
F0.010384850336
sS'MorbidReality'
p206
F0.011259392703900001
sS'gif'
p207
F0.031987019760100002
sS'beer'
p208
F0.0075750743980500003
sS'wheredidthesodago'
p209
F0.011348563006600001
sS'PenmanshipPorn'
p210
F0.0098517004663800003
sS'shittyreactiongifs'
p211
F0.014191419141900001
sS'alternativeart'
p212
F0.0090081172045100005
sS'shittyadvice'
p213
F0.0082509535300099995
sS'MeanJokes'
p214
F0.0083294770939399999
sS'Pareidolia'
p215
F0.0159710524674
sS'dogs'
p216
F0.0085592011412300006
sS'happy'
p217
F0.0188335783799
sS'CombatFootage'
p218
F0.0071378422653900001
sS'fatlogic'
p219
F0.0082471420794799997
sS'TrollYChromosome'
p220
F0.010790972830899999
sS'explainlikeIAmA'
p221
F0.0076168155851799998
sS'Firearms'
p222
F0.0088994363690299994
sS'firstimpression'
p223
F0.00909529387446
sS'startrek'
p224
F0.0095508624593499993
sS'Unexpected'
p225
F0.0142352216349
sS'batman'
p226
F0.010872695852499999
sS'occupywallstreet'
p227
F0.0084862385321100003
sS'trailerparkboys'
p228
F0.0083772658337499997
sS'mildlyinfuriating'
p229
F0.0138424025807
sS'cordcutters'
p230
F0.0089367974940099994
sS'somethingimade'
p231
F0.015368546702499999
sS'nsfw_gifs'
p232
F0.00763622244273
sS'Awwducational'
p233
F0.012663866615800001
sS'Shitty_Car_Mods'
p234
F0.0133373647786
sS'aviation'
p235
F0.0082420200095299993
sS'UFOs'
p236
F0.0074620877798300001
sS'ghettoglamourshots'
p237
F0.013229846533800001
sS'blunderyears'
p238
F0.0123516696811
sS'Marvel'
p239
F0.0072750870961099997
sS'EDC'
p240
F0.0076380728554599998
sS'oddlysatisfying'
p241
F0.0130543696856
sS'calvinandhobbes'
p242
F0.0103363282182
sS'showerbeer'
p243
F0.0088028169014100002
sS'rage'
p244
F0.013150900224200001
sS'worldpolitics'
p245
F0.016078264568299999
sS'IASIP'
p246
F0.0080416546138299995
sS'AMA'
p247
F0.0099136552606300006
sS'interestingasfuck'
p248
F0.0141317965422
sS'Perfectfit'
p249
F0.011713494261999999
sS'PerfectTiming'
p250
F0.017388121167699999
sS'behindthegifs'
p251
F0.0105559801299
sS'standupshots'
p252
F0.0122983723816
sS'MarkMyWords'
p253
F0.0085053516819600002
sS'knives'
p254
F0.0101031510527
sS'cats'
p255
F0.012214319582700001
sS'ObscureMedia'
p256
F0.0072268363714799999
sS'BustyPetite'
p257
F0.0087542819857499999
sS'Glitch_in_the_Matrix'
p258
F0.0072212593876399998
sS'history'
p259
F0.0086328443861800001
sS'fullmoviesonyoutube'
p260
F0.0113297277135
sS'NewsOfTheStupid'
p261
F0.0137468030691
sS'FoodPorn'
p262
F0.0119582498099
sS'awesome'
p263
F0.019914783253100001
sS'Cooking'
p264
F0.0086052348511999992
sS'TrueAskReddit'
p265
F0.0088483146067399997
sS'FanTheories'
p266
F0.0080300632911399997
sS'gadgets'
p267
F0.0088333741529900006
sS'PoliticalDiscussion'
p268
F0.0084490740740699993
sS'conspiracy'
p269
F0.0119407794626
sS'TheWayWeWere'
p270
F0.014318010550099999
sS'DIY'
p271
F0.0075877020102499996
sS'Infographics'
p272
F0.0101849370142
sS'AnythingGoesNews'
p273
F0.0144944076695
sS'bestofworldstar'
p274
F0.0082574471368999994
sS'shorthairedhotties'
p275
F0.0083711196372500008
sS'southpark'
p276
F0.010916646124600001
sS'Pizza'
p277
F0.0097537953276199997
sS'TalesFromYourServer'
p278
F0.0070757836264999999
sS'watchpeopledie'
p279
F0.0087829360100399999
sS'techsupportmacgyver'
p280
F0.0091206202021700006
sS'misleadingthumbnails'
p281
F0.0132325141777
sS'eatsandwiches'
p282
F0.0080324830082100004
sS'HighQualityGifs'
p283
F0.014164108289100001
sS'bicycling'
p284
F0.0077033096630100004
sS'Survival'
p285
F0.0070218555253199998
sS'pitbulls'
p286
F0.0076316880962299999
sS'RealGirls'
p287
F0.0090405566236400007
sS'Parenting'
p288
F0.0074851237081100001
sS'badtattoos'
p289
F0.0132483529075
sS'scifi'
p290
F0.011760513186
sS'slowcooking'
p291
F0.0070093457943900001
sS'LifeProTips'
p292
F0.0073484752414499999
sS'nottheonion'
p293
F0.0075341088129799996
sS'nyc'
p294
F0.0070552147239299999
sS'nonononoyes'
p295
F0.014392843931800001
sS'Frugal_Jerk'
p296
F0.0087127891297599999
sS'photography'
p297
F0.0081627463445600006
sS'Autos'
p298
F0.011538120174000001
sS'wallpapers'
p299
F0.0141716132641
sS'firefly'
p300
F0.0110740577613
sS'canada'
p301
F0.0073997305420300001
sS'JusticePorn'
p302
F0.010421561852099999
sS'MapPorn'
p303
F0.00984396468972
sS'notinteresting'
p304
F0.0115657076767
sS'facepalm'
p305
F0.016073218848
sS'forwardsfromgrandma'
p306
F0.013749420670499999
sS'AnimalsBeingJerks'
p307
F0.0143197242654
sS'howto'
p308
F0.014049694289100001
sS'wallpaper'
p309
F0.0149684674417
sS'tattoo'
p310
F0.0076826871538299996
sS'MURICA'
p311
F0.0117644392057
sS'progresspics'
p312
F0.0084336425668900001
sS'dogpictures'
p313
F0.0169070781617
sS'comicbooks'
p314
F0.0071956276949300003
sS'GamePhysics'
p315
F0.011254492958599999
sS'whitepeoplegifs'
p316
F0.0145502645503
sS'GunPorn'
p317
F0.0093144247713400005
sS'catpictures'
p318
F0.0139667371129
sS'DAE'
p319
F0.010152784623
sS'MachinePorn'
p320
F0.010755398706000001
sS'cosplaygirls'
p321
F0.0112737464964
sS'ConfusedBoners'
p322
F0.010319030011200001
sS'dataisbeautiful'
p323
F0.0075084934479099997
sS'entertainment'
p324
F0.016674867421100002
sS'HumanPorn'
p325
F0.015933279392499999
sS'NSFWFunny'
p326
F0.0131517870958
sS'atheism'
p327
F0.0074071626800599998
sS'terriblefacebookmemes'
p328
F0.013109552438200001
sS'PrettyGirls'
p329
F0.013703253679000001
sS'thatHappened'
p330
F0.010921585470599999
sS'Graffiti'
p331
F0.0092304702681699994
sS'EmmaWatson'
p332
F0.0109760216143
sS'tall'
p333
F0.0077706453014099999
sS'HailCorporate'
p334
F0.0086652357103100004
sS'ImGoingToHellForThis'
p335
F0.010713446412
sS'self'
p336
F0.013084909685700001
sS'shutupandtakemymoney'
p337
F0.014153110927300001
s.