(dp1
S'RandomActsOfGaming'
p2
F0.0070215010732299996
sS'AndroidGaming'
p3
F0.0115434166452
sS'perfectloops'
p4
F0.0074656712438299997
sS'InternetIsBeautiful'
p5
F0.0071110570859900003
sS'counting'
p6
F0.0097141051966500008
sS'CrazyIdeas'
p7
F0.0070601781710199997
sS'truegaming'
p8
F0.0079240708435599997
sS'TheoryOfReddit'
p9
F0.00759937646142
sS'quityourbullshit'
p10
F0.0075849514563099997
sS'OutOfTheLoop'
p11
F0.0079510164526599997
sS'outside'
p12
F0.0088422971741099997
sS'gamedev'
p13
F0.010177602534299999
sS'gamedesign'
p14
F0.0089142857142899996
sS'WebGames'
p15
F0.0422144780611
sS'dwarffortress'
p16
F0.0099232601217300008
sS'SCP'
p17
F0.0080420661923900003
sS'SubredditDrama'
p18
F0.0072229614141800002
sS'talesfromtechsupport'
p19
F0.0080171151897300008
sS'starbound'
p20
F0.0097053269509499995
sS'explainlikeIAmA'
p21
F0.0070833025898299996
sS'CookieClicker'
p22
F0.051996187652200002
sS'Terraria'
p23
F0.0096230954290300007
sS'bindingofisaac'
p24
F0.0080841823951899993
sS'roguelikes'
p25
F0.010579064588
sS'shittyaskscience'
p26
F0.0072478720660299999
sS'IndieGaming'
p27
F0.0115993371807
sS'GamePhysics'
p28
F0.0086354764298799992
sS'ftlgame'
p29
F0.0075940383250499999
sS'Minecraft'
p30
F0.0075185581311600002
sS'ProgrammerHumor'
p31
F0.0076665534475199998
sS'gamingsuggestions'
p32
F0.0070115189239500003
sS'feedthebeast'
p33
F0.010463540254799999
sS'Perfectfit'
p34
F0.0073120330631099998
sS'behindthegifs'
p35
F0.0073705369962700001
sS'softwaregore'
p36
F0.0076622106292799997
sS'Enhancement'
p37
F0.00793856242989
sS'speedrun'
p38
F0.0081406485155299992
s.