(dp1
S'Heavymind'
p2
F0.0083599069206200007
sS'audiophile'
p3
F0.0071271929824599997
sS'crappymusic'
p4
F0.0071987091969700004
sS'YMS'
p5
F0.0077508253193599996
sS'community'
p6
F0.0087458634429700005
sS'IASIP'
p7
F0.0092586680288600006
sS'NotTimAndEric'
p8
F0.012940161556
sS'postrock'
p9
F0.013065064018799999
sS'Hiphopcirclejerk'
p10
F0.0286357786358
sS'makinghiphop'
p11
F0.012822878228799999
sS'DeepIntoYouTube'
p12
F0.0110270769586
sS'malefashion'
p13
F0.0113244707041
sS'arresteddevelopment'
p14
F0.0077610536218300002
sS'radiohead'
p15
F0.0315834860407
sS'rawdenim'
p16
F0.0073357517130200004
sS'CrazyIdeas'
p17
F0.00727053370162
sS'literature'
p18
F0.0088229396430700002
sS'trapmuzik'
p19
F0.012098110706
sS'TeenMFA'
p20
F0.010437235543
sS'Jazz'
p21
F0.0090426027780400008
sS'circlebroke'
p22
F0.0107068172313
sS'bonnaroo'
p23
F0.0130884938465
sS'malefashionadvice'
p24
F0.0075714084552800003
sS'NetflixBestOf'
p25
F0.0072927732636599999
sS'DaftPunk'
p26
F0.0076660988074999997
sS'ifyoulikeblank'
p27
F0.028330206379000002
sS'hiphopheads'
p28
F0.0205166297401
sS'blackpeoplegifs'
p29
F0.0073492981007400003
sS'LetsTalkMusic'
p30
F0.061800863882999997
sS'beatles'
p31
F0.0098329581803100006
sS'StandUpComedy'
p32
F0.0078008589709900001
sS'electronicmusic'
p33
F0.0083839611178600001
sS'spotify'
p34
F0.0085854456255100003
sS'moviescirclejerk'
p35
F0.0088708187026400008
sS'PandR'
p36
F0.0090109730397500004
sS'Guitar'
p37
F0.00748978665456
sS'madmen'
p38
F0.010058537389700001
sS'synthesizers'
p39
F0.0071985602879399996
sS'vinyl'
p40
F0.023792172160999998
sS'HipHopImages'
p41
F0.032554847841499999
sS'OFWGKTA'
p42
F0.012669801462899999
sS'pinkfloyd'
p43
F0.00748157112994
sS'blunderyears'
p44
F0.0076051015588100004
sS'lewronggeneration'
p45
F0.028818181818199999
sS'VinylCollectors'
p46
F0.011183315702000001
sS'youtubehaiku'
p47
F0.0081584639319999992
sS'TrueFilm'
p48
F0.0154857686651
sS'futurebeats'
p49
F0.018515497552999999
sS'punk'
p50
F0.0100887110802
sS'TimAndEric'
p51
F0.0085460474530499996
sS'WeAreTheMusicMakers'
p52
F0.0099982701954699996
sS'terriblefacebookmemes'
p53
F0.0075699501724799997
sS'Frisson'
p54
F0.0085106382978700004
sS'MarkMyWords'
p55
F0.0091484074994400005
sS'guitarpedals'
p56
F0.00794646591384
sS'listentothis'
p57
F0.0155172413793
sS'poppunkers'
p58
F0.0078164653334699997
sS'minimalism'
p59
F0.0074488697524199999
sS'streetwear'
p60
F0.013651208360499999
sS'MovieSuggestions'
p61
F0.0073675262113900002
s.