(dp1
S'FancyFollicles'
p2
F0.0365479265143
sS'weddingplanning'
p3
F0.0128148799063
sS'curlyhair'
p4
F0.023080241587600001
sS'AskWomen'
p5
F0.0086788428209600005
sS'Cumberbitches'
p6
F0.0078895463510799992
sS'Baking'
p7
F0.0115475255302
sS'TheGirlSurvivalGuide'
p8
F0.0286891385768
sS'rupaulsdragrace'
p9
F0.0075675675675700004
sS'Pets'
p10
F0.0094021781712799995
sS'entwives'
p11
F0.0097838093735200006
sS'tea'
p12
F0.0115635179153
sS'knitting'
p13
F0.015004492362999999
sS'femalefashionadvice'
p14
F0.032574031890700003
sS'BeautyBoxes'
p15
F0.071740768651100004
sS'RandomActsofMakeup'
p16
F0.10777070063700001
sS'quilting'
p17
F0.0071566731141199996
sS'CrossStitch'
p18
F0.010030978020400001
sS'TalesFromRetail'
p19
F0.0071565007003700004
sS'loseit'
p20
F0.0071369121930900002
sS'TheBluePill'
p21
F0.0079365079365100004
sS'AmericanHorrorStory'
p22
F0.0075575902913999999
sS'EatCheapAndHealthy'
p23
F0.0103353538878
sS'AustralianMakeup'
p24
F0.0276789244761
sS'TrollXChromosomes'
p25
F0.013487309117400001
sS'badtattoos'
p26
F0.0076483442595400002
sS'PenmanshipPorn'
p27
F0.0072404049917600003
sS'catpictures'
p28
F0.0070350618404599998
sS'ABraThatFits'
p29
F0.025688793018900001
sS'raisedbynarcissists'
p30
F0.0101616628176
sS'ketorecipes'
p31
F0.0087346553352200002
sS'xxfitness'
p32
F0.015999092250099999
sS'disney'
p33
F0.0079481699171800001
sS'TrollYChromosome'
p34
F0.0089794401783499997
sS'bigboobproblems'
p35
F0.0209518882566
sS'RandomActsOfPolish'
p36
F0.026567278287499999
sS'childfree'
p37
F0.0087284818676199999
sS'MakeupAddiction'
p38
F0.043067338081600001
sS'birthcontrol'
p39
F0.0114226375909
sS'sewing'
p40
F0.0199633326543
sS'snackexchange'
p41
F0.0076178960096699999
sS'budgetfood'
p42
F0.0080287344179199999
sS'xxketo'
p43
F0.014828544948999999
sS'namenerds'
p44
F0.0081208380704899993
sS'GirlGamers'
p45
F0.0147168128438
sS'LadyBoners'
p46
F0.012662502110400001
sS'Awwducational'
p47
F0.0070293622318199998
sS'crochet'
p48
F0.0120617841027
sS'Rabbits'
p49
F0.0083287671232900005
sS'wedding'
p50
F0.010171365395199999
sS'thesims'
p51
F0.0088102851921899993
sS'ThriftStoreHauls'
p52
F0.0084504878236199999
sS'Random_Acts_Of_Amazon'
p53
F0.012043356081900001
sS'RATS'
p54
F0.0075611767940600002
sS'makeupexchange'
p55
F0.11885353668199999
sS'creepyPMs'
p56
F0.0093564819627799996
sS'braswap'
p57
F0.019119697271500001
sS'recipes'
p58
F0.0078887627695799992
sS'PolishGauntlet'
p59
F0.01616207603
sS'RedditLaqueristas'
p60
F0.038341853745299997
sS'piercing'
p61
F0.0151200711533
sS'redditgetsdrawn'
p62
F0.0070417697169599999
sS'Hair'
p63
F0.013993659123200001
sS'secretsanta'
p64
F0.0079210825479500008
sS'crafts'
p65
F0.0142871721604
sS'MakeupAddicts'
p66
F0.13015873015900001
sS'AsianBeauty'
p67
F0.064794215795299995
sS'SkincareAddiction'
p68
F0.038163387000599999
sS'sailormoon'
p69
F0.011284170375099999
s.