(dp1
S'pcgaming'
p2
F0.0095203042571499995
sS'softwareswap'
p3
F0.017196324707099999
sS'patientgamers'
p4
F0.0139349701393
sS'ShouldIbuythisgame'
p5
F0.0220246630341
sS'sgsflair'
p6
F0.124539877301
sS'buildapcsales'
p7
F0.0080757684664500007
sS'RandomActsOfGaming'
p8
F0.029280013031400001
sS'GameTrade'
p9
F0.053114086146699997
sS'FreeKarma'
p10
F0.010412371134
sS'gameswap'
p11
F0.014188422247400001
sS'GlobalOffensiveTrade'
p12
F0.016793663525199998
sS'paydaytheheist'
p13
F0.0079496345302200004
sS'GameSale'
p14
F0.0216049382716
sS'GiftofGames'
p15
F0.0400440484533
sS'RandomKindness'
p16
F0.0141496598639
sS'tf2trade'
p17
F0.030904109589000001
sS'bindingofisaac'
p18
F0.00747297395342
sS'Dota2Trade'
p19
F0.014200763291
sS'GameDealsMeta'
p20
F0.042591267000699998
sS'linux_gaming'
p21
F0.0085039722501999999
sS'Gaming4Gamers'
p22
F0.0073671285739299996
sS'IndieGaming'
p23
F0.0088361358390999997
sS'giftcardexchange'
p24
F0.018442332245700001
sS'Steam'
p25
F0.0155073167349
sS'gamingsuggestions'
p26
F0.0097776239508500003
sS'hardwareswap'
p27
F0.00898303948515
sS'eFreebies'
p28
F0.010094556606199999
sS'SteamGameSwap'
p29
F0.083285468121800002
sS'GameDeals'
p30
F0.023276341795700001
s.