(dp1
S'singapore'
p2
F0.016410125938200001
sS'HongKong'
p3
F0.0071174377224199996
sS'Philippines'
p4
F0.010352999875300001
sS'exmuslim'
p5
F0.0087912087912100003
sS'malaysia'
p6
F0.0243572395129
sS'islam'
p7
F0.010848301618400001
s.