(dp1
S'breastfeeding'
p2
F0.019912472647699998
sS'TryingForABaby'
p3
F0.032089291942799997
sS'BabyBumps'
p4
F0.015464770095900001
sS'beyondthebump'
p5
F0.0162224797219
sS'infertility'
p6
F0.20499999999999999
sS'predaddit'
p7
F0.0089255063508400009
sS'breakingmom'
p8
F0.016155856497999999
sS'Mommit'
p9
F0.013241327862700001
sS'namenerds'
p10
F0.0154586052903
sS'clothdiaps'
p11
F0.0220872446162
s.