(dp1
S'InfertilityBabies'
p2
F0.20499999999999999
sS'TryingForABaby'
p3
F0.076748152359300006
sS'BabyBumps'
p4
F0.019284603421499999
sS'clothdiaps'
p5
F0.0174639331815
sS'predaddit'
p6
F0.010458567980700001
sS'breakingmom'
p7
F0.014101290963299999
sS'Mommit'
p8
F0.0135966332146
sS'xxketo'
p9
F0.0077277657266800002
sS'namenerds'
p10
F0.0196659482759
sS'breastfeeding'
p11
F0.0161021654636
sS'beyondthebump'
p12
F0.0127906976744
sS'CrossStitch'
p13
F0.0075136612021899996
s.