(dp1
S'Anxiety'
p2
F0.00912332700412
sS'psychology'
p3
F0.0087896701929099999
sS'socialanxiety'
p4
F0.0073812933788700002
sS'intj'
p5
F0.033945041361600002
sS'entp'
p6
F0.051170170567200003
sS'Buddhism'
p7
F0.0072901996520600004
sS'INTP'
p8
F0.029242875372200001
sS'introvert'
p9
F0.0271794397707
sS'TheGirlSurvivalGuide'
p10
F0.00742115027829
sS'raisedbynarcissists'
p11
F0.0070648187468599997
sS'Meditation'
p12
F0.0073183148784499996
sS'infp'
p13
F0.044161783621599997
s.