(dp1
S'inthenews'
p2
F0.0107853982301
sS'BuyItForLife'
p3
F0.012818117269
sS'SampleSize'
p4
F0.012265453659300001
sS'everymanshouldknow'
p5
F0.015212590697200001
sS'askphilosophy'
p6
F0.0084165360178199995
sS'financialindependence'
p7
F0.0071086261980800002
sS'syriancivilwar'
p8
F0.0070977151191099997
sS'duolingo'
p9
F0.0070759625390200004
sS'HistoryPorn'
p10
F0.015273277165700001
sS'holdmybeer'
p11
F0.0112519809826
sS'ImaginaryMonsters'
p12
F0.0091565416446599997
sS'YouShouldKnow'
p13
F0.016451451055
sS'UpliftingNews'
p14
F0.0083866527313999992
sS'PandR'
p15
F0.0079946702198499999
sS'photoshopbattles'
p16
F0.0074248170503700001
sS'IWantToLearn'
p17
F0.0128987194412
sS'CrappyDesign'
p18
F0.0153758387439
sS'NewsOfTheWeird'
p19
F0.0104806649801
sS'Cyberpunk'
p20
F0.011295871559600001
sS'Libertarian'
p21
F0.0092536569740499994
sS'Anarcho_Capitalism'
p22
F0.0085456559582200008
sS'Whatisthis'
p23
F0.0071003963011900002
sS'EatCheapAndHealthy'
p24
F0.0080791759240599996
sS'gentlemanboners'
p25
F0.0080060898781999998
sS'blackpeoplegifs'
p26
F0.0095366824359799998
sS'SelfDrivingCars'
p27
F0.0075626907257500004
sS'OneY'
p28
F0.0096895186497199994
sS'forwardsfromgrandma'
p29
F0.0133270370953
sS'no_sob_story'
p30
F0.0080988474717100002
sS'findareddit'
p31
F0.0141186537365
sS'skeptic'
p32
F0.014274945821199999
sS'InteriorDesign'
p33
F0.0082846364376100001
sS'socialskills'
p34
F0.0090413318025300005
sS'DebateReligion'
p35
F0.0073973429951699997
sS'Anticonsumption'
p36
F0.0103862761116
sS'vexillology'
p37
F0.020145216400900001
sS'Economics'
p38
F0.0143421504638
sS'ExposurePorn'
p39
F0.0088677408889400004
sS'malelivingspace'
p40
F0.0096018541511500004
sS'answers'
p41
F0.016443777292599999
sS'TopGear'
p42
F0.00770063270063
sS'ThriftStoreHauls'
p43
F0.0079070081773299997
sS'WarshipPorn'
p44
F0.0129490799338
sS'DeepIntoYouTube'
p45
F0.0099612319620900006
sS'advertising'
p46
F0.00730404447836
sS'IWantOut'
p47
F0.00805398345668
sS'QuotesPorn'
p48
F0.015720037693799999
sS'design_critiques'
p49
F0.0071764203331900001
sS'TrueReddit'
p50
F0.0153795034889
sS'confession'
p51
F0.0076280306387300004
sS'AntiJokes'
p52
F0.0081205449787999998
sS'IdiotsFightingThings'
p53
F0.011009714453899999
sS'Health'
p54
F0.0089534883720900002
sS'gamernews'
p55
F0.007459636215
sS'ContagiousLaughter'
p56
F0.0089550568086399999
sS'graphic_design'
p57
F0.010781997698199999
sS'environment'
p58
F0.0119905648015
sS'FiftyFifty'
p59
F0.0078850808025600003
sS'AskHistorians'
p60
F0.013190216810899999
sS'OutOfTheLoop'
p61
F0.014424899114900001
sS'ifyoulikeblank'
p62
F0.0096466693304400001
sS'misleadingthumbnails'
p63
F0.0142398716406
sS'WebGames'
p64
F0.0089984350547700001
sS'Pareidolia'
p65
F0.012793584113
sS'cordcutters'
p66
F0.0102768653214
sS'LifeProTips'
p67
F0.0078321116577999995
sS'Shitty_Car_Mods'
p68
F0.0082241851964700002
sS'NeutralPolitics'
p69
F0.0104143083541
sS'ghettoglamourshots'
p70
F0.0084376701143199992
sS'EDC'
p71
F0.0081463789132499992
sS'techsupportgore'
p72
F0.011663002571099999
sS'science'
p73
F0.0075001990196900004
sS'firstworldproblems'
p74
F0.0122829496753
sS'Entrepreneur'
p75
F0.0079859640631599997
sS'standupshots'
p76
F0.0112708325635
sS'history'
p77
F0.0096459004922899994
sS'AskScienceFiction'
p78
F0.012846481876299999
sS'NewsOfTheStupid'
p79
F0.011957484499599999
sS'awesome'
p80
F0.014108674928500001
sS'DecidingToBeBetter'
p81
F0.0095962468012499996
sS'learnprogramming'
p82
F0.0079167385996499993
sS'polandball'
p83
F0.012763699912600001
sS'CampingandHiking'
p84
F0.0074973031283699998
sS'Ask_Politics'
p85
F0.013641954601400001
sS'HouseOfCards'
p86
F0.010712035286700001
sS'techsupportmacgyver'
p87
F0.0110475593512
sS'MURICA'
p88
F0.010248099879
sS'travel'
p89
F0.0080095934113199995
sS'scifi'
p90
F0.0096528254965499993
sS'spaceporn'
p91
F0.013071895424800001
sS'nyc'
p92
F0.0079025225786400009
sS'SRSsucks'
p93
F0.0070347473886199999
sS'wheredidthesodago'
p94
F0.0129068462402
sS'BasicIncome'
p95
F0.012103012103000001
sS'askscience'
p96
F0.0085789894762800002
sS'wallpaper'
p97
F0.0096415519788499993
sS'budgetfood'
p98
F0.0077388365059600003
sS'Images'
p99
F0.0101849370142
sS'wallpapers'
p100
F0.0108733118165
sS'MachinePorn'
p101
F0.0137415202644
sS'FanTheories'
p102
F0.0108695652174
sS'ImGoingToHellForThis'
p103
F0.0076326360991800001
sS'cableporn'
p104
F0.0087630075893900001
sS'DoesAnybodyElse'
p105
F0.0082702446093500005
sS'pettyrevenge'
p106
F0.0082994357695799995
sS'CityPorn'
p107
F0.017651484460900001
sS'london'
p108
F0.0070568468216199998
sS'dataisbeautiful'
p109
F0.0203022816451
sS'linguistics'
p110
F0.0131795716639
sS'nostalgia'
p111
F0.0103063969535
sS'Documentaries'
p112
F0.0094362947090799992
sS'writing'
p113
F0.0074911043136299997
sS'MensRights'
p114
F0.0085285211050000007
sS'MilitaryPorn'
p115
F0.012088388214900001
sS'Frisson'
p116
F0.0148055207026
sS'childfree'
p117
F0.0074967405475900003
sS'GunsAreCool'
p118
F0.0085959885386800005
sS'unitedkingdom'
p119
F0.0079785023686199993
sS'NoStupidQuestions'
p120
F0.013320588326000001
sS'Liberal'
p121
F0.0077299079231600001
sS'creepyPMs'
p122
F0.0072003388394700002
sS'WatchItForThePlot'
p123
F0.0076798026795199996
sS'freebies'
p124
F0.0085423833636100004
sS'PropagandaPosters'
p125
F0.024755168661600001
sS'SubredditDrama'
p126
F0.0118211475724
sS'minimalism'
p127
F0.0146580475151
sS'economy'
p128
F0.0104136253041
sS'TrueAtheism'
p129
F0.010126294231400001
sS'badhistory'
p130
F0.013393888076400001
sS'energy'
p131
F0.010163585325699999
sS'Anarchism'
p132
F0.0074051218759599996
sS'Cinemagraphs'
p133
F0.015467838728800001
sS'DunderMifflin'
p134
F0.0070838252656399998
sS'psychology'
p135
F0.011873261415300001
sS'entertainment'
p136
F0.0087461942983699994
sS'shittyfoodporn'
p137
F0.0083868098354400004
sS'LearnUselessTalents'
p138
F0.014565826330499999
sS'RoomPorn'
p139
F0.0139880102769
sS'memes'
p140
F0.0070938042411899998
sS'Astronomy'
p141
F0.0116983372922
sS'math'
p142
F0.0092007862490100008
sS'bestof'
p143
F0.0091744048282099994
sS'statistics'
p144
F0.0076779642426200003
sS'Roadcam'
p145
F0.0080519267110299997
sS'GamePhysics'
p146
F0.010959234057900001
sS'youtubehaiku'
p147
F0.0092532114086699997
sS'PoliticalHumor'
p148
F0.013202247191000001
sS'lego'
p149
F0.0074217991062800002
sS'howtonotgiveafuck'
p150
F0.0082544574069999994
sS'whatstheword'
p151
F0.0144407830975
sS'misc'
p152
F0.0120291231402
sS'patientgamers'
p153
F0.0085701620450200008
sS'seinfeld'
p154
F0.0076069446930400004
sS'privacy'
p155
F0.0104387538738
sS'ANormalDayInRussia'
p156
F0.0145618388403
sS'TheFacebookDelusion'
p157
F0.0086883701455
sS'PenmanshipPorn'
p158
F0.0110748488577
sS'shittyreactiongifs'
p159
F0.0098280098280099995
sS'alternativeart'
p160
F0.0093534792887200006
sS'shittyadvice'
p161
F0.0079320567262200006
sS'SEO'
p162
F0.0079225352112699994
sS'ObscureMedia'
p163
F0.0076430257390100002
sS'CombatFootage'
p164
F0.0098339029801499996
sS'TrollYChromosome'
p165
F0.0079161556472299999
sS'collapse'
p166
F0.0082864124083699992
sS'mildlyinfuriating'
p167
F0.011932811431200001
sS'madmen'
p168
F0.0076153501567900002
sS'Awwducational'
p169
F0.0119822870539
sS'POLITIC'
p170
F0.0084300307448200006
sS'worldpolitics'
p171
F0.0141021217871
sS'typography'
p172
F0.0120666959193
sS'nononono'
p173
F0.0144131455399
sS'FoodPorn'
p174
F0.0085226614789599992
sS'urbanplanning'
p175
F0.010225981568
sS'conspiracy'
p176
F0.0093288276952900005
sS'AnythingGoesNews'
p177
F0.0097225515769499993
sS'HighQualityGifs'
p178
F0.0132360306217
sS'self'
p179
F0.010117802172600001
sS'slowcooking'
p180
F0.0074576622300500002
sS'conspiratard'
p181
F0.0138790230042
sS'FutureWhatIf'
p182
F0.0118564057526
sS'firefly'
p183
F0.0074454428754800002
sS'Futurology'
p184
F0.010925235019600001
sS'EnoughLibertarianSpam'
p185
F0.0087517777048500001
sS'AskEngineers'
p186
F0.0096991939183399996
sS'windows'
p187
F0.0074023303632599997
sS'investing'
p188
F0.0080016274496500003
sS'TumblrInAction'
p189
F0.0082408793683700007
sS'HailCorporate'
p190
F0.0118314025142
sS'Heavymind'
p191
F0.010459761142800001
sS'PanicHistory'
p192
F0.0091718001368900001
sS'PoliticalDiscussion'
p193
F0.012407979102399999
sS'Foodforthought'
p194
F0.019763081135800002
sS'languagelearning'
p195
F0.0071135230272800004
sS'TheoryOfReddit'
p196
F0.0169525731584
sS'TheBluePill'
p197
F0.00883696547592
sS'shittybattlestations'
p198
F0.0071283095723000001
sS'whowouldwin'
p199
F0.0084196185286099998
sS'ProgrammerHumor'
p200
F0.0095027080255999999
sS'arresteddevelopment'
p201
F0.00858369098712
sS'shutupandtakemymoney'
p202
F0.0131683399486
sS'JusticePorn'
p203
F0.0090036347493099994
sS'geek'
p204
F0.0118768819003
sS'lostgeneration'
p205
F0.0123310193643
sS'AbandonedPorn'
p206
F0.012211336599
sS'progressive'
p207
F0.0092740327084199995
sS'dadjokes'
p208
F0.0087378294518299995
sS'thatHappened'
p209
F0.0093621399176999996
sS'architecture'
p210
F0.0109063868462
sS'whitepeoplegifs'
p211
F0.0094038890659900003
sS'cringe'
p212
F0.0077677042756799999
sS'StarWars'
p213
F0.0073012488027
sS'TheSimpsons'
p214
F0.0093453683442699994
sS'Justrolledintotheshop'
p215
F0.0076138681169299997
sS'glitch_art'
p216
F0.010235316625200001
sS'changemyview'
p217
F0.0135183068616
sS'firstworldanarchists'
p218
F0.012273800157400001
sS'PerfectTiming'
p219
F0.014619883040900001
sS'truegaming'
p220
F0.0090990453460600002
sS'lotr'
p221
F0.0074534827604700003
sS'wikipedia'
p222
F0.017329959358899999
sS'breakingbad'
p223
F0.0077971583689500001
sS'outside'
p224
F0.0117037516769
sS'AskCulinary'
p225
F0.0080699394754500005
sS'foodhacks'
p226
F0.010622738819200001
sS'europe'
p227
F0.011631964638800001
sS'StandUpComedy'
p228
F0.0087073537560400007
sS'jobs'
p229
F0.0073758529562599996
sS'casualiama'
p230
F0.0094223459499999992
sS'facepalm'
p231
F0.0098947470534000003
sS'NotTimAndEric'
p232
F0.0089775561097300005
sS'Unexpected'
p233
F0.011780211197699999
sS'RedditDayOf'
p234
F0.0172612197929
sS'itookapicture'
p235
F0.0095264017419699996
sS'GunPorn'
p236
F0.0071724853093700002
sS'drunk'
p237
F0.0072332730560599997
sS'robotics'
p238
F0.0072735804786499998
sS'reactiongifs'
p239
F0.0085731493854800007
sS'community'
p240
F0.0072179964395499997
sS'startrek'
p241
F0.0079719520848100002
sS'chrome'
p242
F0.0081067138330000003
sS'beer'
p243
F0.0077835208270000001
sS'California'
p244
F0.0077020659659300002
sS'web_design'
p245
F0.0088252743992899996
sS'fatlogic'
p246
F0.0078882994805300009
sS'androidapps'
p247
F0.00768787238132
sS'somethingimade'
p248
F0.0095199717926800001
sS'MapPorn'
p249
F0.023336662569100001
sS'aviation'
p250
F0.0082444228903999998
sS'Perfectfit'
p251
F0.013392128041800001
sS'offbeat'
p252
F0.0154665543285
sS'softwaregore'
p253
F0.0129783136565
sS'socialism'
p254
F0.011028152613200001
sS'Cooking'
p255
F0.0077347533794399998
sS'IASIP'
p256
F0.0075041361380300004
sS'hardware'
p257
F0.0072751322751299996
sS'webdev'
p258
F0.0070953112427800001
sS'southpark'
p259
F0.0080762799302700004
sS'Israel'
p260
F0.0079838568169899992
sS'productivity'
p261
F0.0082050243111800002
sS'Design'
p262
F0.015053265400600001
sS'Whatcouldgowrong'
p263
F0.0117449201842
sS'fifthworldproblems'
p264
F0.0078526125037800005
sS'talesfromtechsupport'
p265
F0.0070612198710000001
sS'literature'
p266
F0.0074846297781300001
sS'notinteresting'
p267
F0.0097999780597499992
sS'AnimalsBeingJerks'
p268
F0.011307344389400001
sS'Physics'
p269
F0.0114063827205
sS'TrueFilm'
p270
F0.0074493675797300003
sS'HumanPorn'
p271
F0.016247212488099998
sS'Graffiti'
p272
F0.0074446680080499997
sS'chemistry'
p273
F0.0079008309494599995
sS'awwwtf'
p274
F0.0080089562521499999
sS'Piracy'
p275
F0.0071408953584199998
sS'circlebroke'
p276
F0.0099264984466200003
sS'PublicFreakout'
p277
F0.0097865597912199995
sS'ArtisanVideos'
p278
F0.0099746309963099997
sS'Conservative'
p279
F0.0086082416972100007
sS'quotes'
p280
F0.0119154492777
sS'futurama'
p281
F0.0099088386841099992
sS'perfectloops'
p282
F0.0159403434357
sS'InternetIsBeautiful'
p283
F0.0108717289111
sS'carporn'
p284
F0.0078967410911100003
sS'WouldYouRather'
p285
F0.0107121749409
sS'quityourbullshit'
p286
F0.012705012704999999
sS'ProtectAndServe'
p287
F0.0072499318615400002
sS'woahdude'
p288
F0.0103497037365
sS'britishproblems'
p289
F0.0072333333333299997
sS'howto'
p290
F0.013520714000299999
sS'cringepics'
p291
F0.0070888437323000002
sS'toosoon'
p292
F0.0108067975582
sS'nonononoyes'
p293
F0.0134367452461
sS'4chan'
p294
F0.0078242384445
sS'compsci'
p295
F0.00712290502793
sS'Enhancement'
p296
F0.0101751902318
sS'ArcherFX'
p297
F0.0094411962043499994
sS'getdisciplined'
p298
F0.00702271053973
sS'google'
p299
F0.0106359307552
sS'gardening'
p300
F0.0071492042976000003
sS'whatisthisthing'
p301
F0.012440082173
sS'NetflixBestOf'
p302
F0.0099527383931100003
sS'tumblr'
p303
F0.0084649122806999995
sS'interestingasfuck'
p304
F0.0151930680575
sS'MarkMyWords'
p305
F0.0140452236279
sS'Coffee'
p306
F0.0085500534378299999
sS'humor'
p307
F0.0112933903947
sS'ExpectationVsReality'
p308
F0.014034845132699999
sS'lifehacks'
p309
F0.012030523155900001
sS'biology'
p310
F0.0071358080923100004
sS'business'
p311
F0.010167029774899999
sS'marketing'
p312
F0.0078753493098500001
sS'FloridaMan'
p313
F0.0114105504587
sS'delusionalartists'
p314
F0.0111285971223
sS'Frugal'
p315
F0.0091444157335600004
sS'shittyaskscience'
p316
F0.0090008064306300005
sS'lewronggeneration'
p317
F0.0097255697915299994
sS'worldbuilding'
p318
F0.0100556539337
sS'calvinandhobbes'
p319
F0.0093289689034399999
sS'netflix'
p320
F0.0089146310752999999
sS'sixwordstories'
p321
F0.0084995096436699998
sS'AnimalsBeingBros'
p322
F0.0117262235389
sS'classic4chan'
p323
F0.0116959064327
sS'ShitAmericansSay'
p324
F0.0112112552209
sS'SimCity'
p325
F0.0070047632390000001
sS'Damnthatsinteresting'
p326
F0.0170437848957
sS'CrazyIdeas'
p327
F0.0176862769307
sS'TinyHouses'
p328
F0.0070280242466800001
sS'Bad_Cop_No_Donut'
p329
F0.0102107039329
sS'MorbidReality'
p330
F0.0097659980897800008
sS'gif'
p331
F0.01054827866
sS'introvert'
p332
F0.0074851454587500001
sS'happy'
p333
F0.0101161216784
sS'explainlikeIAmA'
p334
F0.0135544449493
sS'occupywallstreet'
p335
F0.0076582505683900001
sS'teslamotors'
p336
F0.0085027726432500006
sS'Pizza'
p337
F0.0080064698746500004
sS'blunderyears'
p338
F0.00975042490384
sS'webcomics'
p339
F0.0086891525740399999
sS'rage'
p340
F0.0107674418605
sS'comics'
p341
F0.011320851369000001
sS'behindthegifs'
p342
F0.0105017502917
sS'BritishTV'
p343
F0.0074099803172399999
sS'civ'
p344
F0.0085628442663999993
sS'fullmoviesonyoutube'
p345
F0.012106537530300001
sS'TrueAskReddit'
p346
F0.018932498361599999
sS'engineering'
p347
F0.0077754598900099999
sS'politics'
p348
F0.0070901478871099998
sS'education'
p349
F0.00768604756307
sS'DAE'
p350
F0.0076530612244899996
sS'eatsandwiches'
p351
F0.0084900492970599994
sS'bicycling'
p352
F0.0070618608889299996
sS'Survival'
p353
F0.0080828262646400004
sS'shittyama'
p354
F0.0077808654227899997
sS'AskSocialScience'
p355
F0.0175221407485
sS'ImaginaryLandscapes'
p356
F0.0100893629288
sS'TheWayWeWere'
p357
F0.0137507314219
sS'Feminism'
p358
F0.0072897870804800001
sS'nottheonion'
p359
F0.0091017016224800001
sS'Frugal_Jerk'
p360
F0.0092812432549099991
sS'oddlysatisfying'
p361
F0.013194814420200001
sS'space'
p362
F0.0095853339153200001
sS'terriblefacebookmemes'
p363
F0.0090955894971700008
sS'PrettyGirls'
p364
F0.0072912367588399999
sS'urbanexploration'
p365
F0.0116434584218
s.