(dp1
S'firefly'
p2
F0.0070292694169199997
sS'google'
p3
F0.0125682156441
sS'whatisthisthing'
p4
F0.0076220843889199998
sS'Justrolledintotheshop'
p5
F0.0071052563337899999
sS'netsec'
p6
F0.0108973161467
sS'AndroidGaming'
p7
F0.0104644495413
sS'sysadmin'
p8
F0.0107125545322
sS'BuyItForLife'
p9
F0.0074291095532100001
sS'MotoX'
p10
F0.00753720286027
sS'everymanshouldknow'
p11
F0.0071412192485300003
sS'rpg'
p12
F0.0079556976834900001
sS'linux'
p13
F0.0099195867817099999
sS'tasker'
p14
F0.010948905109499999
sS'pebble'
p15
F0.0092908228059600008
sS'Android'
p16
F0.012678875954600001
sS'techsupportmacgyver'
p17
F0.0101802173614
sS'networking'
p18
F0.0073645736730100003
sS'arduino'
p19
F0.0080151467339899998
sS'skeptic'
p20
F0.0080868361875100006
sS'cyanogenmod'
p21
F0.0090082133710099998
sS'OutOfTheLoop'
p22
F0.0070928028285999999
sS'boardgames'
p23
F0.0079573894628800004
sS'startrek'
p24
F0.00773326079353
sS'AndroidQuestions'
p25
F0.011592489885
sS'outside'
p26
F0.0079693160025599997
sS'Nexus5'
p27
F0.0110231560257
sS'scifi'
p28
F0.0091833895055799999
sS'Nexus7'
p29
F0.011274996454399999
sS'Ubuntu'
p30
F0.0080386902816799999
sS'Enhancement'
p31
F0.0071728347958800003
sS'talesfromtechsupport'
p32
F0.0131794995293
sS'YouShouldKnow'
p33
F0.0072529011604600003
sS'shutupandtakemymoney'
p34
F0.0071204907133400001
sS'androidapps'
p35
F0.010749822317
sS'Eve'
p36
F0.0082994000808200002
sS'cordcutters'
p37
F0.0084793424183400006
sS'geek'
p38
F0.01274348596
sS'nexus4'
p39
F0.0088105726872200005
sS'doctorwho'
p40
F0.0081563523722500003
sS'amateurradio'
p41
F0.0075202105658999999
sS'ProgrammerHumor'
p42
F0.0085079422546
sS'tmobile'
p43
F0.0072868115276
sS'techsupportgore'
p44
F0.011466927702399999
sS'geocaching'
p45
F0.0077792760087099996
sS'Chromecast'
p46
F0.013567512313
sS'programming'
p47
F0.0080458228769600005
sS'freebies'
p48
F0.00708143651998
sS'offbeat'
p49
F0.0072291205987399998
sS'androiddev'
p50
F0.0073939551174000001
sS'softwaregore'
p51
F0.00894090281311
sS'wheredidthesodago'
p52
F0.0072251308900499996
sS'Cyberpunk'
p53
F0.0080984270362900006
sS'KerbalSpaceProgram'
p54
F0.0077331790204599998
sS'raspberry_pi'
p55
F0.0091217649554499996
sS'cableporn'
p56
F0.0081753228909000001
s.