(dp1
S'Battlefield'
p2
F0.00745418288861
sS'RandomActsOfGaming'
p3
F0.0080310163389599992
sS'roosterteeth'
p4
F0.014558280465900001
sS'gamegrumps'
p5
F0.0078922934076099995
sS'xboxone'
p6
F0.0074076295585399996
sS'montageparodies'
p7
F0.0111154094133
sS'nerdcubed'
p8
F0.010627356873500001
sS'battlefield_4'
p9
F0.0073333961730600002
sS'GrandTheftAutoV'
p10
F0.0094745371813299995
sS'Fallout'
p11
F0.0086648614871899995
sS'TwoBestFriendsPlay'
p12
F0.011075338055399999
sS'pcmasterrace'
p13
F0.0071143011855200004
sS'assassinscreed'
p14
F0.0084727272727299994
sS'Steam'
p15
F0.0072518941048699999
sS'halo'
p16
F0.0091633557632700008
sS'metalgearsolid'
p17
F0.0070697220867900002
s.