(dp1
S'MensRights'
p2
F0.0074665215682699999
sS'QuotesPorn'
p3
F0.0088052914427400007
sS'Heavymind'
p4
F0.0081330868761599999
sS'NoStupidQuestions'
p5
F0.0071439291610400002
sS'TrueReddit'
p6
F0.0099902420891199994
sS'DoesAnybodyElse'
p7
F0.0070170273320599996
sS'Anticonsumption'
p8
F0.0078706199460900003
sS'askphilosophy'
p9
F0.011437524481
sS'zen'
p10
F0.0095623804702400002
sS'DecidingToBeBetter'
p11
F0.00996880509969
sS'TrueAskReddit'
p12
F0.0081016134569200007
sS'self'
p13
F0.0081930415263699995
sS'quotes'
p14
F0.0073110666461399998
sS'Buddhism'
p15
F0.0091405184174600008
sS'Anxiety'
p16
F0.0078399009696699992
sS'DeepIntoYouTube'
p17
F0.0073034289858100003
sS'changemyview'
p18
F0.0110175738061
sS'dataisbeautiful'
p19
F0.0074746699634800004
sS'ADHD'
p20
F0.0099030874331399992
sS'OneY'
p21
F0.0071795866886599996
sS'Foodforthought'
p22
F0.012211745995699999
sS'writing'
p23
F0.0078258742968900005
sS'StonerPhilosophy'
p24
F0.0082336151059399995
sS'LucidDreaming'
p25
F0.0081208992147999998
sS'CrazyIdeas'
p26
F0.0092042933381300002
sS'Nootropics'
p27
F0.010379409495799999
sS'psychology'
p28
F0.013115179846799999
sS'TheoryOfReddit'
p29
F0.0109848840484
sS'findareddit'
p30
F0.0070232306861200003
sS'skeptic'
p31
F0.0088539774791100007
sS'selfimprovement'
p32
F0.00700306983883
sS'OutOfTheLoop'
p33
F0.0081190798376200007
sS'LearnUselessTalents'
p34
F0.0074486897808300001
sS'socialskills'
p35
F0.012362318167
sS'DebateReligion'
p36
F0.0076094759511800003
sS'outside'
p37
F0.0093959731543600006
sS'compsci'
p38
F0.0070638411302100003
sS'Psychonaut'
p39
F0.0135564697083
sS'ifyoulikeblank'
p40
F0.0085610800131700002
sS'introvert'
p41
F0.035636254049599997
sS'math'
p42
F0.0082050448840300001
sS'fifthworldproblems'
p43
F0.0072477409638600004
sS'LetsTalkMusic'
p44
F0.0071678321678299997
sS'Anarchism'
p45
F0.0093224693533000003
sS'YouShouldKnow'
p46
F0.00730114658851
sS'collapse'
p47
F0.0090188305252699996
sS'Futurology'
p48
F0.0080737872801499994
sS'Economics'
p49
F0.0087129698780199997
sS'philosophy'
p50
F0.0112163192679
sS'socialanxiety'
p51
F0.0085623769158300004
sS'BasicIncome'
p52
F0.0093138511492799995
sS'minimalism'
p53
F0.0089211039866200006
sS'TrueAtheism'
p54
F0.010795112060899999
sS'lostgeneration'
p55
F0.0096912521440800006
sS'productivity'
p56
F0.0074782279439600001
sS'explainlikeIAmA'
p57
F0.0082378223495700002
sS'intj'
p58
F0.054731417863800001
sS'Physics'
p59
F0.0079544794751199993
sS'Meditation'
p60
F0.010784474735899999
sS'ProgrammerHumor'
p61
F0.0071282611794899996
sS'worldbuilding'
p62
F0.0085961619952800005
sS'IWantToLearn'
p63
F0.00971834788086
sS'getdisciplined'
p64
F0.0109463083575
sS'infj'
p65
F0.029242875372200001
sS'entp'
p66
F0.0388845247447
sS'privacy'
p67
F0.0070059280929999999
sS'TheRedPill'
p68
F0.0072347530035700002
sS'Glitch_in_the_Matrix'
p69
F0.0070342636714299999
sS'Frisson'
p70
F0.0088527335805699998
sS'socialism'
p71
F0.0088807627008
sS'howtonotgiveafuck'
p72
F0.0107389686337
sS'TheBluePill'
p73
F0.0072551390568299998
sS'Cyberpunk'
p74
F0.0094183740912099998
sS'DrugNerds'
p75
F0.00722416812609
sS'Libertarian'
p76
F0.0085413700913199997
sS'PoliticalDiscussion'
p77
F0.0088701882071999995
sS'whatstheword'
p78
F0.0074040632054200002
sS'Anarcho_Capitalism'
p79
F0.011290079783199999
sS'aspergers'
p80
F0.0076120665350999997
sS'infp'
p81
F0.0347663162278
s.