(dp1
S'CombatFootage'
p2
F0.0082458187475699992
sS'pakistan'
p3
F0.024798711755200001
sS'Israel'
p4
F0.0287993510005
sS'Judaism'
p5
F0.016204607575200002
sS'syriancivilwar'
p6
F0.030708035004
sS'worldpolitics'
p7
F0.0086299892125100003
sS'Turkey'
p8
F0.0307692307692
sS'arabs'
p9
F0.047743966421800003
sS'dubai'
p10
F0.0074493444576899997
sS'exmuslim'
p11
F0.019366852886399999
sS'russia'
p12
F0.0123768964599
sS'China'
p13
F0.0080060045033799997
sS'PropagandaPosters'
p14
F0.0088363240891799998
sS'AnythingGoesNews'
p15
F0.0071692374538299998
sS'vexillology'
p16
F0.0074224021592400003
sS'islam'
p17
F0.0207761662093
s.