(dp1
S'DnD'
p2
F0.0147834912043
sS'lfg'
p3
F0.0297491491239
sS'Destiny'
p4
F0.01248049922
sS'heroesofthestorm'
p5
F0.0070742059813600003
sS'Cynicalbrit'
p6
F0.022800645681999999
sS'rpg'
p7
F0.0132232171855
sS'Pathfinder_RPG'
p8
F0.0086308027484499998
sS'Twitch'
p9
F0.0098173641199999998
sS'starcraft'
p10
F0.015223480696599999
s.