(dp1
S'javascript'
p2
F0.010561566203
sS'java'
p3
F0.094304504280899995
sS'Python'
p4
F0.0088191330343800004
sS'linux4noobs'
p5
F0.0082815734989600005
sS'cscareerquestions'
p6
F0.015943575154100002
sS'linuxquestions'
p7
F0.0099462365591400006
sS'programming'
p8
F0.0094580077096499994
sS'learnmath'
p9
F0.0120906209649
sS'androiddev'
p10
F0.016992114156999999
sS'softwaregore'
p11
F0.0093447669305200005
sS'compsci'
p12
F0.017511276200600001
sS'gamedev'
p13
F0.0089242007756900003
sS'learnprogramming'
p14
F0.019256593436099999
sS'csharp'
p15
F0.0087690808704099996
sS'cpp'
p16
F0.0079067009290400003
sS'webdev'
p17
F0.0073652768116500003
sS'learnpython'
p18
F0.015625
sS'raspberry_pi'
p19
F0.0071694665073499999
sS'cheatatmathhomework'
p20
F0.0080962294702800006
sS'ProgrammerHumor'
p21
F0.0157098301952
s.