(dp1
S'Turkey'
p2
F0.0073157986413500001
sS'PoliticalDiscussion'
p3
F0.0088248954946599997
sS'TrueAtheism'
p4
F0.0099682539682500008
sS'badhistory'
p5
F0.015890115809299998
sS'Catholicism'
p6
F0.015974107329299998
sS'arabs'
p7
F0.025182916454
sS'PanicHistory'
p8
F0.0071115973741800002
sS'TrueAskReddit'
p9
F0.0070486773364299999
sS'Christianity'
p10
F0.016502350978299999
sS'POLITIC'
p11
F0.0094648707681099994
sS'Buddhism'
p12
F0.0076467686235800001
sS'badphilosophy'
p13
F0.010498687664
sS'changemyview'
p14
F0.0079484469019399998
sS'askphilosophy'
p15
F0.0085569817191800002
sS'polandball'
p16
F0.0080700945353899996
sS'ainbow'
p17
F0.00936312227681
sS'Feminism'
p18
F0.0085804731756100004
sS'islam'
p19
F0.035179640718599997
sS'TrueChristian'
p20
F0.0152862267977
sS'forwardsfromgrandma'
p21
F0.00755783765072
sS'Israel'
p22
F0.097324985771199995
sS'languagelearning'
p23
F0.0084860828241700003
sS'syriancivilwar'
p24
F0.011050380228099999
sS'TheoryOfReddit'
p25
F0.0075915268764499997
sS'badlinguistics'
p26
F0.010140273787399999
sS'AskNYC'
p27
F0.0070821529745000002
sS'circlebroke'
p28
F0.0091428571428600006
sS'AskSocialScience'
p29
F0.0084455603743399995
sS'exmuslim'
p30
F0.014600513721800001
sS'OrthodoxChristianity'
p31
F0.0125144843569
sS'religion'
p32
F0.024211099020700001
sS'Brooklyn'
p33
F0.0073779795686699998
sS'Reformed'
p34
F0.00933222729158
sS'Conservative'
p35
F0.0099058940069300001
sS'nyc'
p36
F0.0091080797481600008
sS'Republican'
p37
F0.0071133167907400001
sS'vexillology'
p38
F0.0103610166748
sS'iran'
p39
F0.016204607575200002
sS'linguistics'
p40
F0.0104418447259
sS'DebateAChristian'
p41
F0.015369305616999999
sS'lgbt'
p42
F0.0071332284879800003
sS'DebateAnAtheist'
p43
F0.0096432015429100005
sS'MapPorn'
p44
F0.00718720012534
sS'magicskyfairy'
p45
F0.0083560709413399992
sS'law'
p46
F0.0080247510393500008
sS'Sidehugs'
p47
F0.012525620587599999
sS'PoliticalHumor'
p48
F0.0087699572745700005
sS'AskHistorians'
p49
F0.0111770967561
sS'worldpolitics'
p50
F0.013376987839099999
sS'DebateReligion'
p51
F0.024870743447999999
sS'conspiratard'
p52
F0.0126689701158
sS'PropagandaPosters'
p53
F0.0101528267607
sS'socialism'
p54
F0.0085930786657299994
sS'HumanPorn'
p55
F0.0073581940277200001
sS'SubredditDrama'
p56
F0.0072060657652499999
sS'latterdaysaints'
p57
F0.0095632770162600005
sS'russia'
p58
F0.00868655154369
s.