(dp1
S'MaddenUltimateTeam'
p2
F0.0070813662871399997
sS'NYGiants'
p3
F0.0193040386081
sS'buffalobills'
p4
F0.033249158249200002
sS'redsox'
p5
F0.0085523833480099995
sS'Saints'
p6
F0.027545566671199999
sS'Madden'
p7
F0.019084337349399998
sS'Chargers'
p8
F0.047395124365799998
sS'miamidolphins'
p9
F0.032496735818900002
sS'cowboys'
p10
F0.021572580645199999
sS'Browns'
p11
F0.029661016949200002
sS'nba'
p12
F0.0074723435721299998
sS'panthers'
p13
F0.026400931797599999
sS'SFGiants'
p14
F0.016446048937
sS'fantasyfootball'
p15
F0.0107156846287
sS'kansascity'
p16
F0.062252608852100003
sS'Dodgers'
p17
F0.0094774909589700005
sS'minnesotavikings'
p18
F0.022414671421299999
sS'warriors'
p19
F0.0097553654509999997
sS'stlouisblues'
p20
F0.0096168072200000006
sS'bostonceltics'
p21
F0.00727684346701
sS'Cardinals'
p22
F0.0147892190739
sS'detroitlions'
p23
F0.024501796798400002
sS'Torontobluejays'
p24
F0.00840084008401
sS'nyjets'
p25
F0.032901833872700001
sS'eagles'
p26
F0.019208284616699999
sS'orioles'
p27
F0.019693020561800001
sS'TexasRangers'
p28
F0.0079681274900400001
sS'Colts'
p29
F0.039659265465699998
sS'Cubs'
p30
F0.00706325537592
sS'Braves'
p31
F0.00707056703175
sS'ColoradoAvalanche'
p32
F0.010597478531
sS'NASCAR'
p33
F0.0088383838383800008
sS'bengals'
p34
F0.031497118348699997
sS'MLS'
p35
F0.010454435581299999
sS'StLouisRams'
p36
F0.034805194805200002
sS'baseball'
p37
F0.018298725034700002
sS'oaklandraiders'
p38
F0.048884467813000002
sS'CHIBears'
p39
F0.019394040286299999
sS'ravens'
p40
F0.025782452539800001
sS'DenverBroncos'
p41
F0.049031911079199998
sS'Texans'
p42
F0.0299346405229
sS'nfl'
p43
F0.0176164541942
sS'CFB'
p44
F0.0119911859659
sS'lakers'
p45
F0.00706713780919
sS'CollegeBasketball'
p46
F0.020267287394100001
sS'49ers'
p47
F0.031314059517899999
sS'GreenBayPackers'
p48
F0.0215956378247
sS'Patriots'
p49
F0.0299890200384
sS'falcons'
p50
F0.023430720277700001
sS'Seahawks'
p51
F0.027089121607199999
sS'steelers'
p52
F0.0248622167789
sS'Redskins'
p53
F0.023715900712700001
s.