(dp1
S'StLouis'
p2
F0.013282287678699999
sS'KansasCityChiefs'
p3
F0.062252608852100003
sS'cordcutters'
p4
F0.0072053525476099998
sS'MLS'
p5
F0.0109730514765
sS'baseball'
p6
F0.011683417085399999
sS'HomeImprovement'
p7
F0.007258834766
sS'BBQ'
p8
F0.0089344493557799998
sS'CollegeBasketball'
p9
F0.011700640223699999
s.