(dp1
S'awwwtf'
p2
F0.00810603571037
sS'help'
p3
F0.0091923029783100001
sS'pettyrevenge'
p4
F0.0090775883635300005
sS'PublicFreakout'
p5
F0.0077821011673200003
sS'PanicHistory'
p6
F0.0097449720091199992
sS'dadjokes'
p7
F0.0087643790593900008
sS'perfectloops'
p8
F0.0101439790576
sS'everymanshouldknow'
p9
F0.0074624024366999999
sS'TalesFromRetail'
p10
F0.00718472791409
sS'TheoryOfReddit'
p11
F0.022402159244300002
sS'TheBluePill'
p12
F0.0073468638075100002
sS'quityourbullshit'
p13
F0.015920440479699999
sS'LearnUselessTalents'
p14
F0.0083990179609800004
sS'ProtectAndServe'
p15
F0.0089680434508
sS'shittybattlestations'
p16
F0.0074564040889999999
sS'whowouldwin'
p17
F0.0076213280383100003
sS'holdmybeer'
p18
F0.0096925573439799999
sS'FreeKarma'
p19
F0.0073631416070899999
sS'MensRights'
p20
F0.0077918603484599998
sS'nononono'
p21
F0.0091379674625000004
sS'Frisson'
p22
F0.0072928176795600003
sS'YouShouldKnow'
p23
F0.0070231399871300004
sS'whitepeoplegifs'
p24
F0.00723416906154
sS'JusticePorn'
p25
F0.0073439763615799998
sS'softwaregore'
p26
F0.0093615230882499994
sS'NoStupidQuestions'
p27
F0.0079009394814599995
sS'3amjokes'
p28
F0.0086308356218099992
sS'toosoon'
p29
F0.0123546511628
sS'magicskyfairy'
p30
F0.0101786057231
sS'Braveryjerk'
p31
F0.0124755749286
sS'photoshopbattles'
p32
F0.0073613700711300002
sS'creepyPMs'
p33
F0.0084117125110900002
sS'IdiotsFightingThings'
p34
F0.010052327182599999
sS'techsupportgore'
p35
F0.0071095856827700001
sS'PropagandaPosters'
p36
F0.0072115384615399998
sS'vexillology'
p37
F0.0087838990277999997
sS'shittyadviceanimals'
p38
F0.0101187857457
sS'montageparodies'
p39
F0.0078092361088800003
sS'DeepIntoYouTube'
p40
F0.0088127598833200003
sS'csshelp'
p41
F0.0128747471032
sS'badhistory'
p42
F0.0110942537455
sS'circlebroke2'
p43
F0.0070588235294099999
sS'SubredditDrama'
p44
F0.0145237854762
sS'interestingasfuck'
p45
F0.0075256079715699999
sS'MarkMyWords'
p46
F0.0101302460203
sS'changemyview'
p47
F0.0071216861518199996
sS'CrappyDesign'
p48
F0.0085601087365199998
sS'Cinemagraphs'
p49
F0.0074136835416199996
sS'notinteresting'
p50
F0.0106241699867
sS'firstworldanarchists'
p51
F0.011007478363200001
sS'forwardsfromgrandma'
p52
F0.0107623857624
sS'no_sob_story'
p53
F0.015070422535200001
sS'behindthegifs'
p54
F0.0126848723204
sS'skeptic'
p55
F0.0071458818547499997
sS'wikipedia'
p56
F0.0072985870683999997
sS'ExpectationVsReality'
p57
F0.0086228339275399996
sS'outside'
p58
F0.014243820695400001
sS'facepalm'
p59
F0.0076462877693000003
sS'SCP'
p60
F0.0087769784172699993
sS'Enhancement'
p61
F0.0141053350017
sS'blackpeoplegifs'
p62
F0.0075506445672199997
sS'bestof'
p63
F0.00901452917779
sS'needamod'
p64
F0.022019928650499999
sS'casualiama'
p65
F0.0093913368185200002
sS'FloridaMan'
p66
F0.0121021663546
sS'delusionalartists'
p67
F0.0091217096690100006
sS'Random_Acts_Of_Pizza'
p68
F0.0075273252217
sS'shittyaskscience'
p69
F0.010302102185699999
sS'GamePhysics'
p70
F0.010396039604
sS'lewronggeneration'
p71
F0.0099211036046700004
sS'Unexpected'
p72
F0.0084827388093699999
sS'RedditDayOf'
p73
F0.0100934579439
sS'4chan'
p74
F0.0071835464757199997
sS'watchpeopledie'
p75
F0.0073972213002000001
sS'wheredidthesodago'
p76
F0.012567990769699999
sS'AnimalsBeingBros'
p77
F0.0091536505630199997
sS'classic4chan'
p78
F0.012408462164399999
sS'OutOfTheLoop'
p79
F0.0131718466505
sS'misc'
p80
F0.0081058020477799992
sS'AntiJokes'
p81
F0.0077870757787100002
sS'findareddit'
p82
F0.00947459086994
sS'rant'
p83
F0.0076127819548900003
sS'conspiratard'
p84
F0.014087176247599999
sS'marijuanaenthusiasts'
p85
F0.0076496175191199996
sS'whatisthisthing'
p86
F0.0072439353099700001
sS'Damnthatsinteresting'
p87
F0.00741942963135
sS'FiftyFifty'
p88
F0.0086588523540400003
sS'CrazyIdeas'
p89
F0.010312354930700001
sS'Bad_Cop_No_Donut'
p90
F0.0093933084781899993
sS'ANormalDayInRussia'
p91
F0.0085106382978700004
sS'onetruegod'
p92
F0.0090109418579700003
sS'Portal'
p93
F0.0072486119679199996
sS'shittyreactiongifs'
p94
F0.0095411663807900005
sS'misleadingthumbnails'
p95
F0.0106900678101
sS'WebGames'
p96
F0.0072688505524299996
sS'Pareidolia'
p97
F0.0092571686611000008
sS'explainlikeIAmA'
p98
F0.017102803738300001
sS'shittyadvice'
p99
F0.0087078370533499993
sS'mildlyinfuriating'
p100
F0.0073426518450999999
sS'oddlysatisfying'
p101
F0.0072937439988199999
sS'Awwducational'
p102
F0.0096019823447400007
sS'shittyaskreddit'
p103
F0.0096061479346800007
sS'blunderyears'
p104
F0.00727582919364
sS'rage'
p105
F0.0084445319809
sS'thatHappened'
p106
F0.0111424847958
sS'Perfectfit'
p107
F0.0095781536580399999
sS'PerfectTiming'
p108
F0.0085964363863699992
sS'Glitch_in_the_Matrix'
p109
F0.0089390894601899997
sS'standupshots'
p110
F0.0075779065526599999
sS'ICanDrawThat'
p111
F0.0071935452512900001
sS'fullmoviesonyoutube'
p112
F0.0073883713459700004
sS'AskScienceFiction'
p113
F0.0075109916951599997
sS'NewsOfTheStupid'
p114
F0.0080485952923299992
sS'awesome'
p115
F0.0076789695318300001
sS'TrueAskReddit'
p116
F0.0081593261975800007
sS'FanTheories'
p117
F0.0071724506615599998
sS'conspiracy'
p118
F0.0072656954040300004
sS'polandball'
p119
F0.0098452409049500002
sS'counting'
p120
F0.0122246918569
sS'SRSsucks'
p121
F0.015051877831399999
sS'techsupportmacgyver'
p122
F0.0070674799109299996
sS'MURICA'
p123
F0.0090368723722999995
sS'HighQualityGifs'
p124
F0.0108365843086
sS'self'
p125
F0.00778773047681
sS'shittyama'
p126
F0.011614055985700001
sS'circlebroke'
p127
F0.011019798281699999
sS'UnresolvedMysteries'
p128
F0.00807722616233
sS'spaceporn'
p129
F0.0079594790159199999
sS'nonononoyes'
p130
F0.010179529890799999
sS'Frugal_Jerk'
p131
F0.0103244837758
sS'Whatcouldgowrong'
p132
F0.0083451285680600003
sS'fifthworldproblems'
p133
F0.0095455767679500005
sS'talesfromtechsupport'
p134
F0.0080896826539900001
sS'GiftofGames'
p135
F0.0094624521844199998
sS'AnimalsBeingJerks'
p136
F0.0087233290109600004
sS'Gaming4Gamers'
p137
F0.0070607404725299997
sS'terriblefacebookmemes'
p138
F0.0099269117486600004
sS'TumblrInAction'
p139
F0.0081402878173199994
sS'HailCorporate'
p140
F0.016048871401899999
sS'ImGoingToHellForThis'
p141
F0.00702519032531
s.