(dp1
S'AskScienceFiction'
p2
F0.0070626812965100001
sS'hoggit'
p3
F0.0084235860409099996
sS'AskScienceDiscussion'
p4
F0.0076542098153999996
sS'spacex'
p5
F0.0279184145812
sS'SimCity'
p6
F0.00714656964657
sS'techsupportmacgyver'
p7
F0.0083750383004799998
sS'Xcom'
p8
F0.0088383838383800008
sS'arduino'
p9
F0.0070390758956800003
sS'Warthunder'
p10
F0.0079867101143700006
sS'flying'
p11
F0.0075983456766400004
sS'dwarffortress'
p12
F0.0122611195671
sS'spaceporn'
p13
F0.0117630967036
sS'Astronomy'
p14
F0.010971560560099999
sS'spaceengineers'
p15
F0.013352685050799999
sS'arma'
p16
F0.0078187472234599997
sS'talesfromtechsupport'
p17
F0.0072386319471399998
sS'DaystromInstitute'
p18
F0.0086232095878400004
sS'flightsim'
p19
F0.0109279141104
sS'askscience'
p20
F0.00741733690795
sS'astrophotography'
p21
F0.0092384848884799996
sS'ftlgame'
p22
F0.010286349735900001
sS'aviation'
p23
F0.0081176203451400007
sS'GamePhysics'
p24
F0.0071005050874799998
sS'Physics'
p25
F0.0088763961831500003
sS'MachinePorn'
p26
F0.0081823495032099999
sS'WarshipPorn'
p27
F0.0075157146761399996
sS'prisonarchitect'
p28
F0.016612698859600001
sS'space'
p29
F0.0137277756193
sS'KerbalSpaceProgram'
p30
F0.067323010259400004
s.