(dp1
S'Paleo'
p2
F0.031177985631000001
sS'C25K'
p3
F0.0086684073107
sS'steroids'
p4
F0.016301816488100002
sS'xxfitness'
p5
F0.0139215028514
sS'DecidingToBeBetter'
p6
F0.0074906367041200003
sS'BuyItForLife'
p7
F0.0074150035497399999
sS'everymanshouldknow'
p8
F0.0073891625615799999
sS'bodybuilding'
p9
F0.0173557937723
sS'financialindependence'
p10
F0.0075688491701599997
sS'hardbodies'
p11
F0.0075726397234299999
sS'loseit'
p12
F0.0124078777533
sS'Nootropics'
p13
F0.015622389306599999
sS'crossfit'
p14
F0.011622276029099999
sS'weightroom'
p15
F0.0232301822806
sS'seduction'
p16
F0.0073442804683699998
sS'swoleacceptance'
p17
F0.014946193702700001
sS'ketorecipes'
p18
F0.082475937603700006
sS'getdisciplined'
p19
F0.0098991408292900002
sS'fatlogic'
p20
F0.0096043248217200002
sS'asktrp'
p21
F0.0070010549534900001
sS'xxketo'
p22
F0.045633685957300003
sS'Supplements'
p23
F0.023243598161500002
sS'weightlifting'
p24
F0.010957004160899999
sS'progresspics'
p25
F0.015368797012800001
sS'Fitness'
p26
F0.0096874980354699994
sS'bodyweightfitness'
p27
F0.0182193396226
sS'frugalmalefashion'
p28
F0.0071810983233400001
sS'keto'
p29
F0.0786138900971
sS'fitnesscirclejerk'
p30
F0.0082918739635199998
sS'powerlifting'
p31
F0.016123076923099999
sS'fitmeals'
p32
F0.0113717128643
sS'TheRedPill'
p33
F0.0074895781813000004
sS'leangains'
p34
F0.041770655457800003
sS'Meditation'
p35
F0.0080198943114700005
sS'gainit'
p36
F0.0107840099163
sS'nutrition'
p37
F0.0143168921868
s.