(dp1
S'gonewildaudio'
p2
F0.0073241570905400004
sS'gonewild'
p3
F0.0079824100186399998
sS'asstastic'
p4
F0.0073706377857999999
sS'gonewildcurvy'
p5
F0.0123995232903
sS'dirtykikpals'
p6
F0.097397811667299994
sS'amiugly'
p7
F0.0083948104807900006
sS'penpals'
p8
F0.013098356751599999
sS'GoneWildPlus'
p9
F0.012500000000000001
sS'GWNerdy'
p10
F0.0080337152640599999
sS'RandomActsOfBlowJob'
p11
F0.011757575757599999
sS'wifesharing'
p12
F0.0078873239436600007
sS'GoneMild'
p13
F0.0119231819423
sS'dirtypenpals'
p14
F0.0309519249186
sS'MakeNewFriendsHere'
p15
F0.0193884588857
sS'snapchat'
p16
F0.032560496642600002
sS'r4r'
p17
F0.032429649965699997
sS'BigBoobsGW'
p18
F0.0076880496955500002
sS'Needafriend'
p19
F0.0281663634653
sS'DirtySnapchat'
p20
F0.027076547231299999
sS'Rateme'
p21
F0.0088759548926900002
sS'AmISexy'
p22
F0.0084073082523099998
s.