(dp1
S'awwwtf'
p2
F0.0081516401492799997
sS'HipHopImages'
p3
F0.0079484857631600004
sS'DoesAnybodyElse'
p4
F0.0076648195142199997
sS'PublicFreakout'
p5
F0.010086887046800001
sS'rickandmorty'
p6
F0.014689104392499999
sS'dadjokes'
p7
F0.0079603484529900004
sS'dbz'
p8
F0.0098763773179300005
sS'perfectloops'
p9
F0.0073617788461500001
sS'everymanshouldknow'
p10
F0.0075779762776399997
sS'WouldYouRather'
p11
F0.00707527766351
sS'quityourbullshit'
p12
F0.0126664766016
sS'LearnUselessTalents'
p13
F0.0078597339782299994
sS'startrek'
p14
F0.0087056942347000007
sS'HistoryPorn'
p15
F0.00865695434619
sS'shittybattlestations'
p16
F0.0075789923142599996
sS'GrandTheftAutoV'
p17
F0.00756863595825
sS'Fallout'
p18
F0.0080367949649000001
sS'seinfeld'
p19
F0.030109106168699998
sS'adventuretime'
p20
F0.010973092384
sS'texas'
p21
F0.0112417403244
sS'nononono'
p22
F0.0090563394376100004
sS'beatles'
p23
F0.0070124531495599999
sS'arresteddevelopment'
p24
F0.0176848874598
sS'shutupandtakemymoney'
p25
F0.0096695409460199992
sS'horror'
p26
F0.0085488583486599996
sS'JusticePorn'
p27
F0.0073903459190600004
sS'PandR'
p28
F0.0181466607169
sS'Scrubs'
p29
F0.0104405398523
sS'cringepics'
p30
F0.0074082547201599997
sS'toosoon'
p31
F0.011790025264299999
sS'magicskyfairy'
p32
F0.0074900398406399999
sS'Braveryjerk'
p33
F0.0082751486940799996
sS'AbandonedPorn'
p34
F0.0084375802487300002
sS'Frugal_Jerk'
p35
F0.010472541506999999
sS'creepyPMs'
p36
F0.0073137388926900002
sS'WatchItForThePlot'
p37
F0.0076782449725799999
sS'techsupportgore'
p38
F0.0070899761056100003
sS'freebies'
p39
F0.0098312305423600005
sS'PropagandaPosters'
p40
F0.0106590140412
sS'CrappyDesign'
p41
F0.0093812319186600008
sS'NewsOfTheWeird'
p42
F0.0088572673152300004
sS'thatHappened'
p43
F0.0097336500127200003
sS'futurama'
p44
F0.024997294665099999
sS'SubredditDrama'
p45
F0.0082569889513599993
sS'DeepIntoYouTube'
p46
F0.0141133754978
sS'ArcherFX'
p47
F0.016577734031000001
sS'cringe'
p48
F0.00792194893965
sS'StarWars'
p49
F0.00736549165121
sS'badhistory'
p50
F0.0073889509407999996
sS'glitch_art'
p51
F0.0092951200619700008
sS'NetflixBestOf'
p52
F0.010367796119300001
sS'TheSimpsons'
p53
F0.041088312210799997
sS'MST3K'
p54
F0.0100209392761
sS'DCcomics'
p55
F0.0073697139849099999
sS'see'
p56
F0.0078080520536799999
sS'MarkMyWords'
p57
F0.0091213485740699995
sS'xmen'
p58
F0.00710209258085
sS'cowboys'
p59
F0.0070126227208999999
sS'PS3'
p60
F0.0073573275005000003
sS'Cinemagraphs'
p61
F0.0076234038498199999
sS'firstworldanarchists'
p62
F0.0100576274872
sS'offbeat'
p63
F0.0101619661059
sS'no_sob_story'
p64
F0.0107566312187
sS'humor'
p65
F0.0088747813694399994
sS'findareddit'
p66
F0.0073291827567200001
sS'shittyfoodporn'
p67
F0.0111789635265
sS'wikipedia'
p68
F0.0089575157822899994
sS'ExpectationVsReality'
p69
F0.0128646910177
sS'breakingbad'
p70
F0.0127126339367
sS'firstworldproblems'
p71
F0.0083595547832600002
sS'outside'
p72
F0.0076448828606700001
sS'facepalm'
p73
F0.0079448977569300007
sS'foodhacks'
p74
F0.0075855529695700004
sS'lifehacks'
p75
F0.0077603490977700001
sS'memes'
p76
F0.0071059978005200003
sS'blackpeoplegifs'
p77
F0.0123977397318
sS'StandUpComedy'
p78
F0.0098275708031800007
sS'TMNT'
p79
F0.0074041166888799996
sS'FloridaMan'
p80
F0.013260774379200001
sS'delusionalartists'
p81
F0.013223950042899999
sS'whitepeoplegifs'
p82
F0.0118983234181
sS'JonTron'
p83
F0.0082771305947300002
sS'baseball'
p84
F0.00719733591148
sS'vinyl'
p85
F0.0074858576836399999
sS'corgi'
p86
F0.0071391258923900001
sS'GamePhysics'
p87
F0.0092050759418799994
sS'pinkfloyd'
p88
F0.0070794471288900002
sS'lewronggeneration'
p89
F0.012727354786300001
sS'youtubehaiku'
p90
F0.0071796830246300004
sS'PoliticalHumor'
p91
F0.0083843921315700006
sS'ThriftStoreHauls'
p92
F0.010878535524
sS'RedditDayOf'
p93
F0.0072511535926199997
sS'netflix'
p94
F0.0093924751615199996
sS'TalesFromThePizzaGuy'
p95
F0.0091401489505800008
sS'punk'
p96
F0.0095482273892699993
sS'wheredidthesodago'
p97
F0.013000869359
sS'AnimalsBeingBros'
p98
F0.010884261763100001
sS'classic4chan'
p99
F0.012500000000000001
sS'ANormalDayInRussia'
p100
F0.0093799226693400007
sS'HalfLife'
p101
F0.0074901914160000003
sS'Dexter'
p102
F0.0084464555052800004
sS'drunk'
p103
F0.0091264667535899992
sS'patientgamers'
p104
F0.0085827814569499998
sS'community'
p105
F0.0092841353511300007
sS'nostalgia'
p106
F0.016687016687000001
sS'NotTimAndEric'
p107
F0.015892030027200001
sS'IdiotsFightingThings'
p108
F0.0097560975609800003
sS'conspiratard'
p109
F0.0111662531017
sS'ContagiousLaughter'
p110
F0.0073484756467900002
sS'Damnthatsinteresting'
p111
F0.0084081957781999995
sS'FiftyFifty'
p112
F0.00710292489265
sS'CrazyIdeas'
p113
F0.0081209834702800007
sS'eldertrees'
p114
F0.0081617510665899992
sS'Bad_Cop_No_Donut'
p115
F0.0082374597330899992
sS'OutOfTheLoop'
p116
F0.0094854053063300001
sS'onetruegod'
p117
F0.0099372889532099995
sS'TheFacebookDelusion'
p118
F0.0077462191073400001
sS'MorbidReality'
p119
F0.0086670946713399994
sS'gif'
p120
F0.0078125
sS'holdmybeer'
p121
F0.0081627527313800005
sS'shittyreactiongifs'
p122
F0.0095375722543399998
sS'misleadingthumbnails'
p123
F0.0103752759382
sS'trailerparkboys'
p124
F0.024538325322499999
sS'Standup'
p125
F0.0073128137961099996
sS'Pareidolia'
p126
F0.010826290424000001
sS'GTA'
p127
F0.0099219108865400002
sS'happy'
p128
F0.0075931345408499999
sS'fatlogic'
p129
F0.0075501916147100003
sS'TrollYChromosome'
p130
F0.0087293889427700003
sS'explainlikeIAmA'
p131
F0.0073368190251300001
sS'alternativeart'
p132
F0.0095169256716099992
sS'GODZILLA'
p133
F0.0082429048414000006
sS'Spiderman'
p134
F0.0080053368912599999
sS'batman'
p135
F0.0091443500979799999
sS'snes'
p136
F0.0072581839727400002
sS'mildlyinfuriating'
p137
F0.0085165685970899994
sS'madmen'
p138
F0.0096306841972999997
sS'Unexpected'
p139
F0.0076473905975200001
sS'Awwducational'
p140
F0.0087280011446600001
sS'Shitty_Car_Mods'
p141
F0.0093637625947899997
sS'IASIP'
p142
F0.022800235864500001
sS'ghettoglamourshots'
p143
F0.0125588697017
sS'blunderyears'
p144
F0.014008827480299999
sS'calvinandhobbes'
p145
F0.0107626646873
sS'showerbeer'
p146
F0.0080883803511500006
sS'rage'
p147
F0.0100468693667
sS'comics'
p148
F0.0084022476675100002
sS'interestingasfuck'
p149
F0.0077508768928099998
sS'Perfectfit'
p150
F0.0083647394062000002
sS'PerfectTiming'
p151
F0.0093915278532899996
sS'behindthegifs'
p152
F0.0090766823161200008
sS'standupshots'
p153
F0.0098153774246299997
sS'MetalMemes'
p154
F0.0095842956120099996
sS'ObscureMedia'
p155
F0.012649710671499999
sS'lookatmydog'
p156
F0.0077900779007800004
sS'fullmoviesonyoutube'
p157
F0.0109856576137
sS'NewsOfTheStupid'
p158
F0.0093065932625499993
sS'FoodPorn'
p159
F0.0072240162659999996
sS'crappymusic'
p160
F0.0089171974522299999
sS'awesome'
p161
F0.0082209799408099991
sS'FanTheories'
p162
F0.012273874182100001
sS'gamecollecting'
p163
F0.00928531232414
sS'YouShouldKnow'
p164
F0.0077241079199300003
sS'bestofworldstar'
p165
F0.0087860857091600006
sS'southpark'
p166
F0.022624434389100001
sS'superman'
p167
F0.00853121000995
sS'TalesFromYourServer'
p168
F0.0075854299661999997
sS'MURICA'
p169
F0.00935769004125
sS'eatsandwiches'
p170
F0.010837542087500001
sS'HighQualityGifs'
p171
F0.0081622949520600008
sS'shittyama'
p172
F0.0081526608134700005
sS'circlebroke'
p173
F0.0086543356524700008
sS'zelda'
p174
F0.0075582104108300003
sS'TheWayWeWere'
p175
F0.011521518129400001
sS'badtattoos'
p176
F0.010402162339300001
sS'nonononoyes'
p177
F0.0076053735162399999
sS'Pizza'
p178
F0.0112833684983
sS'Whatcouldgowrong'
p179
F0.00849542334096
sS'notinteresting'
p180
F0.0084373555247299996
sS'forwardsfromgrandma'
p181
F0.0162042301569
sS'AnimalsBeingJerks'
p182
F0.0084499603908100001
sS'NASCAR'
p183
F0.0071018193424799998
sS'DunderMifflin'
p184
F0.0179211469534
sS'gratefuldead'
p185
F0.0072711719418300002
sS'oddlysatisfying'
p186
F0.0078653110784900008
sS'entertainment'
p187
F0.0088969041178199992
sS'HumanPorn'
p188
F0.0084092014733499997
sS'TimAndEric'
p189
F0.017157431022499999
sS'terriblefacebookmemes'
p190
F0.0122609122119
sS'TumblrInAction'
p191
F0.0074761972986699997
sS'HailCorporate'
p192
F0.0094681147312700008
sS'urbanexploration'
p193
F0.0076773738086800001
sS'AmericanHorrorStory'
p194
F0.0075859624246699996
s.