(dp1
S'breastfeeding'
p2
F0.0146429183079
sS'FancyFollicles'
p3
F0.021683621772800001
sS'Awwducational'
p4
F0.010164458656899999
sS'pettyrevenge'
p5
F0.0084634019195999992
sS'ABraThatFits'
p6
F0.024695751192100001
sS'actuallesbians'
p7
F0.00727629270307
sS'BuyItForLife'
p8
F0.0074043461790100004
sS'Pets'
p9
F0.014414088414500001
sS'entwives'
p10
F0.0073092291199699996
sS'RandomActsofMakeup'
p11
F0.011611146700800001
sS'TalesFromRetail'
p12
F0.0105275389263
sS'BabyBumps'
p13
F0.016978372165900001
sS'TheBluePill'
p14
F0.0076764288478900003
sS'harrypotter'
p15
F0.0138504155125
sS'booksuggestions'
p16
F0.0093157262905200003
sS'Anxiety'
p17
F0.0087685113016400008
sS'RandomActsOfPolish'
p18
F0.0083414581302100003
sS'childfree'
p19
F0.012433392539999999
sS'vegan'
p20
F0.0086497890295400004
sS'xxketo'
p21
F0.014863870493
sS'wedding'
p22
F0.010902342843900001
sS'makeupexchange'
p23
F0.0091616669369200005
sS'clothdiaps'
p24
F0.0087043856712399996
sS'homestead'
p25
F0.00944881889764
sS'Rabbits'
p26
F0.0105376509499
sS'creepyPMs'
p27
F0.0098653064964399993
sS'freebies'
p28
F0.0071321589044999996
sS'Paleo'
p29
F0.0097646870497800006
sS'gardening'
p30
F0.0183096473419
sS'BackYardChickens'
p31
F0.0088682858006700008
sS'AskWomen'
p32
F0.0121306139057
sS'tea'
p33
F0.0166552731341
sS'redditgetsdrawn'
p34
F0.0072086261206700001
sS'books'
p35
F0.00702331846556
sS'TwoXChromosomes'
p36
F0.0123020567024
sS'fatpeoplestories'
p37
F0.0083981059590800006
sS'LongDistance'
p38
F0.0074542310215300004
sS'Feminism'
p39
F0.0080741065281300008
sS'SkincareAddiction'
p40
F0.017858549780699999
sS'InteriorDesign'
p41
F0.0075980079172500003
sS'ExpectationVsReality'
p42
F0.0087577229920199999
sS'AskCulinary'
p43
F0.0109437751004
sS'foodhacks'
p44
F0.00778312776202
sS'lifehacks'
p45
F0.0073954844042300001
sS'disney'
p46
F0.0085334181374899995
sS'tattoos'
p47
F0.0081606166673200004
sS'AnimalCrossing'
p48
F0.0073160954099000001
sS'Frugal'
p49
F0.0124517860138
sS'LadyBoners'
p50
F0.016228213804899999
sS'doctorwho'
p51
F0.0106142527921
sS'whatsthisplant'
p52
F0.0093409444732699999
sS'keto'
p53
F0.0089285714285700004
sS'ThriftStoreHauls'
p54
F0.011739594450399999
sS'Breadit'
p55
F0.013775990416699999
sS'braswap'
p56
F0.0084651370015599997
sS'vegetarian'
p57
F0.010722956568700001
sS'piercing'
p58
F0.011028888572599999
sS'Hair'
p59
F0.00986012382481
sS'Sherlock'
p60
F0.0074578307222600004
sS'MakeupAddicts'
p61
F0.0122465531225
sS'whatsthisbug'
p62
F0.0076504149377600002
sS'weddingplanning'
p63
F0.0159528846704
sS'xxfitness'
p64
F0.023280869402300002
sS'Assistance'
p65
F0.0073590901488499996
sS'TrollXChromosomes'
p66
F0.018736241337100001
sS'RATS'
p67
F0.0080529706513999995
sS'femalefashionadvice'
p68
F0.0235081374322
sS'BeautyBoxes'
p69
F0.0116289717059
sS'whatisthisthing'
p70
F0.0089165618084799999
sS'CrossStitch'
p71
F0.028320778106200001
sS'loseit'
p72
F0.0132610589488
sS'EatCheapAndHealthy'
p73
F0.0151305194562
sS'cats'
p74
F0.0141420085698
sS'PenmanshipPorn'
p75
F0.0099323448970799998
sS'catpictures'
p76
F0.010489786260700001
sS'Indiemakeupandmore'
p77
F0.015004492362999999
sS'Cumberbitches'
p78
F0.00780702632369
sS'raisedbynarcissists'
p79
F0.012615332997800001
sS'dogs'
p80
F0.011038326517300001
sS'happy'
p81
F0.00995794161306
sS'TrollYChromosome'
p82
F0.011803541062299999
sS'MakeupAddiction'
p83
F0.019305774957000001
sS'ketorecipes'
p84
F0.0104323704999
sS'breakingmom'
p85
F0.0140633292057
sS'somethingimade'
p86
F0.017888267131500001
sS'namenerds'
p87
F0.0077488575402300001
sS'sailormoon'
p88
F0.0074334898278599999
sS'curlyhair'
p89
F0.0174334874555
sS'TheGirlSurvivalGuide'
p90
F0.022865412445699999
sS'Random_Acts_Of_Amazon'
p91
F0.0108775360548
sS'glutenfree'
p92
F0.0085477775778300003
sS'recipes'
p93
F0.013027034598699999
sS'fitmeals'
p94
F0.0088223499532100007
sS'TryingForABaby'
p95
F0.0087483845312699999
sS'gallifrey'
p96
F0.00722371967655
sS'C25K'
p97
F0.0120372473314
sS'nursing'
p98
F0.0074770201673799996
sS'Cooking'
p99
F0.013553383735899999
sS'buffy'
p100
F0.0071447472876400003
sS'Libraries'
p101
F0.0074105441456700002
sS'bigboobproblems'
p102
F0.018596642272900001
sS'TalesFromYourServer'
p103
F0.0096176680123500006
sS'Dogtraining'
p104
F0.0104919399666
sS'yoga'
p105
F0.0123754097264
sS'pitbulls'
p106
F0.0085470085470099998
sS'Parenting'
p107
F0.0136462719102
sS'badtattoos'
p108
F0.0073371283997499996
sS'popping'
p109
F0.0081838339044500007
sS'slowcooking'
p110
F0.0141777381344
sS'RedditLaqueristas'
p111
F0.026778014796000001
sS'firefly'
p112
F0.0077930878698900001
sS'Baking'
p113
F0.023122794207099999
sS'quilting'
p114
F0.020194131429199999
sS'RandomKindness'
p115
F0.0072260920512999998
sS'birthcontrol'
p116
F0.0085333833458399993
sS'sewing'
p117
F0.050448008433100003
sS'budgetfood'
p118
F0.0107228554289
sS'Mommit'
p119
F0.017412333736399999
sS'running'
p120
F0.0083212360016599995
sS'progresspics'
p121
F0.0089305375449599995
sS'crochet'
p122
F0.10473762481399999
sS'dogpictures'
p123
F0.0097191580704800006
sS'beyondthebump'
p124
F0.014308547073600001
sS'thesims'
p125
F0.0114205256571
sS'GirlGamers'
p126
F0.012258287292799999
sS'secretsanta'
p127
F0.0166957872258
sS'crafts'
p128
F0.0368377792722
sS'AsianBeauty'
p129
F0.0075599582898900003
s.