(dp1
S'minerapocalypse'
p2
F0.0079628400796299993
sS'CivcraftExchange'
p3
F0.00787965616046
sS'Civcraft'
p4
F0.022513791561100002
sS'hcfactions'
p5
F0.20853634769099999
sS'ShotBow'
p6
F0.081026875250700001
s.