(dp1
S'ShingekiNoKyojin'
p2
F0.0073452898328899997
sS'kpics'
p3
F0.13288177339900001
sS'japan'
p4
F0.0106966243819
sS'Korean'
p5
F0.044498560991800003
sS'femalefashionadvice'
p6
F0.0073679743856800003
sS'starcraft'
p7
F0.0096158106970399993
sS'SNSD'
p8
F0.13527974875000001
sS'languagelearning'
p9
F0.0072624967286099998
sS'SkincareAddiction'
p10
F0.0081932662416400008
sS'LearnJapanese'
p11
F0.00795479889971
sS'China'
p12
F0.0086027884900599996
sS'Maplestory'
p13
F0.0070830650354199998
sS'AsianHotties'
p14
F0.0096093958537200007
sS'AsianLadyboners'
p15
F0.015681544028999999
sS'korea'
p16
F0.047131147541
sS'KDRAMA'
p17
F0.073467361628200001
sS'sailormoon'
p18
F0.0080131497842599996
sS'asianamerican'
p19
F0.0111675126904
sS'HongKong'
p20
F0.0070773976953099997
sS'anime'
p21
F0.0098348420647099994
sS'AsianBeauty'
p22
F0.024441984873600001
sS'manga'
p23
F0.0116666666667
s.