(dp1
S'FancyFollicles'
p2
F0.014129020264
sS'DoesAnybodyElse'
p3
F0.0085277100175399998
sS'GWCouples'
p4
F0.018881317433300002
sS'TheGirlSurvivalGuide'
p5
F0.0094566436929000002
sS'uglyduckling'
p6
F0.00802472212531
sS'milf'
p7
F0.0078983138018399995
sS'nsfw'
p8
F0.0079941096034499993
sS'gaybrosgonemild'
p9
F0.029347349978099999
sS'relationships'
p10
F0.0079574972337100001
sS'TalesFromRetail'
p11
F0.0077649569272099997
sS'BDSMGW'
p12
F0.0095108695652199992
sS'Amateur'
p13
F0.0076669414674399999
sS'harrypotter'
p14
F0.0074796163608200003
sS'pettyrevenge'
p15
F0.0073289293281800002
sS'BigBoobsGW'
p16
F0.0133835215391
sS'offmychest'
p17
F0.0106795320679
sS'bigboobproblems'
p18
F0.0085991244527800006
sS'childfree'
p19
F0.0090757639804100003
sS'NSFW_GIF'
p20
F0.0101066216534
sS'BDSMcommunity'
p21
F0.011024118070599999
sS'twinks'
p22
F0.020200847506799999
sS'altgonewild'
p23
F0.0088898077320699997
sS'rupaulsdragrace'
p24
F0.0093444909344500005
sS'cringepics'
p25
F0.00772566072257
sS'beards'
p26
F0.012395879540600001
sS'AsiansGoneWild'
p27
F0.0104026845638
sS'gonewildstories'
p28
F0.0131885182312
sS'creepyPMs'
p29
F0.013307367737700001
sS'askgaybros'
p30
F0.0232077764277
sS'gaymersgonewild'
p31
F0.037617196432699999
sS'polyamory'
p32
F0.0072734054457299999
sS'AskWomen'
p33
F0.0148996400322
sS'redditgetsdrawn'
p34
F0.0071629699155299998
sS'sex'
p35
F0.016243507319000001
sS'tumblr'
p36
F0.0072463768115899998
sS'AmISexy'
p37
F0.012499529385199999
sS'TwoXChromosomes'
p38
F0.0089980492229300001
sS'fatpeoplestories'
p39
F0.0074494242520100002
sS'gaybears'
p40
F0.0139486225735
sS'depression'
p41
F0.0070454431080499997
sS'femalefashionadvice'
p42
F0.00821367369852
sS'AmericanHorrorStory'
p43
F0.0087233618801000005
sS'Hotwife'
p44
F0.0082925173367000005
sS'AsianLadyboners'
p45
F0.015262930235400001
sS'tattoos'
p46
F0.010171996082399999
sS'facepalm'
p47
F0.0074439261473100002
sS'OkCupid'
p48
F0.0092816075037799994
sS'lgbt'
p49
F0.013733521495199999
sS'LadyBoners'
p50
F0.046554879848899999
sS'gaybros'
p51
F0.033213745165099999
sS'ainbow'
p52
F0.010370169980600001
sS'TributeMe'
p53
F0.0082111760167499995
sS'SkincareAddiction'
p54
F0.0101056399511
sS'GoneWildPlus'
p55
F0.018625013913100001
sS'piercing'
p56
F0.0088672237697300007
sS'relationship_advice'
p57
F0.0076009673958499996
sS'BeardPorn'
p58
F0.025119028074199998
sS'amiugly'
p59
F0.0123218584037
sS'bigdickproblems'
p60
F0.0159803838674
sS'xxfitness'
p61
F0.0083782577344400002
sS'confession'
p62
F0.010148454611800001
sS'BBWGW'
p63
F0.0081775700934600005
sS'TrollXChromosomes'
p64
F0.0155091618669
sS'DirtySnapchat'
p65
F0.0105782514308
sS'gonewildcurvy'
p66
F0.0259026332459
sS'gonewildaudio'
p67
F0.017080597582999998
sS'loseit'
p68
F0.0098518843415800004
sS'MorbidReality'
p69
F0.0088926858629599995
sS'cats'
p70
F0.0113614356723
sS'firstimpression'
p71
F0.00744730087937
sS'raisedbynarcissists'
p72
F0.0078590713464700007
sS'asstastic'
p73
F0.0160892074871
sS'fatlogic'
p74
F0.00736908462492
sS'TrollYChromosome'
p75
F0.0098613587569600005
sS'bdsm'
p76
F0.0089699215131899997
sS'gay'
p77
F0.015395141977400001
sS'MakeupAddiction'
p78
F0.0157984466755
sS'dirtykikpals'
p79
F0.0145342886387
sS'treesgonewild'
p80
F0.0118649982551
sS'nsfw_gifs'
p81
F0.00706223400975
sS'Rateme'
p82
F0.016669189025599999
sS'r4r'
p83
F0.013744446072
sS'penis'
p84
F0.061656365883800003
sS'AskMen'
p85
F0.010221447715700001
sS'blunderyears'
p86
F0.0093586653729400004
sS'gonewild'
p87
F0.021465329088300001
sS'FoodPorn'
p88
F0.0075158078073499996
sS'bisexual'
p89
F0.0110636645963
sS'RandomActsOfBlowJob'
p90
F0.0129150446531
sS'wifesharing'
p91
F0.0099948383463900007
sS'gaymers'
p92
F0.019617844391300002
sS'RealGirls'
p93
F0.0095306531523000008
sS'GoneMild'
p94
F0.023800710690000001
sS'popping'
p95
F0.0109391509727
sS'RedditLaqueristas'
p96
F0.011611127890199999
sS'workgonewild'
p97
F0.0080465394443499996
sS'progresspics'
p98
F0.012543090916600001
sS'MassiveCock'
p99
F0.080958749099900001
sS'GaybrosGoneWild'
p100
F0.071814903846199998
sS'dirtypenpals'
p101
F0.0151634069004
sS'tall'
p102
F0.0073097463284399998
sS'ImGoingToHellForThis'
p103
F0.0070629926070799997
sS'shittyfoodporn'
p104
F0.0074438065583300001
sS'GWNerdy'
p105
F0.0109230994295
s.