(dp1
S'linguistics'
p2
F0.0178424697734
sS'grammar'
p3
F0.010202153788000001
sS'badhistory'
p4
F0.0094209802053600005
sS'AskHistorians'
p5
F0.0079598190683200006
sS'badlinguistics'
p6
F0.0211678832117
sS'Catholicism'
p7
F0.0088821215581800003
sS'French'
p8
F0.0085561497326200001
sS'duolingo'
p9
F0.011031255223100001
sS'translator'
p10
F0.0097370983446900001
sS'conlangs'
p11
F0.017215791035899999
sS'askphilosophy'
p12
F0.0080957409362899992
sS'languagelearning'
p13
F0.013745359687000001
sS'vexillology'
p14
F0.0074366939659199997
s.