(dp1
S'exmormon'
p2
F0.061950257810100003
sS'Judaism'
p3
F0.0095632770162600005
sS'mormon'
p4
F0.184181415929
sS'DebateAChristian'
p5
F0.0079113924050599992
sS'Conservative'
p6
F0.0075187969924800004
sS'DebateReligion'
p7
F0.010491177873199999
sS'religion'
p8
F0.0134556574924
sS'SaltLakeCity'
p9
F0.031450936539000003
sS'Christianity'
p10
F0.0088175236680900007
sS'exjw'
p11
F0.0099115044247799992
s.