(dp1
S'HouseOfCards'
p2
F0.0075726920631300002
sS'AskSocialScience'
p3
F0.00702058088094
sS'frugalmalefashion'
p4
F0.0070078377132299996
sS'legaladvice'
p5
F0.0122124396478
sS'Economics'
p6
F0.00800964602532
sS'CFB'
p7
F0.0085494066579700004
sS'washingtondc'
p8
F0.0089918613809400003
sS'Conservative'
p9
F0.0072964023124000004
sS'PoliticalDiscussion'
p10
F0.0082026104658100008
sS'Libertarian'
p11
F0.0079149058090399998
sS'nyc'
p12
F0.0078897786151700001
sS'law'
p13
F0.108140389563
sS'CollegeBasketball'
p14
F0.0088371233129999997
s.