(dp1
S'tennis'
p2
F0.00709734656021
sS'losangeleskings'
p3
F0.0150089338892
sS'CalgaryFlames'
p4
F0.0148514851485
sS'devils'
p5
F0.0126339969372
sS'nhl'
p6
F0.042125138355400001
sS'TheSimpsons'
p7
F0.0080848005749200001
sS'buffalobills'
p8
F0.0103691414351
sS'SanJoseSharks'
p9
F0.011382304623299999
sS'UofT'
p10
F0.010685884691800001
sS'nba'
p11
F0.0076770136702200001
sS'PersonalFinanceCanada'
p12
F0.0118371667789
sS'canada'
p13
F0.032354129884500003
sS'ontario'
p14
F0.034892432837399998
sS'CanadianForces'
p15
F0.0070988481114400001
sS'stlouisblues'
p16
F0.022896521062600001
sS'hawks'
p17
F0.0149079216603
sS'Habs'
p18
F0.025401069518700001
sS'rangers'
p19
F0.0159216166565
sS'Torontobluejays'
p20
F0.092163686547499998
sS'hockey'
p21
F0.052438688743100002
sS'trailerparkboys'
p22
F0.0084930313588899992
sS'EA_NHL'
p23
F0.039656816015300002
sS'DetroitRedWings'
p24
F0.0224032586558
sS'canucks'
p25
F0.024668141592900001
sS'hockeyplayers'
p26
F0.022908593571900001
sS'ColoradoAvalanche'
p27
F0.015274034141999999
sS'caps'
p28
F0.0095424836601300002
sS'torontoraptors'
p29
F0.068551936619699994
sS'MLS'
p30
F0.0073308369811699997
sS'baseball'
p31
F0.012704892424999999
sS'halifax'
p32
F0.0091371612501299996
sS'Flyers'
p33
F0.0133779264214
sS'londonontario'
p34
F0.0099797707350000008
sS'uwaterloo'
p35
F0.010007871359500001
sS'CanadaPolitics'
p36
F0.017148014440400001
sS'toronto'
p37
F0.054621848739499997
sS'wildhockey'
p38
F0.0100025322867
sS'BostonBruins'
p39
F0.018132090761800002
sS'ottawa'
p40
F0.0127145581691
sS'penguins'
p41
F0.0129003055336
sS'NHLHUT'
p42
F0.015171744143700001
sS'OttawaSenators'
p43
F0.022055704792900001
s.