(dp1
S'FiftyFifty'
p2
F0.0075422764442799996
sS'TeamRedditTeams'
p3
F0.0136934808291
sS'LeagueofLegendsMeta'
p4
F0.036651583710399997
sS'dawngate'
p5
F0.0087644088787299998
sS'summonerschool'
p6
F0.0312366052293
sS'montageparodies'
p7
F0.00850443445511
sS'blackpeoplegifs'
p8
F0.0073268730796500004
sS'cosplay'
p9
F0.0070235135017200001
sS'GifSound'
p10
F0.0087918321043699999
sS'leagueoflegends'
p11
F0.0100940895803
s.