(dp1
S'summonerschool'
p2
F0.086269123033799994
sS'TeamRedditTeams'
p3
F0.024279285961499999
sS'truegaming'
p4
F0.010595605855000001
sS'heroesofthestorm'
p5
F0.0096145772105099992
sS'learndota2'
p6
F0.0073195355880899997
sS'ShouldIbuythisgame'
p7
F0.0072905746688300003
sS'dawngate'
p8
F0.0130441871841
sS'leagueoflegends'
p9
F0.0159597427646
sS'whowouldwin'
p10
F0.0083438952260200001
sS'anime'
p11
F0.0070634259426999996
sS'hearthstone'
p12
F0.011071896168999999
sS'pathofexile'
p13
F0.0074263248093000001
sS'LeagueOfMemes'
p14
F0.036651583710399997
sS'Games'
p15
F0.0071070657637400001
sS'starcraft'
p16
F0.0074860335195499998
s.