(dp1
S'Paleo'
p2
F0.0211136272812
sS'JoeRogan'
p3
F0.0074777348344799996
sS'steroids'
p4
F0.022306981044800001
sS'malehairadvice'
p5
F0.0073857780831300002
sS'BuyItForLife'
p6
F0.0071041683020600004
sS'Health'
p7
F0.0079184087165800002
sS'everymanshouldknow'
p8
F0.0081324639167699997
sS'bodybuilding'
p9
F0.035822550831799999
sS'EatCheapAndHealthy'
p10
F0.0084062446388700005
sS'financialindependence'
p11
F0.0094015548725399998
sS'hardbodies'
p12
F0.0119554536521
sS'loseit'
p13
F0.0099656072597700002
sS'yoga'
p14
F0.0076835763555400003
sS'crossfit'
p15
F0.0153290529695
sS'weightroom'
p16
F0.0530591081922
sS'investing'
p17
F0.0078742963015699993
sS'selfimprovement'
p18
F0.0071041541240199997
sS'seduction'
p19
F0.011152287604299999
sS'socialskills'
p20
F0.0075889652343300003
sS'malefashionadvice'
p21
F0.0072924579489999997
sS'swoleacceptance'
p22
F0.027115940584199999
sS'slowcooking'
p23
F0.0078343592613300001
sS'ketorecipes'
p24
F0.010672604422600001
sS'xxfitness'
p25
F0.0113031914894
sS'getdisciplined'
p26
F0.011139992573300001
sS'fatlogic'
p27
F0.0080986721611700004
sS'ketogains'
p28
F0.041770655457800003
sS'asktrp'
p29
F0.0086452593577800007
sS'malelivingspace'
p30
F0.0090073184462400001
sS'Supplements'
p31
F0.0403841094449
sS'weightlifting'
p32
F0.021658159746200001
sS'progresspics'
p33
F0.011772611208199999
sS'Fitness'
p34
F0.0152352558474
sS'Nootropics'
p35
F0.015975498716999999
sS'bodyweightfitness'
p36
F0.0268131348925
sS'frugalmalefashion'
p37
F0.0096695696721300003
sS'keto'
p38
F0.0133619401972
sS'fitnesscirclejerk'
p39
F0.0182182546912
sS'powerlifting'
p40
F0.031792975970399998
sS'fitmeals'
p41
F0.041002896451799997
sS'TheRedPill'
p42
F0.0091629955947100002
sS'productivity'
p43
F0.0091307956836199997
sS'Entrepreneur'
p44
F0.0074582056062999997
sS'howtonotgiveafuck'
p45
F0.0072204320324599997
sS'Meditation'
p46
F0.0083976535967900008
sS'gainit'
p47
F0.032692065887099997
sS'nutrition'
p48
F0.026412454084299999
sS'malegrooming'
p49
F0.0109406843291
s.