(dp1
S'ICanDrawThat'
p2
F0.014906712829400001
sS'photoshop'
p3
F0.012570173297500001
sS'Heavymind'
p4
F0.0097797189517699994
sS'redditgetsdrawn'
p5
F0.015625551126899999
sS'stencils'
p6
F0.0093749999999999997
sS'design_critiques'
p7
F0.0090483287204600003
sS'socialskills'
p8
F0.0071853718698100004
sS'blender'
p9
F0.011234452320400001
sS'ImaginaryLandscapes'
p10
F0.012342631449
sS'writing'
p11
F0.00756480516424
sS'LearnUselessTalents'
p12
F0.0073318457124599999
sS'animation'
p13
F0.0175394637935
sS'PenmanshipPorn'
p14
F0.0070422535211300003
sS'alternativeart'
p15
F0.011856642414399999
sS'ImaginaryMonsters'
p16
F0.0149717200843
sS'Calligraphy'
p17
F0.0072968490878900002
sS'getdisciplined'
p18
F0.0079484005472699997
sS'PixelArt'
p19
F0.010890024200100001
sS'delusionalartists'
p20
F0.011417145068700001
sS'somethingimade'
p21
F0.0081300813008099992
sS'IndieGaming'
p22
F0.0071224123011399999
sS'worldbuilding'
p23
F0.0087874760005899992
sS'webcomics'
p24
F0.0074795203609200004
sS'IWantToLearn'
p25
F0.0095020509891499995
sS'Art'
p26
F0.0120046580128
sS'IDAP'
p27
F0.035708642755599998
sS'SketchDaily'
p28
F0.044689119170999998
sS'typography'
p29
F0.0096350364963500006
sS'ArtistLounge'
p30
F0.0308096489133
sS'graphic_design'
p31
F0.0121084125308
sS'findareddit'
p32
F0.0073572938689200002
sS'Design'
p33
F0.010488582049900001
sS'crafts'
p34
F0.0091094202122000006
sS'painting'
p35
F0.040417879773900003
sS'drawing'
p36
F0.049655672345100002
sS'AnimeSketch'
p37
F0.018094615216899999
s.