(dp1
S'TrueAtheism'
p2
F0.0072412090624799997
sS'NoStupidQuestions'
p3
F0.0079508492952700006
sS'TrueReddit'
p4
F0.0075472574427599996
sS'linux4noobs'
p5
F0.0094952951240399996
sS'EngineeringStudents'
p6
F0.019068023567199999
sS'linuxquestions'
p7
F0.0081300813008099992
sS'TrueAskReddit'
p8
F0.0074534161490700003
sS'vim'
p9
F0.0078273746562300007
sS'engineering'
p10
F0.010259254124499999
sS'haskell'
p11
F0.0087492989343799996
sS'college'
p12
F0.0101662963711
sS'changemyview'
p13
F0.0094079764121699997
sS'dataisbeautiful'
p14
F0.0073833809909900003
sS'askphilosophy'
p15
F0.0112749349523
sS'Foodforthought'
p16
F0.0081282328198699991
sS'education'
p17
F0.0080652080652099997
sS'cheatatmathhomework'
p18
F0.090342124019999998
sS'philosophy'
p19
F0.0086757555534400007
sS'linguistics'
p20
F0.0080456178722100001
sS'ECE'
p21
F0.0089432565789499992
sS'statistics'
p22
F0.0155569383945
sS'languagelearning'
p23
F0.0079437609841800007
sS'AskHistorians'
p24
F0.0075005226845099998
sS'arduino'
p25
F0.0071477195371000002
sS'skeptic'
p26
F0.0076940587298000001
sS'javahelp'
p27
F0.0120906209649
sS'self'
p28
F0.0071079395403700002
sS'HomeworkHelp'
p29
F0.029450856942999998
sS'wikipedia'
p30
F0.0082860880942000007
sS'socialskills'
p31
F0.0074755072665599999
sS'compsci'
p32
F0.021411092985300001
sS'gamedev'
p33
F0.0071091621819099997
sS'chess'
p34
F0.0091040133525500007
sS'Ubuntu'
p35
F0.00713982751308
sS'electronics'
p36
F0.0081948725659700006
sS'Astronomy'
p37
F0.0088637273403100007
sS'math'
p38
F0.075618558942499997
sS'SuggestALaptop'
p39
F0.0071421335224400003
sS'getdisciplined'
p40
F0.0076176905792699999
sS'biology'
p41
F0.0079930242697300001
sS'AskAcademia'
p42
F0.0089157614265199994
sS'YouShouldKnow'
p43
F0.0079923685770999994
sS'askscience'
p44
F0.011146906427199999
sS'cscareerquestions'
p45
F0.013190153966900001
sS'Economics'
p46
F0.0087018069780999997
sS'AskElectronics'
p47
F0.0082651458798199996
sS'answers'
p48
F0.0077358122602900004
sS'GradSchool'
p49
F0.0070378619153699997
sS'shittyaskscience'
p50
F0.0072876978546000002
sS'java'
p51
F0.0095713350785300005
sS'learnpython'
p52
F0.015690625247599999
sS'Physics'
p53
F0.026075077215499998
sS'ProgrammerHumor'
p54
F0.0114523935023
sS'linux'
p55
F0.0087719298245599996
sS'IWantToLearn'
p56
F0.010897088080999999
sS'chemistry'
p57
F0.0105629182522
sS'grammar'
p58
F0.0098018549747
sS'TheoryOfReddit'
p59
F0.0071650796643700004
sS'MachineLearning'
p60
F0.0097482592394199999
sS'AskSocialScience'
p61
F0.00812572551121
sS'programming'
p62
F0.0104692502603
sS'crypto'
p63
F0.0070826718769099999
sS'Python'
p64
F0.0097294731846200005
sS'AskScienceDiscussion'
p65
F0.0110383901534
sS'techsupport'
p66
F0.0075969439238900002
sS'AskPhysics'
p67
F0.030118480788400001
sS'findareddit'
p68
F0.0084336529959900004
sS'AskEngineers'
p69
F0.0109862356358
sS'learnprogramming'
p70
F0.0207984641134
s.