(dp1
S'FancyFollicles'
p2
F0.0158002374984
sS'awwwtf'
p3
F0.0116031010979
sS'LifeProTips'
p4
F0.0097922261844800001
sS'talesfromcallcenters'
p5
F0.0073281080736599998
sS'pettyrevenge'
p6
F0.030259211653800001
sS'ABraThatFits'
p7
F0.0072576987046999997
sS'PublicFreakout'
p8
F0.0148053561568
sS'Shitty_Car_Mods'
p9
F0.0070307258822000004
sS'fffffffuuuuuuuuuuuu'
p10
F0.0091068826605000004
sS'uglyduckling'
p11
F0.0095495694413799993
sS'dadjokes'
p12
F0.0125938211565
sS'DeepIntoYouTube'
p13
F0.0120712048285
sS'everymanshouldknow'
p14
F0.0090179258770499999
sS'Pets'
p15
F0.0095971884293100003
sS'InternetIsBeautiful'
p16
F0.0084224343022800009
sS'breakingbad'
p17
F0.0087781563505599999
sS'RandomActsofMakeup'
p18
F0.0080779019586100006
sS'relationships'
p19
F0.0136536273457
sS'TalesFromRetail'
p20
F0.0330743805133
sS'creepy'
p21
F0.019701288541599998
sS'AskMen'
p22
F0.010910490296000001
sS'AnimalsBeingJerks'
p23
F0.0126903553299
sS'TheBluePill'
p24
F0.0150768199876
sS'quityourbullshit'
p25
F0.023020285499600002
sS'Advice'
p26
F0.0098834926037399996
sS'DoesAnybodyElse'
p27
F0.0139577052015
sS'LearnUselessTalents'
p28
F0.0093724372241999997
sS'ProtectAndServe'
p29
F0.0079203352685599995
sS'writing'
p30
F0.0082900771052799999
sS'HistoryPorn'
p31
F0.010150597962500001
sS'booksuggestions'
p32
F0.0070401211203599996
sS'whowouldwin'
p33
F0.0083378402740200003
sS'GrandTheftAutoV'
p34
F0.0072115859561800002
sS'Fallout'
p35
F0.0077935985404399997
sS'4chan'
p36
F0.0103098081944
sS'adventuretime'
p37
F0.0074691726872700001
sS'Gore'
p38
F0.00990099009901
sS'MensRights'
p39
F0.0092993025523100004
sS'nononono'
p40
F0.0103987328696
sS'offmychest'
p41
F0.023087183218100001
sS'Anxiety'
p42
F0.0130037337453
sS'YouShouldKnow'
p43
F0.0124173273181
sS'childfree'
p44
F0.017722652341100001
sS'popping'
p45
F0.0133143443845
sS'AnimalCrossing'
p46
F0.0071352961931999996
sS'food'
p47
F0.0075850293882099998
sS'horror'
p48
F0.0153672068915
sS'UnresolvedMysteries'
p49
F0.029311211664200001
sS'UpliftingNews'
p50
F0.0107281003569
sS'AbandonedPorn'
p51
F0.0127330479216
sS'Jokes'
p52
F0.0079637228999200008
sS'tipofmytongue'
p53
F0.0125363464776
sS'NoStupidQuestions'
p54
F0.013758146270799999
sS'cringepics'
p55
F0.0175270077293
sS'PrettyGirlsUglyFaces'
p56
F0.0089954242928499996
sS'OkCupid'
p57
F0.0099157366413000006
sS'photoshopbattles'
p58
F0.0087195905794499994
sS'IWantToLearn'
p59
F0.0078263841421700002
sS'Art'
p60
F0.0070641012569699997
sS'creepyPMs'
p61
F0.039843960182899998
sS'WTF'
p62
F0.0082690881152999995
sS'IdiotsFightingThings'
p63
F0.010097323601
sS'penpals'
p64
F0.0076170819204899997
sS'techsupportgore'
p65
F0.0076831980589800002
sS'freebies'
p66
F0.010726023304499999
sS'CrappyDesign'
p67
F0.0120919798093
sS'thatHappened'
p68
F0.021291900446
sS'Frisson'
p69
F0.0103942197997
sS'history'
p70
F0.0074080274557399997
sS'SubredditDrama'
p71
F0.0156215880268
sS'minimalism'
p72
F0.0070286745039500002
sS'cringe'
p73
F0.016129890870399999
sS'mildlyinteresting'
p74
F0.0083210307341299999
sS'whatisthisthing'
p75
F0.013660245183900001
sS'AskWomen'
p76
F0.016685165956499999
sS'NetflixBestOf'
p77
F0.0090451110602200006
sS'Rateme'
p78
F0.0095607003716799994
sS'Christianity'
p79
F0.0074574527772600001
sS'tumblr'
p80
F0.0087316176470599999
sS'interestingasfuck'
p81
F0.0114554855581
sS'books'
p82
F0.0091565182773100003
sS'changemyview'
p83
F0.0115569384371
sS'TwoXChromosomes'
p84
F0.0128665425929
sS'fatpeoplestories'
p85
F0.026650010410200001
sS'watchpeopledie'
p86
F0.0130639037261
sS'amiugly'
p87
F0.0141829883596
sS'tifu'
p88
F0.0151177419439
sS'Feminism'
p89
F0.0081795789375799996
sS'firstworldanarchists'
p90
F0.0106220554877
sS'offbeat'
p91
F0.010917243396
sS'femalefashionadvice'
p92
F0.010961055276399999
sS'cosplay'
p93
F0.0077794852093699997
sS'psychology'
p94
F0.0071587372165400004
sS'Glitch_in_the_Matrix'
p95
F0.040401074005699998
sS'skeptic'
p96
F0.0074701366656300004
sS'shittyfoodporn'
p97
F0.0125416773532
sS'Showerthoughts'
p98
F0.0091963876487500002
sS'ExpectationVsReality'
p99
F0.0130222463375
sS'socialskills'
p100
F0.0090651359770399995
sS'firstworldproblems'
p101
F0.00922023182297
sS'outside'
p102
F0.010546795003100001
sS'RoomPorn'
p103
F0.0071421142044900002
sS'foodhacks'
p104
F0.0072407800733699998
sS'lifehacks'
p105
F0.010120472548199999
sS'needadvice'
p106
F0.0083814793717999995
sS'tattoos'
p107
F0.0088721697778399999
sS'bestof'
p108
F0.011337953894799999
sS'DeadBedrooms'
p109
F0.0081066226985399992
sS'LucidDreaming'
p110
F0.0100250626566
sS'casualiama'
p111
F0.016680633073500001
sS'FloridaMan'
p112
F0.0137019134742
sS'legaladvice'
p113
F0.0092675827233400006
sS'loseit'
p114
F0.012055139158199999
sS'Random_Acts_Of_Pizza'
p115
F0.0075528700906299998
sS'delusionalartists'
p116
F0.018850738584599999
sS'nostalgia'
p117
F0.010726300115799999
sS'lgbt'
p118
F0.0087986215492900002
sS'promos'
p119
F0.0099048510372799995
sS'LadyBoners'
p120
F0.0133946119191
sS'shittyaskscience'
p121
F0.0093725592293699995
sS'news'
p122
F0.0075680536079400004
sS'doctorwho'
p123
F0.0073989531268400001
sS'lewronggeneration'
p124
F0.0133982947625
sS'bigboobproblems'
p125
F0.0080444470166099995
sS'WritingPrompts'
p126
F0.010203043102100001
sS'ThriftStoreHauls'
p127
F0.0092679231831799998
sS'Frugal'
p128
F0.0105805716358
sS'recipes'
p129
F0.0073847062733100001
sS'TalesFromThePizzaGuy'
p130
F0.0134228187919
sS'relationship_advice'
p131
F0.0121704237882
sS'Paranormal'
p132
F0.0371942934783
sS'Hair'
p133
F0.0077731317679899997
sS'nosleep'
p134
F0.0380720778185
sS'howtonotgiveafuck'
p135
F0.011371574943700001
sS'wheredidthesodago'
p136
F0.0120944295848
sS'AnimalsBeingBros'
p137
F0.010638297872299999
sS'classic4chan'
p138
F0.0091454272863599993
sS'Documentaries'
p139
F0.0075301472285900003
sS'thewalkingdead'
p140
F0.0095366999595499994
sS'ANormalDayInRussia'
p141
F0.0091926112219199996
sS'Whatcouldgowrong'
p142
F0.0120948454548
sS'whatsthisbug'
p143
F0.0094306671323799995
sS'TrueReddit'
p144
F0.0091689972033600006
sS'drunk'
p145
F0.00880352140856
sS'todayilearned'
p146
F0.0073005852796600001
sS'xxfitness'
p147
F0.0086406588962000003
sS'Assistance'
p148
F0.0093441993429200006
sS'confession'
p149
F0.023590274185199999
sS'reactiongifs'
p150
F0.0084424474321599993
sS'findareddit'
p151
F0.010166528659500001
sS'NotTimAndEric'
p152
F0.0074994248907300004
sS'rant'
p153
F0.012756088133
sS'conspiratard'
p154
F0.0113474631688
sS'RandomKindness'
p155
F0.0084279078676399999
sS'MMFB'
p156
F0.0078327444051799998
sS'EarthPorn'
p157
F0.0071290820849799997
sS'TrollXChromosomes'
p158
F0.014140541184899999
sS'holdmybeer'
p159
F0.0092853891670500004
sS'introvert'
p160
F0.0079988365328700003
sS'ContagiousLaughter'
p161
F0.0086520768899500007
sS'harrypotter'
p162
F0.0105245809004
sS'ainbow'
p163
F0.0070831283816999999
sS'Damnthatsinteresting'
p164
F0.0086780901890200005
sS'FiftyFifty'
p165
F0.012485292195100001
sS'CrazyIdeas'
p166
F0.011831378007600001
sS'OldSchoolCool'
p167
F0.0093847548081800007
sS'AskHistorians'
p168
F0.0078095700324299997
sS'Drugs'
p169
F0.0089529590288300008
sS'Bad_Cop_No_Donut'
p170
F0.0112227969162
sS'OutOfTheLoop'
p171
F0.017079647708399998
sS'EatCheapAndHealthy'
p172
F0.0107593371259
sS'MorbidReality'
p173
F0.0251649657773
sS'cats'
p174
F0.012891927952000001
sS'PenmanshipPorn'
p175
F0.0085958800363499996
sS'misleadingthumbnails'
p176
F0.0102756339581
sS'shittyadvice'
p177
F0.0072381141242399997
sS'raisedbynarcissists'
p178
F0.026518195385099998
sS'explainlikeimfive'
p179
F0.0083364157997500004
sS'Pareidolia'
p180
F0.0092177698117999994
sS'dogs'
p181
F0.0115570307785
sS'woahdude'
p182
F0.0092064420717300009
sS'fatlogic'
p183
F0.017295885641
sS'TrollYChromosome'
p184
F0.0087523932325200005
sS'explainlikeIAmA'
p185
F0.0081619015798800008
sS'firstimpression'
p186
F0.0080611917739199998
sS'MakeupAddiction'
p187
F0.016088948717299999
sS'shortscarystories'
p188
F0.025717111770500001
sS'snackexchange'
p189
F0.0072766245487400003
sS'mildlyinfuriating'
p190
F0.013185164984999999
sS'somethingimade'
p191
F0.0092646417671899996
sS'Unexpected'
p192
F0.013362706165399999
sS'redditgetsdrawn'
p193
F0.0099063962558500005
sS'Awwducational'
p194
F0.0103303094752
sS'TheGirlSurvivalGuide'
p195
F0.0108223226704
sS'UFOs'
p196
F0.0074343802154499998
sS'ghettoglamourshots'
p197
F0.0114276516981
sS'blunderyears'
p198
F0.019301254245299999
sS'Random_Acts_Of_Amazon'
p199
F0.0090283160822600007
sS'television'
p200
F0.0077802139392699997
sS'confessions'
p201
F0.0132116517218
sS'rage'
p202
F0.020794704627500001
sS'comics'
p203
F0.0080908566915000001
sS'science'
p204
F0.0081010946835900002
sS'AMA'
p205
F0.010973706327299999
sS'sex'
p206
F0.010363187614
sS'TheRedPill'
p207
F0.0073523535523099997
sS'PerfectTiming'
p208
F0.0101361728269
sS'behindthegifs'
p209
F0.00895004952597
sS'standupshots'
p210
F0.0087648715443400006
sS'skyrim'
p211
F0.0084791055771399997
sS'Needafriend'
p212
F0.0073991485911199997
sS'happy'
p213
F0.010186678958299999
sS'AmISexy'
p214
F0.0070612920146900003
sS'ICanDrawThat'
p215
F0.0070887313615300004
sS'fullmoviesonyoutube'
p216
F0.0088191382243700007
sS'AskScienceFiction'
p217
F0.0071568479734799998
sS'NewsOfTheStupid'
p218
F0.0076422472983499997
sS'FoodPorn'
p219
F0.0091104071151699995
sS'Cooking'
p220
F0.0081368620191599999
sS'teenagers'
p221
F0.0082381404465100005
sS'TrueAskReddit'
p222
F0.0080252354223700004
sS'FanTheories'
p223
F0.0117665177884
sS'oddlysatisfying'
p224
F0.0116482418337
sS'conspiracy'
p225
F0.010709822346699999
sS'TheWayWeWere'
p226
F0.0083416750083400003
sS'DIY'
p227
F0.0075001378701799997
sS'TalesFromYourServer'
p228
F0.0181613339342
sS'ShitRedditSays'
p229
F0.0084827453248499992
sS'SkincareAddiction'
p230
F0.0139247742083
sS'southpark'
p231
F0.0074572673444300002
sS'asmr'
p232
F0.0071412956350699998
sS'ForeverAlone'
p233
F0.0096335871440000002
sS'MURICA'
p234
F0.0080451302729500004
sS'bestofworldstar'
p235
F0.00719814623083
sS'self'
p236
F0.0140383163458
sS'shittyama'
p237
F0.0084904728995999993
sS'circlebroke'
p238
F0.0078947368421099992
sS'Parenting'
p239
F0.0111258887923
sS'badtattoos'
p240
F0.0138555068571
sS'depression'
p241
F0.011754871741300001
sS'britishproblems'
p242
F0.0077531729594799998
sS'RedditLaqueristas'
p243
F0.012635508651000001
sS'nottheonion'
p244
F0.0101100467105
sS'itookapicture'
p245
F0.0077449837026400004
sS'nonononoyes'
p246
F0.010392267722
sS'Dreams'
p247
F0.0095870632399700003
sS'talesfromtechsupport'
p248
F0.012424166069000001
sS'JusticePorn'
p249
F0.015356273106999999
sS'Baking'
p250
F0.0076016552716800002
sS'notinteresting'
p251
F0.010028284906100001
sS'facepalm'
p252
F0.016654598117299999
sS'forwardsfromgrandma'
p253
F0.015047468948200001
sS'aww'
p254
F0.0084776900535000008
sS'SuicideWatch'
p255
F0.0120120945574
sS'BabyBumps'
p256
F0.0071554912365300004
sS'actuallesbians'
p257
F0.0081111468037300006
sS'progresspics'
p258
F0.0099870578084599992
sS'dogpictures'
p259
F0.0082374535523999995
sS'thesims'
p260
F0.011048605771199999
sS'Thetruthishere'
p261
F0.040249398111
sS'urbanexploration'
p262
F0.0096573361439300006
sS'GirlGamers'
p263
F0.0093197456667499998
sS'dating_advice'
p264
F0.0071167815922400001
sS'HumanPorn'
p265
F0.0092028460653599993
sS'GetMotivated'
p266
F0.0075684651297099996
sS'atheism'
p267
F0.0074125900573
sS'terriblefacebookmemes'
p268
F0.0092137274185999998
sS'TumblrInAction'
p269
F0.0159803679829
sS'secretsanta'
p270
F0.0085295400043600006
sS'crafts'
p271
F0.0082366348943199996
sS'HailCorporate'
p272
F0.0072332730560599997
sS'ImGoingToHellForThis'
p273
F0.0110555541597
sS'AmericanHorrorStory'
p274
F0.010804269847399999
s.