(dp1
S'Heavymind'
p2
F0.011578449905500001
sS'MapPorn'
p3
F0.0084962733979400008
sS'circlebroke'
p4
F0.019187793788999999
sS'CityPorn'
p5
F0.0088873499538300003
sS'PanicHistory'
p6
F0.0084616451657700004
sS'OFWGKTA'
p7
F0.00713234461678
sS'rickandmorty'
p8
F0.0072380106571899999
sS'postrock'
p9
F0.0204151852277
sS'Hiphopcirclejerk'
p10
F0.016453135536099998
sS'DeepIntoYouTube'
p11
F0.013528197327
sS'everymanshouldknow'
p12
F0.0071889722561499997
sS'dataisbeautiful'
p13
F0.0074294418577899998
sS'InternetIsBeautiful'
p14
F0.0071354357657999997
sS'Foodforthought'
p15
F0.0169602866527
sS'breakingbad'
p16
F0.0072367278411399998
sS'spotify'
p17
F0.013251127266
sS'Bass'
p18
F0.0154725866128
sS'TheoryOfReddit'
p19
F0.0154723127036
sS'badlinguistics'
p20
F0.0094093047569299999
sS'quityourbullshit'
p21
F0.0076917160218399998
sS'audioengineering'
p22
F0.0174702142108
sS'Documentaries'
p23
F0.00702354225454
sS'writing'
p24
F0.00836754520668
sS'HistoryPorn'
p25
F0.0078877235213200003
sS'booksuggestions'
p26
F0.0087073367374399992
sS'VinylCollectors'
p27
F0.016214813853900001
sS'hiphopheads'
p28
F0.014624104038299999
sS'piano'
p29
F0.0092120561667099997
sS'MetalMemes'
p30
F0.0072941646682699998
sS'beatles'
p31
F0.016402060771699999
sS'electronicmusic'
p32
F0.013900245298399999
sS'horror'
p33
F0.0072602601593200001
sS'DJs'
p34
F0.0092252659324099998
sS'PandR'
p35
F0.0077789699570799996
sS'synthesizers'
p36
F0.0154370275737
sS'NoStupidQuestions'
p37
F0.0090242700505099999
sS'IWantToLearn'
p38
F0.0101245742547
sS'conspiratard'
p39
F0.011012491781700001
sS'PropagandaPosters'
p40
F0.0109225491966
sS'CrappyDesign'
p41
F0.0081953911067799996
sS'WeAreTheMusicMakers'
p42
F0.027119447453999999
sS'thatHappened'
p43
F0.0075328791652100003
sS'Frisson'
p44
F0.0139405790702
sS'SubredditDrama'
p45
F0.0118637875671
sS'minimalism'
p46
F0.0102502881607
sS'cringe'
p47
F0.0074175445052700002
sS'MovieSuggestions'
p48
F0.0086273169898399994
sS'YouShouldKnow'
p49
F0.0090416863796500008
sS'TrueAtheism'
p50
F0.0073609129814599999
sS'badhistory'
p51
F0.0145231438335
sS'glitch_art'
p52
F0.0117043915651
sS'NetflixBestOf'
p53
F0.011447397811
sS'TheSimpsons'
p54
F0.0080040248810800008
sS'askphilosophy'
p55
F0.0115182372089
sS'literature'
p56
F0.017064536625200001
sS'MarkMyWords'
p57
F0.0095161775017499999
sS'changemyview'
p58
F0.012186464742100001
sS'radiohead'
p59
F0.028119001919400002
sS'HipHopImages'
p60
F0.017927572606699999
sS'festivals'
p61
F0.0078409090909100001
sS'Cinemagraphs'
p62
F0.0090639559508699993
sS'forwardsfromgrandma'
p63
F0.0089281025156200001
sS'humor'
p64
F0.0090692124105000004
sS'psychology'
p65
F0.0089918256130800001
sS'Musicthemetime'
p66
F0.0093504758724300002
sS'skeptic'
p67
F0.0082345191040800007
sS'poppunkers'
p68
F0.0092069279854100003
sS'tipofmytongue'
p69
F0.0077458242965400001
sS'wikipedia'
p70
F0.0110590584441
sS'socialskills'
p71
F0.0076808602563499997
sS'malefashionadvice'
p72
F0.00745725718443
sS'LearnUselessTalents'
p73
F0.00721516863359
sS'AskCulinary'
p74
F0.00703789201058
sS'RoomPorn'
p75
F0.0072659923066000004
sS'vexillology'
p76
F0.0076481835564099999
sS'blackpeoplegifs'
p77
F0.0077800438099599996
sS'StandUpComedy'
p78
F0.0120086462253
sS'linguistics'
p79
F0.0095175039311400002
sS'casualiama'
p80
F0.0073324769856599999
sS'FloridaMan'
p81
F0.0073525188121099996
sS'Metal'
p82
F0.0133518478957
sS'delusionalartists'
p83
F0.0113071008593
sS'answers'
p84
F0.010518407212600001
sS'vinyl'
p85
F0.030556356298599999
sS'drums'
p86
F0.0093349686563100002
sS'pinkfloyd'
p87
F0.0130815383102
sS'lewronggeneration'
p88
F0.029173700385200001
sS'BuyItForLife'
p89
F0.0071244731247000004
sS'youtubehaiku'
p90
F0.0099865145606299992
sS'RedditDayOf'
p91
F0.0113592606854
sS'BlackMetal'
p92
F0.0096127054889900004
sS'headphones'
p93
F0.0081883316274300004
sS'punk'
p94
F0.0196626968268
sS'progmetal'
p95
F0.010654060537599999
sS'guitarpedals'
p96
F0.019669030732900002
sS'bestof'
p97
F0.0086522192841100003
sS'mashups'
p98
F0.0080526452506699993
sS'whatstheword'
p99
F0.0082684824902700006
sS'classicalmusic'
p100
F0.0153448799757
sS'INTP'
p101
F0.0071678321678299997
sS'QuotesPorn'
p102
F0.0097506735662699993
sS'circlebroke2'
p103
F0.0092290217236999997
sS'TrueReddit'
p104
F0.014065766964499999
sS'Luthier'
p105
F0.0079681274900400001
sS'patientgamers'
p106
F0.0082640538400599994
sS'community'
p107
F0.0094382607563599993
sS'findareddit'
p108
F0.0074200913242000004
sS'NotTimAndEric'
p109
F0.0152368573079
sS'Buddhism'
p110
F0.0070483314154200002
sS'Music'
p111
F0.0080711835825899997
sS'malefashion'
p112
F0.0094919641894100001
sS'ContagiousLaughter'
p113
F0.0077018214526599999
sS'singing'
p114
F0.0084938389759499997
sS'CrazyIdeas'
p115
F0.010887282792599999
sS'AbandonedPorn'
p116
F0.0073030959536000001
sS'AskHistorians'
p117
F0.0094694443703499994
sS'Drugs'
p118
F0.0074978204010500002
sS'OutOfTheLoop'
p119
F0.012015426112899999
sS'TheWire'
p120
F0.0076564287600100001
sS'Guitar'
p121
F0.017329306332599999
sS'beer'
p122
F0.0083613060726299999
sS'Techno'
p123
F0.0078657577346600005
sS'IASIP'
p124
F0.0078492002140700002
sS'ifyoulikeblank'
p125
F0.038195879331700003
sS'musictheory'
p126
F0.024062411880800001
sS'ObscureMedia'
p127
F0.0145375457875
sS'makinghiphop'
p128
F0.013036937990999999
sS'ableton'
p129
F0.0072922893006599999
sS'RedHotChiliPeppers'
p130
F0.00735853844202
sS'madmen'
p131
F0.0094204536890499999
sS'indieheads'
p132
F0.061800863882999997
sS'Psychonaut'
p133
F0.0105456656347
sS'NeutralPolitics'
p134
F0.010767468499399999
sS'blunderyears'
p135
F0.0101128140591
sS'trackers'
p136
F0.0071728481455599997
sS'comics'
p137
F0.0080628647486400001
sS'House'
p138
F0.0074644835058999999
sS'entertainment'
p139
F0.00778599632946
sS'offbeat'
p140
F0.010239010329100001
sS'behindthegifs'
p141
F0.0073547318688799998
sS'standupshots'
p142
F0.0090303478904499995
sS'socialism'
p143
F0.0080462141530799995
sS'TheBluePill'
p144
F0.0078401809272499994
sS'Meditation'
p145
F0.0083880171183999992
sS'mathrock'
p146
F0.0160486995019
sS'fullmoviesonyoutube'
p147
F0.00956459671663
sS'Design'
p148
F0.0072815533980600004
sS'Economics'
p149
F0.0072373774142399996
sS'audiophile'
p150
F0.014521035413
sS'crappymusic'
p151
F0.0127994748933
sS'DecidingToBeBetter'
p152
F0.00728623473105
sS'TrueAskReddit'
p153
F0.0182524556517
sS'FanTheories'
p154
F0.0097714608737800007
sS'PoliticalDiscussion'
p155
F0.0097093161782200003
sS'explainlikeIAmA'
p156
F0.0095766512122799994
sS'arresteddevelopment'
p157
F0.0095196884465599992
sS'ShitRedditSays'
p158
F0.0090222085132600008
sS'Ask_Politics'
p159
F0.0073050123623299998
sS'HouseOfCards'
p160
F0.00706125495149
sS'eatsandwiches'
p161
F0.0072703846861800004
sS'self'
p162
F0.0103217273799
sS'Jazz'
p163
F0.025098509508300001
sS'AskSocialScience'
p164
F0.0102138220695
sS'bonnaroo'
p165
F0.0089371769035300006
sS'TheWayWeWere'
p166
F0.0086232239098500002
sS'DaftPunk'
p167
F0.0083817995210399999
sS'Feminism'
p168
F0.0071241640011599997
sS'howtonotgiveafuck'
p169
F0.0080221300138300002
sS'phish'
p170
F0.0076435683395400002
sS'Anarchism'
p171
F0.0076988879384099996
sS'notinteresting'
p172
F0.0073594024604600001
sS'badphilosophy'
p173
F0.0107264748903
sS'edmproduction'
p174
F0.0115344117929
sS'philosophy'
p175
F0.0072379097695599998
sS'PostHardcore'
p176
F0.0098397079828599996
sS'EnoughLibertarianSpam'
p177
F0.0081813156440000007
sS'gratefuldead'
p178
F0.0071916576770900001
sS'truegaming'
p179
F0.012185971125900001
sS'progrockmusic'
p180
F0.014661995588399999
sS'guitarlessons'
p181
F0.013751611517
sS'TrueFilm'
p182
F0.032959101844399999
sS'futurebeats'
p183
F0.023580654851299999
sS'HumanPorn'
p184
F0.0079501367423499992
sS'TimAndEric'
p185
F0.0078740157480300006
sS'terriblefacebookmemes'
p186
F0.0075187969924800004
sS'TumblrInAction'
p187
F0.0076190232284199999
sS'listentothis'
p188
F0.024946124208199999
sS'HailCorporate'
p189
F0.0089219330854999994
s.