(dp1
S'DnD'
p2
F0.0568731445345
sS'Xcom'
p3
F0.0070523120871300001
sS'AskScienceFiction'
p4
F0.0099562363238499992
sS'rpg'
p5
F0.060831529581500003
sS'worldbuilding'
p6
F0.023206471290299999
sS'rpg_gamers'
p7
F0.0094822888283399992
sS'boardgames'
p8
F0.010770246326
sS'Warhammer40k'
p9
F0.0084612700628100002
sS'dresdenfiles'
p10
F0.0085174953959500001
sS'Fantasy'
p11
F0.0099217785096699998
sS'Shadowrun'
p12
F0.0304597701149
sS'whowouldwin'
p13
F0.00770909894725
sS'Warhammer'
p14
F0.0085321655089100005
sS'Cyberpunk'
p15
F0.0071866163996200001
sS'Pathfinder_RPG'
p16
F0.053585137417499998
sS'ImaginaryMonsters'
p17
F0.0089599113245899999
sS'dwarffortress'
p18
F0.0089291942797299993
sS'itmejp'
p19
F0.0297491491239
sS'tabletopgamedesign'
p20
F0.0094525959367899991
s.