(dp1
S'climateskeptics'
p2
F0.0150799009678
sS'anonymous'
p3
F0.0074858499178400003
sS'circlebroke'
p4
F0.0122269171986
sS'PublicFreakout'
p5
F0.0081271539529899992
sS'PanicHistory'
p6
F0.019219680953300001
sS'ShitPoliticsSays'
p7
F0.030490499337200001
sS'washingtondc'
p8
F0.0072274793234499996
sS'inthenews'
p9
F0.0272517321016
sS'Conservative'
p10
F0.045546098369199997
sS'PurplePillDebate'
p11
F0.0083702609551899992
sS'quotes'
p12
F0.011257953989200001
sS'PoliticalDiscussion'
p13
F0.0469536053661
sS'everymanshouldknow'
p14
F0.0072281937006099996
sS'dataisbeautiful'
p15
F0.0078542162793800007
sS'askphilosophy'
p16
F0.00744269127717
sS'Foodforthought'
p17
F0.018528536651299998
sS'islam'
p18
F0.0086619369741000006
sS'linguistics'
p19
F0.0075832184360800003
sS'UFOs'
p20
F0.0070696007169199996
sS'syriancivilwar'
p21
F0.00839416058394
sS'ShitRConservativeSays'
p22
F0.043488265071299999
sS'TheBluePill'
p23
F0.012251420454500001
sS'quityourbullshit'
p24
F0.0084051096409099996
sS'minnesota'
p25
F0.0083782166367400001
sS'Documentaries'
p26
F0.0079692400223400003
sS'environment'
p27
F0.024117602021299998
sS'collapse'
p28
F0.0161555312158
sS'CCW'
p29
F0.00841175980678
sS'texas'
p30
F0.0132618766464
sS'MensRights'
p31
F0.011615593355
sS'YouShouldKnow'
p32
F0.0084724644904099998
sS'childfree'
p33
F0.0071588210643900004
sS'SelfDrivingCars'
p34
F0.0082116788321199997
sS'UpliftingNews'
p35
F0.0074979844127900002
sS'geek'
p36
F0.0087716157674299997
sS'spaceporn'
p37
F0.0080614203454899992
sS'DebateAnAtheist'
p38
F0.015944195316400001
sS'lostgeneration'
p39
F0.020606884058
sS'toosoon'
p40
F0.0085165379283000005
sS'homestead'
p41
F0.0074674091887100003
sS'GunsAreCool'
p42
F0.039948689756299997
sS'Republican'
p43
F0.0338266384778
sS'progressive'
p44
F0.11200110482
sS'progun'
p45
F0.019974059662800001
sS'conspiratard'
p46
F0.0265255292653
sS'PropagandaPosters'
p47
F0.0153981522217
sS'Marijuana'
p48
F0.013293452974400001
sS'NewsOfTheWeird'
p49
F0.011525532255499999
sS'Enhancement'
p50
F0.0083054686657300005
sS'Libertarian'
p51
F0.028361303446400001
sS'Anarcho_Capitalism'
p52
F0.0258455034589
sS'Firearms'
p53
F0.012334482133100001
sS'TrueAtheism'
p54
F0.0184379666299
sS'badhistory'
p55
F0.019759213307599999
sS'NetflixBestOf'
p56
F0.0088341823964200004
sS'energy'
p57
F0.0147968465737
sS'Christianity'
p58
F0.00982860609738
sS'POLITIC'
p59
F0.034090909090899998
sS'MarkMyWords'
p60
F0.0089563378529700002
sS'changemyview'
p61
F0.013468289978900001
sS'OneY'
p62
F0.0091354428703799995
sS'Feminism'
p63
F0.014162614111400001
sS'forwardsfromgrandma'
p64
F0.017825522370399999
sS'humor'
p65
F0.011848341232200001
sS'psychology'
p66
F0.013732144266399999
sS'philosophy'
p67
F0.0085007459838300006
sS'skeptic'
p68
F0.023025969929600001
sS'wikipedia'
p69
F0.0139442231076
sS'DebateReligion'
p70
F0.0143923720428
sS'religion'
p71
F0.0149958344904
sS'Anticonsumption'
p72
F0.013536379018599999
sS'Astronomy'
p73
F0.0088972768940400009
sS'Anarchy101'
p74
F0.0072568940493499996
sS'vexillology'
p75
F0.0070630749014499996
sS'AskFeminists'
p76
F0.0086153846153800007
sS'europe'
p77
F0.0072343307474400003
sS'StandUpComedy'
p78
F0.0089800548255999993
sS'wisconsin'
p79
F0.0094070695552999992
sS'business'
p80
F0.0098035371161899997
sS'StLouis'
p81
F0.0071131639722899999
sS'FloridaMan'
p82
F0.0138038807136
sS'answers'
p83
F0.0094428706326700005
sS'lgbt'
p84
F0.0119414924009
sS'conservatives'
p85
F0.0302540415704
sS'ainbow'
p86
F0.014164844567
sS'TheoryOfReddit'
p87
F0.011492801212400001
sS'sanfrancisco'
p88
F0.0070689783465999996
sS'CanadaPolitics'
p89
F0.0084349857254100002
sS'RedditDayOf'
p90
F0.010054412112599999
sS'netflix'
p91
F0.00734634365186
sS'vegetarian'
p92
F0.0075793019556500002
sS'florida'
p93
F0.010543510543499999
sS'ukpolitics'
p94
F0.0079470198675500002
sS'Images'
p95
F0.0084051959393100003
sS'IWantOut'
p96
F0.0082715101901599999
sS'QuotesPorn'
p97
F0.0090913329292700001
sS'ShitAmericansSay'
p98
F0.017841849843
sS'TrueReddit'
p99
F0.015692046701900001
sS'Catholicism'
p100
F0.0081619673521299996
sS'AmIFreeToGo'
p101
F0.0143534190928
sS'misc'
p102
F0.010478237506699999
sS'rant'
p103
F0.0073150907613100001
sS'Buddhism'
p104
F0.0082097679484000007
sS'Health'
p105
F0.011648686213500001
sS'ProtectAndServe'
p106
F0.0110912563929
sS'HistoryPorn'
p107
F0.0094365057967099996
sS'CrazyIdeas'
p108
F0.0071046799635000003
sS'eldertrees'
p109
F0.0085680519992099996
sS'AskHistorians'
p110
F0.0088861393099200006
sS'privacy'
p111
F0.010970712116800001
sS'Bad_Cop_No_Donut'
p112
F0.019938650306700001
sS'OutOfTheLoop'
p113
F0.0082178424681400002
sS'TheFacebookDelusion'
p114
F0.0154320987654
sS'SubredditDrama'
p115
F0.0115417640129
sS'California'
p116
F0.015595198025399999
sS'ObscureMedia'
p117
F0.0075978959672699997
sS'DaystromInstitute'
p118
F0.010538491196500001
sS'gay'
p119
F0.0076957394601800001
sS'occupywallstreet'
p120
F0.035708462416400001
sS'teslamotors'
p121
F0.0076344576116700001
sS'oregon'
p122
F0.0084186200066
sS'cordcutters'
p123
F0.010856578879
sS'Awwducational'
p124
F0.0073281986091399999
sS'PoliticalHumor'
p125
F0.0414088529272
sS'NeutralPolitics'
p126
F0.0246563060371
sS'webcomics'
p127
F0.0072714681440400001
sS'Colorado'
p128
F0.00917554985832
sS'againstmensrights'
p129
F0.0096040438079199996
sS'rage'
p130
F0.0092405217603300002
sS'worldpolitics'
p131
F0.0242621071736
sS'offbeat'
p132
F0.013468982947800001
sS'standupshots'
p133
F0.0083306760204100005
sS'socialism'
p134
F0.040160642570299998
sS'russia'
p135
F0.0077038305157300004
sS'history'
p136
F0.0099322918038800001
sS'AskScienceFiction'
p137
F0.0072575847709699997
sS'NewsOfTheStupid'
p138
F0.016094266417599999
sS'Economics'
p139
F0.0227294296289
sS'urbanplanning'
p140
F0.0081563296516600006
sS'Infographics'
p141
F0.0077299079231600001
sS'TrueAskReddit'
p142
F0.0120522831438
sS'NoStupidQuestions'
p143
F0.0079209217072500008
sS'blackladies'
p144
F0.0079710144927500007
sS'conspiracy'
p145
F0.012259259952500001
sS'politics'
p146
F0.0126463499151
sS'AnythingGoesNews'
p147
F0.027574115396899999
sS'education'
p148
F0.011592910489399999
sS'ShitRedditSays'
p149
F0.010727272727299999
sS'SRSsucks'
p150
F0.0124862788145
sS'HouseOfCards'
p151
F0.00704771757403
sS'Israel'
p152
F0.011055060641800001
sS'MURICA'
p153
F0.0086297571237300003
sS'Veterans'
p154
F0.0070043103448300002
sS'self'
p155
F0.0073486987944499996
sS'AskSocialScience'
p156
F0.0160377358491
sS'TheWayWeWere'
p157
F0.0082344393315599996
sS'scifi'
p158
F0.0111345275729
sS'nottheonion'
p159
F0.0078639763139400007
sS'nyc'
p160
F0.0071449710396100001
sS'911truth'
p161
F0.0107127240927
sS'Ask_Politics'
p162
F0.025806451612899999
sS'FutureWhatIf'
p163
F0.0118912797282
sS'economy'
p164
F0.0256631708822
sS'BasicIncome'
p165
F0.024674589700099999
sS'Anarchism'
p166
F0.017779424020699999
sS'MapPorn'
p167
F0.0081700954818400007
sS'badphilosophy'
p168
F0.014109347442699999
sS'howto'
p169
F0.0084368768215999992
sS'Futurology'
p170
F0.0077435447617999996
sS'NorthCarolina'
p171
F0.0078839482813000007
sS'DebateAChristian'
p172
F0.0137993439656
sS'gunpolitics'
p173
F0.018814341498000001
sS'EnoughLibertarianSpam'
p174
F0.049757815940100002
sS'law'
p175
F0.014714655001000001
sS'Physics'
p176
F0.0075213911123399998
sS'startrek'
p177
F0.010664591724600001
sS'TrueFilm'
p178
F0.0071052874411699999
sS'entertainment'
p179
F0.0106988675468
sS'HumanPorn'
p180
F0.00732946298984
sS'atheism'
p181
F0.0081922043010799993
sS'preppers'
p182
F0.0070335126189500002
sS'Shitstatistssay'
p183
F0.029251453488400001
sS'HailCorporate'
p184
F0.011351297996200001
s.