(dp1
S'asoiaf'
p2
F0.014754928863900001
sS'AndroidGaming'
p3
F0.00748120641246
sS'BuyItForLife'
p4
F0.0146540679052
sS'everymanshouldknow'
p5
F0.018125048786199999
sS'wiiu'
p6
F0.0090516442632499992
sS'RandomActsOfGaming'
p7
F0.0085219622689300008
sS'relationships'
p8
F0.011424209406899999
sS'AskMen'
p9
F0.019553933495500001
sS'JoeRogan'
p10
F0.0078498985801199999
sS'Showerthoughts'
p11
F0.0336584551732
sS'HistoryPorn'
p12
F0.0215852057282
sS'picrequests'
p13
F0.0078115949224599997
sS'holdmybeer'
p14
F0.015184132253100001
sS'ImaginaryMonsters'
p15
F0.0070067323723700002
sS'YouShouldKnow'
p16
F0.022125890573899999
sS'horror'
p17
F0.0093891666218700008
sS'UpliftingNews'
p18
F0.033072604382399999
sS'PandR'
p19
F0.0094891944990200001
sS'synthesizers'
p20
F0.0070437988238400001
sS'Steam'
p21
F0.0141849771914
sS'photoshopbattles'
p22
F0.030197659081899999
sS'IWantToLearn'
p23
F0.0147475595675
sS'Celebs'
p24
F0.010804740731699999
sS'CrappyDesign'
p25
F0.020244149149900002
sS'techsupport'
p26
F0.0146118721461
sS'Libertarian'
p27
F0.010810557111300001
sS'Seattle'
p28
F0.0082919000566399996
sS'pcgaming'
p29
F0.0136621423565
sS'EatCheapAndHealthy'
p30
F0.0128744001324
sS'tea'
p31
F0.0070044501207300004
sS'redditgetsdrawn'
p32
F0.011609395650600001
sS'fatpeoplestories'
p33
F0.0087570873037100001
sS'nba'
p34
F0.016158143532399999
sS'fantasyfootball'
p35
F0.013407749550899999
sS'forwardsfromgrandma'
p36
F0.010787113674000001
sS'LSD'
p37
F0.0087532392744000004
sS'frugalmalefashion'
p38
F0.0173252413631
sS'movies'
p39
F0.030706648659
sS'skeptic'
p40
F0.011979403832
sS'boardgames'
p41
F0.0089895555759700006
sS'socialskills'
p42
F0.010876271395600001
sS'gamedev'
p43
F0.0081305783103099993
sS'worldnews'
p44
F0.0252404121172
sS'vexillology'
p45
F0.0072481083233800004
sS'tattoos'
p46
F0.018698168367000001
sS'Economics'
p47
F0.011265369544699999
sS'Jokes'
p48
F0.030030575485099999
sS'legaladvice'
p49
F0.0085835765790999996
sS'malelivingspace'
p50
F0.0077583875865800001
sS'answers'
p51
F0.0094929838757399996
sS'baseball'
p52
F0.0155503254161
sS'doctorwho'
p53
F0.0107529608684
sS'TopGear'
p54
F0.0091127578610100003
sS'ThriftStoreHauls'
p55
F0.0085545897147800004
sS'environment'
p56
F0.00903679125598
sS'personalfinance'
p57
F0.023637655927000002
sS'creepy'
p58
F0.033596737190899999
sS'pics'
p59
F0.0211542559039
sS'progmetal'
p60
F0.010004583773399999
sS'vinyl'
p61
F0.027383502945900001
sS'whatsthisbug'
p62
F0.0077225498455500002
sS'QuotesPorn'
p63
F0.017977489941799998
sS'apple'
p64
F0.0143998523092
sS'TrueReddit'
p65
F0.0259355893921
sS'todayilearned'
p66
F0.025929281536399999
sS'confession'
p67
F0.010642561339399999
sS'findareddit'
p68
F0.0094999999999999998
sS'IdiotsFightingThings'
p69
F0.0110520239965
sS'gamernews'
p70
F0.011182974418300001
sS'ContagiousLaughter'
p71
F0.017127009706599999
sS'graphic_design'
p72
F0.0089574995235400003
sS'HIMYM'
p73
F0.0090018656716400001
sS'FiftyFifty'
p74
F0.0152319315443
sS'AskHistorians'
p75
F0.015979296746600001
sS'Drugs'
p76
F0.019347023534800001
sS'OutOfTheLoop'
p77
F0.024460846355299999
sS'sports'
p78
F0.032281379655399997
sS'ifyoulikeblank'
p79
F0.0311203716094
sS'misleadingthumbnails'
p80
F0.0096599387418499997
sS'trailerparkboys'
p81
F0.0073362974939400003
sS'musictheory'
p82
F0.0098527431661299993
sS'battlefield_4'
p83
F0.0088151568069299996
sS'Pareidolia'
p84
F0.011223975497200001
sS'hockey'
p85
F0.015835749696
sS'Filmmakers'
p86
F0.0114650360838
sS'cordcutters'
p87
F0.0091163115612999997
sS'LifeProTips'
p88
F0.032567600433399999
sS'Shitty_Car_Mods'
p89
F0.011022151462700001
sS'FanTheories'
p90
F0.012741166179799999
sS'EDC'
p91
F0.0093706812282999992
sS'techsupportgore'
p92
F0.010036162044200001
sS'science'
p93
F0.028577762356399999
sS'EDM'
p94
F0.0095228934205500004
sS'firstworldproblems'
p95
F0.0119904897114
sS'Entrepreneur'
p96
F0.0089621068201900002
sS'standupshots'
p97
F0.019404563517500001
sS'Meditation'
p98
F0.0104737501637
sS'MMA'
p99
F0.0102727800348
sS'history'
p100
F0.026116056488899999
sS'AskScienceFiction'
p101
F0.0081742874867699999
sS'audiophile'
p102
F0.0130305984701
sS'punk'
p103
F0.011742408635800001
sS'DecidingToBeBetter'
p104
F0.0088173547935600002
sS'Glitch_in_the_Matrix'
p105
F0.0073879525357100004
sS'gadgets'
p106
F0.033032588346000001
sS'buildapcsales'
p107
F0.0084093523664500007
sS'learnprogramming'
p108
F0.011887423735500001
sS'polandball'
p109
F0.0120939824704
sS'CampingandHiking'
p110
F0.0099650671079200004
sS'HouseOfCards'
p111
F0.0097420237180800007
sS'asmr'
p112
F0.012165888650600001
sS'MURICA'
p113
F0.0146562153443
sS'travel'
p114
F0.017413530426499998
sS'RealGirls'
p115
F0.0108457950423
sS'scifi'
p116
F0.015341553823999999
sS'spaceporn'
p117
F0.0119386227545
sS'nyc'
p118
F0.0113595677505
sS'wallpapers'
p119
F0.018159932234599999
sS'gaming'
p120
F0.022981992516799998
sS'askscience'
p121
F0.0216615235675
sS'philosophy'
p122
F0.022409006084
sS'oculus'
p123
F0.0087069173294800004
sS'futurebeats'
p124
F0.022167235843799999
sS'CFB'
p125
F0.0141351570458
sS'tall'
p126
F0.0081526083018099993
sS'streetwear'
p127
F0.0076978636052600002
sS'ImGoingToHellForThis'
p128
F0.016915311482400001
sS'DoesAnybodyElse'
p129
F0.017532907407699999
sS'pettyrevenge'
p130
F0.0111850744917
sS'malehairadvice'
p131
F0.0102872387078
sS'CityPorn'
p132
F0.0123733052521
sS'electronic_cigarette'
p133
F0.0111462721464
sS'london'
p134
F0.0074489625322800004
sS'dataisbeautiful'
p135
F0.034496161694700003
sS'GlobalOffensive'
p136
F0.0087310615666600002
sS'nostalgia'
p137
F0.0149349031334
sS'Documentaries'
p138
F0.040714425236800002
sS'writing'
p139
F0.0147178583591
sS'AndroidQuestions'
p140
F0.0083013367463000004
sS'WTF'
p141
F0.019425906646299999
sS'soccer'
p142
F0.018936344099
sS'wallpaper'
p143
F0.0080458593510099995
sS'MensRights'
p144
F0.011407346507299999
sS'MilitaryPorn'
p145
F0.00769139746776
sS'Frisson'
p146
F0.019940082483900001
sS'electronicmusic'
p147
F0.027501029230100001
sS'childfree'
p148
F0.0084383117370600003
sS'food'
p149
F0.035328276691300002
sS'whitepeoplegifs'
p150
F0.0098259810498899994
sS'NoStupidQuestions'
p151
F0.015560486063199999
sS'halo'
p152
F0.0084202301080500003
sS'creepyPMs'
p153
F0.0112009394336
sS'WatchItForThePlot'
p154
F0.010152000596100001
sS'nfl'
p155
F0.018866249126799999
sS'freebies'
p156
F0.013294976189299999
sS'Watches'
p157
F0.0070483954220999998
sS'mashups'
p158
F0.012167861661700001
sS'AdviceAnimals'
p159
F0.018315316662600001
sS'trap'
p160
F0.0105519963504
sS'minimalism'
p161
F0.018157498745999999
sS'mildlyinteresting'
p162
F0.032282455044500002
sS'TrueAtheism'
p163
F0.0094762812605100003
sS'Rateme'
p164
F0.0087022063861900006
sS'dogecoin'
p165
F0.011616609279699999
sS'literature'
p166
F0.0080115298206900002
sS'dubstep'
p167
F0.0095511579998799993
sS'TwoXChromosomes'
p168
F0.024250316335200001
sS'Cinemagraphs'
p169
F0.012141419225
sS'canada'
p170
F0.0151158319715
sS'DunderMifflin'
p171
F0.0083218277759900001
sS'psychology'
p172
F0.0095893924745000005
sS'space'
p173
F0.025966236258899999
sS'shittyfoodporn'
p174
F0.017295291670999999
sS'malefashionadvice'
p175
F0.026520692746899999
sS'LearnUselessTalents'
p176
F0.0137811427719
sS'RoomPorn'
p177
F0.0147725069191
sS'Astronomy'
p178
F0.0083445287517299998
sS'DarkSouls2'
p179
F0.0081069337724100007
sS'math'
p180
F0.0089560219222000002
sS'LetsTalkMusic'
p181
F0.024946124208199999
sS'bestof'
p182
F0.0280553391375
sS'Cyberpunk'
p183
F0.010330152421300001
sS'cars'
p184
F0.0122273552598
sS'Metal'
p185
F0.015717800448199998
sS'LadyBoners'
p186
F0.0078146577634800006
sS'GamePhysics'
p187
F0.0103045656273
sS'youtubehaiku'
p188
F0.026600006409599999
sS'dayz'
p189
F0.0087350630421999999
sS'recipes'
p190
F0.010137764984900001
sS'headphones'
p191
F0.013559931955
sS'programming'
p192
F0.011944599367900001
sS'howtonotgiveafuck'
p193
F0.011866135162699999
sS'snowboarding'
p194
F0.00765187675278
sS'classicalmusic'
p195
F0.0092765508281900007
sS'patientgamers'
p196
F0.0122403825566
sS'Buddhism'
p197
F0.0077849823887299998
sS'pokemon'
p198
F0.0112545038565
sS'tf2'
p199
F0.0096773795875100006
sS'longboarding'
p200
F0.0081339450547400008
sS'OldSchoolCool'
p201
F0.040611639578799999
sS'lego'
p202
F0.00879341953697
sS'ANormalDayInRussia'
p203
F0.0086472169205000001
sS'seduction'
p204
F0.010804521276600001
sS'europe'
p205
F0.012773540523200001
sS'Autos'
p206
F0.0079884553935000002
sS'PenmanshipPorn'
p207
F0.0120935183146
sS'shittyreactiongifs'
p208
F0.0077402619137299997
sS'gentlemanboners'
p209
F0.018319215397400002
sS'explainlikeimfive'
p210
F0.026031436997200001
sS'dogs'
p211
F0.0070939255218999998
sS'CombatFootage'
p212
F0.0074380478919200002
sS'TrollYChromosome'
p213
F0.0095130153657499994
sS'makinghiphop'
p214
F0.010505909574099999
sS'3DS'
p215
F0.0090518483586199995
sS'mildlyinfuriating'
p216
F0.021691176470599999
sS'madmen'
p217
F0.0070443918139300003
sS'indieheads'
p218
F0.0155172413793
sS'Psychonaut'
p219
F0.015450384929199999
sS'skyrim'
p220
F0.013418530351400001
sS'sex'
p221
F0.0155623745585
sS'toronto'
p222
F0.0095658340556299994
sS'television'
p223
F0.035745898906800001
sS'worldpolitics'
p224
F0.0134291915355
sS'TheRedPill'
p225
F0.0078401580186900008
sS'nononono'
p226
F0.014073645652599999
sS'KerbalSpaceProgram'
p227
F0.0084938340030499999
sS'formula1'
p228
F0.0081525431405399997
sS'FoodPorn'
p229
F0.017506726
sS'boston'
p230
F0.0083267955209999998
sS'teenagers'
p231
F0.0136427113546
sS'sysadmin'
p232
F0.0079260062984600008
sS'conspiracy'
p233
F0.018236713644999999
sS'HighQualityGifs'
p234
F0.010239660147499999
sS'self'
p235
F0.020074763154900001
sS'IAmA'
p236
F0.022723214159199999
sS'DaftPunk'
p237
F0.0080822462781900001
sS'depression'
p238
F0.0116330678128
sS'britishproblems'
p239
F0.012028014616300001
sS'conspiratard'
p240
F0.0109006400207
sS'getdisciplined'
p241
F0.0086615643083800004
sS'MovieSuggestions'
p242
F0.00839579582095
sS'aww'
p243
F0.021804565851300001
sS'Futurology'
p244
F0.033532923065599997
sS'MLS'
p245
F0.0077065294989799998
sS'Games'
p246
F0.024236228424
sS'progresspics'
p247
F0.0106241699867
sS'hearthstone'
p248
F0.0088173498094800008
sS'Minecraft'
p249
F0.011820987654299999
sS'chicago'
p250
F0.0099774547896600008
sS'investing'
p251
F0.0087755507651899999
sS'TumblrInAction'
p252
F0.020726124143800002
sS'secretsanta'
p253
F0.0092569773889500002
sS'poppunkers'
p254
F0.0079272309948400007
sS'HailCorporate'
p255
F0.0081786855980399992
sS'Heavymind'
p256
F0.0146218730021
sS'Awwducational'
p257
F0.0079792927622
sS'adventuretime'
p258
F0.015022123209299999
sS'LucidDreaming'
p259
F0.0088048445220499996
sS'fffffffuuuuuuuuuuuu'
p260
F0.0112616528682
sS'PoliticalDiscussion'
p261
F0.0087236256978000006
sS'bodybuilding'
p262
F0.0074506737800699996
sS'Foodforthought'
p263
F0.0156193520157
sS'Bass'
p264
F0.0129946839929
sS'TheoryOfReddit'
p265
F0.0078748721964800004
sS'harrypotter'
p266
F0.0097961606966199995
sS'wicked_edge'
p267
F0.0086728555781000003
sS'booksuggestions'
p268
F0.0091722963695300003
sS'whowouldwin'
p269
F0.0125773993808
sS'GrandTheftAutoV'
p270
F0.012597923699100001
sS'Anxiety'
p271
F0.0075751213531100002
sS'arresteddevelopment'
p272
F0.0088759767581600008
sS'shutupandtakemymoney'
p273
F0.0132181697381
sS'photography'
p274
F0.0153937161372
sS'JusticePorn'
p275
F0.024160581883799999
sS'trees'
p276
F0.020906866251000002
sS'smashbros'
p277
F0.0120237263162
sS'geek'
p278
F0.0148183191661
sS'Fitness'
p279
F0.025849812588900001
sS'beards'
p280
F0.014590112312400001
sS'AbandonedPorn'
p281
F0.015976432813299999
sS'motorcycles'
p282
F0.0108925278724
sS'quotes'
p283
F0.0083316062176200002
sS'guns'
p284
F0.0084045331237500003
sS'WeAreTheMusicMakers'
p285
F0.041753229510000003
sS'thatHappened'
p286
F0.018919306292100001
sS'futurama'
p287
F0.0095541968948899998
sS'dadjokes'
p288
F0.0138559421884
sS'DeepIntoYouTube'
p289
F0.0194588584136
sS'cringe'
p290
F0.030339301448000001
sS'StarWars'
p291
F0.015577562128100001
sS'rpg'
p292
F0.0075503215568399999
sS'AskWomen'
p293
F0.014888470361399999
sS'TheSimpsons'
p294
F0.011414220143800001
sS'Christianity'
p295
F0.010284698513
sS'Justrolledintotheshop'
p296
F0.0105315394795
sS'glitch_art'
p297
F0.0099672074559899997
sS'changemyview'
p298
F0.0214458785704
sS'roosterteeth'
p299
F0.0070991699432100003
sS'skateboarding'
p300
F0.010718568397699999
sS'PS3'
p301
F0.0083336232993499997
sS'Android'
p302
F0.018905775937800001
sS'PS4'
p303
F0.0116712770288
sS'firstworldanarchists'
p304
F0.019379528245399999
sS'PerfectTiming'
p305
F0.0131450488145
sS'truegaming'
p306
F0.018871765047999998
sS'lotr'
p307
F0.0082431169973100002
sS'wow'
p308
F0.0088402310246999995
sS'wikipedia'
p309
F0.010550374466900001
sS'breakingbad'
p310
F0.016239609221000002
sS'outside'
p311
F0.0114504480988
sS'AskCulinary'
p312
F0.0090597908992799993
sS'foodhacks'
p313
F0.0078987651801200008
sS'pcmasterrace'
p314
F0.014207122293599999
sS'magicTCG'
p315
F0.00865032592196
sS'CollegeBasketball'
p316
F0.0099648300117199991
sS'TheLastAirbender'
p317
F0.0118953905362
sS'StandUpComedy'
p318
F0.0106852592929
sS'jobs'
p319
F0.0086512250461099997
sS'spotify'
p320
F0.0099360341151399998
sS'casualiama'
p321
F0.018757751704
sS'facepalm'
p322
F0.018667382129300001
sS'NotTimAndEric'
p323
F0.0160630429087
sS'news'
p324
F0.026216640104600002
sS'Unexpected'
p325
F0.0250333222259
sS'RedditDayOf'
p326
F0.0091089194194400001
sS'relationship_advice'
p327
F0.0077555585599999996
sS'nosleep'
p328
F0.0143641258335
sS'itookapicture'
p329
F0.016518258312199999
sS'guitarpedals'
p330
F0.0095735794906899995
sS'GetMotivated'
p331
F0.034389657301399999
sS'buildapc'
p332
F0.0138555544671
sS'drunk'
p333
F0.0164424285145
sS'reactiongifs'
p334
F0.0267155353845
sS'community'
p335
F0.016997509245999999
sS'Music'
p336
F0.044392914222799999
sS'startrek'
p337
F0.0081112205217199994
sS'EarthPorn'
p338
F0.030137617063599999
sS'linux'
p339
F0.0092895133994600008
sS'Homebrewing'
p340
F0.0096214793024400006
sS'Guitar'
p341
F0.0279794534185
sS'beer'
p342
F0.019224555735099999
sS'ireland'
p343
F0.0074968839357699999
sS'crappymusic'
p344
F0.0080443766713099996
sS'web_design'
p345
F0.010445360890399999
sS'fatlogic'
p346
F0.010895934125300001
sS'hiphopheads'
p347
F0.031867493219699998
sS'MakeupAddiction'
p348
F0.0077689468133200004
sS'androidapps'
p349
F0.0082989745216199996
sS'somethingimade'
p350
F0.0109181676154
sS'WritingPrompts'
p351
F0.024793231476299998
sS'MapPorn'
p352
F0.019482811628200002
sS'IndieGaming'
p353
F0.0079406795569700005
sS'darksouls'
p354
F0.0083881338594199994
sS'Chromecast'
p355
F0.0073378076062599997
sS'Perfectfit'
p356
F0.0070151477526700003
sS'offbeat'
p357
F0.0240955042207
sS'socialism'
p358
F0.0076641975308600003
sS'DotA2'
p359
F0.0083563263697300008
sS'Cooking'
p360
F0.018205766898399998
sS'IASIP'
p361
F0.0106556444579
sS'LosAngeles'
p362
F0.0093218913006899995
sS'DIY'
p363
F0.029392037917499999
sS'webdev'
p364
F0.0081232714342199999
sS'technology'
p365
F0.024124123484899999
sS'southpark'
p366
F0.0130976283097
sS'starcraft'
p367
F0.0075415729207299999
sS'funny'
p368
F0.019092982207700001
sS'Jazz'
p369
F0.012827499476000001
sS'watchpeopledie'
p370
F0.0096760622633599996
sS'Whatcouldgowrong'
p371
F0.0181153352314
sS'Sherlock'
p372
F0.0071687250441100003
sS'talesfromtechsupport'
p373
F0.0115751760078
sS'Anarchism'
p374
F0.00723053983946
sS'notinteresting'
p375
F0.0154379382164
sS'AnimalsBeingJerks'
p376
F0.0139918472701
sS'running'
p377
F0.0120475246427
sS'PostHardcore'
p378
F0.0101881200346
sS'Physics'
p379
F0.0081915683996000004
sS'TrueFilm'
p380
F0.0117540687161
sS'HumanPorn'
p381
F0.0128441434974
sS'Fantasy'
p382
F0.0086351524721199995
sS'anime'
p383
F0.0118452853715
sS'titanfall'
p384
F0.0075552717044200003
sS'Portland'
p385
F0.0074191297837200004
sS'drawing'
p386
F0.0081345623871499993
sS'PublicFreakout'
p387
F0.015089379600400001
sS'ArtisanVideos'
p388
F0.0142412524757
sS'Bitcoin'
p389
F0.011453057361700001
sS'rickandmorty'
p390
F0.014799663097099999
sS'postrock'
p391
F0.0098638696719499999
sS'woodworking'
p392
F0.0103097704167
sS'perfectloops'
p393
F0.0104799003421
sS'InternetIsBeautiful'
p394
F0.038748666903699998
sS'carporn'
p395
F0.010051656631500001
sS'TalesFromRetail'
p396
F0.010523847977300001
sS'quityourbullshit'
p397
F0.0147943872171
sS'audioengineering'
p398
F0.016076613911300001
sS'woahdude'
p399
F0.032276598621100001
sS'Fallout'
p400
F0.0116679418516
sS'offmychest'
p401
F0.015846448721800001
sS'australia'
p402
F0.0100377275356
sS'slowcooking'
p403
F0.00934951984055
sS'NSFW_GIF'
p404
F0.0088929566690300003
sS'howto'
p405
F0.0092750553954199996
sS'cringepics'
p406
F0.024971834221100001
sS'bodyweightfitness'
p407
F0.0094009419267299995
sS'thewalkingdead'
p408
F0.0147860852183
sS'gifs'
p409
F0.0274658493408
sS'Art'
p410
F0.037215625464700003
sS'4chan'
p411
F0.023933915262300001
sS'montageparodies'
p412
F0.0112205604511
sS'ArcherFX'
p413
F0.010935515733000001
sS'google'
p414
F0.0079145299145300003
sS'gardening'
p415
F0.0080727536327399995
sS'whatisthisthing'
p416
F0.016789232690399999
sS'MechanicalKeyboards'
p417
F0.0095531308009200004
sS'NetflixBestOf'
p418
F0.025850859339700001
sS'ShouldIbuythisgame'
p419
F0.0091919355128300007
sS'tumblr'
p420
F0.0098520488170700006
sS'interestingasfuck'
p421
F0.0257741812158
sS'radiohead'
p422
F0.0104115235172
sS'Coffee'
p423
F0.012166411767699999
sS'gameofthrones'
p424
F0.020839326686300001
sS'humor'
p425
F0.014145914248700001
sS'AMA'
p426
F0.010777928862800001
sS'SkincareAddiction'
p427
F0.0083591674047800001
sS'ExpectationVsReality'
p428
F0.0082569352315699993
sS'nonononoyes'
p429
F0.019244421124099999
sS'edmproduction'
p430
F0.016532578905500001
sS'lifehacks'
p431
F0.017962480062800001
sS'SubredditDrama'
p432
F0.021596362717900001
sS'blackpeoplegifs'
p433
F0.0090761421319800004
sS'ProgrammerHumor'
p434
F0.0074016223220100003
sS'business'
p435
F0.0086900395144899993
sS'FloridaMan'
p436
F0.0119993239817
sS'delusionalartists'
p437
F0.014020526050100001
sS'OkCupid'
p438
F0.0109760522496
sS'Frugal'
p439
F0.020799202904800002
sS'promos'
p440
F0.018195413758699999
sS'drums'
p441
F0.011565150347
sS'shittyaskscience'
p442
F0.016333938294000001
sS'lewronggeneration'
p443
F0.019100076264699999
sS'worldbuilding'
p444
F0.0070188970304700003
sS'calvinandhobbes'
p445
F0.0076736420764499996
sS'netflix'
p446
F0.0103938534449
sS'wheredidthesodago'
p447
F0.015783395354800001
sS'AnimalsBeingBros'
p448
F0.010518637951599999
sS'GameDeals'
p449
F0.015736608378800001
sS'battlestations'
p450
F0.012891614941099999
sS'amiugly'
p451
F0.010630596304099999
sS'gamemusic'
p452
F0.0071049094284099997
sS'TrollXChromosomes'
p453
F0.014091457972400001
sS'tifu'
p454
F0.0303740261181
sS'unitedkingdom'
p455
F0.013266003599000001
sS'Damnthatsinteresting'
p456
F0.014101510756399999
sS'DnD'
p457
F0.0083048651195699996
sS'loseit'
p458
F0.010521024513999999
sS'CrazyIdeas'
p459
F0.0228132387707
sS'Bad_Cop_No_Donut'
p460
F0.0110087696979
sS'SquaredCircle'
p461
F0.0073708531103199998
sS'MorbidReality'
p462
F0.017950412794699999
sS'gif'
p463
F0.0087935213543499993
sS'cats'
p464
F0.011664021763800001
sS'happy'
p465
F0.0081157797945099995
sS'explainlikeIAmA'
p466
F0.0094769380948500001
sS'batman'
p467
F0.00985252786813
sS'gamegrumps'
p468
F0.00835624644783
sS'WebGames'
p469
F0.0081847832776100003
sS'xboxone'
p470
F0.0077773439907900003
sS'HipHopImages'
p471
F0.0075602390556000001
sS'Metalcore'
p472
F0.0070952567620499998
sS'NoFap'
p473
F0.0075036106375399999
sS'Austin'
p474
F0.0081932307902000002
sS'blunderyears'
p475
F0.016220418034200001
sS'Marvel'
p476
F0.0091855008027700007
sS'gonewild'
p477
F0.0085062182420499993
sS'rage'
p478
F0.0185005366178
sS'comics'
p479
F0.023265239948100001
sS'nsfw'
p480
F0.0111360985172
sS'behindthegifs'
p481
F0.0148029534739
sS'books'
p482
F0.031406857627400003
sS'civ'
p483
F0.0108033862937
sS'fullmoviesonyoutube'
p484
F0.0177128816136
sS'iphone'
p485
F0.0117776323749
sS'videos'
p486
F0.0276252201479
sS'keto'
p487
F0.0091077866867599992
sS'TrueAskReddit'
p488
F0.0111079808428
sS'engineering'
p489
F0.00702178328781
sS'tipofmytongue'
p490
F0.024153901638099998
sS'politics'
p491
F0.023340627279399999
sS'bestofworldstar'
p492
F0.0071609358602400001
sS'eatsandwiches'
p493
F0.0072831040504299999
sS'bicycling'
p494
F0.0154507698677
sS'DestinyTheGame'
p495
F0.0087203996511800008
sS'circlebroke'
p496
F0.0087485503855500007
sS'zelda'
p497
F0.0087821257910400009
sS'ImaginaryLandscapes'
p498
F0.0073453386179599999
sS'nottheonion'
p499
F0.039273255039799997
sS'nintendo'
p500
F0.0086125900407099994
sS'comicbooks'
p501
F0.0140890348732
sS'oddlysatisfying'
p502
F0.023181858057700001
sS'entertainment'
p503
F0.012998121873699999
sS'atheism'
p504
F0.018577006695300002
sS'Design'
p505
F0.012232991436899999
sS'urbanexploration'
p506
F0.0082115289867000004
sS'gainit'
p507
F0.0078397050334300007
s.