(dp1
S'networking'
p2
F0.0079309033624899994
sS'gamingpc'
p3
F0.0079105291871199995
sS'TrueReddit'
p4
F0.0073771601317499996
sS'Bitcoin'
p5
F0.060383629036499999
sS'BitcoinMining'
p6
F0.062549173878800005
sS'CryptoCurrency'
p7
F0.125458336329
sS'conspiracy'
p8
F0.0087797075748899996
sS'torrents'
p9
F0.0082596301439999999
sS'linux'
p10
F0.0122641786228
sS'webdev'
p11
F0.0095090971507000004
sS'Android'
p12
F0.0079918146120200005
sS'Nootropics'
p13
F0.0091279860167000001
sS'technology'
p14
F0.00826769296859
sS'startups'
p15
F0.010180172901299999
sS'crypto'
p16
F0.010730981725499999
sS'techsupportmacgyver'
p17
F0.0113628585119
sS'privacy'
p18
F0.0148011100833
sS'MechanicalKeyboards'
p19
F0.0077802919934299997
sS'arduino'
p20
F0.00740136737126
sS'investing'
p21
F0.0141527599487
sS'Bad_Cop_No_Donut'
p22
F0.0073896544837199997
sS'coins'
p23
F0.0078519855595700003
sS'raspberry_pi'
p24
F0.0121240999576
sS'DarkNetMarkets'
p25
F0.0100432961885
sS'shittybattlestations'
p26
F0.0071090047393400002
sS'3Dprinting'
p27
F0.0088298857672099995
sS'Ubuntu'
p28
F0.0095665755564199994
sS'web_design'
p29
F0.0080080427095599992
sS'economy'
p30
F0.0078966850374300006
sS'talesfromtechsupport'
p31
F0.0088553338700200004
sS'buildapcsales'
p32
F0.0097882830626499998
sS'bestof'
p33
F0.0075419271608600002
sS'BasicIncome'
p34
F0.0076779897626800004
sS'collapse'
p35
F0.00789497028298
sS'business'
p36
F0.0085600733720600005
sS'Futurology'
p37
F0.0092497296733899999
sS'Economics'
p38
F0.0114263043047
sS'teslamotors'
p39
F0.0075668006621000001
sS'netsec'
p40
F0.0132844993482
sS'NASCAR'
p41
F0.014841709663
sS'cordcutters'
p42
F0.0089686098654700001
sS'geek'
p43
F0.0086366634213700007
sS'promos'
p44
F0.0101254429881
sS'homelab'
p45
F0.0079358449586500006
sS'dogemarket'
p46
F0.042049057233400002
sS'stocks'
p47
F0.0080843077811499995
sS'HailCorporate'
p48
F0.0072422607213900002
sS'ProgrammerHumor'
p49
F0.0087011406158400001
sS'sysadmin'
p50
F0.0104451268164
sS'hardware'
p51
F0.012552548996399999
sS'BitcoinMarkets'
p52
F0.087245696400599995
sS'hardwareswap'
p53
F0.011675423234100001
sS'oculus'
p54
F0.0091998884862000002
sS'worldpolitics'
p55
F0.0071411568674099998
sS'techsupportgore'
p56
F0.0108676721586
sS'programming'
p57
F0.010563852834600001
sS'linux_gaming'
p58
F0.0078149179820499997
sS'beermoney'
p59
F0.0089012386379700003
sS'Silverbugs'
p60
F0.019429322320300001
sS'Entrepreneur'
p61
F0.0108573890564
sS'softwaregore'
p62
F0.0072103251856700003
sS'Shitstatistssay'
p63
F0.0070245334451700002
sS'dogecoin'
p64
F0.043284043803699997
sS'Cyberpunk'
p65
F0.0078528621615999994
sS'Libertarian'
p66
F0.010631895687100001
sS'hacking'
p67
F0.010633693972200001
sS'battlestations'
p68
F0.0080894003836200004
sS'Anarcho_Capitalism'
p69
F0.0145762476574
sS'cableporn'
p70
F0.0075752405650699999
sS'learnprogramming'
p71
F0.0079952830188699999
s.