(dp1
S'TalesFromThePizzaGuy'
p2
F0.0070715999494900001
sS'pettyrevenge'
p3
F0.0072175211548000003
sS'CCW'
p4
F0.013607785720400001
sS'ArtisanVideos'
p5
F0.0094200962052399997
sS'BuyItForLife'
p6
F0.0112617224293
sS'woodworking'
p7
F0.0093457943925200002
sS'perfectloops'
p8
F0.0072047275965399999
sS'everymanshouldknow'
p9
F0.010887357722
sS'flashlight'
p10
F0.017677286742
sS'arduino'
p11
F0.010636472808400001
sS'linuxadmin'
p12
F0.0098732927431300008
sS'ProtectAndServe'
p13
F0.0071446477813999999
sS'wicked_edge'
p14
F0.011961169536599999
sS'Piracy'
p15
F0.0080947911778500008
sS'shittybattlestations'
p16
F0.0077325719723999996
sS'holdmybeer'
p17
F0.0089917066783100005
sS'fountainpens'
p18
F0.0086246028143400003
sS'linuxquestions'
p19
F0.0085480829666900009
sS'Magic'
p20
F0.0090001956564299997
sS'shutupandtakemymoney'
p21
F0.0089972275984699993
sS'howto'
p22
F0.011609540357000001
sS'IWantToLearn'
p23
F0.0094979647218499993
sS'geek'
p24
F0.011776251226700001
sS'martialarts'
p25
F0.0071922920341999999
sS'amateurradio'
p26
F0.0174563591022
sS'AskNetsec'
p27
F0.017783423308999999
sS'homestead'
p28
F0.0075356953992600003
sS'AbandonedPorn'
p29
F0.0076367781154999996
sS'progun'
p30
F0.010881246641599999
sS'freebies'
p31
F0.0081729950621499993
sS'radiocontrol'
p32
F0.0081408871905599995
sS'Cyberpunk'
p33
F0.0102826058113
sS'LearnUselessTalents'
p34
F0.0124443871301
sS'whatisthisthing'
p35
F0.0097248633945599995
sS'crypto'
p36
F0.0139480821387
sS'Justrolledintotheshop'
p37
F0.0110303773089
sS'MechanicAdvice'
p38
F0.0083707225607700005
sS'torrents'
p39
F0.0070914479254899996
sS'offbeat'
p40
F0.0072962201080000004
sS'camping'
p41
F0.0080690561080900003
sS'skeptic'
p42
F0.0086511578836300004
sS'outside'
p43
F0.0075585007247899998
sS'Gunsforsale'
p44
F0.0088563139410600001
sS'foodhacks'
p45
F0.0072341225103300004
sS'lifehacks'
p46
F0.0082580769788000007
sS'electronics'
p47
F0.0148365056125
sS'guns'
p48
F0.010853173131600001
sS'FloridaMan'
p49
F0.0077411671298099997
sS'AskElectronics'
p50
F0.0103387593489
sS'answers'
p51
F0.0083972547436400001
sS'Roadcam'
p52
F0.0077669902912600002
sS'knifeclub'
p53
F0.0153787493645
sS'AskEngineers'
p54
F0.0082997207570599998
sS'longrange'
p55
F0.0081097941359999995
sS'RedditDayOf'
p56
F0.0074947782282799996
sS'privacy'
p57
F0.0138127158237
sS'wheredidthesodago'
p58
F0.0075154188620699999
sS'ar15'
p59
F0.0086735174884499996
sS'GunPorn'
p60
F0.00872695538344
sS'AmIFreeToGo'
p61
F0.0094565984474200004
sS'IdiotsFightingThings'
p62
F0.00971139379018
sS'Firearms'
p63
F0.015195572648
sS'linux'
p64
F0.0094525535255000001
sS'Multicopter'
p65
F0.0086757440655500003
sS'3Dprinting'
p66
F0.0093747384280599994
sS'networking'
p67
F0.0103326256192
sS'TinyHouses'
p68
F0.0089136490250700008
sS'Bad_Cop_No_Donut'
p69
F0.0075054125571299996
sS'OutOfTheLoop'
p70
F0.0071989528795799998
sS'linux4noobs'
p71
F0.0084920817075999997
sS'Ubuntu'
p72
F0.0070820259973099998
sS'Pareidolia'
p73
F0.0078364057019200007
sS'CombatFootage'
p74
F0.0074689375959799999
sS'cablefail'
p75
F0.014135385581900001
sS'collapse'
p76
F0.0072525597269599996
sS'cordcutters'
p77
F0.0078005586886599997
sS'somethingimade'
p78
F0.0089255063508400009
sS'Shitty_Car_Mods'
p79
F0.0073207519405500002
sS'Blacksmith'
p80
F0.015765352887300001
sS'Scotch'
p81
F0.0070271921784299998
sS'ProgrammerHumor'
p82
F0.00858369098712
sS'Welding'
p83
F0.0090621403912499992
sS'EDC'
p84
F0.016811955168099999
sS'techsupportgore'
p85
F0.0128541018503
sS'Perfectfit'
p86
F0.00704792589609
sS'nononono'
p87
F0.0097827802030199997
sS'softwaregore'
p88
F0.0090596688534800001
sS'knives'
p89
F0.0206505362049
sS'hacking'
p90
F0.016766366163999999
sS'Cartalk'
p91
F0.0073246314207899999
sS'gundeals'
p92
F0.0085714285714299995
sS'Glocks'
p93
F0.0079262374635999996
sS'sysadmin'
p94
F0.0104242424242
sS'homelab'
p95
F0.0131407754359
sS'YouShouldKnow'
p96
F0.0081019165223200004
sS'CampingandHiking'
p97
F0.00724278816392
sS'techsupportmacgyver'
p98
F0.01754726127
sS'preppers'
p99
F0.0130947184636
sS'Survival'
p100
F0.019350299050099998
sS'nonononoyes'
p101
F0.0083588025186899992
sS'Frugal_Jerk'
p102
F0.0081300813008099992
sS'Whatcouldgowrong'
p103
F0.0076701539908300004
sS'talesfromtechsupport'
p104
F0.0104431747251
sS'Archery'
p105
F0.011117287381899999
sS'raspberry_pi'
p106
F0.012418122270700001
sS'Hammocks'
p107
F0.0099239166391
sS'netsec'
p108
F0.022671308482599999
sS'hardware'
p109
F0.0073852922690099999
sS'DumpsterDiving'
p110
F0.0096005486027799999
sS'MachinePorn'
p111
F0.0102687349792
sS'eFreebies'
p112
F0.0084499603908100001
sS'reloading'
p113
F0.011401611952
sS'urbanexploration'
p114
F0.012301433552900001
sS'DataHoarder'
p115
F0.0092030185901000004
sS'cableporn'
p116
F0.012749927557200001
s.