(dp1
S'canada'
p2
F0.0112076020733
sS'toronto'
p3
F0.0078327888079099996
sS'ontario'
p4
F0.040177744862099997
sS'CanadaPolitics'
p5
F0.0114560850075
sS'Torontobluejays'
p6
F0.0087894526568100002
sS'leafs'
p7
F0.0099797707350000008
sS'PersonalFinanceCanada'
p8
F0.0087404401435899996
s.