(dp1
S'FancyFollicles'
p2
F0.0148441926346
sS'amiugly'
p3
F0.0077835988452900004
sS'weddingplanning'
p4
F0.0135113986123
sS'NoStupidQuestions'
p5
F0.0071956276949300003
sS'AskWomen'
p6
F0.016767186366000001
sS'ABraThatFits'
p7
F0.0080351537978700007
sS'Baking'
p8
F0.00923245015023
sS'wedding'
p9
F0.0084873374401099998
sS'TrollYChromosome'
p10
F0.0095466494488799999
sS'redditgetsdrawn'
p11
F0.0076481283731100001
sS'self'
p12
F0.0090434602862900001
sS'actuallesbians'
p13
F0.0070851165002400003
sS'needadvice'
p14
F0.00734122192707
sS'bigboobproblems'
p15
F0.0079193126634299997
sS'college'
p16
F0.0079712150567400001
sS'crochet'
p17
F0.0075302083941400002
sS'fatpeoplestories'
p18
F0.0071736418282899997
sS'confession'
p19
F0.0097733711048199993
sS'knitting'
p20
F0.0074542310215300004
sS'femalefashionadvice'
p21
F0.0134834684071
sS'EatCheapAndHealthy'
p22
F0.0091566095986500007
sS'depression'
p23
F0.0097487324783800001
sS'relationships'
p24
F0.014668024203899999
sS'TalesFromRetail'
p25
F0.0073414557950599998
sS'loseit'
p26
F0.0095344924284900007
sS'travel'
p27
F0.0083190859430400006
sS'DoesAnybodyElse'
p28
F0.0070229843122899998
sS'MMFB'
p29
F0.0071030321545900001
sS'harrypotter'
p30
F0.0093186995237100004
sS'TrollXChromosomes'
p31
F0.0133674630262
sS'cats'
p32
F0.0074665247849600002
sS'PenmanshipPorn'
p33
F0.00821382586689
sS'blunderyears'
p34
F0.0082152000305700003
sS'firstimpression'
p35
F0.0072415329768299999
sS'RedditLaqueristas'
p36
F0.010696745192700001
sS'raisedbynarcissists'
p37
F0.010376340673999999
sS'secretsanta'
p38
F0.0072157101537499999
sS'RandomActsofMakeup'
p39
F0.0091788462896299997
sS'TwoXChromosomes'
p40
F0.00901530347765
sS'xxfitness'
p41
F0.011054714384
sS'happy'
p42
F0.0085216123787600004
sS'offmychest'
p43
F0.011225079820000001
sS'Anxiety'
p44
F0.010343689249200001
sS'jobs'
p45
F0.00727572242433
sS'childfree'
p46
F0.0085693536673899992
sS'MakeupAddiction'
p47
F0.0138535789545
sS'RandomKindness'
p48
F0.0071722516167000002
sS'casualiama'
p49
F0.0083002104278700004
sS'birthcontrol'
p50
F0.010911163586
sS'BDSMcommunity'
p51
F0.0071562860088500001
sS'AnimalCrossing'
p52
F0.0075932956755299999
sS'Frugal'
p53
F0.0072991708576900004
sS'piercing'
p54
F0.0087083651156900001
sS'LadyBoners'
p55
F0.0112440191388
sS'curlyhair'
p56
F0.0076830571886699998
sS'TheGirlSurvivalGuide'
p57
F0.014485147475600001
sS'AskMen'
p58
F0.010805128371899999
sS'thesims'
p59
F0.0088643986583599992
sS'Random_Acts_Of_Amazon'
p60
F0.0086445749750600001
sS'creepyPMs'
p61
F0.010505485551300001
sS'SkincareAddiction'
p62
F0.011866910347199999
sS'dating_advice'
p63
F0.0085392676931000007
sS'recipes'
p64
F0.0070714039323899998
sS'GirlGamers'
p65
F0.0101810548412
sS'sex'
p66
F0.0116388777767
sS'freebies'
p67
F0.0073779604487400003
sS'relationship_advice'
p68
F0.0171826244047
sS'IWantOut'
p69
F0.012757437070899999
sS'Hair'
p70
F0.00745156482861
sS'howtonotgiveafuck'
p71
F0.0076488799854299997
sS'progresspics'
p72
F0.0081316098707400006
sS'tall'
p73
F0.0078332228116699994
sS'Needafriend'
p74
F0.0081532043989399998
sS'Advice'
p75
F0.0079721536043100005
s.