(dp1
S'NYGiants'
p2
F0.012338832663199999
sS'NewYorkMets'
p3
F0.018392642942799999
sS'rangers'
p4
F0.015865954922900001
sS'Brooklyn'
p5
F0.0101856415311
sS'nyjets'
p6
F0.015073906044199999
sS'AskNYC'
p7
F0.0147235979119
sS'nyc'
p8
F0.0225400761669
sS'NYKnicks'
p9
F0.0111815754339
s.