(dp1
S'FancyFollicles'
p2
F0.0113998647474
sS'awwwtf'
p3
F0.014393057466399999
sS'gardening'
p4
F0.0088436878178200003
sS'NewsOfTheStupid'
p5
F0.0086206896551700007
sS'DoesAnybodyElse'
p6
F0.00764284208307
sS'pettyrevenge'
p7
F0.0070026039833900001
sS'awesome'
p8
F0.0074512123004100003
sS'Aquariums'
p9
F0.0070275403608700002
sS'guineapigs'
p10
F0.0073919636087899998
sS'KingOfTheHill'
p11
F0.0077900779007800004
sS'goldenretrievers'
p12
F0.019422572178499999
sS'Pets'
p13
F0.020740138267599999
sS'TrollXChromosomes'
p14
F0.0080360235538599993
sS'RandomActsOfPolish'
p15
F0.0073985202959400004
sS'femalefashionadvice'
p16
F0.00812567713976
sS'EatCheapAndHealthy'
p17
F0.0072783414203799997
sS'nostalgia'
p18
F0.0080120368628899992
sS'popping'
p19
F0.0071879553181200002
sS'snakes'
p20
F0.0074636306135399998
sS'BeardPorn'
p21
F0.0075493612079000003
sS'Hair'
p22
F0.0085720730882000006
sS'Dogtraining'
p23
F0.032981397687299997
sS'eatsandwiches'
p24
F0.0077895687514100004
sS'TheWayWeWere'
p25
F0.0090232898427000004
sS'shittyfoodporn'
p26
F0.0070372259051500003
sS'pitbulls'
p27
F0.024297082228099998
sS'InteriorDesign'
p28
F0.0079684763572700004
sS'ExpectationVsReality'
p29
F0.0101441107801
sS'pugs'
p30
F0.0098416773641399995
sS'firstworldproblems'
p31
F0.0074135090609599996
sS'cats'
p32
F0.0084040275905799995
sS'PrettyGirlsUglyFaces'
p33
F0.0084495141529399992
sS'misleadingthumbnails'
p34
F0.0070216049382699998
sS'RedditLaqueristas'
p35
F0.011073159982400001
sS'catpictures'
p36
F0.0176316416488
sS'RandomActsofMakeup'
p37
F0.0090492277992299999
sS'Pizza'
p38
F0.0073035349108999999
sS'Pareidolia'
p39
F0.0094415574910299994
sS'dogs'
p40
F0.041179058513000001
sS'happy'
p41
F0.013616878204600001
sS'CrossStitch'
p42
F0.0077351485148500002
sS'TrollYChromosome'
p43
F0.0070035964414200003
sS'bigboobproblems'
p44
F0.0079989334755399995
sS'curlyhair'
p45
F0.0074848651623599998
sS'childfree'
p46
F0.0093608666690000002
sS'MakeupAddiction'
p47
F0.0073669689765500004
sS'AnimalsBeingJerks'
p48
F0.0109033059134
sS'sewing'
p49
F0.0086476349239400004
sS'budgetfood'
p50
F0.0076594813436900002
sS'PandR'
p51
F0.0082926451212900001
sS'Baking'
p52
F0.010797743755
sS'somethingimade'
p53
F0.011399548532699999
sS'germanshepherds'
p54
F0.024180460889299999
sS'slowcooking'
p55
F0.0080842154239899999
sS'weddingplanning'
p56
F0.00783991637423
sS'LadyBoners'
p57
F0.0104206705104
sS'Awwducational'
p58
F0.014207980653
sS'TheGirlSurvivalGuide'
p59
F0.0114734299517
sS'dogpictures'
p60
F0.065903543472800002
sS'badtattoos'
p61
F0.0077814283243999999
sS'tonightsdinner'
p62
F0.0094529676119599997
sS'ghettoglamourshots'
p63
F0.0072788353863399999
sS'blunderyears'
p64
F0.0089272503082600003
sS'DAE'
p65
F0.0084525357607300004
sS'RATS'
p66
F0.010544561606200001
sS'Rabbits'
p67
F0.0076127712759899999
sS'ThriftStoreHauls'
p68
F0.0086723431094300005
sS'puppy101'
p69
F0.019253672092100001
sS'recipes'
p70
F0.00821569081231
sS'HumanPorn'
p71
F0.0072833211944599999
sS'PerfectTiming'
p72
F0.0080167483660100007
sS'itookapicture'
p73
F0.0090139652983499997
sS'AnimalsBeingBros'
p74
F0.0143557671807
sS'crafts'
p75
F0.0098822539949499997
sS'corgi'
p76
F0.018807897445499999
sS'Dachshund'
p77
F0.015985790408500001
sS'Greyhounds'
p78
F0.0087073007367700003
s.