(dp1
S'awwwtf'
p2
F0.0075569724879000003
sS'Heavymind'
p3
F0.0080453842186699997
sS'HipHopImages'
p4
F0.0074164133738600004
sS'PanicHistory'
p5
F0.025891548607699998
sS'Conservative'
p6
F0.0097002357696199994
sS'Hiphopcirclejerk'
p7
F0.018003646308099999
sS'perfectloops'
p8
F0.0079406179872299996
sS'askphilosophy'
p9
F0.0072350845948400003
sS'ShitRConservativeSays'
p10
F0.018095520617
sS'badlinguistics'
p11
F0.015049073064300001
sS'quityourbullshit'
p12
F0.0153184391871
sS'shittybattlestations'
p13
F0.0083736752584100006
sS'ImaginaryMonsters'
p14
F0.0071680233264499998
sS'TrueChristian'
p15
F0.0099318403115899994
sS'nononono'
p16
F0.0081483101826499999
sS'Frisson'
p17
F0.0071251548946700003
sS'Judaism'
p18
F0.0083560709413399992
sS'moviescirclejerk'
p19
F0.0152342627192
sS'DebateAnAtheist'
p20
F0.0114728237487
sS'NoStupidQuestions'
p21
F0.0071573948439600001
sS'3amjokes'
p22
F0.0072940503432500003
sS'toosoon'
p23
F0.0115851620809
sS'Braveryjerk'
p24
F0.049480968858100001
sS'GunsAreCool'
p25
F0.011504424778799999
sS'creepyPMs'
p26
F0.0080302314596099999
sS'IdiotsFightingThings'
p27
F0.0081371066464999992
sS'PropagandaPosters'
p28
F0.0139703130847
sS'vexillology'
p29
F0.011787106718699999
sS'shittyadviceanimals'
p30
F0.0304781923279
sS'montageparodies'
p31
F0.0111693189681
sS'DeepIntoYouTube'
p32
F0.0147805703868
sS'csshelp'
p33
F0.0070789090151999997
sS'cringe'
p34
F0.0070527406807300002
sS'TrueAtheism'
p35
F0.0115133860452
sS'badhistory'
p36
F0.0273465611185
sS'circlebroke2'
p37
F0.054308093994800001
sS'Christianity'
p38
F0.0101688531793
sS'MarkMyWords'
p39
F0.015799391216099998
sS'OneY'
p40
F0.0072620519159500001
sS'KarmaCourt'
p41
F0.0101786057231
sS'againstmensrights'
p42
F0.012005795901499999
sS'firstworldanarchists'
p43
F0.0096904748332699991
sS'forwardsfromgrandma'
p44
F0.0262589013225
sS'no_sob_story'
p45
F0.024768772534900001
sS'findareddit'
p46
F0.0071090047393400002
sS'skeptic'
p47
F0.0091808686091299999
sS'shittyfoodporn'
p48
F0.0080090322125400005
sS'ExpectationVsReality'
p49
F0.0089528657947900003
sS'DebateReligion'
p50
F0.012136888181499999
sS'religion'
p51
F0.0079571289379699994
sS'outside'
p52
F0.0099929779074200004
sS'metacanada'
p53
F0.010768335273600001
sS'SCP'
p54
F0.0077876668785799999
sS'SubredditDrama'
p55
F0.014224605497500001
sS'blackpeoplegifs'
p56
F0.0118203309693
sS'needamod'
p57
F0.0080506796885300002
sS'FloridaMan'
p58
F0.010830072666299999
sS'delusionalartists'
p59
F0.015279205207300001
sS'whitepeoplegifs'
p60
F0.011614278103400001
sS'NotTimAndEric'
p61
F0.0151501154734
sS'shittyaskscience'
p62
F0.0092952078669200008
sS'ainbow'
p63
F0.0087534275469300007
sS'lewronggeneration'
p64
F0.031173746327400002
sS'youtubehaiku'
p65
F0.0071939505415899996
sS'PoliticalHumor'
p66
F0.0092360469718999992
sS'TheoryOfReddit'
p67
F0.015737608471799999
sS'RedditDayOf'
p68
F0.0086814975583300001
sS'Anarcho_Capitalism'
p69
F0.0074713248447899998
sS'TheBluePill'
p70
F0.018996734936200001
sS'4chan'
p71
F0.0075409911675900004
sS'wheredidthesodago'
p72
F0.010654940594499999
sS'classic4chan'
p73
F0.0176477036063
sS'ANormalDayInRussia'
p74
F0.0083177036614199996
sS'androidcirclejerk'
p75
F0.0115331079738
sS'QuotesPorn'
p76
F0.0071092371053100003
sS'ShitAmericansSay'
p77
F0.0132795427803
sS'Catholicism'
p78
F0.0097273928185399993
sS'misc'
p79
F0.010388792696399999
sS'AntiJokes'
p80
F0.011120940224900001
sS'KingOfTheHill'
p81
F0.0074900398406399999
sS'rant'
p82
F0.0073160954099000001
sS'conspiratard'
p83
F0.026765451875600001
sS'GamePhysics'
p84
F0.0091151622943500005
sS'CrazyIdeas'
p85
F0.0074036511156200004
sS'OutOfTheLoop'
p86
F0.0096605681845300002
sS'onetruegod'
p87
F0.010877111779700001
sS'TheFacebookDelusion'
p88
F0.0131661442006
sS'shittyreactiongifs'
p89
F0.0153221125943
sS'misleadingthumbnails'
p90
F0.011378961564400001
sS'shittyadvice'
p91
F0.011504139339900001
sS'Pareidolia'
p92
F0.0097487516842399997
sS'ObscureMedia'
p93
F0.0078288100208799994
sS'fatlogic'
p94
F0.00806500150466
sS'explainlikeIAmA'
p95
F0.011688954928199999
sS'Awwducational'
p96
F0.0071661237784999996
sS'shittyaskreddit'
p97
F0.0130283290411
sS'SRSGaming'
p98
F0.0075099741844600002
sS'ghettoglamourshots'
p99
F0.0078670219515300007
sS'blunderyears'
p100
F0.0106776394604
sS'rage'
p101
F0.0108382046715
sS'thatHappened'
p102
F0.0149758881564
sS'offbeat'
p103
F0.0072807537721600001
sS'behindthegifs'
p104
F0.0089367552703899997
sS'softwaregore'
p105
F0.0095001130965800002
sS'socialism'
p106
F0.0088803761100499992
sS'NewsOfTheStupid'
p107
F0.0104977988486
sS'crappymusic'
p108
F0.014093739757499999
sS'FanTheories'
p109
F0.0072081171663399999
sS'ShitPoliticsSays'
p110
F0.0203438395415
sS'polandball'
p111
F0.0093764004274500008
sS'ShitRedditSays'
p112
F0.0122296341217
sS'SRSsucks'
p113
F0.017839766461199998
sS'MURICA'
p114
F0.0092103647304400005
sS'shittyama'
p115
F0.0124415142493
sS'circlebroke'
p116
F0.046470891293100003
sS'ImaginaryLandscapes'
p117
F0.0071350164654200004
sS'gats'
p118
F0.0081190798376200007
sS'OrthodoxChristianity'
p119
F0.0079417604235600004
sS'TumblrInAction'
p120
F0.0099770274602000008
sS'Frugal_Jerk'
p121
F0.015612161051799999
sS'FutureWhatIf'
p122
F0.00716427857381
sS'fifthworldproblems'
p123
F0.012585134735
sS'notinteresting'
p124
F0.010542417727799999
sS'badphilosophy'
p125
F0.0289655172414
sS'CrappyDesign'
p126
F0.0094437066548599992
sS'DebateAChristian'
p127
F0.0095042383765700008
sS'EnoughLibertarianSpam'
p128
F0.020067453625600001
sS'Sidehugs'
p129
F0.031714568880099998
sS'HumanPorn'
p130
F0.0078876794447099996
sS'TimAndEric'
p131
F0.00758334525683
sS'terriblefacebookmemes'
p132
F0.024087765323199999
sS'Shitstatistssay'
p133
F0.011529933481199999
sS'HailCorporate'
p134
F0.0134116603857
s.