(dp1
S'newhampshire'
p2
F0.021157684630699999
sS'BostonBruins'
p3
F0.0131080687445
sS'boston'
p4
F0.0099809611723299992
sS'bostonceltics'
p5
F0.0093372391065500004
sS'Patriots'
p6
F0.011249469364699999
sS'redsox'
p7
F0.0119163087155
s.