(dp1
S'FancyFollicles'
p2
F0.036330020799600002
sS'weddingplanning'
p3
F0.014560476770999999
sS'TwoXChromosomes'
p4
F0.00702576112412
sS'AskWomen'
p5
F0.0099003392148100007
sS'ABraThatFits'
p6
F0.025978616241100001
sS'Baking'
p7
F0.0106635924778
sS'crochet'
p8
F0.0081831772759500005
sS'rupaulsdragrace'
p9
F0.0079561527581300008
sS'randomactsofamazon'
p10
F0.0070100579091699998
sS'Pets'
p11
F0.0081178160919499996
sS'entwives'
p12
F0.0072048032021300003
sS'knitting'
p13
F0.0091616669369200005
sS'femalefashionadvice'
p14
F0.037735849056599997
sS'BeautyBoxes'
p15
F0.090129321720800001
sS'RandomActsofMakeup'
p16
F0.15050245384399999
sS'CrossStitch'
p17
F0.00768649193548
sS'TalesFromRetail'
p18
F0.0071023781830800003
sS'loseit'
p19
F0.0092877365215799992
sS'AmericanHorrorStory'
p20
F0.00771812080537
sS'EatCheapAndHealthy'
p21
F0.0097998505107500002
sS'InteriorDesign'
p22
F0.0073649120086799998
sS'AustralianMakeup'
p23
F0.023540793292500001
sS'TrollXChromosomes'
p24
F0.012639543958499999
sS'GirlGamers'
p25
F0.0081046107743599997
sS'progresspics'
p26
F0.0071510896898600001
sS'Indiemakeupandmore'
p27
F0.11885353668199999
sS'RedditLaqueristas'
p28
F0.036580267558500003
sS'raisedbynarcissists'
p29
F0.0079846929388799996
sS'ketorecipes'
p30
F0.0075735718407399996
sS'xxfitness'
p31
F0.017403373905600001
sS'Assistance'
p32
F0.0075822509395400001
sS'bigboobproblems'
p33
F0.016750983698700001
sS'RandomActsOfPolish'
p34
F0.0296857729354
sS'childfree'
p35
F0.0070523269352299996
sS'MakeupAddiction'
p36
F0.056368155456799997
sS'RandomKindness'
p37
F0.00778581075713
sS'birthcontrol'
p38
F0.0101419878296
sS'sewing'
p39
F0.0119651921682
sS'snackexchange'
p40
F0.011412116041
sS'xxketo'
p41
F0.012792195840200001
sS'slowcooking'
p42
F0.0070648683365400001
sS'piercing'
p43
F0.0137569894382
sS'LadyBoners'
p44
F0.010855580572500001
sS'curlyhair'
p45
F0.0214155382695
sS'TheGirlSurvivalGuide'
p46
F0.029395490385899999
sS'wedding'
p47
F0.0107093731578
sS'ThriftStoreHauls'
p48
F0.0079068125661799996
sS'Random_Acts_Of_Amazon'
p49
F0.0149044491994
sS'creepyPMs'
p50
F0.0072188955422499996
sS'braswap'
p51
F0.030417625781000001
sS'recipes'
p52
F0.0070298769771499998
sS'PolishGauntlet'
p53
F0.0155571635311
sS'freebies'
p54
F0.0081188118811899995
sS'redditgetsdrawn'
p55
F0.0080399682371599997
sS'Hair'
p56
F0.015784858228599999
sS'secretsanta'
p57
F0.0095543646876300008
sS'crafts'
p58
F0.0111242819367
sS'MakeupAddicts'
p59
F0.14762637622800001
sS'AsianBeauty'
p60
F0.060182956186800002
sS'SkincareAddiction'
p61
F0.0451230496557
sS'sailormoon'
p62
F0.00710455764075
s.