(dp1
S'FancyFollicles'
p2
F0.045537086185199999
sS'ABraThatFits'
p3
F0.029437765205100001
sS'rupaulsdragrace'
p4
F0.010068892421800001
sS'Pets'
p5
F0.0094725511302499992
sS'RandomActsofMakeup'
p6
F0.12311015118800001
sS'TalesFromRetail'
p7
F0.0080186110973600004
sS'BabyBumps'
p8
F0.0085078139141999999
sS'TheBluePill'
p9
F0.0093340654168999997
sS'harrypotter'
p10
F0.0074879086300300001
sS'bigboobproblems'
p11
F0.023680649526400002
sS'TalesFromYourServer'
p12
F0.0096337748813499994
sS'childfree'
p13
F0.010031327067899999
sS'xxketo'
p14
F0.0174193548387
sS'wedding'
p15
F0.0131540198292
sS'makeupexchange'
p16
F0.14762637622800001
sS'creepyPMs'
p17
F0.010400346678199999
sS'AskWomen'
p18
F0.014227830057899999
sS'Cumberbitches'
p19
F0.0097998619737799993
sS'redditgetsdrawn'
p20
F0.0070657377752799998
sS'TwoXChromosomes'
p21
F0.0099444077284899998
sS'entwives'
p22
F0.0098548408576400008
sS'knitting'
p23
F0.0122465531225
sS'Feminism'
p24
F0.0080018117309600002
sS'AmericanHorrorStory'
p25
F0.0095257261689100006
sS'InteriorDesign'
p26
F0.0085152500387100007
sS'ExpectationVsReality'
p27
F0.0074498567335200003
sS'disney'
p28
F0.0091771563217000005
sS'OnceUponATime'
p29
F0.0070112893642299999
sS'LadyBoners'
p30
F0.015243164771399999
sS'keto'
p31
F0.0070474581639700003
sS'ThriftStoreHauls'
p32
F0.0085271317829500003
sS'braswap'
p33
F0.0172747820471
sS'recipes'
p34
F0.0087331593801599997
sS'piercing'
p35
F0.015963107484899999
sS'Hair'
p36
F0.0226850493791
sS'weddingplanning'
p37
F0.018864083599099999
sS'xxfitness'
p38
F0.0262860828899
sS'TrollXChromosomes'
p39
F0.019077521628599999
sS'femalefashionadvice'
p40
F0.049830523396599997
sS'BeautyBoxes'
p41
F0.084313725490199998
sS'CrossStitch'
p42
F0.0086661642803299993
sS'loseit'
p43
F0.0102683210073
sS'EatCheapAndHealthy'
p44
F0.0131469462473
sS'AustralianMakeup'
p45
F0.027366387636800001
sS'cats'
p46
F0.0083333333333300008
sS'PenmanshipPorn'
p47
F0.0078223985016299992
sS'catpictures'
p48
F0.0076129420014000001
sS'Indiemakeupandmore'
p49
F0.13015873015900001
sS'tea'
p50
F0.0098715950419400005
sS'raisedbynarcissists'
p51
F0.010797862539200001
sS'dogs'
p52
F0.0095005211256300008
sS'TrollYChromosome'
p53
F0.010932438685799999
sS'MakeupAddiction'
p54
F0.063738496293000005
sS'ketorecipes'
p55
F0.011558188254
sS'snackexchange'
p56
F0.0082635872444100002
sS'breakingmom'
p57
F0.0076335877862599997
sS'namenerds'
p58
F0.0095615353093800003
sS'sailormoon'
p59
F0.0094970572498699994
sS'curlyhair'
p60
F0.0307187017002
sS'TheGirlSurvivalGuide'
p61
F0.045046938489600001
sS'blunderyears'
p62
F0.0074274448672699998
sS'Random_Acts_Of_Amazon'
p63
F0.0090742773509000004
sS'PolishGauntlet'
p64
F0.0112802148612
sS'fitmeals'
p65
F0.0097365406643800008
sS'C25K'
p66
F0.00711574952562
sS'nursing'
p67
F0.00742866790478
sS'Cooking'
p68
F0.0079966741661000006
sS'Anxiety'
p69
F0.0072719355540999996
sS'RandomActsOfPolish'
p70
F0.0221425230002
sS'yoga'
p71
F0.0082247557003300008
sS'badtattoos'
p72
F0.0071870938145099997
sS'slowcooking'
p73
F0.0080213903743300008
sS'RedditLaqueristas'
p74
F0.045734435029700003
sS'Baking'
p75
F0.014648578438399999
sS'birthcontrol'
p76
F0.013296188426
sS'sewing'
p77
F0.016152450090699998
sS'budgetfood'
p78
F0.0077038707252899997
sS'Mommit'
p79
F0.0083793173921899999
sS'progresspics'
p80
F0.0080152971684499998
sS'crochet'
p81
F0.010540391725000001
sS'dogpictures'
p82
F0.0077458783399700004
sS'beyondthebump'
p83
F0.0070476190476199997
sS'thesims'
p84
F0.00927891321487
sS'GirlGamers'
p85
F0.0133879781421
sS'secretsanta'
p86
F0.0086194764987299992
sS'crafts'
p87
F0.014132020423
sS'AsianBeauty'
p88
F0.067487625256499997
sS'SkincareAddiction'
p89
F0.058287528291300003
s.