(dp1
S'audioengineering'
p2
F0.029134039613099998
sS'Heavymind'
p3
F0.0078589634664399995
sS'HipHopImages'
p4
F0.049563642351399997
sS'crappymusic'
p5
F0.0070921985815599999
sS'FL_Studio'
p6
F0.032485233984600001
sS'Hiphopcirclejerk'
p7
F0.030229606553599998
sS'rapbattles'
p8
F0.0079958730977600003
sS'skateboarding'
p9
F0.0078295795414099999
sS'sneakermarket'
p10
F0.0080846391855500001
sS'supremeclothing'
p11
F0.012951117428700001
sS'bestofworldstar'
p12
F0.0099682172782400002
sS'trapmuzik'
p13
F0.024905123339699999
sS'Drugs'
p14
F0.0076621121763400003
sS'Jazz'
p15
F0.0102087114338
sS'Eminem'
p16
F0.010742683133099999
sS'edmproduction'
p17
F0.042192921582199998
sS'ifyoulikeblank'
p18
F0.0075922484735899999
sS'hiphopheads'
p19
F0.044633895333299999
sS'musictheory'
p20
F0.012943116240699999
sS'LetsTalkMusic'
p21
F0.013036937990999999
sS'blackpeoplegifs'
p22
F0.00938549016921
sS'glitch_art'
p23
F0.0074810847572899996
sS'electronicmusic'
p24
F0.0121015348288
sS'Beatmatch'
p25
F0.012834878272399999
sS'ableton'
p26
F0.028924753720400001
sS'delusionalartists'
p27
F0.0070514494646100002
sS'NotTimAndEric'
p28
F0.0078930202217900002
sS'synthesizers'
p29
F0.0183546072859
sS'indieheads'
p30
F0.012822878228799999
sS'vinyl'
p31
F0.0099399778261999999
sS'Psychonaut'
p32
F0.00750587809731
sS'OFWGKTA'
p33
F0.022460743391000002
sS'lewronggeneration'
p34
F0.0123481618534
sS'DJs'
p35
F0.015765199161400002
sS'youtubehaiku'
p36
F0.0074425366934400003
sS'futurebeats'
p37
F0.030244839174300001
sS'EDM'
p38
F0.00713135495744
sS'WeAreTheMusicMakers'
p39
F0.046850770398200001
sS'Graffiti'
p40
F0.0070378619153699997
sS'trap'
p41
F0.020556690500500002
sS'listentothis'
p42
F0.010505909574099999
sS'Sneakers'
p43
F0.0163666824176
sS'streetwear'
p44
F0.0278979731269
s.