(dp1
S'rawdenim'
p2
F0.090494065131400001
sS'sneakermarket'
p3
F0.030829199149500001
sS'frugalmalefashion'
p4
F0.053287902206
sS'TeenMFA'
p5
F0.0267247915087
sS'malelivingspace'
p6
F0.012874119718299999
sS'Watches'
p7
F0.0109646564796
sS'malefashionadvice'
p8
F0.020060797067400001
sS'BuyItForLife'
p9
F0.0081960357949299994
sS'Sneakers'
p10
F0.0142894530228
sS'malegrooming'
p11
F0.0094847475006399999
sS'malefashion'
p12
F0.068902842035700004
sS'malehairadvice'
p13
F0.0108353282097
sS'goodyearwelt'
p14
F0.093854128100699999
sS'supremeclothing'
p15
F0.0213961271814
sS'femalefashionadvice'
p16
F0.0073698540111700002
sS'streetwear'
p17
F0.0233318472284
s.