(dp1
S'malehairadvice'
p2
F0.0191470844212
sS'Hiphopcirclejerk'
p3
F0.0103227920695
sS'Sneakers'
p4
F0.026677802888899999
sS'malegrooming'
p5
F0.017325392528399999
sS'supremeclothing'
p6
F0.036777583187400001
sS'femalefashionadvice'
p7
F0.011711354730800001
sS'analog'
p8
F0.0070878650861499999
sS'rawdenim'
p9
F0.071253929444600003
sS'frugalmalefashion'
p10
F0.038159889277000002
sS'trapmuzik'
p11
F0.0101374570447
sS'TeenMFA'
p12
F0.043635269334900001
sS'seduction'
p13
F0.0070439556645100002
sS'InteriorDesign'
p14
F0.0082096359565500005
sS'malefashionadvice'
p15
F0.029912205733800001
sS'hiphopheads'
p16
F0.010761852666899999
sS'goodyearwelt'
p17
F0.0582704088902
sS'circlebroke'
p18
F0.0070506286102600003
sS'LetsTalkMusic'
p19
F0.0094919641894100001
sS'blackpeoplegifs'
p20
F0.0074055373222299999
sS'glitch_art'
p21
F0.0074271145105900003
sS'sneakermarket'
p22
F0.017050180205200001
sS'RoomPorn'
p23
F0.00895082133957
sS'malelivingspace'
p24
F0.017264276228399999
sS'FixedGearBicycle'
p25
F0.0091015854374599994
sS'MaleFashionMarket'
p26
F0.068902842035700004
sS'indieheads'
p27
F0.0113244707041
sS'HipHopImages'
p28
F0.0159747659748
sS'lewronggeneration'
p29
F0.0082800828008300006
sS'EDC'
p30
F0.0076377523185999999
sS'ThriftStoreHauls'
p31
F0.0073446751105400001
sS'futurebeats'
p32
F0.0114686468647
sS'SketchDaily'
p33
F0.0091374775024199995
sS'BuyItForLife'
p34
F0.0086186540731999998
sS'Watches'
p35
F0.011535572486299999
sS'Design'
p36
F0.0086044466775500004
sS'trap'
p37
F0.0084655277608300002
sS'minimalism'
p38
F0.0144483362522
sS'streetwear'
p39
F0.058127465227300001
s.