(dp1
S'reddevils'
p2
F0.0117921704777
sS'AskUK'
p3
F0.0281279023484
sS'ShitAmericansSay'
p4
F0.0083266613290600006
sS'unitedkingdom'
p5
F0.024697781178299998
sS'BritishTV'
p6
F0.018264840182599999
sS'london'
p7
F0.0093045049869500008
sS'britishproblems'
p8
F0.023072889355000001
sS'ukpolitics'
p9
F0.0224176248913
sS'MCFC'
p10
F0.017306880540299999
sS'TheRedLion'
p11
F0.0136376287225
s.