(dp1
S'asoiaf'
p2
F0.038465835796500002
sS'inthenews'
p3
F0.00994600738846
sS'AndroidGaming'
p4
F0.0095870689091000008
sS'milf'
p5
F0.0080835862948000006
sS'KitchenConfidential'
p6
F0.0082235371936300004
sS'BuyItForLife'
p7
F0.026441810281100001
sS'SampleSize'
p8
F0.0106957788556
sS'everymanshouldknow'
p9
F0.033464253105099998
sS'wiiu'
p10
F0.010555095495399999
sS'skiing'
p11
F0.010069014333699999
sS'golf'
p12
F0.0102778835173
sS'financialindependence'
p13
F0.0074799252007500001
sS'relationships'
p14
F0.019360471737499999
sS'Cricket'
p15
F0.0081929821360099998
sS'AskMen'
p16
F0.032396782253800001
sS'syriancivilwar'
p17
F0.015883112627500001
sS'Showerthoughts'
p18
F0.043272618646400002
sS'duolingo'
p19
F0.0121206225681
sS'HistoryPorn'
p20
F0.104747066315
sS'picrequests'
p21
F0.0087644002710599994
sS'holdmybeer'
p22
F0.0348565939344
sS'ImaginaryMonsters'
p23
F0.011181688340999999
sS'Atlanta'
p24
F0.0092654424040099995
sS'DeepIntoYouTube'
p25
F0.018876104719
sS'BMW'
p26
F0.0075964595686199999
sS'YouShouldKnow'
p27
F0.0451753875593
sS'geology'
p28
F0.010150828697599999
sS'skyrimmods'
p29
F0.0079784971845600003
sS'UpliftingNews'
p30
F0.031796822837300003
sS'PandR'
p31
F0.0151006711409
sS'Jokes'
p32
F0.031670137201000002
sS'gopro'
p33
F0.00741086235489
sS'Military'
p34
F0.026035325065799999
sS'Steam'
p35
F0.028711521317299999
sS'AlienBlue'
p36
F0.011133173803099999
sS'photoshopbattles'
p37
F0.035627302541899997
sS'IWantToLearn'
p38
F0.018139941227900001
sS'Astronomy'
p39
F0.022170964299199999
sS'Celebs'
p40
F0.028913923405699999
sS'CrappyDesign'
p41
F0.053242086349899999
sS'Patriots'
p42
F0.0115400326797
sS'techsupport'
p43
F0.020578501819199999
sS'Libertarian'
p44
F0.037629516569299998
sS'starcitizen'
p45
F0.0093356130184100005
sS'Anarcho_Capitalism'
p46
F0.0123300257258
sS'Whatisthis'
p47
F0.0074250567961399996
sS'ass'
p48
F0.0091917591125199993
sS'Paleo'
p49
F0.0079106640525099994
sS'pcgaming'
p50
F0.022667829119400001
sS'EatCheapAndHealthy'
p51
F0.018308367377799999
sS'totalwar'
p52
F0.0251070149384
sS'tea'
p53
F0.0098026961878400001
sS'askphilosophy'
p54
F0.0084272777675100004
sS'blackpeoplegifs'
p55
F0.017175050595300001
sS'Denver'
p56
F0.0074459776099999996
sS'polandball'
p57
F0.097581733873300006
sS'POLITIC'
p58
F0.0088952929875099999
sS'MechanicAdvice'
p59
F0.0086172006745400005
sS'fatpeoplestories'
p60
F0.022251670255600001
sS'OneY'
p61
F0.0082151437650199999
sS'nba'
p62
F0.031675091511200001
sS'fantasyfootball'
p63
F0.018284806591299999
sS'forwardsfromgrandma'
p64
F0.031466952172199997
sS'no_sob_story'
p65
F0.0106984059181
sS'Design'
p66
F0.0158802870667
sS'frugalmalefashion'
p67
F0.014601686467799999
sS'movies'
p68
F0.037865056308400001
sS'skeptic'
p69
F0.028914769890000001
sS'Warthunder'
p70
F0.012282734646599999
sS'boardgames'
p71
F0.0156344805204
sS'InteriorDesign'
p72
F0.0095770583461099994
sS'socialskills'
p73
F0.013613268143
sS'DebateReligion'
p74
F0.0106892671772
sS'Anticonsumption'
p75
F0.0071483580497999997
sS'mindcrack'
p76
F0.0099595908005200001
sS'Nexus5'
p77
F0.0091859030575100007
sS'GuessTheMovie'
p78
F0.0070071776224799997
sS'worldnews'
p79
F0.050315749589499997
sS'vexillology'
p80
F0.069681413256799996
sS'disney'
p81
F0.0082398406510200001
sS'tattoos'
p82
F0.019483704133000001
sS'Economics'
p83
F0.036369634889699999
sS'ExposurePorn'
p84
F0.0082731707317099997
sS'titanfall'
p85
F0.0081796250691100001
sS'malelivingspace'
p86
F0.0097939384962900007
sS'answers'
p87
F0.022050815076699998
sS'netsec'
p88
F0.0087739552066499991
sS'lgbt'
p89
F0.015794895273000001
sS'baseball'
p90
F0.036858717778600003
sS'finance'
p91
F0.0079778961043700004
sS'gentlemanboners'
p92
F0.042933533104300002
sS'doctorwho'
p93
F0.022828328584899998
sS'WritingPrompts'
p94
F0.019520526508699999
sS'sanfrancisco'
p95
F0.0122098202589
sS'ThriftStoreHauls'
p96
F0.0091825584264500007
sS'environment'
p97
F0.021927497789600001
sS'WarshipPorn'
p98
F0.0203690807799
sS'vegetarian'
p99
F0.0076327514425500002
sS'personalfinance'
p100
F0.023569065836500001
sS'creepy'
p101
F0.028111389732099999
sS'pics'
p102
F0.030328169651900001
sS'howtonotgiveafuck'
p103
F0.0111840789386
sS'thewalkingdead'
p104
F0.0259532696789
sS'IWantOut'
p105
F0.017311553698400001
sS'vinyl'
p106
F0.012484993997600001
sS'whatsthisbug'
p107
F0.0148452356222
sS'QuotesPorn'
p108
F0.046463366336599997
sS'firefox'
p109
F0.0074919251572000004
sS'apple'
p110
F0.0265041159103
sS'hiking'
p111
F0.0103063700137
sS'Yogscast'
p112
F0.0087334129725899993
sS'todayilearned'
p113
F0.043180981923699999
sS'Catholicism'
p114
F0.0077555597084700001
sS'confession'
p115
F0.0186482107056
sS'jailbreak'
p116
F0.00854739253984
sS'AntiJokes'
p117
F0.0079478680126600001
sS'printSF'
p118
F0.0088830305461599993
sS'IdiotsFightingThings'
p119
F0.024635884722700001
sS'Health'
p120
F0.0096399397926600003
sS'Firearms'
p121
F0.0094815998837500005
sS'AskScienceFiction'
p122
F0.019968409676600001
sS'ContagiousLaughter'
p123
F0.018094740214799999
sS'graphic_design'
p124
F0.0086974351964199999
sS'HIMYM'
p125
F0.019721911000000002
sS'FiftyFifty'
p126
F0.031357333672599998
sS'eldertrees'
p127
F0.0083948339483399994
sS'AskHistorians'
p128
F0.078846593123099995
sS'TheRedPill'
p129
F0.0137881799602
sS'Drugs'
p130
F0.0175281722006
sS'OutOfTheLoop'
p131
F0.047832051052699998
sS'france'
p132
F0.0107189443636
sS'wheredidthesodago'
p133
F0.037094581472099999
sS'ifyoulikeblank'
p134
F0.0139168031887
sS'misleadingthumbnails'
p135
F0.021272062218100001
sS'trailerparkboys'
p136
F0.0089467703241399993
sS'eagles'
p137
F0.0076877902941600001
sS'battlefield_4'
p138
F0.017323808988100001
sS'Pareidolia'
p139
F0.02165830732
sS'GrandTheftAutoV'
p140
F0.022752802275300001
sS'Filmmakers'
p141
F0.0076942764820700001
sS'Denmark'
p142
F0.0082576537777399994
sS'Eve'
p143
F0.0108001827723
sS'depression'
p144
F0.012217891185400001
sS'ftlgame'
p145
F0.0095070675181199993
sS'LifeProTips'
p146
F0.043565759790500001
sS'Shitty_Car_Mods'
p147
F0.0249943162442
sS'PoliticalHumor'
p148
F0.0179792061577
sS'NeutralPolitics'
p149
F0.0125004937004
sS'ghettoglamourshots'
p150
F0.0086982773259899997
sS'popping'
p151
F0.0143590541381
sS'EDC'
p152
F0.0175811973721
sS'dwarffortress'
p153
F0.0121964134425
sS'showerbeer'
p154
F0.010081173081999999
sS'techsupportgore'
p155
F0.0273486584374
sS'science'
p156
F0.053180516309200003
sS'firstworldproblems'
p157
F0.0283823181782
sS'Entrepreneur'
p158
F0.0131756892465
sS'standupshots'
p159
F0.044109277177
sS'legaladvice'
p160
F0.015866113361300001
sS'Meditation'
p161
F0.0089111901725199994
sS'MMA'
p162
F0.012976588628800001
sS'history'
p163
F0.053631455638200001
sS'gamernews'
p164
F0.014283613067700001
sS'NewsOfTheStupid'
p165
F0.0081853251610600006
sS'audiophile'
p166
F0.0088259476148100004
sS'punk'
p167
F0.0071149706279400003
sS'awesome'
p168
F0.011454097703499999
sS'solotravel'
p169
F0.0108629721533
sS'india'
p170
F0.0109107391459
sS'DecidingToBeBetter'
p171
F0.0091009672008299999
sS'Glitch_in_the_Matrix'
p172
F0.010391863392099999
sS'gadgets'
p173
F0.025499614540699999
sS'buildapcsales'
p174
F0.0093358544079400006
sS'learnprogramming'
p175
F0.018581308525599999
sS'Infographics'
p176
F0.023336662569100001
sS'TalesFromYourServer'
p177
F0.0089605418658399993
sS'counting'
p178
F0.0107027724049
sS'CampingandHiking'
p179
F0.019138915795499999
sS'SRSsucks'
p180
F0.0089021349540299999
sS'HouseOfCards'
p181
F0.019666168071800001
sS'asmr'
p182
F0.013695060984500001
sS'techsupportmacgyver'
p183
F0.012776800117299999
sS'MURICA'
p184
F0.063262700419899995
sS'backpacking'
p185
F0.0117569163595
sS'technology'
p186
F0.0480880240135
sS'travel'
p187
F0.043056572519199997
sS'RealGirls'
p188
F0.024268031421100001
sS'Jeep'
p189
F0.0070837230247
sS'vancouver'
p190
F0.0083812380238299997
sS'scifi'
p191
F0.033416156083199998
sS'RedditLaqueristas'
p192
F0.0076514653277899997
sS'spaceporn'
p193
F0.037807444203000001
sS'nyc'
p194
F0.024687650168200001
sS'Pizza'
p195
F0.0111242297901
sS'photography'
p196
F0.019638707743
sS'economy'
p197
F0.0107347556885
sS'BasicIncome'
p198
F0.012997101229599999
sS'gaming'
p199
F0.031259317137400003
sS'JusticePorn'
p200
F0.052392841138800002
sS'mylittlepony'
p201
F0.0077126306634499996
sS'hardbodies'
p202
F0.010274403958599999
sS'askscience'
p203
F0.046230901973999997
sS'philosophy'
p204
F0.0189139719341
sS'budgetfood'
p205
F0.0079813705421699997
sS'Images'
p206
F0.00984396468972
sS'mac'
p207
F0.0087532888079300004
sS'nerdcubed'
p208
F0.00757793910368
sS'vegan'
p209
F0.0086549906478500006
sS'CHIBears'
p210
F0.0086325044942400005
sS'dogpictures'
p211
F0.0094354624966900003
sS'law'
p212
F0.011800011114600001
sS'GameDeals'
p213
F0.0218981152576
sS'seinfeld'
p214
F0.0096246209481499999
sS'short'
p215
F0.0070258498248300001
sS'oculus'
p216
F0.0153722132651
sS'CFB'
p217
F0.034941996286199997
sS'FanTheories'
p218
F0.024544722732699999
sS'listentothis'
p219
F0.019482811628200002
sS'tall'
p220
F0.019001297016899999
sS'ImGoingToHellForThis'
p221
F0.047617313731700001
sS'cableporn'
p222
F0.0102233032791
sS'houston'
p223
F0.0081674409244099997
sS'shield'
p224
F0.0087374399301000001
sS'Hunting'
p225
F0.0076021822735000003
sS'DoesAnybodyElse'
p226
F0.026284111639200001
sS'pettyrevenge'
p227
F0.027153900210800001
sS'malehairadvice'
p228
F0.0103864893337
sS'CityPorn'
p229
F0.057751028116600003
sS'electronic_cigarette'
p230
F0.011279302906799999
sS'washingtondc'
p231
F0.011153194980199999
sS'thatHappened'
p232
F0.044022570991299997
sS'london'
p233
F0.016205107472500001
sS'dataisbeautiful'
p234
F0.097629240986499999
sS'japan'
p235
F0.0133901192504
sS'islam'
p236
F0.0126580015376
sS'GlobalOffensive'
p237
F0.013213401666500001
sS'beards'
p238
F0.023778126344700001
sS'gaybros'
p239
F0.016132803366800001
sS'badlinguistics'
p240
F0.0122467920265
sS'nostalgia'
p241
F0.029901436540699999
sS'Documentaries'
p242
F0.0367179696722
sS'writing'
p243
F0.018716212526599999
sS'AndroidQuestions'
p244
F0.011269419624900001
sS'WorldofTanks'
p245
F0.0078658907909899996
sS'soccer'
p246
F0.052064859386900003
sS'wallpaper'
p247
F0.0123872431523
sS'texas'
p248
F0.0134225739974
sS'Gore'
p249
F0.00730082222852
sS'MensRights'
p250
F0.031190263356899998
sS'MilitaryPorn'
p251
F0.045027277209600002
sS'Frisson'
p252
F0.018216932873999999
sS'Judaism'
p253
F0.00718720012534
sS'childfree'
p254
F0.020079929817700001
sS'food'
p255
F0.039281317090400003
sS'whitepeoplegifs'
p256
F0.0178551604189
sS'unitedkingdom'
p257
F0.042077537028000003
sS'NoStupidQuestions'
p258
F0.0332898262005
sS'reddevils'
p259
F0.0098300458193899994
sS'chicago'
p260
F0.017034524281499999
sS'halo'
p261
F0.012344289359099999
sS'LiverpoolFC'
p262
F0.0091035949232500003
sS'Liberal'
p263
F0.0081700954818400007
sS'creepyPMs'
p264
F0.022884669086800001
sS'WatchItForThePlot'
p265
F0.020193820082200001
sS'nfl'
p266
F0.038278905817599997
sS'freebies'
p267
F0.017332877465799999
sS'Watches'
p268
F0.010382575330099999
sS'AdviceAnimals'
p269
F0.031195631323899999
sS'SubredditDrama'
p270
F0.057554757110900003
sS'arrow'
p271
F0.0072466133507400003
sS'minimalism'
p272
F0.027927817333699999
sS'eu4'
p273
F0.032261506722600003
sS'wallpapers'
p274
F0.031068175850300001
sS'mildlyinteresting'
p275
F0.050386057943099999
sS'TrueAtheism'
p276
F0.018505651680299998
sS'badhistory'
p277
F0.035016408114600002
sS'energy'
p278
F0.0128182986971
sS'TrollXChromosomes'
p279
F0.043755400803100003
sS'Rateme'
p280
F0.012938649449
sS'literature'
p281
F0.0096729270954899992
sS'TwoXChromosomes'
p282
F0.023981895091099999
sS'Cinemagraphs'
p283
F0.0163980404622
sS'canada'
p284
F0.039050131926099997
sS'DunderMifflin'
p285
F0.0141871820262
sS'psychology'
p286
F0.013954064918300001
sS'space'
p287
F0.053135677863600003
sS'shittyfoodporn'
p288
F0.030789993599899999
sS'malefashionadvice'
p289
F0.032686754456300003
sS'LearnUselessTalents'
p290
F0.0221662383336
sS'China'
p291
F0.0115912860364
sS'leagueoflegends'
p292
F0.0084547756176300004
sS'RoomPorn'
p293
F0.040487087283400003
sS'medicine'
p294
F0.0086191855393100009
sS'memes'
p295
F0.0092607694956399998
sS'tf2'
p296
F0.015897572070100001
sS'math'
p297
F0.019961641733799999
sS'LetsTalkMusic'
p298
F0.0084962733979400008
sS'bestof'
p299
F0.058798968072899999
sS'Cyberpunk'
p300
F0.019581845996900001
sS'cars'
p301
F0.023485811787500002
sS'Metal'
p302
F0.014348043773699999
sS'LadyBoners'
p303
F0.016654727793699999
sS'corgi'
p304
F0.0076640209713800004
sS'Roadcam'
p305
F0.014244061879
sS'GamePhysics'
p306
F0.020713225394400001
sS'youtubehaiku'
p307
F0.029479522810299998
sS'dayz'
p308
F0.014977689779000001
sS'CanadaPolitics'
p309
F0.0093224764520400006
sS'recipes'
p310
F0.0127636595703
sS'headphones'
p311
F0.010122448979599999
sS'programming'
p312
F0.0277495919178
sS'Planetside'
p313
F0.0085125587475499993
sS'49ers'
p314
F0.00909728278527
sS'dogecoin'
p315
F0.025517332062299999
sS'snowboarding'
p316
F0.0077316144546100002
sS'whatstheword'
p317
F0.0090950779578099997
sS'classicalmusic'
p318
F0.012646055591799999
sS'flying'
p319
F0.0103473227207
sS'nhl'
p320
F0.0109017449758
sS'dragonage'
p321
F0.0078700177710100006
sS'misc'
p322
F0.00952455001361
sS'patientgamers'
p323
F0.018597486826100001
sS'rant'
p324
F0.0078717306924899998
sS'Buddhism'
p325
F0.0090449207228800003
sS'GreenBayPackers'
p326
F0.011431625773700001
sS'pokemon'
p327
F0.021619214716799999
sS'TheLastAirbender'
p328
F0.0223430235289
sS'OldSchoolCool'
p329
F0.046452073503799998
sS'lego'
p330
F0.024075240752400001
sS'ANormalDayInRussia'
p331
F0.029049921775000001
sS'seduction'
p332
F0.011713659929600001
sS'onetruegod'
p333
F0.0093581395348799994
sS'TheFacebookDelusion'
p334
F0.0075594580450099999
sS'Autos'
p335
F0.017693274669999998
sS'Seattle'
p336
F0.017530377287399999
sS'PenmanshipPorn'
p337
F0.023924964890000001
sS'shittyreactiongifs'
p338
F0.015894411682099999
sS'alternativeart'
p339
F0.0087600556930699999
sS'shittyadvice'
p340
F0.0089459568683599999
sS'explainlikeimfive'
p341
F0.042053375878499999
sS'TheSimpsons'
p342
F0.025442864866599999
sS'ObscureMedia'
p343
F0.0074018809023599997
sS'CombatFootage'
p344
F0.026162941900599999
sS'GTA'
p345
F0.0074485498317199998
sS'TrollYChromosome'
p346
F0.0225753498841
sS'DaystromInstitute'
p347
F0.010632744988100001
sS'3DS'
p348
F0.0089091725636300002
sS'mildlyinfuriating'
p349
F0.064309027302799998
sS'madmen'
p350
F0.0113191828456
sS'nsfw_gifs'
p351
F0.0102528415681
sS'redditgetsdrawn'
p352
F0.011011851505199999
sS'Awwducational'
p353
F0.024186984677399999
sS'skyrim'
p354
F0.033368958556
sS'sex'
p355
F0.025079896876599998
sS'toronto'
p356
F0.0171521364052
sS'Battlefield'
p357
F0.0070747781564099999
sS'television'
p358
F0.038956186141999999
sS'DCcomics'
p359
F0.0087468377453299995
sS'worldpolitics'
p360
F0.042814617771900002
sS'typography'
p361
F0.0078957140344399993
sS'dogs'
p362
F0.0118815998574
sS'PerfectTiming'
p363
F0.036048538049400003
sS'sweden'
p364
F0.016783260658199999
sS'knives'
p365
F0.0083146671445199997
sS'KerbalSpaceProgram'
p366
F0.028987776081800001
sS'russia'
p367
F0.015889790526500001
sS'torrents'
p368
F0.0076500297088500004
sS'Boobies'
p369
F0.00751695256785
sS'gallifrey'
p370
F0.012153613422299999
sS'formula1'
p371
F0.0225936372949
sS'FoodPorn'
p372
F0.039099927413499998
sS'boston'
p373
F0.015843414523400001
sS'urbanplanning'
p374
F0.0139565795304
sS'teenagers'
p375
F0.0283362679661
sS'sysadmin'
p376
F0.0151034661468
sS'conspiracy'
p377
F0.046503968296099998
sS'collapse'
p378
F0.0088554134796900007
sS'HighQualityGifs'
p379
F0.020000361017299999
sS'self'
p380
F0.029210055050699998
sS'IAmA'
p381
F0.030901415234700001
sS'Parenting'
p382
F0.0139772152245
sS'DaftPunk'
p383
F0.0070557216332100001
sS'chess'
p384
F0.0086680838586699997
sS'britishproblems'
p385
F0.034191810498399998
sS'UnresolvedMysteries'
p386
F0.010623463359099999
sS'conspiratard'
p387
F0.032746019094800002
sS'gamegrumps'
p388
F0.0091295295971200001
sS'FutureWhatIf'
p389
F0.015979980689999999
sS'firefly'
p390
F0.0156083221054
sS'MovieSuggestions'
p391
F0.0077641770529599998
sS'aww'
p392
F0.030403645971700002
sS'Futurology'
p393
F0.051672789528099998
sS'translator'
p394
F0.0073041043010999996
sS'MLS'
p395
F0.017862791123500001
sS'germany'
p396
F0.017014892604899998
sS'EnoughLibertarianSpam'
p397
F0.0118122596343
sS'progresspics'
p398
F0.023349628642900001
sS'Gaming4Gamers'
p399
F0.0082138482599600007
sS'hearthstone'
p400
F0.0119875329657
sS'Minecraft'
p401
F0.0301560728791
sS'chemistry'
p402
F0.010665015917900001
sS'windows'
p403
F0.0090212796065999995
sS'newjersey'
p404
F0.0094319128136399998
sS'investing'
p405
F0.0190159762477
sS'TumblrInAction'
p406
F0.057614569964299998
sS'secretsanta'
p407
F0.0104121107803
sS'Fishing'
p408
F0.0099775340293400006
sS'HailCorporate'
p409
F0.015928479824499998
sS'Heavymind'
p410
F0.010712196548700001
sS'Psychonaut'
p411
F0.010497933917300001
sS'Justrolledintotheshop'
p412
F0.031610950147499997
sS'photocritique'
p413
F0.0073212368666500001
sS'adventuretime'
p414
F0.016401111363100001
sS'PanicHistory'
p415
F0.0088062820851000003
sS'LucidDreaming'
p416
F0.0083304118462100007
sS'fffffffuuuuuuuuuuuu'
p417
F0.029498487903200001
sS'PoliticalDiscussion'
p418
F0.025217046101799999
sS'spacex'
p419
F0.0084740877385099996
sS'Foodforthought'
p420
F0.028658399488099999
sS'languagelearning'
p421
F0.0202121272764
sS'TheoryOfReddit'
p422
F0.016540624394
sS'TheBluePill'
p423
F0.011929366546999999
sS'MachinePorn'
p424
F0.020639210720299998
sS'Austin'
p425
F0.011324730050000001
sS'minnesota'
p426
F0.0078777705718500006
sS'French'
p427
F0.0094658423255599995
sS'harrypotter'
p428
F0.0254215991006
sS'wicked_edge'
p429
F0.011369911964400001
sS'booksuggestions'
p430
F0.011433858762099999
sS'shittybattlestations'
p431
F0.0074769539457499997
sS'whowouldwin'
p432
F0.025020344368800001
sS'hockey'
p433
F0.035200144410800001
sS'gamedev'
p434
F0.011056855811899999
sS'CCW'
p435
F0.00725296266595
sS'ipad'
p436
F0.0081623298780099992
sS'Anxiety'
p437
F0.0086701672975900007
sS'arresteddevelopment'
p438
F0.0142492632789
sS'shutupandtakemymoney'
p439
F0.022283944705199999
sS'gonewild'
p440
F0.014027290150299999
sS'CrusaderKings'
p441
F0.031763938587400002
sS'de'
p442
F0.0099310076766099993
sS'trees'
p443
F0.0275748228555
sS'smashbros'
p444
F0.0145318365482
sS'geek'
p445
F0.036718604950100001
sS'lostgeneration'
p446
F0.0120089404099
sS'Fitness'
p447
F0.0238392030237
sS'elderscrollsonline'
p448
F0.00770491591704
sS'Conservative'
p449
F0.022319844555199999
sS'PrettyGirlsUglyFaces'
p450
F0.0077616284493500004
sS'homestead'
p451
F0.00717293898194
sS'AbandonedPorn'
p452
F0.049783486022299997
sS'motorcycles'
p453
F0.021563466246700001
sS'progressive'
p454
F0.012583471648600001
sS'dadjokes'
p455
F0.026793242811000002
sS'progun'
p456
F0.0072638292133100002
sS'guns'
p457
F0.0250760060326
sS'WeAreTheMusicMakers'
p458
F0.0119852061956
sS'privacy'
p459
F0.010523400719999999
sS'futurama'
p460
F0.025519879675599998
sS'architecture'
p461
F0.013763257118400001
sS'ClashOfClans'
p462
F0.0077161142152899998
sS'nsfw'
p463
F0.0258478480984
sS'cringe'
p464
F0.045502781618800003
sS'FIFA'
p465
F0.0091091022013699997
sS'StarWars'
p466
F0.0396209615874
sS'rpg'
p467
F0.0133209228516
sS'AskWomen'
p468
F0.0242482279812
sS'EngineeringStudents'
p469
F0.0093516934371999996
sS'Christianity'
p470
F0.021883507147600002
sS'see'
p471
F0.0088174553290799994
sS'AskScienceDiscussion'
p472
F0.00721232863468
sS'college'
p473
F0.0072780203784599999
sS'changemyview'
p474
F0.050969976128799999
sS'roosterteeth'
p475
F0.012436770243
sS'PS3'
p476
F0.0089793475007500009
sS'Android'
p477
F0.035138626926700001
sS'newzealand'
p478
F0.0101831590192
sS'PS4'
p479
F0.015057826180100001
sS'firstworldanarchists'
p480
F0.049735436011799999
sS'nononono'
p481
F0.034386827548299997
sS'cosplay'
p482
F0.010458235860700001
sS'truegaming'
p483
F0.026854323384300001
sS'camping'
p484
F0.0104142011834
sS'lotr'
p485
F0.021641766101799999
sS'wow'
p486
F0.0153990421648
sS'WTF'
p487
F0.034964787543200003
sS'wikipedia'
p488
F0.028024253179500001
sS'breakingbad'
p489
F0.027741557784899999
sS'outside'
p490
F0.0272099049813
sS'AskCulinary'
p491
F0.014630946975399999
sS'foodhacks'
p492
F0.0124840299325
sS'pcmasterrace'
p493
F0.036203278399799997
sS'magicTCG'
p494
F0.0120872548711
sS'CollegeBasketball'
p495
F0.023565618817299998
sS'europe'
p496
F0.0901882632293
sS'StandUpComedy'
p497
F0.00930743862221
sS'jobs'
p498
F0.014723467862500001
sS'linguistics'
p499
F0.0284568911976
sS'casualiama'
p500
F0.033833997052500002
sS'cscareerquestions'
p501
F0.0078492175008500007
sS'facepalm'
p502
F0.056606817013299997
sS'celebnsfw'
p503
F0.0097444974878900005
sS'NASCAR'
p504
F0.0088533562268599993
sS'NotTimAndEric'
p505
F0.013069903365199999
sS'news'
p506
F0.043039670377600002
sS'gamingsuggestions'
p507
F0.0091106758432300001
sS'Unexpected'
p508
F0.059026159550999997
sS'RedditDayOf'
p509
F0.017270526760700001
sS'relationship_advice'
p510
F0.0102650563718
sS'nosleep'
p511
F0.0101440054484
sS'itookapicture'
p512
F0.025122309931900001
sS'Sherlock'
p513
F0.0139171358938
sS'ukpolitics'
p514
F0.0191307205053
sS'GunPorn'
p515
F0.0109330537667
sS'GetMotivated'
p516
F0.034710382513699997
sS'buildapc'
p517
F0.019901029507000002
sS'drunk'
p518
F0.025966850828700001
sS'reactiongifs'
p519
F0.064147183374300004
sS'community'
p520
F0.026076875803099999
sS'Music'
p521
F0.0288450490326
sS'startrek'
p522
F0.0247025827529
sS'EarthPorn'
p523
F0.054287440932599997
sS'linux'
p524
F0.020456772648099999
sS'ainbow'
p525
F0.012090254299599999
sS'chrome'
p526
F0.0099327600814800004
sS'Homebrewing'
p527
F0.0156184860937
sS'TheWire'
p528
F0.0073640730426299999
sS'Gunners'
p529
F0.010302599352099999
sS'Guitar'
p530
F0.0139578352004
sS'beer'
p531
F0.026041454298300001
sS'California'
p532
F0.0114833803137
sS'ireland'
p533
F0.018414424632599999
sS'HomeImprovement'
p534
F0.0084607649363699997
sS'web_design'
p535
F0.013774305454299999
sS'Diablo'
p536
F0.0093304061470899993
sS'fatlogic'
p537
F0.033267513174900003
sS'hiphopheads'
p538
F0.023190378565900002
sS'MakeupAddiction'
p539
F0.012886182502
sS'androidapps'
p540
F0.0110660449668
sS'Aquariums'
p541
F0.0086208336814000003
sS'somethingimade'
p542
F0.017749066053300001
sS'TopGear'
p543
F0.031924955422899998
sS'aviation'
p544
F0.026184903452299998
sS'Scotch'
p545
F0.0074673648499199996
sS'darksouls'
p546
F0.0080541237113400006
sS'Chromecast'
p547
F0.0098921736877899992
sS'Perfectfit'
p548
F0.0156365929663
sS'offbeat'
p549
F0.046398415797999998
sS'softwaregore'
p550
F0.012026916499400001
sS'socialism'
p551
F0.0240477727566
sS'Ask_Politics'
p552
F0.0118883596426
sS'DotA2'
p553
F0.012773132942800001
sS'bodybuilding'
p554
F0.0113661971831
sS'OnOff'
p555
F0.0087800286029799997
sS'windowsphone'
p556
F0.0093624135572600003
sS'Cooking'
p557
F0.027579723592300001
sS'IASIP'
p558
F0.015889305078100002
sS'hardware'
p559
F0.0099105420101699999
sS'exmormon'
p560
F0.0080678174251199997
sS'DIY'
p561
F0.0339087546239
sS'politics'
p562
F0.057032014609899997
sS'electronicmusic'
p563
F0.012896546624300001
sS'assassinscreed'
p564
F0.011215946013500001
sS'ShitRedditSays'
p565
F0.011548690298399999
sS'shorthairedhotties'
p566
F0.00714876965912
sS'southpark'
p567
F0.0283872657432
sS'starcraft'
p568
F0.0140614896244
sS'funny'
p569
F0.026495370998599999
sS'Israel'
p570
F0.013345882352900001
sS'IndieGaming'
p571
F0.0088592642592000004
sS'Python'
p572
F0.0091538289796799996
sS'Jazz'
p573
F0.0070512464604999998
sS'astrophotography'
p574
F0.0079076928925800004
sS'daddit'
p575
F0.010259822116400001
sS'watchpeopledie'
p576
F0.020568252007399999
sS'tolkienfans'
p577
F0.0083956498818799994
sS'Whatcouldgowrong'
p578
F0.045957998650199998
sS'fifthworldproblems'
p579
F0.0082421814820500001
sS'talesfromtechsupport'
p580
F0.0299953743788
sS'Anarchism'
p581
F0.012536778815399999
sS'notinteresting'
p582
F0.0326046848017
sS'AnimalsBeingJerks'
p583
F0.040564269798900002
sS'AskUK'
p584
F0.0117406742774
sS'running'
p585
F0.019805044097199999
sS'climbing'
p586
F0.0082293331519699992
sS'Physics'
p587
F0.016641113541999999
sS'TrueFilm'
p588
F0.0115362816974
sS'HumanPorn'
p589
F0.038497167492099998
sS'Fantasy'
p590
F0.016081871344999998
sS'Portland'
p591
F0.0125610607118
sS'AskEngineers'
p592
F0.013335204941
sS'drawing'
p593
F0.0073247593901699997
sS'EmmaWatson'
p594
F0.0096574957888799998
sS'GifSound'
p595
F0.010148969217699999
sS'FancyFollicles'
p596
F0.0090097039448299998
sS'awwwtf'
p597
F0.0116039678083
sS'DestinyTheGame'
p598
F0.0084802441479200005
sS'AskSocialScience'
p599
F0.020141200007699998
sS'PublicFreakout'
p600
F0.0226699044637
sS'ArtisanVideos'
p601
F0.0188236095037
sS'Bitcoin'
p602
F0.026022712880499999
sS'rickandmorty'
p603
F0.0154983160783
sS'quotes'
p604
F0.0110068700598
sS'woodworking'
p605
F0.019588021565900001
sS'perfectloops'
p606
F0.019573239210699998
sS'InternetIsBeautiful'
p607
F0.043557815464300001
sS'startups'
p608
F0.0082998413944999992
sS'carporn'
p609
F0.026183344230399998
sS'TalesFromRetail'
p610
F0.0269759450172
sS'TrueReddit'
p611
F0.058359131202400001
sS'WouldYouRather'
p612
F0.010278418926700001
sS'quityourbullshit'
p613
F0.037072286426499998
sS'Advice'
p614
F0.0077738951062899997
sS'ProtectAndServe'
p615
F0.015341212606800001
sS'woahdude'
p616
F0.0658688663226
sS'Fallout'
p617
F0.028076636098900001
sS'Seahawks'
p618
F0.013875392286499999
sS'offmychest'
p619
F0.026104954508199999
sS'australia'
p620
F0.029532967032999999
sS'slowcooking'
p621
F0.015662749609699999
sS'gifs'
p622
F0.040778674087599998
sS'NSFW_GIF'
p623
F0.018472043517600002
sS'howto'
p624
F0.0153460805757
sS'footballmanagergames'
p625
F0.0096821605732100007
sS'cringepics'
p626
F0.055161733592200002
sS'toosoon'
p627
F0.015002509713499999
sS'bodyweightfitness'
p628
F0.0094219758097800008
sS'RandomActsOfGaming'
p629
F0.0116741110273
sS'DenverBroncos'
p630
F0.0088438308886999994
sS'Art'
p631
F0.024357493360199999
sS'4chan'
p632
F0.056591322875800001
sS'compsci'
p633
F0.0096757554737399998
sS'montageparodies'
p634
F0.0176945060228
sS'ArcherFX'
p635
F0.023435986829399999
sS'getdisciplined'
p636
F0.010521008403399999
sS'google'
p637
F0.0159287889435
sS'gardening'
p638
F0.0189616526322
sS'whatisthisthing'
p639
F0.040978784204000002
sS'glitch_art'
p640
F0.0080405456901200007
sS'NetflixBestOf'
p641
F0.034476864209499997
sS'minnesotavikings'
p642
F0.0072879286744799996
sS'ShouldIbuythisgame'
p643
F0.011986941056100001
sS'tumblr'
p644
F0.031006895681099999
sS'interestingasfuck'
p645
F0.069102305145500004
sS'MarkMyWords'
p646
F0.0110099513021
sS'PropagandaPosters'
p647
F0.036277236903100002
sS'Coffee'
p648
F0.0154204293347
sS'gameofthrones'
p649
F0.0500498766937
sS'humor'
p650
F0.0207559499243
sS'mountandblade'
p651
F0.012937723185099999
sS'AMA'
p652
F0.0174549698915
sS'SkincareAddiction'
p653
F0.011621500416399999
sS'ExpectationVsReality'
p654
F0.019837933563499999
sS'nonononoyes'
p655
F0.0442228076778
sS'lifehacks'
p656
F0.042842504972599997
sS'Enhancement'
p657
F0.0132303053147
sS'starbound'
p658
F0.0097134079165799997
sS'biology'
p659
F0.010741353301500001
sS'ProgrammerHumor'
p660
F0.021802396475199999
sS'business'
p661
F0.020670894914499999
sS'FloridaMan'
p662
F0.024754420432200001
sS'delusionalartists'
p663
F0.020516897263299999
sS'OkCupid'
p664
F0.017985742123700001
sS'Frugal'
p665
F0.039420503829499999
sS'promos'
p666
F0.0269677100765
sS'SuggestALaptop'
p667
F0.0080812707552900005
sS'shittyaskscience'
p668
F0.035150618166
sS'whatsthisplant'
p669
F0.0093594988956900004
sS'lewronggeneration'
p670
F0.032056976327399997
sS'worldbuilding'
p671
F0.026202333397899999
sS'calvinandhobbes'
p672
F0.013700407860600001
sS'netflix'
p673
F0.0153332790754
sS'bayarea'
p674
F0.0100156323845
sS'masseffect'
p675
F0.0145139234212
sS'anime'
p676
F0.0152153538976
sS'AnimalsBeingBros'
p677
F0.023916605654899999
sS'classic4chan'
p678
F0.015529158868099999
sS'Games'
p679
F0.039918222873200002
sS'Cynicalbrit'
p680
F0.015188035429099999
sS'battlestations'
p681
F0.0220340348172
sS'NSFWFunny'
p682
F0.0079991213779700004
sS'paradoxplaza'
p683
F0.048861105123200001
sS'amiugly'
p684
F0.0124451903417
sS'ShitAmericansSay'
p685
F0.019522132995799999
sS'applehelp'
p686
F0.0090396431276800002
sS'Scotland'
p687
F0.021138064748899999
sS'subaru'
p688
F0.0102649057889
sS'weather'
p689
F0.0098675821481099997
sS'marijuanaenthusiasts'
p690
F0.0106028535591
sS'ADHD'
p691
F0.0083691735441100007
sS'tifu'
p692
F0.031545244121000002
sS'sports'
p693
F0.037006237006200003
sS'SimCity'
p694
F0.0112686780242
sS'Damnthatsinteresting'
p695
F0.044905903219200002
sS'DnD'
p696
F0.014461601251600001
sS'loseit'
p697
F0.016298557950999999
sS'CrazyIdeas'
p698
F0.046840686070100002
sS'gis'
p699
F0.0091887634549800007
sS'MechanicalKeyboards'
p700
F0.014243826517099999
sS'TinyHouses'
p701
F0.0111244738425
sS'Bad_Cop_No_Donut'
p702
F0.026180136836500001
sS'SquaredCircle'
p703
F0.011578712981500001
sS'tennis'
p704
F0.0076503742030900003
sS'philadelphia'
p705
F0.0095954221113400007
sS'MorbidReality'
p706
F0.041034219784000001
sS'gif'
p707
F0.021687858900700002
sS'cats'
p708
F0.031415991432000002
sS'introvert'
p709
F0.0094198673566100004
sS'Ubuntu'
p710
F0.0088656635732899999
sS'raisedbynarcissists'
p711
F0.0099740244830000008
sS'happy'
p712
F0.014356471179399999
sS'explainlikeIAmA'
p713
F0.0164514481652
sS'firstimpression'
p714
F0.0081913207614399998
sS'batman'
p715
F0.0185979555336
sS'occupywallstreet'
p716
F0.0075017861395599997
sS'WebGames'
p717
F0.0110919939964
sS'teslamotors'
p718
F0.0095348220040199997
sS'beerporn'
p719
F0.0083810006516499991
sS'xboxone'
p720
F0.012261831890499999
sS'HipHopImages'
p721
F0.0073204523328099999
sS'NoFap'
p722
F0.0102277487713
sS'rugbyunion'
p723
F0.010269505630800001
sS'blunderyears'
p724
F0.025932364096099999
sS'Marvel'
p725
F0.015792017284499998
sS'webcomics'
p726
F0.0094791231336199995
sS'rage'
p727
F0.0483055195836
sS'comics'
p728
F0.047504448341600003
sS'behindthegifs'
p729
F0.030829019774299998
sS'BritishTV'
p730
F0.0077387767994600001
sS'books'
p731
F0.035722087243400001
sS'civ'
p732
F0.052358754903499997
sS'findareddit'
p733
F0.0137455197133
sS'arma'
p734
F0.0071023988352100003
sS'BustyPetite'
p735
F0.012123948561000001
sS'RealEstate'
p736
F0.0075794965804100002
sS'fullmoviesonyoutube'
p737
F0.022863110539799999
sS'iphone'
p738
F0.021154448348999998
sS'videos'
p739
F0.033947605939499997
sS'keto'
p740
F0.0144726308416
sS'arabs'
p741
F0.0076649878604199998
sS'TrueAskReddit'
p742
F0.0219859957189
sS'engineering'
p743
F0.016997665419399999
sS'tipofmytongue'
p744
F0.0271558442729
sS'webdev'
p745
F0.0127240844601
sS'girlsinyogapants'
p746
F0.0080326405712100001
sS'bestofworldstar'
p747
F0.0087426686217000008
sS'ForeverAlone'
p748
F0.0092299214767900001
sS'eatsandwiches'
p749
F0.010752688171999999
sS'bicycling'
p750
F0.031174277141
sS'Survival'
p751
F0.0090054372451299994
sS'shittyama'
p752
F0.0101125039
sS'excel'
p753
F0.0070766271706200002
sS'zelda'
p754
F0.0113254291276
sS'ImaginaryLandscapes'
p755
F0.013693113169600001
sS'TheWayWeWere'
p756
F0.017498504813500002
sS'LosAngeles'
p757
F0.016366209315200001
sS'badtattoos'
p758
F0.0094975986185299992
sS'Feminism'
p759
F0.0113709851261
sS'nottheonion'
p760
F0.0587832103923
sS'Frugal_Jerk'
p761
F0.0089188134270099997
sS'raspberry_pi'
p762
F0.0089396068604700001
sS'SuicideWatch'
p763
F0.0075895439220200001
sS'football'
p764
F0.0081433851840399998
sS'circlebroke'
p765
F0.021579169495600001
sS'GTAV'
p766
F0.0084339658807700002
sS'bigdickproblems'
p767
F0.0079992889520900008
sS'nintendo'
p768
F0.010433685900199999
sS'comicbooks'
p769
F0.019509981851199999
sS'cordcutters'
p770
F0.019325598838199998
sS'oddlysatisfying'
p771
F0.060675260372200002
sS'GirlGamers'
p772
F0.0070934346515200003
sS'cosplaygirls'
p773
F0.013847038127299999
sS'entertainment'
p774
F0.016054083977800001
sS'youtube'
p775
F0.0079481427839700001
sS'atheism'
p776
F0.047574662047500001
sS'terriblefacebookmemes'
p777
F0.0115731219385
sS'PrettyGirls'
p778
F0.0157380672299
sS'urbanexploration'
p779
F0.0146488503318
sS'gainit'
p780
F0.0078500292911499996
sS'Michigan'
p781
F0.0081204310799599996
s.