(dp1
S'awwwtf'
p2
F0.01503606624
sS'Heavymind'
p3
F0.0108910891089
sS'Psychonaut'
p4
F0.0078945992575900001
sS'Justrolledintotheshop'
p5
F0.0094832757291000002
sS'pettyrevenge'
p6
F0.0086887012129400008
sS'circlebroke'
p7
F0.0070233243735400002
sS'CityPorn'
p8
F0.0085155058464699996
sS'ArtisanVideos'
p9
F0.0095828275729899996
sS'mycology'
p10
F0.0246431621325
sS'shrooms'
p11
F0.0075398535114200001
sS'dadjokes'
p12
F0.010035733292799999
sS'BuyItForLife'
p13
F0.010186216775400001
sS'woodworking'
p14
F0.0094884162251899998
sS'perfectloops'
p15
F0.0132675100278
sS'spiders'
p16
F0.010945666107899999
sS'dataisbeautiful'
p17
F0.00756115859309
sS'Foodforthought'
p18
F0.0088339222614800001
sS'StonerPhilosophy'
p19
F0.0090787319541600006
sS'linguistics'
p20
F0.00732705300219
sS'TrueReddit'
p21
F0.0088930378813900004
sS'TheoryOfReddit'
p22
F0.0097790655559600002
sS'TheBluePill'
p23
F0.00719609354922
sS'quityourbullshit'
p24
F0.0108941418294
sS'LearnUselessTalents'
p25
F0.010414740864
sS'holdmybeer'
p26
F0.012329931972800001
sS'HistoryPorn'
p27
F0.0098120107932100006
sS'StonerEngineering'
p28
F0.014603562963500001
sS'shittybattlestations'
p29
F0.0071428571428599997
sS'woahdude'
p30
F0.0087470220565599999
sS'ImaginaryMonsters'
p31
F0.0090052789566299994
sS'wallpaper'
p32
F0.0076888690210100002
sS'nononono'
p33
F0.0126756261454
sS'Frisson'
p34
F0.010057270568500001
sS'YouShouldKnow'
p35
F0.0096911461908000002
sS'shutupandtakemymoney'
p36
F0.0090895318891100006
sS'geology'
p37
F0.0090762867647099996
sS'whitepeoplegifs'
p38
F0.0106117929316
sS'foodhacks'
p39
F0.0092838196286500006
sS'UpliftingNews'
p40
F0.0072394336207800003
sS'softwaregore'
p41
F0.0100184806925
sS'geek'
p42
F0.0076640531186000001
sS'NoStupidQuestions'
p43
F0.0082866668824699997
sS'3amjokes'
p44
F0.00902077151335
sS'toosoon'
p45
F0.0090961317502900006
sS'homestead'
p46
F0.0121728545344
sS'Braveryjerk'
p47
F0.0083087644063300006
sS'photoshopbattles'
p48
F0.0076951464538099999
sS'AbandonedPorn'
p49
F0.0130281034804
sS'progressive'
p50
F0.0070675610924800002
sS'KitchenConfidential'
p51
F0.0075949367088600003
sS'WatchItForThePlot'
p52
F0.0071220660184599998
sS'techsupportgore'
p53
F0.0090847780378500009
sS'freebies'
p54
F0.0084388185654000001
sS'PropagandaPosters'
p55
F0.010114845643199999
sS'Marijuana'
p56
F0.0135466666667
sS'NewsOfTheWeird'
p57
F0.0075483091787399998
sS'comics'
p58
F0.0077910296432700003
sS'futurama'
p59
F0.0079904977864199995
sS'Enhancement'
p60
F0.0096774193548400007
sS'minimalism'
p61
F0.0076023905783100003
sS'DeepIntoYouTube'
p62
F0.0094171997157099993
sS'ArcherFX'
p63
F0.0070785405714899998
sS'everymanshouldknow'
p64
F0.0091100988778999997
sS'Whatisthis'
p65
F0.0073988661477900003
sS'firefly'
p66
F0.00727613284346
sS'gardening'
p67
F0.022366045876800002
sS'BackYardChickens'
p68
F0.0078701426463400007
sS'glitch_art'
p69
F0.0095857583019499995
sS'EatCheapAndHealthy'
p70
F0.0080676642810699993
sS'tea'
p71
F0.0084745762711900003
sS'blackpeoplegifs'
p72
F0.0103359173127
sS'self'
p73
F0.0075427472428399997
sS'tumblr'
p74
F0.0071469140477099999
sS'see'
p75
F0.0134660421546
sS'MarkMyWords'
p76
F0.0071377587437500001
sS'changemyview'
p77
F0.0071100127615599997
sS'fatpeoplestories'
p78
F0.0072529465095199997
sS'KarmaCourt'
p79
F0.0076496175191199996
sS'Cinemagraphs'
p80
F0.0112911143839
sS'firstworldanarchists'
p81
F0.011767933068200001
sS'offbeat'
p82
F0.0099949552276499994
sS'LSD'
p83
F0.0075302245250399996
sS'humor'
p84
F0.010101010101000001
sS'camping'
p85
F0.0089978828510899993
sS'space'
p86
F0.0074693862893699999
sS'skeptic'
p87
F0.0097844366304800003
sS'lotr'
p88
F0.0079102715466400006
sS'shittyfoodporn'
p89
F0.0092427654354200004
sS'wikipedia'
p90
F0.010495932826000001
sS'ExpectationVsReality'
p91
F0.0121903571149
sS'firstworldproblems'
p92
F0.0086604806090900006
sS'outside'
p93
F0.0142914653784
sS'AskCulinary'
p94
F0.0078652381247300007
sS'RoomPorn'
p95
F0.0095817020399799994
sS'glassheads'
p96
F0.00915501670172
sS'lifehacks'
p97
F0.0084812201553699992
sS'Astronomy'
p98
F0.0089550273260000004
sS'vexillology'
p99
F0.010572687224700001
sS'CatsStandingUp'
p100
F0.0074999999999999997
sS'SubredditDrama'
p101
F0.0084811102544299997
sS'Damnthatsinteresting'
p102
F0.0118657018293
sS'biology'
p103
F0.012444132854300001
sS'bestof'
p104
F0.0077164463192599996
sS'ExposurePorn'
p105
F0.0071419124454400002
sS'no_sob_story'
p106
F0.012281590276000001
sS'casualiama'
p107
F0.0070871201689200001
sS'FloridaMan'
p108
F0.0158193531926
sS'delusionalartists'
p109
F0.0122520057217
sS'answers'
p110
F0.0098046725392599999
sS'PlantedTank'
p111
F0.0074111292551199996
sS'NotTimAndEric'
p112
F0.0087527352297600003
sS'shittyaskscience'
p113
F0.0099158244572199999
sS'GamePhysics'
p114
F0.011066398390300001
sS'whatsthisplant'
p115
F0.0343119915104
sS'lewronggeneration'
p116
F0.0085085085085099994
sS'howto'
p117
F0.0089665994171700004
sS'youtubehaiku'
p118
F0.0079168919440800005
sS'ThriftStoreHauls'
p119
F0.0084033613445400005
sS'RedditDayOf'
p120
F0.0121770797769
sS'WarshipPorn'
p121
F0.0092915214866399996
sS'Roadcam'
p122
F0.0084073755612900005
sS'badhistory'
p123
F0.0100555702567
sS'DrugNerds'
p124
F0.0075589150733700004
sS'howtonotgiveafuck'
p125
F0.0070337133155499998
sS'wheredidthesodago'
p126
F0.0143182818062
sS'AnimalsBeingBros'
p127
F0.014513788098699999
sS'classic4chan'
p128
F0.010346124905900001
sS'ANormalDayInRussia'
p129
F0.013713699031999999
sS'whatsthisbug'
p130
F0.014183657506400001
sS'QuotesPorn'
p131
F0.0096842298512899994
sS'hiking'
p132
F0.0096153846153799998
sS'drunk'
p133
F0.0084260674796499992
sS'misc'
p134
F0.0084496223274900008
sS'findareddit'
p135
F0.010094484373700001
sS'IdiotsFightingThings'
p136
F0.0128423535579
sS'conspiratard'
p137
F0.011228533685599999
sS'weather'
p138
F0.0088387272232799997
sS'EarthPorn'
p139
F0.0074805984478800002
sS'ContagiousLaughter'
p140
F0.0078462869146200005
sS'whatisthisthing'
p141
F0.0121771743259
sS'Bonsai'
p142
F0.0234948604993
sS'environment'
p143
F0.0120881550822
sS'FiftyFifty'
p144
F0.00850043591979
sS'CrazyIdeas'
p145
F0.0115533980583
sS'eldertrees'
p146
F0.017671917018799999
sS'AskHistorians'
p147
F0.0084613671788
sS'TinyHouses'
p148
F0.0083781547372799997
sS'Bad_Cop_No_Donut'
p149
F0.0091422174541699996
sS'OutOfTheLoop'
p150
F0.0110372217604
sS'onetruegod'
p151
F0.0099068753715100006
sS'urbanexploration'
p152
F0.0096937851060000003
sS'MorbidReality'
p153
F0.0085756897837399992
sS'gif'
p154
F0.0087905036894399997
sS'PenmanshipPorn'
p155
F0.0101105102281
sS'shittyreactiongifs'
p156
F0.00899742930591
sS'misleadingthumbnails'
p157
F0.0159293371584
sS'shittyadvice'
p158
F0.00853907555226
sS'California'
p159
F0.0093347639485000002
sS'Pareidolia'
p160
F0.017558947896500001
sS'happy'
p161
F0.0071099620263399997
sS'CombatFootage'
p162
F0.0077948034643600004
sS'TrollYChromosome'
p163
F0.0088146458731400007
sS'explainlikeIAmA'
p164
F0.0116148045419
sS'collapse'
p165
F0.0092135997923700006
sS'fifthworldproblems'
p166
F0.0092446174431299998
sS'mildlyinfuriating'
p167
F0.0091962965844500002
sS'Aquariums'
p168
F0.0072866493763099997
sS'somethingimade'
p169
F0.0100297586245
sS'Unexpected'
p170
F0.00958343768261
sS'Awwducational'
p171
F0.0145289110655
sS'Shitty_Car_Mods'
p172
F0.0090931962764600003
sS'NeutralPolitics'
p173
F0.0079664570230599998
sS'ghettoglamourshots'
p174
F0.0087992273849099994
sS'blunderyears'
p175
F0.0092888243831599996
sS'EDC'
p176
F0.0070280202113000003
sS'highdeas'
p177
F0.0091950959488299993
sS'calvinandhobbes'
p178
F0.0090261282660299997
sS'showerbeer'
p179
F0.0082108464267599997
sS'rage'
p180
F0.00745656370656
sS'worldpolitics'
p181
F0.0079056865464600008
sS'forwardsfromgrandma'
p182
F0.010565604364099999
sS'interestingasfuck'
p183
F0.010863192744099999
sS'Perfectfit'
p184
F0.0132625994695
sS'PerfectTiming'
p185
F0.0142468787757
sS'behindthegifs'
p186
F0.012261797335299999
sS'standupshots'
p187
F0.0093252016525699997
sS'socialism'
p188
F0.0078800988875200005
sS'knives'
p189
F0.0076751671205700003
sS'fullmoviesonyoutube'
p190
F0.0087475558299899992
sS'NewsOfTheStupid'
p191
F0.0103401360544
sS'FoodPorn'
p192
F0.0074414796262399999
sS'Anticonsumption'
p193
F0.0090090090090099995
sS'awesome'
p194
F0.0087035153159299994
sS'Cooking'
p195
F0.00725784173385
sS'Images'
p196
F0.0087276550998899999
sS'TrueAskReddit'
p197
F0.0085420944558500002
sS'Glitch_in_the_Matrix'
p198
F0.0076817017923999998
sS'polandball'
p199
F0.0081996785726000006
sS'BasicIncome'
p200
F0.0072805139186299999
sS'CampingandHiking'
p201
F0.0121107266436
sS'Pizza'
p202
F0.010148468333
sS'watchpeopledie'
p203
F0.0073149545101300001
sS'techsupportmacgyver'
p204
F0.0109314301202
sS'MURICA'
p205
F0.0082942319541199992
sS'eatsandwiches'
p206
F0.0075569469934100002
sS'backpacking'
p207
F0.0077519379845000002
sS'Survival'
p208
F0.0091388022793200008
sS'shittyama'
p209
F0.0076174743024999998
sS'AskSocialScience'
p210
F0.0079775280898899993
sS'ImaginaryLandscapes'
p211
F0.011380618461899999
sS'astrophotography'
p212
F0.0071910112359600004
sS'TheWayWeWere'
p213
F0.0116536534203
sS'badtattoos'
p214
F0.0071810287241100001
sS'slowcooking'
p215
F0.0075542428717500004
sS'saplings'
p216
F0.0073497243853399997
sS'spaceporn'
p217
F0.012442656947200001
sS'itookapicture'
p218
F0.0095757525292499996
sS'nonononoyes'
p219
F0.0136462093863
sS'Frugal_Jerk'
p220
F0.0123260437376
sS'Whatcouldgowrong'
p221
F0.0120931578186
sS'wallpapers'
p222
F0.0072545010881799998
sS'talesfromtechsupport'
p223
F0.0073224712751899998
sS'JusticePorn'
p224
F0.0073333333333299999
sS'MapPorn'
p225
F0.0106028535591
sS'notinteresting'
p226
F0.0118763917647
sS'facepalm'
p227
F0.0073625735842800001
sS'Hammocks'
p228
F0.0087524106215700007
sS'AnimalsBeingJerks'
p229
F0.0123197000421
sS'askscience'
p230
F0.0071429468107800003
sS'CrappyDesign'
p231
F0.010884662263699999
sS'budgetfood'
p232
F0.0086016993601200006
sS'microgrowery'
p233
F0.0146363636364
sS'whatsthisbird'
p234
F0.0078859060402700007
sS'HighQualityGifs'
p235
F0.0087520259319300003
sS'oddlysatisfying'
p236
F0.010573411249100001
sS'MachinePorn'
p237
F0.013042592215200001
sS'HumanPorn'
p238
F0.013815695769799999
sS'CannabisExtracts'
p239
F0.0129460056836
sS'terriblefacebookmemes'
p240
F0.0096482412060300005
sS'PrettyGirls'
p241
F0.0071662252687300001
sS'thatHappened'
p242
F0.0078557438473999992
sS'Graffiti'
p243
F0.0087506076810899992
sS'Fishing'
p244
F0.0070156821129600004
sS'tall'
p245
F0.0070196120458700002
sS'HailCorporate'
p246
F0.0101000476417
sS'chemistry'
p247
F0.0074690074690099998
sS'vaporents'
p248
F0.0087895529884499998
s.