(dp1
S'uglyduckling'
p2
F0.0093746780673699993
sS'SampleSize'
p3
F0.0080936800413300009
sS'everymanshouldknow'
p4
F0.011727996556899999
sS'RandomActsOfGaming'
p5
F0.0081675867806099995
sS'Showerthoughts'
p6
F0.0102962881375
sS'Eminem'
p7
F0.00701504676698
sS'HistoryPorn'
p8
F0.0109306341954
sS'holdmybeer'
p9
F0.0117637447921
sS'ImaginaryMonsters'
p10
F0.0104746626404
sS'YouShouldKnow'
p11
F0.0140807223088
sS'moviescirclejerk'
p12
F0.0096724927880499998
sS'horror'
p13
F0.0077171759307500002
sS'UpliftingNews'
p14
F0.0077913982962800003
sS'PandR'
p15
F0.0092670598146600003
sS'Jokes'
p16
F0.0080568865016599992
sS'inthenews'
p17
F0.0089920948616599994
sS'Scrubs'
p18
F0.0074783827997199999
sS'3amjokes'
p19
F0.0175306517531
sS'magicskyfairy'
p20
F0.015799391216099998
sS'GunsAreCool'
p21
F0.0089491916859099994
sS'IWantToLearn'
p22
F0.011610541022300001
sS'PoliticalDiscussion'
p23
F0.010477371357700001
sS'CrappyDesign'
p24
F0.0182955651328
sS'NewsOfTheWeird'
p25
F0.012735473600399999
sS'Cyberpunk'
p26
F0.0102926216265
sS'Libertarian'
p27
F0.0082551046498900004
sS'Anarcho_Capitalism'
p28
F0.0077310924369700003
sS'POLITIC'
p29
F0.0075992721823799998
sS'fatpeoplestories'
p30
F0.0085684498599099997
sS'OneY'
p31
F0.0070993914807300001
sS'forwardsfromgrandma'
p32
F0.026436590896499999
sS'no_sob_story'
p33
F0.0201640464798
sS'findareddit'
p34
F0.022316684378299999
sS'skeptic'
p35
F0.011687363038700001
sS'socialskills'
p36
F0.010482909380000001
sS'DebateReligion'
p37
F0.0085702843412100004
sS'GuessTheMovie'
p38
F0.010634028892499999
sS'vexillology'
p39
F0.018376837683799999
sS'needamod'
p40
F0.0119754453054
sS'answers'
p41
F0.016239131996800001
sS'ainbow'
p42
F0.0088398720323300001
sS'WritingPrompts'
p43
F0.0084756609166800004
sS'ThriftStoreHauls'
p44
F0.0088344257623299994
sS'IWantOut'
p45
F0.0085975282106400003
sS'HalfLife'
p46
F0.0091439903051699998
sS'QuotesPorn'
p47
F0.013373940678000001
sS'TrueReddit'
p48
F0.0090998583399400004
sS'confession'
p49
F0.012080755454200001
sS'AntiJokes'
p50
F0.015101325019499999
sS'KingOfTheHill'
p51
F0.0091213485740699995
sS'IdiotsFightingThings'
p52
F0.013769682000599999
sS'gamernews'
p53
F0.0070093457943900001
sS'ContagiousLaughter'
p54
F0.0151034320639
sS'HIMYM'
p55
F0.0076953647169300003
sS'FiftyFifty'
p56
F0.014560123961400001
sS'AskHistorians'
p57
F0.0086786721631599995
sS'OutOfTheLoop'
p58
F0.024193732976300002
sS'ifyoulikeblank'
p59
F0.015958723302099999
sS'firstimpression'
p60
F0.010464942442799999
sS'WebGames'
p61
F0.0103187151535
sS'Pareidolia'
p62
F0.0147954743255
sS'tipofmytongue'
p63
F0.012234642454400001
sS'LifeProTips'
p64
F0.0072416018934400002
sS'Shitty_Car_Mods'
p65
F0.0078095171982900001
sS'AskMen'
p66
F0.0076106958675100003
sS'ghettoglamourshots'
p67
F0.010434952213799999
sS'techsupportgore'
p68
F0.00956169203702
sS'firstworldproblems'
p69
F0.012845127079899999
sS'Glitch_in_the_Matrix'
p70
F0.014810205351600001
sS'standupshots'
p71
F0.013520204136
sS'TalesFromThePizzaGuy'
p72
F0.0076391795730400003
sS'AskScienceFiction'
p73
F0.0151886057639
sS'NewsOfTheStupid'
p74
F0.0146400483969
sS'awesome'
p75
F0.011047463175099999
sS'DecidingToBeBetter'
p76
F0.0099121423744100001
sS'Infographics'
p77
F0.0140452236279
sS'polandball'
p78
F0.012391811184599999
sS'counting'
p79
F0.0115189546978
sS'Ask_Politics'
p80
F0.0098420413122700008
sS'HouseOfCards'
p81
F0.0099862464868699999
sS'asmr'
p82
F0.0076821888976599997
sS'techsupportmacgyver'
p83
F0.0090524042853599995
sS'MURICA'
p84
F0.010991053793400001
sS'spaceporn'
p85
F0.0099390640714699992
sS'SRSsucks'
p86
F0.013641133263399999
sS'Dreams'
p87
F0.0082996859578300004
sS'wheredidthesodago'
p88
F0.016176357038100001
sS'BasicIncome'
p89
F0.0087565674255699992
sS'GiftofGames'
p90
F0.0074428950295100001
sS'highdeas'
p91
F0.012818991097900001
sS'Images'
p92
F0.0085053516819600002
sS'comicbookmovies'
p93
F0.0092603585420899994
sS'short'
p94
F0.0079015803160599994
sS'eFreebies'
p95
F0.0076998156382199999
sS'Shitstatistssay'
p96
F0.0088163029339500005
sS'FanTheories'
p97
F0.024997895799999999
sS'ImGoingToHellForThis'
p98
F0.0101595498365
sS'help'
p99
F0.0085884611498400001
sS'DoesAnybodyElse'
p100
F0.012865437245800001
sS'pettyrevenge'
p101
F0.011708732622500001
sS'malehairadvice'
p102
F0.0083829693359799996
sS'CityPorn'
p103
F0.0089928057554000008
sS'DeepIntoYouTube'
p104
F0.023013978861200001
sS'dataisbeautiful'
p105
F0.00944726247402
sS'linguistics'
p106
F0.0071528262386599999
sS'badlinguistics'
p107
F0.0082691759338499992
sS'nostalgia'
p108
F0.011856003449000001
sS'writing'
p109
F0.0072530913506099999
sS'Screenwriting'
p110
F0.0075119920354800003
sS'Bioshock'
p111
F0.0080090668681500003
sS'MensRights'
p112
F0.010618403118999999
sS'MilitaryPorn'
p113
F0.0073080522258400001
sS'Frisson'
p114
F0.0184243544872
sS'childfree'
p115
F0.00744997160325
sS'photoshopbattles'
p116
F0.0097069002812
sS'NoStupidQuestions'
p117
F0.0243739033339
sS'Braveryjerk'
p118
F0.0151968409716
sS'Liberal'
p119
F0.0089563378529700002
sS'creepyPMs'
p120
F0.013066406906
sS'WatchItForThePlot'
p121
F0.0095550735681999999
sS'freebies'
p122
F0.0089193278649399993
sS'PropagandaPosters'
p123
F0.0175590931018
sS'mashups'
p124
F0.00779458963778
sS'shittyadviceanimals'
p125
F0.014075495841300001
sS'SubredditDrama'
p126
F0.016706443914099998
sS'minimalism'
p127
F0.0104902499894
sS'wallpapers'
p128
F0.0088053536550200002
sS'gamemusic'
p129
F0.0083077836020200007
sS'TrueAtheism'
p130
F0.0090806576057900004
sS'badhistory'
p131
F0.016129032258100001
sS'popping'
p132
F0.0071077091306700002
sS'DunderMifflin'
p133
F0.0106607164993
sS'psychology'
p134
F0.0084751798304999997
sS'entertainment'
p135
F0.0081953021296200003
sS'shittyfoodporn'
p136
F0.011621833376900001
sS'LearnUselessTalents'
p137
F0.014614755056700001
sS'RoomPorn'
p138
F0.0087340529931299992
sS'memes'
p139
F0.0075218052332600002
sS'Astronomy'
p140
F0.0071751097915499999
sS'LetsTalkMusic'
p141
F0.0095161775017499999
sS'bestof'
p142
F0.0099870311558600006
sS'Roadcam'
p143
F0.0078774617067799996
sS'GamePhysics'
p144
F0.013334175935300001
sS'youtubehaiku'
p145
F0.0146998162523
sS'PoliticalHumor'
p146
F0.0115554662379
sS'privacy'
p147
F0.0073586702449999998
sS'howtonotgiveafuck'
p148
F0.0113989637306
sS'whatstheword'
p149
F0.0151546822742
sS'AskUK'
p150
F0.0076351420136399999
sS'misc'
p151
F0.0138825149151
sS'patientgamers'
p152
F0.0097788244931399995
sS'rant'
p153
F0.017794465757899999
sS'seinfeld'
p154
F0.0098048639815400008
sS'OldSchoolCool'
p155
F0.0076879990335100004
sS'lego'
p156
F0.0071620053615
sS'ANormalDayInRussia'
p157
F0.0155251768908
sS'onetruegod'
p158
F0.0094117647058799998
sS'TheFacebookDelusion'
p159
F0.0105814085789
sS'PenmanshipPorn'
p160
F0.010132501948599999
sS'shittyreactiongifs'
p161
F0.0183327252827
sS'alternativeart'
p162
F0.011830357142900001
sS'shittyadvice'
p163
F0.0149330587024
sS'MeanJokes'
p164
F0.0138038401661
sS'ObscureMedia'
p165
F0.012703502713400001
sS'CombatFootage'
p166
F0.0082100777137100005
sS'GTA'
p167
F0.0088105726872200005
sS'TrollYChromosome'
p168
F0.0092619560785199995
sS'DaystromInstitute'
p169
F0.0074643249176700004
sS'mildlyinfuriating'
p170
F0.0149115637866
sS'indieheads'
p171
F0.0091484074994400005
sS'Awwducational'
p172
F0.0117695360613
sS'skyrim'
p173
F0.00725982622407
sS'DCcomics'
p174
F0.0071420537622300002
sS'worldpolitics'
p175
F0.0085519319390300001
sS'nononono'
p176
F0.018014059754
sS'gallifrey'
p177
F0.0084355828220900007
sS'crappymusic'
p178
F0.0160566706021
sS'teenagers'
p179
F0.0099137172037300006
sS'conspiracy'
p180
F0.010285401659499999
sS'AnythingGoesNews'
p181
F0.010019518542599999
sS'Feminism'
p182
F0.0082480525431499994
sS'collapse'
p183
F0.0073792228755900002
sS'TalesFromYourServer'
p184
F0.0080777753949500004
sS'HighQualityGifs'
p185
F0.0141441645866
sS'self'
p186
F0.0130121897489
sS'DaftPunk'
p187
F0.0087854361017999996
sS'britishproblems'
p188
F0.0097676331482599993
sS'UnresolvedMysteries'
p189
F0.011651469098299999
sS'nonononoyes'
p190
F0.014073686048499999
sS'FutureWhatIf'
p191
F0.018289014558999998
sS'MovieSuggestions'
p192
F0.0100497962879
sS'badphilosophy'
p193
F0.0073839662447299998
sS'Futurology'
p194
F0.0083259235308399994
sS'EnoughLibertarianSpam'
p195
F0.010864374403100001
sS'Gaming4Gamers'
p196
F0.0095678770292500007
sS'TumblrInAction'
p197
F0.0145479601654
sS'HailCorporate'
p198
F0.018500572636800001
sS'Heavymind'
p199
F0.0111138757568
sS'adventuretime'
p200
F0.0072545428933699996
sS'PanicHistory'
p201
F0.015030674846599999
sS'LucidDreaming'
p202
F0.0083343046975200008
sS'fffffffuuuuuuuuuuuu'
p203
F0.0070962692408000003
sS'Hiphopcirclejerk'
p204
F0.0093827884474399995
sS'Foodforthought'
p205
F0.011425395256899999
sS'StonerPhilosophy'
p206
F0.0072878709005699998
sS'TheoryOfReddit'
p207
F0.0157969277699
sS'TheBluePill'
p208
F0.012419393360400001
sS'shittybattlestations'
p209
F0.0105798981934
sS'whowouldwin'
p210
F0.014551560095100001
sS'GrandTheftAutoV'
p211
F0.0084258995537799999
sS'Marvel'
p212
F0.0070655068347199998
sS'MetalMemes'
p213
F0.0078024796921800001
sS'beatles'
p214
F0.00760031295406
sS'arresteddevelopment'
p215
F0.012979127134699999
sS'shutupandtakemymoney'
p216
F0.0098365398524499995
sS'JusticePorn'
p217
F0.010458782569600001
sS'geek'
p218
F0.0074471355856899997
sS'lostgeneration'
p219
F0.0093814130753399998
sS'Conservative'
p220
F0.0095696554924000008
sS'PrettyGirlsUglyFaces'
p221
F0.0084080199575000004
sS'AskGames'
p222
F0.00813113061435
sS'AbandonedPorn'
p223
F0.0090248182501899993
sS'progressive'
p224
F0.010681916271
sS'dadjokes'
p225
F0.0150431384116
sS'thatHappened'
p226
F0.0204508482454
sS'whitepeoplegifs'
p227
F0.016816047801999998
sS'cringe'
p228
F0.0159373722031
sS'StarWars'
p229
F0.0077159928155100003
sS'TheSimpsons'
p230
F0.0121628017037
sS'see'
p231
F0.0070850981902200001
sS'glitch_art'
p232
F0.0118654560462
sS'changemyview'
p233
F0.014940318833600001
sS'KarmaCourt'
p234
F0.0101302460203
sS'againstmensrights'
p235
F0.0089754211543799992
sS'firstworldanarchists'
p236
F0.016601300166600001
sS'PerfectTiming'
p237
F0.0135414165666
sS'truegaming'
p238
F0.0095857373996400003
sS'lotr'
p239
F0.0070359615814200001
sS'wikipedia'
p240
F0.012788344799700001
sS'breakingbad'
p241
F0.0121839148608
sS'outside'
p242
F0.020047340708199999
sS'foodhacks'
p243
F0.00773615635179
sS'europe'
p244
F0.0085941204362300003
sS'StandUpComedy'
p245
F0.0092600387238000008
sS'PixelArt'
p246
F0.0083333333333300008
sS'casualiama'
p247
F0.015705758171399999
sS'facepalm'
p248
F0.0137002053388
sS'NotTimAndEric'
p249
F0.0189238486092
sS'gamingsuggestions'
p250
F0.0091977121657099998
sS'Unexpected'
p251
F0.0152379063579
sS'RedditDayOf'
p252
F0.011704312115000001
sS'watchpeopledie'
p253
F0.011570611526599999
sS'Sherlock'
p254
F0.0099683358742799991
sS'GetMotivated'
p255
F0.0072418178167500003
sS'drunk'
p256
F0.0088763503750100003
sS'reactiongifs'
p257
F0.0097445726430800007
sS'community'
p258
F0.0098107685656300004
sS'Portal'
p259
F0.0082815734989600005
sS'confessions'
p260
F0.0099038186839299994
sS'fatlogic'
p261
F0.0120604147881
sS'marvelstudios'
p262
F0.0081799591001999999
sS'oddlysatisfying'
p263
F0.014085775528199999
sS'MapPorn'
p264
F0.0110099513021
sS'shittyaskreddit'
p265
F0.016863971409399998
sS'Perfectfit'
p266
F0.016482079009299998
sS'offbeat'
p267
F0.0114657101689
sS'softwaregore'
p268
F0.0153047525284
sS'socialism'
p269
F0.0094414414414399992
sS'ICanDrawThat'
p270
F0.0109367173151
sS'YMS'
p271
F0.0089993284083299992
sS'IASIP'
p272
F0.012236024844700001
sS'assassinscreed'
p273
F0.0077790199366499996
sS'ShitRedditSays'
p274
F0.0101559961001
sS'southpark'
p275
F0.0122586801732
sS'Whatcouldgowrong'
p276
F0.0142502398555
sS'fifthworldproblems'
p277
F0.0135771378517
sS'notinteresting'
p278
F0.019702376433100001
sS'AnimalsBeingJerks'
p279
F0.0094245849132999996
sS'DebateAChristian'
p280
F0.0077458574369999996
sS'TrueFilm'
p281
F0.010410641989599999
sS'HumanPorn'
p282
F0.013607257203800001
sS'TimAndEric'
p283
F0.0087438686287100009
sS'GifSound'
p284
F0.0099335381976700006
sS'awwwtf'
p285
F0.0104262779111
sS'Piracy'
p286
F0.0072741570824700003
sS'circlebroke'
p287
F0.021528962547699999
sS'PublicFreakout'
p288
F0.018902854915699999
sS'Dexter'
p289
F0.0082807942034400003
sS'rickandmorty'
p290
F0.0099940402512299995
sS'quotes'
p291
F0.0113774535348
sS'futurama'
p292
F0.011386470194200001
sS'perfectloops'
p293
F0.017100800923600001
sS'InternetIsBeautiful'
p294
F0.0125830075095
sS'TalesFromRetail'
p295
F0.0080236486486499996
sS'WouldYouRather'
p296
F0.019238350548000001
sS'quityourbullshit'
p297
F0.0247874217873
sS'woahdude'
p298
F0.0106384837104
sS'Fallout'
p299
F0.0089145254326200001
sS'offmychest'
p300
F0.0096597788629099995
sS'howto'
p301
F0.0081555834378899995
sS'cringepics'
p302
F0.0116769467744
sS'toosoon'
p303
F0.016890696851799999
sS'ConfusedBoners'
p304
F0.0108488770461
sS'4chan'
p305
F0.011489332942799999
sS'montageparodies'
p306
F0.0108078402638
sS'ArcherFX'
p307
F0.0103980099502
sS'blunderyears'
p308
F0.019624334174400002
sS'whatisthisthing'
p309
F0.0104753296716
sS'NetflixBestOf'
p310
F0.0107685750817
sS'circlebroke2'
p311
F0.0125470514429
sS'ShouldIbuythisgame'
p312
F0.0079244292836499995
sS'tumblr'
p313
F0.0122900450635
sS'interestingasfuck'
p314
F0.0139196133819
sS'humor'
p315
F0.0095616540419699997
sS'AMA'
p316
F0.0078563075354600009
sS'ExpectationVsReality'
p317
F0.016809179273600001
sS'lifehacks'
p318
F0.010851341281700001
sS'SCP'
p319
F0.0103818202792
sS'Enhancement'
p320
F0.0114778979321
sS'blackpeoplegifs'
p321
F0.0132545512616
sS'FloridaMan'
p322
F0.017046139019400001
sS'delusionalartists'
p323
F0.023576221865899999
sS'promos'
p324
F0.0081287784980699999
sS'JonTron'
p325
F0.0103398755385
sS'shittyaskscience'
p326
F0.014321527629599999
sS'lewronggeneration'
p327
F0.027914833088899998
sS'worldbuilding'
p328
F0.011096345515
sS'csshelp'
p329
F0.0070794003331500002
sS'calvinandhobbes'
p330
F0.0080961086445499996
sS'netflix'
p331
F0.0094779284704399995
sS'sixwordstories'
p332
F0.016622817507800002
sS'AnimalsBeingBros'
p333
F0.012954206878699999
sS'classic4chan'
p334
F0.0184508268059
sS'NSFWFunny'
p335
F0.0080006737409500008
sS'ShitAmericansSay'
p336
F0.0141690682037
sS'marijuanaenthusiasts'
p337
F0.0071377587437500001
sS'unitedkingdom'
p338
F0.0073791348600499998
sS'Damnthatsinteresting'
p339
F0.0148731030308
sS'CrazyIdeas'
p340
F0.027458859548400001
sS'Bad_Cop_No_Donut'
p341
F0.0098775364262100006
sS'MorbidReality'
p342
F0.013221769570399999
sS'gif'
p343
F0.0077322701461899996
sS'introvert'
p344
F0.0075348075348100002
sS'Standup'
p345
F0.0083392657378199998
sS'happy'
p346
F0.010082010383
sS'explainlikeIAmA'
p347
F0.021016894349699999
sS'misleadingthumbnails'
p348
F0.023135334610700001
sS'shortscarystories'
p349
F0.0078992841273800001
sS'batman'
p350
F0.0088339883960299997
sS'trailerparkboys'
p351
F0.0074562436229500002
sS'Pizza'
p352
F0.0073118279569900002
sS'HipHopImages'
p353
F0.0099065949617899995
sS'ProgrammerHumor'
p354
F0.0074992347719599999
sS'conspiratard'
p355
F0.0238108931961
sS'webcomics'
p356
F0.0078281814532300004
sS'rage'
p357
F0.022578173634100002
sS'comics'
p358
F0.010224575497499999
sS'behindthegifs'
p359
F0.0193384223919
sS'civ'
p360
F0.0080073443158099993
sS'fullmoviesonyoutube'
p361
F0.0131047393832
sS'TrueAskReddit'
p362
F0.017132759680400001
sS'bestofworldstar'
p363
F0.0128966570507
sS'DAE'
p364
F0.0141205247943
sS'ForeverAlone'
p365
F0.0083875162548800002
sS'shittyama'
p366
F0.020689065572399998
sS'AskSocialScience'
p367
F0.0082233502538099999
sS'ImaginaryLandscapes'
p368
F0.011401326699800001
sS'TheWayWeWere'
p369
F0.0139882204459
sS'badtattoos'
p370
F0.0111033465331
sS'Cinemagraphs'
p371
F0.011316687623500001
sS'nottheonion'
p372
F0.010332716876799999
sS'Frugal_Jerk'
p373
F0.0149923267619
sS'comicbooks'
p374
F0.0070544238887200001
sS'youtube'
p375
F0.0086655112651600006
sS'terriblefacebookmemes'
p376
F0.024290367612799998
sS'urbanexploration'
p377
F0.0092546273136600004
s.