(dp1
S'RandomActsOfGaming'
p2
F0.0072081073365700002
sS'PublicFreakout'
p3
F0.0091586603214499993
sS'ArtisanVideos'
p4
F0.0094739741118100001
sS'rickandmorty'
p5
F0.0083764263430099999
sS'dadjokes'
p6
F0.0083177375753799992
sS'DeepIntoYouTube'
p7
F0.012994408780300001
sS'everymanshouldknow'
p8
F0.0090832062362300008
sS'dataisbeautiful'
p9
F0.0074619454965900002
sS'InternetIsBeautiful'
p10
F0.00837457749879
sS'spotify'
p11
F0.0079465719841099996
sS'quityourbullshit'
p12
F0.010171007041500001
sS'LearnUselessTalents'
p13
F0.0106837606838
sS'whowouldwin'
p14
F0.0078884950563699995
sS'woahdude'
p15
F0.0079590187887900003
sS'hiphopheads'
p16
F0.0083017750749399995
sS'4chan'
p17
F0.0073987496002899996
sS'PerfectTiming'
p18
F0.0088554645781399998
sS'Frisson'
p19
F0.013242662848999999
sS'YouShouldKnow'
p20
F0.0080279053066200003
sS'shutupandtakemymoney'
p21
F0.010097836819
sS'JusticePorn'
p22
F0.0079908988733199994
sS'AbandonedPorn'
p23
F0.0072139808981899999
sS'PandR'
p24
F0.0091801202912300001
sS'geek'
p25
F0.0081155656549300008
sS'NoStupidQuestions'
p26
F0.0074497367161300001
sS'toosoon'
p27
F0.0079475308641999993
sS'arresteddevelopment'
p28
F0.0079772850189300006
sS'photoshopbattles'
p29
F0.0084511512875100007
sS'DJs'
p30
F0.0127981890998
sS'Sherlock'
p31
F0.0075615380490200003
sS'WatchItForThePlot'
p32
F0.00886096342839
sS'techsupportgore'
p33
F0.00745865311858
sS'freebies'
p34
F0.0089258925892599997
sS'nononono'
p35
F0.010047760656
sS'CrappyDesign'
p36
F0.0094369547977799992
sS'WeAreTheMusicMakers'
p37
F0.0089109869886699992
sS'thatHappened'
p38
F0.0074551478907399996
sS'montageparodies'
p39
F0.0087280344466400001
sS'whitepeoplegifs'
p40
F0.010346378767399999
sS'ArcherFX'
p41
F0.0087161040398500006
sS'cringe'
p42
F0.0082470468965399994
sS'gamemusic'
p43
F0.0110920034394
sS'glitch_art'
p44
F0.0082461429331400007
sS'NetflixBestOf'
p45
F0.0093493504375700004
sS'perfectloops'
p46
F0.010844306739
sS'SubredditDrama'
p47
F0.0088759069066200007
sS'tumblr'
p48
F0.0071933313586900003
sS'interestingasfuck'
p49
F0.0089263616413900009
sS'MarkMyWords'
p50
F0.00779458963778
sS'dubstep'
p51
F0.0118421052632
sS'Cinemagraphs'
p52
F0.010878133375399999
sS'firstworldanarchists'
p53
F0.0084704557668199999
sS'forwardsfromgrandma'
p54
F0.0071067514138400002
sS'humor'
p55
F0.0093436774449300007
sS'truegaming'
p56
F0.00771021239453
sS'findareddit'
p57
F0.0081148145664299998
sS'ExpectationVsReality'
p58
F0.00742042569811
sS'breakingbad'
p59
F0.0085011438416099996
sS'edmproduction'
p60
F0.0094780219780199997
sS'outside'
p61
F0.0084930410422899994
sS'RoomPorn'
p62
F0.0073770491803300002
sS'foodhacks'
p63
F0.0079542989370200001
sS'lifehacks'
p64
F0.0077529801918099998
sS'Enhancement'
p65
F0.00832920996206
sS'LetsTalkMusic'
p66
F0.0080526452506699993
sS'blackpeoplegifs'
p67
F0.0079196718993099994
sS'bestof'
p68
F0.0080366817835199993
sS'Beatmatch'
p69
F0.010033087842899999
sS'casualiama'
p70
F0.0072504476668700003
sS'FloridaMan'
p71
F0.0071514357462600002
sS'delusionalartists'
p72
F0.0084754854629299995
sS'answers'
p73
F0.0075048107761400001
sS'JonTron'
p74
F0.0078183481660200008
sS'NotTimAndEric'
p75
F0.0118959107807
sS'shittyaskscience'
p76
F0.0071216013429300003
sS'GamePhysics'
p77
F0.0096959265634000008
sS'lewronggeneration'
p78
F0.0106017191977
sS'youtubehaiku'
p79
F0.017200326948399999
sS'RedditDayOf'
p80
F0.0078559449201199994
sS'netflix'
p81
F0.0077361957257500004
sS'Roadcam'
p82
F0.0073166974738100004
sS'wheredidthesodago'
p83
F0.0104359169475
sS'GameDeals'
p84
F0.0070864873570600003
sS'holdmybeer'
p85
F0.00776855076346
sS'QuotesPorn'
p86
F0.0078083261414500001
sS'TrueReddit'
p87
F0.0072786930702200001
sS'drunk'
p88
F0.0072721343551299996
sS'reactiongifs'
p89
F0.0085459707849200005
sS'patientgamers'
p90
F0.0086235489220599995
sS'community'
p91
F0.011243784246
sS'nostalgia'
p92
F0.0078313048784599999
sS'IdiotsFightingThings'
p93
F0.0084683977342800004
sS'conspiratard'
p94
F0.0070202808112300001
sS'AskScienceFiction'
p95
F0.0070146901845199996
sS'ContagiousLaughter'
p96
F0.0142687917295
sS'Damnthatsinteresting'
p97
F0.0082554768041199992
sS'HIMYM'
p98
F0.0076283652037100001
sS'CrazyIdeas'
p99
F0.010801915020899999
sS'OutOfTheLoop'
p100
F0.010473488981
sS'ifyoulikeblank'
p101
F0.0124240599858
sS'alternativeart'
p102
F0.0093049753133299992
sS'WebGames'
p103
F0.0089075382803300001
sS'Pareidolia'
p104
F0.00892964884759
sS'shittyreactiongifs'
p105
F0.010157923974299999
sS'explainlikeIAmA'
p106
F0.0102483808982
sS'misleadingthumbnails'
p107
F0.0089015151515200001
sS'Unexpected'
p108
F0.0096488275552599999
sS'gamegrumps'
p109
F0.0086497678923300007
sS'mildlyinfuriating'
p110
F0.0075514018691600002
sS'cordcutters'
p111
F0.00725944629813
sS'oddlysatisfying'
p112
F0.00882193978067
sS'TopGear'
p113
F0.0075711811848100004
sS'HipHopImages'
p114
F0.0086327386335600005
sS'FanTheories'
p115
F0.010959865829399999
sS'blunderyears'
p116
F0.0082780029317900006
sS'Marvel'
p117
F0.0071003129521799999
sS'rage'
p118
F0.0079225953329500002
sS'comics'
p119
F0.0091157246249800004
sS'entertainment'
p120
F0.0074634766038499997
sS'Perfectfit'
p121
F0.0077755755450499998
sS'EDM'
p122
F0.012062511141500001
sS'offbeat'
p123
F0.0083158263305299993
sS'behindthegifs'
p124
F0.0119973755741
sS'standupshots'
p125
F0.0113424264178
sS'fullmoviesonyoutube'
p126
F0.013558079882700001
sS'gamernews'
p127
F0.0085982410455500008
sS'crappymusic'
p128
F0.0086283844093999994
sS'IASIP'
p129
F0.0079002313639200007
sS'tipofmytongue'
p130
F0.0092052306878200006
sS'electronicmusic'
p131
F0.0131949926694
sS'bestofworldstar'
p132
F0.0071609726987899996
sS'southpark'
p133
F0.0071534713342800002
sS'HouseOfCards'
p134
F0.00869089915277
sS'asmr'
p135
F0.0076859463929600004
sS'techsupportmacgyver'
p136
F0.0082340832230600007
sS'HighQualityGifs'
p137
F0.0119635011828
sS'circlebroke'
p138
F0.0071235218692099998
sS'DaftPunk'
p139
F0.0145367412141
sS'nonononoyes'
p140
F0.0099669966996699996
sS'Whatcouldgowrong'
p141
F0.0079275502526100008
sS'wallpapers'
p142
F0.0101102660436
sS'notinteresting'
p143
F0.0081932326026799996
sS'AnimalsBeingJerks'
p144
F0.0073685308122800001
sS'trap'
p145
F0.011348812940300001
sS'wallpaper'
p146
F0.0082590264581199994
sS'Games'
p147
F0.0074031222883199996
sS'Gaming4Gamers'
p148
F0.0073965529272200002
sS'comicbooks'
p149
F0.0070009768804900003
sS'futurebeats'
p150
F0.0099312452253599998
sS'terriblefacebookmemes'
p151
F0.0074537148353000003
sS'listentothis'
p152
F0.012167861661700001
sS'HailCorporate'
p153
F0.0075228371843099997
sS'GifSound'
p154
F0.0120575149913
s.