(dp1
S'LetsTalkMusic'
p2
F0.0160486995019
sS'WeAreTheMusicMakers'
p3
F0.010043848143
sS'Jazz'
p4
F0.013703484938000001
sS'Bass'
p5
F0.0105290411668
sS'postrock'
p6
F0.053728489483700001
sS'guitarlessons'
p7
F0.0071583152988200002
sS'futurebeats'
p8
F0.0093605281308499991
sS'audioengineering'
p9
F0.00839300839301
sS'NotTimAndEric'
p10
F0.0082184016625700008
sS'Guitar'
p11
F0.0084510055626899998
sS'Djent'
p12
F0.013698630137
sS'progrockmusic'
p13
F0.021423635107099999
sS'vinyl'
p14
F0.0071209159452699997
sS'glitch_art'
p15
F0.0089871611982899995
sS'PostHardcore'
p16
F0.0185387131952
sS'ifyoulikeblank'
p17
F0.0088809946713999995
sS'drums'
p18
F0.0115074798619
sS'musictheory'
p19
F0.0103606027987
sS'progmetal'
p20
F0.0170153417015
sS'Hardcore'
p21
F0.0103761348898
sS'guitarpedals'
p22
F0.0245152354571
s.