(dp1
S'roblox'
p2
F0.0077153879125600004
sS'iosgaming'
p3
F0.0115380544088
sS'mindcrackcirclejerk'
p4
F0.0073009891662700003
sS'Terraria'
p5
F0.0079350085017900005
sS'AndroidGaming'
p6
F0.0093407255634600003
sS'mindcrack'
p7
F0.0092445733448100007
sS'playmindcrack'
p8
F0.0075574851262299996
sS'minecraftsuggestions'
p9
F0.025588536335700001
sS'admincraft'
p10
F0.0091774891774900006
sS'Minecraft'
p11
F0.0118332163537
sS'androidcirclejerk'
p12
F0.0093006617778600004
s.