(dp1
S'starbound'
p2
F0.0092806586739899999
sS'RandomActsOfGaming'
p3
F0.0097144448225700009
sS'GiftofGames'
p4
F0.0081213084961399996
sS'ultrahardcore'
p5
F0.016862359695900001
sS'feedthebeast'
p6
F0.016456296041000001
sS'mindcrackcirclejerk'
p7
F0.0071499833721299999
sS'Civcraft'
p8
F0.0119533319018
sS'teenagers'
p9
F0.0075893780528600002
sS'Terraria'
p10
F0.0096980476856
sS'montageparodies'
p11
F0.0070861678004499997
sS'minecraftsuggestions'
p12
F0.027681238948800001
sS'mindcrack'
p13
F0.0294741161184
sS'playmindcrack'
p14
F0.0131465517241
sS'techsupport'
p15
F0.0070276918086799997
sS'skyrim'
p16
F0.0084663220199300004
sS'playrust'
p17
F0.0076382995139300004
sS'admincraft'
p18
F0.033035984275799998
sS'Minecraft'
p19
F0.038845128013499999
sS'Steam'
p20
F0.0074393598399600004
sS'spaceengineers'
p21
F0.0072077887149700004
sS'tf2'
p22
F0.00852498017446
s.