(dp1
S'awwwtf'
p2
F0.011464397671299999
sS'DoesAnybodyElse'
p3
F0.0098604368932000003
sS'pettyrevenge'
p4
F0.0100589548013
sS'PublicFreakout'
p5
F0.0082056633306500006
sS'cringepics'
p6
F0.0070679876276800004
sS'fffffffuuuuuuuuuuuu'
p7
F0.0079979293386799998
sS'dadjokes'
p8
F0.018229642348300001
sS'futurama'
p9
F0.0096046911333499997
sS'perfectloops'
p10
F0.010993627897200001
sS'everymanshouldknow'
p11
F0.0095470457197400008
sS'InternetIsBeautiful'
p12
F0.0071075496607400004
sS'TalesFromRetail'
p13
F0.0070134855792900004
sS'WouldYouRather'
p14
F0.0142944503898
sS'quityourbullshit'
p15
F0.0130286787433
sS'LearnUselessTalents'
p16
F0.0112564996286
sS'badtattoos'
p17
F0.0081472540736299993
sS'whowouldwin'
p18
F0.0100182149362
sS'woahdude'
p19
F0.0080172331425300003
sS'4chan'
p20
F0.0098022741275999997
sS'MensRights'
p21
F0.0082598085226199998
sS'nononono'
p22
F0.010874230934300001
sS'Frisson'
p23
F0.0070912924040099998
sS'YouShouldKnow'
p24
F0.0095172450359200002
sS'shutupandtakemymoney'
p25
F0.0079556755220900003
sS'whitepeoplegifs'
p26
F0.0104724993815
sS'JusticePorn'
p27
F0.0078600794369700008
sS'howto'
p28
F0.0072799020274900003
sS'softwaregore'
p29
F0.0093280359302099995
sS'Jokes'
p30
F0.018008517957300001
sS'NoStupidQuestions'
p31
F0.0128593276944
sS'3amjokes'
p32
F0.027675857008100001
sS'toosoon'
p33
F0.025017313019399998
sS'Braveryjerk'
p34
F0.0074192443784999998
sS'photoshopbattles'
p35
F0.0084001989167100007
sS'creepyPMs'
p36
F0.0079640461319899995
sS'IdiotsFightingThings'
p37
F0.012260675243100001
sS'ConfusedBoners'
p38
F0.013027811142899999
sS'techsupportgore'
p39
F0.0082202111613900002
sS'CrappyDesign'
p40
F0.0090904127538799992
sS'NewsOfTheWeird'
p41
F0.0077068856601400001
sS'shittyadviceanimals'
p42
F0.010128495842799999
sS'montageparodies'
p43
F0.0074390868295000001
sS'DeepIntoYouTube'
p44
F0.011189505016000001
sS'ArcherFX'
p45
F0.0074641428432000003
sS'cringe'
p46
F0.0073859505372100001
sS'whatisthisthing'
p47
F0.0080056888562600008
sS'tumblr'
p48
F0.0085305940151899993
sS'see'
p49
F0.0070544090056300001
sS'MarkMyWords'
p50
F0.0138038401661
sS'fatpeoplestories'
p51
F0.0074353032058699997
sS'tifu'
p52
F0.0070375335120599998
sS'popping'
p53
F0.0081746316924199997
sS'firstworldanarchists'
p54
F0.013697902840500001
sS'PerfectTiming'
p55
F0.0107917059378
sS'no_sob_story'
p56
F0.0084607875040700001
sS'humor'
p57
F0.0085657007472200002
sS'Glitch_in_the_Matrix'
p58
F0.0075642965204200004
sS'shittyfoodporn'
p59
F0.0073631072955900002
sS'wikipedia'
p60
F0.0070505287896600001
sS'ExpectationVsReality'
p61
F0.0093464561353800001
sS'breakingbad'
p62
F0.0070081177363799999
sS'firstworldproblems'
p63
F0.0093764019739800003
sS'outside'
p64
F0.0105015304921
sS'facepalm'
p65
F0.0108330889779
sS'lifehacks'
p66
F0.0095295230623699996
sS'memes'
p67
F0.0096018735362999996
sS'blackpeoplegifs'
p68
F0.0099194048357099992
sS'StandUpComedy'
p69
F0.0073523404950599997
sS'needamod'
p70
F0.0088289511982100003
sS'casualiama'
p71
F0.0088936002012299994
sS'FloridaMan'
p72
F0.011567821491499999
sS'delusionalartists'
p73
F0.0083754015603500001
sS'answers'
p74
F0.0077222763322699998
sS'shittyaskscience'
p75
F0.013361852702699999
sS'GamePhysics'
p76
F0.0089329719073399996
sS'lewronggeneration'
p77
F0.0098545485842199999
sS'Unexpected'
p78
F0.013104375779
sS'PoliticalHumor'
p79
F0.0070626934984500001
sS'calvinandhobbes'
p80
F0.0070107272573699999
sS'watchpeopledie'
p81
F0.0128038194444
sS'wheredidthesodago'
p82
F0.010881104034
sS'AnimalsBeingBros'
p83
F0.0078198902692800006
sS'classic4chan'
p84
F0.018089602704999999
sS'whatstheword'
p85
F0.0070105157736599999
sS'NSFWFunny'
p86
F0.016597853013999998
sS'QuotesPorn'
p87
F0.0073929961089499998
sS'drunk'
p88
F0.0071292775665399996
sS'ANormalDayInRussia'
p89
F0.0110969984625
sS'misc'
p90
F0.0083488959683600001
sS'AntiJokes'
p91
F0.033618288348900002
sS'findareddit'
p92
F0.012314909837300001
sS'rant'
p93
F0.010729783037499999
sS'conspiratard'
p94
F0.0095148008012500007
sS'confession'
p95
F0.0082785175677799992
sS'ContagiousLaughter'
p96
F0.00772311212815
sS'nostalgia'
p97
F0.0073503427804099998
sS'Damnthatsinteresting'
p98
F0.0103088409978
sS'FiftyFifty'
p99
F0.0141061267699
sS'CrazyIdeas'
p100
F0.014710007168
sS'Bad_Cop_No_Donut'
p101
F0.0085744437604400002
sS'OutOfTheLoop'
p102
F0.012781059772199999
sS'Whatcouldgowrong'
p103
F0.0115695567326
sS'onetruegod'
p104
F0.0093064091308200005
sS'TheFacebookDelusion'
p105
F0.0079772702436900003
sS'MorbidReality'
p106
F0.0102284514993
sS'gif'
p107
F0.0086503140182499997
sS'quotes'
p108
F0.0082429136176300002
sS'shittyreactiongifs'
p109
F0.0120492524186
sS'misleadingthumbnails'
p110
F0.013319601785099999
sS'shittyadvice'
p111
F0.0145072536268
sS'Pareidolia'
p112
F0.010693792383899999
sS'holdmybeer'
p113
F0.0105839269186
sS'fatlogic'
p114
F0.0083430669114000003
sS'explainlikeIAmA'
p115
F0.0109093742695
sS'fifthworldproblems'
p116
F0.0079806783576600003
sS'shortscarystories'
p117
F0.0075218052332600002
sS'mildlyinfuriating'
p118
F0.0099841231069899995
sS'oddlysatisfying'
p119
F0.0096974882792299991
sS'rule34'
p120
F0.0073251942286299996
sS'Shitty_Car_Mods'
p121
F0.0089291846967499994
sS'shittyaskreddit'
p122
F0.015042441173299999
sS'IASIP'
p123
F0.0081798351914699995
sS'ghettoglamourshots'
p124
F0.010479607250800001
sS'blunderyears'
p125
F0.0087843065859500007
sS'rage'
p126
F0.0119646467021
sS'thatHappened'
p127
F0.011688608806000001
sS'interestingasfuck'
p128
F0.010454254207
sS'Perfectfit'
p129
F0.0098476559212199999
sS'offbeat'
p130
F0.0071605535077599999
sS'behindthegifs'
p131
F0.0091143253417900003
sS'standupshots'
p132
F0.010194138370400001
sS'fullmoviesonyoutube'
p133
F0.0077609062424700004
sS'AskScienceFiction'
p134
F0.0072609049038200001
sS'NewsOfTheStupid'
p135
F0.0120593692022
sS'awesome'
p136
F0.0091779334846499999
sS'FanTheories'
p137
F0.010143149284300001
sS'conspiracy'
p138
F0.0070641373080399996
sS'polandball'
p139
F0.0075152506131700002
sS'bestofworldstar'
p140
F0.0077137698998899999
sS'southpark'
p141
F0.0094356675463600007
sS'SRSsucks'
p142
F0.0078072719161300002
sS'DAE'
p143
F0.0087410723803399999
sS'MURICA'
p144
F0.0087648669166500003
sS'HighQualityGifs'
p145
F0.0076212809614499997
sS'self'
p146
F0.0070548776961800001
sS'shittyama'
p147
F0.013367439557700001
sS'TumblrInAction'
p148
F0.0074551086774900001
sS'Gore'
p149
F0.012870290480300001
sS'howtonotgiveafuck'
p150
F0.0085595224687500006
sS'nonononoyes'
p151
F0.0107334525939
sS'Frugal_Jerk'
p152
F0.0095990965556199993
sS'FutureWhatIf'
p153
F0.0094004356299399999
sS'wallpapers'
p154
F0.0072106261859600004
sS'notinteresting'
p155
F0.0123930033495
sS'forwardsfromgrandma'
p156
F0.0125897353477
sS'AnimalsBeingJerks'
p157
F0.0079514922663599993
sS'highdeas'
p158
F0.0079500283929599992
sS'Images'
p159
F0.0083294770939399999
sS'terriblefacebookmemes'
p160
F0.0130333868952
sS'sixwordstories'
p161
F0.0090141487905100008
sS'HailCorporate'
p162
F0.0071072002707499998
sS'ImGoingToHellForThis'
p163
F0.019594299327600002
s.