(dp1
S'awwwtf'
p2
F0.0080058893898999998
sS'Heavymind'
p3
F0.0102734051367
sS'skyrim'
p4
F0.0083690951840700006
sS'fffffffuuuuuuuuuuuu'
p5
F0.0077529497754999996
sS'dadjokes'
p6
F0.0080178662956700009
sS'dbz'
p7
F0.0074985579696200001
sS'DeepIntoYouTube'
p8
F0.0085699882372699994
sS'everymanshouldknow'
p9
F0.0072117101035300002
sS'Bass'
p10
F0.017538916672499998
sS'quityourbullshit'
p11
F0.0082863118020800007
sS'audioengineering'
p12
F0.0072523697436199996
sS'nostalgia'
p13
F0.0093889983873899994
sS'whowouldwin'
p14
F0.00725060421702
sS'woahdude'
p15
F0.0070232541948100002
sS'Fallout'
p16
F0.0073053493242000002
sS'ImaginaryMonsters'
p17
F0.010471698113199999
sS'nononono'
p18
F0.0081693817373200001
sS'horror'
p19
F0.013475251677900001
sS'progrockmusic'
p20
F0.0117099322799
sS'toosoon'
p21
F0.0107205623902
sS'beards'
p22
F0.0097157724862499996
sS'Hardcore'
p23
F0.012016932951
sS'Braveryjerk'
p24
F0.0080769687611400003
sS'AbandonedPorn'
p25
F0.0075806336265500001
sS'ConfusedBoners'
p26
F0.0082558360220199994
sS'techsupportgore'
p27
F0.0076723414001099999
sS'PropagandaPosters'
p28
F0.0088935641197299999
sS'CrappyDesign'
p29
F0.0078701155751200007
sS'WeAreTheMusicMakers'
p30
F0.00705563093623
sS'4chan'
p31
F0.0081617531490700002
sS'oblivion'
p32
F0.0080783353733200006
sS'futurama'
p33
F0.0098760351833800004
sS'zombies'
p34
F0.0071486743281199997
sS'whitepeoplegifs'
p35
F0.0088053509440400007
sS'ArcherFX'
p36
F0.0076896363546199997
sS'asatru'
p37
F0.010502363031699999
sS'TheSimpsons'
p38
F0.0081538389027699994
sS'tumblr'
p39
F0.0082045238203199995
sS'see'
p40
F0.0084811102544299997
sS'MarkMyWords'
p41
F0.0078024796921800001
sS'firstworldanarchists'
p42
F0.0108167298755
sS'Djent'
p43
F0.020548909218899999
sS'behindthegifs'
p44
F0.0073921351704700003
sS'lotr'
p45
F0.0095147478591800002
sS'shittyfoodporn'
p46
F0.0084933289944700008
sS'ExpectationVsReality'
p47
F0.00738381352251
sS'outside'
p48
F0.00869274490137
sS'memes'
p49
F0.00937725414763
sS'vexillology'
p50
F0.0077922077922099996
sS'LetsTalkMusic'
p51
F0.0072941646682699998
sS'tattoos'
p52
F0.0077506458871600004
sS'blackpeoplegifs'
p53
F0.0086617927526999993
sS'facepalm'
p54
F0.0087616058585099996
sS'Cyberpunk'
p55
F0.0084806497850000006
sS'FloridaMan'
p56
F0.0081786162020199994
sS'Metal'
p57
F0.098420221168999997
sS'delusionalartists'
p58
F0.0085415082197400002
sS'vinyl'
p59
F0.0092745942365000007
sS'drums'
p60
F0.0140320733104
sS'GamePhysics'
p61
F0.0070957613814800003
sS'lewronggeneration'
p62
F0.0152319915719
sS'guitarpedals'
p63
F0.0096642423034799998
sS'PoliticalHumor'
p64
F0.0085127691537300008
sS'BlackMetal'
p65
F0.051641695887800002
sS'punk'
p66
F0.017051658966799998
sS'watchpeopledie'
p67
F0.0075359270942899998
sS'wheredidthesodago'
p68
F0.0084278271529300008
sS'classic4chan'
p69
F0.010358221838599999
sS'NSFWFunny'
p70
F0.0085930918281399999
sS'QuotesPorn'
p71
F0.00772404107785
sS'drunk'
p72
F0.0089448515498700004
sS'Luthier'
p73
F0.0081336238198999999
sS'ANormalDayInRussia'
p74
F0.0094899979517999999
sS'reactiongifs'
p75
F0.0077936344094200003
sS'KingOfTheHill'
p76
F0.0095842956120099996
sS'IdiotsFightingThings'
p77
F0.0076705940108
sS'conspiratard'
p78
F0.0087252124645899997
sS'Damnthatsinteresting'
p79
F0.0078131707735900006
sS'MorbidReality'
p80
F0.0083507306889399995
sS'FiftyFifty'
p81
F0.0086847976203100006
sS'CrazyIdeas'
p82
F0.0078828828828800008
sS'OutOfTheLoop'
p83
F0.0078376613139299993
sS'onetruegod'
p84
F0.0097746402389400008
sS'TheFacebookDelusion'
p85
F0.0080553664624499997
sS'Guitar'
p86
F0.0162315636071
sS'gif'
p87
F0.0074266392947699997
sS'holdmybeer'
p88
F0.0088369441277099999
sS'ifyoulikeblank'
p89
F0.0074950924989600001
sS'misleadingthumbnails'
p90
F0.00937981240375
sS'trailerparkboys'
p91
F0.0092760003144399996
sS'Pareidolia'
p92
F0.00824632572987
sS'shittyreactiongifs'
p93
F0.0104044150909
sS'TrollYChromosome'
p94
F0.0097896392984100009
sS'explainlikeIAmA'
p95
F0.0070944599442000003
sS'batman'
p96
F0.0089840533053799996
sS'Unexpected'
p97
F0.0083879122141799992
sS'Shitty_Car_Mods'
p98
F0.0084736933495400003
sS'Metalcore'
p99
F0.0230539348228
sS'IASIP'
p100
F0.0080395794681499995
sS'blunderyears'
p101
F0.011634374710300001
sS'showerbeer'
p102
F0.0070156004800099999
sS'rage'
p103
F0.0092389121239999997
sS'thatHappened'
p104
F0.0084342379958200001
sS'PerfectTiming'
p105
F0.0078296572137899999
sS'cosplaygirls'
p106
F0.0083405618202400007
sS'standupshots'
p107
F0.0089465104818200001
sS'crappymusic'
p108
F0.010801925560600001
sS'awesome'
p109
F0.0074383533727299996
sS'FanTheories'
p110
F0.0081115755493899998
sS'polandball'
p111
F0.0092642704784899992
sS'southpark'
p112
F0.0087773836082399997
sS'techsupportmacgyver'
p113
F0.0071268749482100002
sS'ToolBand'
p114
F0.0125108385978
sS'deadpool'
p115
F0.00769777356703
sS'shittyama'
p116
F0.0070838252656399998
sS'badtattoos'
p117
F0.0095334056735399998
sS'Gore'
p118
F0.0087313816127399992
sS'progmetal'
p119
F0.038108251726999998
sS'Whatcouldgowrong'
p120
F0.0078223568004000005
sS'wallpapers'
p121
F0.0070312250311600002
sS'notinteresting'
p122
F0.00772751144122
sS'forwardsfromgrandma'
p123
F0.010396821076699999
sS'AnimalsBeingJerks'
p124
F0.0080135274224400008
sS'PowerMetal'
p125
F0.036744560837999998
sS'MURICA'
p126
F0.0082259708962800007
sS'PostHardcore'
p127
F0.0086862106406100006
sS'guitarlessons'
p128
F0.0081459385039
sS'terriblefacebookmemes'
p129
F0.0126943243492
sS'TumblrInAction'
p130
F0.0074487174522000002
sS'ImGoingToHellForThis'
p131
F0.0089133054909299996
s.