(dp1
S'badhistory'
p2
F0.0092097782831199997
sS'CalgaryFlames'
p3
F0.0093378607809799993
sS'circlebroke'
p4
F0.0078046604972700001
sS'circlebroke2'
p5
F0.0089810017271200002
sS'conspiratard'
p6
F0.0074147305981200002
sS'ShitPoliticsSays'
p7
F0.0132669983416
sS'Calgary'
p8
F0.014588581024299999
sS'Winnipeg'
p9
F0.0086802130597799995
sS'PersonalFinanceCanada'
p10
F0.011615989067300001
sS'canada'
p11
F0.020270740938499999
sS'ontario'
p12
F0.033170533170499998
sS'ShitRConservativeSays'
p13
F0.010917030567699999
sS'canadaguns'
p14
F0.0229388297872
sS'Habs'
p15
F0.0083078268473999999
sS'CanadianForces'
p16
F0.016319444444399998
sS'vancouver'
p17
F0.0079128856624299995
sS'PanicHistory'
p18
F0.012812089356100001
sS'EnoughLibertarianSpam'
p19
F0.0073529411764700001
sS'magicskyfairy'
p20
F0.010768335273600001
sS'TheoryOfReddit'
p21
F0.00748346675948
sS'toronto'
p22
F0.0136620264621
sS'CanadaPolitics'
p23
F0.078701904391799998
sS'Edmonton'
p24
F0.0084771886559799996
sS'ottawa'
p25
F0.0115216940004
sS'Shitstatistssay'
p26
F0.0108568075117
sS'Quebec'
p27
F0.018026796589499999
sS'montreal'
p28
F0.0085390104105699995
s.