(dp1
S'GNV'
p2
F0.0071174377224199996
sS'florida'
p3
F0.040243902439000001
sS'FloridaMan'
p4
F0.0110909326761
sS'orlando'
p5
F0.00980613165014
sS'miamidolphins'
p6
F0.0274741081703
sS'tampa'
p7
F0.0076417750368700001
s.