(dp1
S'Terraria'
p2
F0.019402891656799998
sS'runescape'
p3
F0.00761370016844
sS'dadjokes'
p4
F0.0085484371642100005
sS'perfectloops'
p5
F0.0070979020979000003
sS'dataisbeautiful'
p6
F0.0081818944140299998
sS'InternetIsBeautiful'
p7
F0.0093016798556200004
sS'RandomActsOfGaming'
p8
F0.014468231197400001
sS'GlobalOffensive'
p9
F0.0097592151172799999
sS'quityourbullshit'
p10
F0.0081640830432499999
sS'Showerthoughts'
p11
F0.0078848457312799998
sS'harrypotter'
p12
F0.0070504806214299999
sS'whowouldwin'
p13
F0.0081104605158999997
sS'GrandTheftAutoV'
p14
F0.0098345604463499995
sS'Fallout'
p15
F0.0078813903762199999
sS'4chan'
p16
F0.0098662595183799991
sS'smashbros'
p17
F0.011950623173699999
sS'NoStupidQuestions'
p18
F0.0073372781065099996
sS'cringepics'
p19
F0.0075054002269900003
sS'Steam'
p20
F0.014667787675
sS'thewalkingdead'
p21
F0.0073667955855899999
sS'photoshopbattles'
p22
F0.00940605239386
sS'Sherlock'
p23
F0.0070011668611400001
sS'techsupportgore'
p24
F0.0106466683059
sS'CrappyDesign'
p25
F0.010293857145700001
sS'thatHappened'
p26
F0.0085959885386800005
sS'Monstercat'
p27
F0.010763606823700001
sS'montageparodies'
p28
F0.012450505007699999
sS'techsupport'
p29
F0.0090180725082100004
sS'ClashOfClans'
p30
F0.00772540130453
sS'mildlyinteresting'
p31
F0.0080865328126600005
sS'pcgaming'
p32
F0.0090082149279000004
sS'wiiu'
p33
F0.0074381882401800001
sS'MechanicalKeyboards'
p34
F0.0096449918493000004
sS'SubredditDrama'
p35
F0.012066662619099999
sS'tumblr'
p36
F0.0082139446036299992
sS'interestingasfuck'
p37
F0.0092240395587700006
sS'roosterteeth'
p38
F0.017154150197599999
sS'sips'
p39
F0.0084895140112999992
sS'Naruto'
p40
F0.0074812967580999996
sS'Android'
p41
F0.0081609271743100006
sS'notinteresting'
p42
F0.0111162462601
sS'firstworldanarchists'
p43
F0.0101105237866
sS'gameofthrones'
p44
F0.00773044075783
sS'truegaming'
p45
F0.0073583672436700002
sS'space'
p46
F0.0084721949026300009
sS'mcservers'
p47
F0.0294741161184
sS'outside'
p48
F0.010521861777199999
sS'PKA'
p49
F0.0073573337525500004
sS'gamedev'
p50
F0.00780132022342
sS'MCPE'
p51
F0.0092445733448100007
sS'pcmasterrace'
p52
F0.0143775091518
sS'tf2'
p53
F0.0162665393534
sS'letsplay'
p54
F0.016174534511899999
sS'vexillology'
p55
F0.00870185449358
sS'spaceengineers'
p56
F0.0110841066431
sS'civ'
p57
F0.0131134066837
sS'europe'
p58
F0.0071494989151800001
sS'starbound'
p59
F0.016009749882300001
sS'bestof'
p60
F0.0090323726630799992
sS'CookieClicker'
p61
F0.0073773987206800003
sS'TalesFromRetail'
p62
F0.0083166149917900008
sS'casualiama'
p63
F0.0074719622830200002
sS'facepalm'
p64
F0.0088187146855399998
sS'Cynicalbrit'
p65
F0.015654045592399999
sS'promos'
p66
F0.00965009385378
sS'shittyaskscience'
p67
F0.0097645031590999996
sS'doctorwho'
p68
F0.012111489166700001
sS'lewronggeneration'
p69
F0.00772468168984
sS'worldbuilding'
p70
F0.0080851637245700006
sS'uhccourtroom'
p71
F0.019548431238399999
sS'TopGear'
p72
F0.0078436550904499996
sS'dogecoin'
p73
F0.0084741329706500002
sS'wheredidthesodago'
p74
F0.0093485534343600001
sS'GameDeals'
p75
F0.0082788671024000005
sS'battlestations'
p76
F0.0102641257105
sS'buildapc'
p77
F0.010835596628
sS'Yogscast'
p78
F0.018004299534200002
sS'reactiongifs'
p79
F0.0089293151415200007
sS'Unexpected'
p80
F0.010914305441199999
sS'pokemon'
p81
F0.016505263840900002
sS'GamePhysics'
p82
F0.0083972971199900003
sS'TheLastAirbender'
p83
F0.0124391842932
sS'Damnthatsinteresting'
p84
F0.00752078110569
sS'FiftyFifty'
p85
F0.0079591329136899994
sS'CrazyIdeas'
p86
F0.0088145504579300003
sS'lego'
p87
F0.0073252671196499999
sS'OutOfTheLoop'
p88
F0.0113978531208
sS'Rainmeter'
p89
F0.0075190662035900004
sS'battlefield_4'
p90
F0.0073223795298100001
sS'admincraft'
p91
F0.0148624767774
sS'woahdude'
p92
F0.0084517715469900005
sS'tipofmytongue'
p93
F0.0075201242762300002
sS'3DS'
p94
F0.00747381403825
sS'gamegrumps'
p95
F0.011858907019600001
sS'mildlyinfuriating'
p96
F0.0115446459977
sS'bindingofisaac'
p97
F0.0177962365716
sS'oddlysatisfying'
p98
F0.0116400005699
sS'youtubehaiku'
p99
F0.0092550080951100001
sS'MapPorn'
p100
F0.0099595908005200001
sS'skyrim'
p101
F0.0118442415693
sS'Twitch'
p102
F0.0092784407551099995
sS'ProgrammerHumor'
p103
F0.0094038377032399992
sS'buildapcforme'
p104
F0.0072765922655499997
sS'rage'
p105
F0.0078463725885999994
sS'comics'
p106
F0.0087209302325600008
sS'mindcrackcirclejerk'
p107
F0.062920660819899998
sS'behindthegifs'
p108
F0.0094150466393499999
sS'softwaregore'
p109
F0.0092201603842999996
sS'ultrahardcore'
p110
F0.052297998517400003
sS'KerbalSpaceProgram'
p111
F0.017556236394400002
sS'gallifrey'
p112
F0.0084014156716199998
sS'formula1'
p113
F0.0077032874912200001
sS'teenagers'
p114
F0.0126333244333
sS'learnprogramming'
p115
F0.0133271719039
sS'polandball'
p116
F0.013098720691600001
sS'counting'
p117
F0.010805238440700001
sS'technology'
p118
F0.0075968086650899996
sS'MURICA'
p119
F0.00735421353175
sS'pokemonzetaomicron'
p120
F0.0101137331901
sS'zelda'
p121
F0.0075463183493400003
sS'playmindcrack'
p122
F0.107366277096
sS'britishproblems'
p123
F0.0074584312204900001
sS'nonononoyes'
p124
F0.0076242686690899996
sS'katawashoujo'
p125
F0.0075488069414299998
sS'wallpapers'
p126
F0.0072580645161299997
sS'talesfromtechsupport'
p127
F0.0131738602877
sS'gaming'
p128
F0.0090194553487699999
sS'GiftofGames'
p129
F0.00760948141384
sS'nerdcubed'
p130
F0.017280059825900002
sS'Games'
p131
F0.0130981002047
sS'mylittlepony'
p132
F0.0082450300790900006
sS'nintendo'
p133
F0.0090094407437600003
sS'ftlgame'
p134
F0.0095575990152799994
sS'Minecraft'
p135
F0.073177465955400006
sS'anime'
p136
F0.0090328266137900005
sS'feedthebeast'
p137
F0.047978733750400002
sS'youtube'
p138
F0.015799355272899999
sS'TumblrInAction'
p139
F0.0098981869657500006
sS'minecraftsuggestions'
p140
F0.051016635859499997
sS'speedrun'
p141
F0.010414815341399999
s.