(dp1
S'uhccourtroom'
p2
F0.035752979414999997
sS'mcservers'
p3
F0.0071499833721299999
sS'ultrahardcore'
p4
F0.0261547572049
sS'feedthebeast'
p5
F0.0091529958459499999
sS'mindcrack'
p6
F0.062920660819899998
sS'playmindcrack'
p7
F0.111851171337
sS'minecraftsuggestions'
p8
F0.0234532955924
sS'admincraft'
p9
F0.0112540192926
sS'Minecraft'
p10
F0.0081125772692500001
sS'MCPE'
p11
F0.0073009891662700003
s.