(dp1
S'ShotBow'
p2
F0.0104153750775
sS'RandomActsOfGaming'
p3
F0.0079587007958699992
sS'mcservers'
p4
F0.027681238948800001
sS'Yogscast'
p5
F0.012238950947099999
sS'notinteresting'
p6
F0.0083330365727700001
sS'Civcraft'
p7
F0.0115704217945
sS'dadjokes'
p8
F0.00824433853967
sS'perfectloops'
p9
F0.0103307127542
sS'starbound'
p10
F0.0123147387979
sS'counting'
p11
F0.0096990988238899994
sS'pokemon'
p12
F0.0072617464140600002
sS'tf2'
p13
F0.0104645839238
sS'firstworldanarchists'
p14
F0.0078219167542900002
sS'CrazyIdeas'
p15
F0.0083552946813600006
sS'lego'
p16
F0.0073395883777200004
sS'OutOfTheLoop'
p17
F0.0083593426020899999
sS'PixelArt'
p18
F0.0076562350464199997
sS'pokemonzetaomicron'
p19
F0.0072599194939599997
sS'Enhancement'
p20
F0.00773453093812
sS'outside'
p21
F0.0126979853726
sS'mindcrack'
p22
F0.051016635859499997
sS'Portal'
p23
F0.012904568633600001
sS'playmindcrack'
p24
F0.032877007653299997
sS'misleadingthumbnails'
p25
F0.0092203993386700007
sS'WebGames'
p26
F0.0075594752834800003
sS'admincraft'
p27
F0.033453887884300003
sS'vexillology'
p28
F0.0073721600428899997
sS'spaceengineers'
p29
F0.0075187969924800004
sS'MCPE'
p30
F0.025588536335700001
sS'talesfromtechsupport'
p31
F0.0082989403234799992
sS'CrappyDesign'
p32
F0.0082883169155799994
sS'GiftofGames'
p33
F0.0072325846973699997
sS'CookieClicker'
p34
F0.0090493334630700004
sS'needamod'
p35
F0.0076162129037900001
sS'FreeKarma'
p36
F0.010632344711799999
sS'Terraria'
p37
F0.017162411160800001
sS'ftlgame'
p38
F0.0079906316732099997
sS'nerdcubed'
p39
F0.0085275724843699996
sS'gmod'
p40
F0.0095028392629499994
sS'skyrim'
p41
F0.0070904920031399999
sS'shittyaskscience'
p42
F0.0086336815755200004
sS'GamePhysics'
p43
F0.0087673761319699995
sS'Minecraft'
p44
F0.046970676189300002
sS'ProgrammerHumor'
p45
F0.0079387716295900006
sS'roblox'
p46
F0.0079195474544299996
sS'worldbuilding'
p47
F0.0090793535500300008
sS'techsupportgore'
p48
F0.00756123150393
sS'ultrahardcore'
p49
F0.015223660385000001
sS'feedthebeast'
p50
F0.029969220800300001
sS'mindcrackcirclejerk'
p51
F0.0234532955924
sS'youtube'
p52
F0.00988802305023
sS'SCP'
p53
F0.0075966850828699996
sS'softwaregore'
p54
F0.013943907463199999
sS'wheredidthesodago'
p55
F0.0072529465095199997
sS'KerbalSpaceProgram'
p56
F0.0087243957949499993
s.