(dp1
S'wisconsin'
p2
F0.0098312740799799993
sS'minnesotavikings'
p3
F0.036001569550699997
sS'minnesota'
p4
F0.14081632653100001
sS'GreenBayPackers'
p5
F0.0080562572540500005
sS'TwinCities'
p6
F0.220048899756
sS'wildhockey'
p7
F0.034809057113899998
s.