(dp1
S'inthenews'
p2
F0.021986192246399999
sS'KitchenConfidential'
p3
F0.0070522979397800003
sS'BuyItForLife'
p4
F0.0096025711374100008
sS'everymanshouldknow'
p5
F0.012092341517
sS'IndieGaming'
p6
F0.0077631002316399999
sS'NeutralPolitics'
p7
F0.0118761676007
sS'syriancivilwar'
p8
F0.0081637217624700009
sS'HistoryPorn'
p9
F0.010938883968099999
sS'holdmybeer'
p10
F0.0119690311781
sS'ImaginaryMonsters'
p11
F0.00897397547113
sS'YouShouldKnow'
p12
F0.0167779724108
sS'UpliftingNews'
p13
F0.0092966748540800007
sS'anonymous'
p14
F0.0095392077607099994
sS'3amjokes'
p15
F0.0097882995674899997
sS'Military'
p16
F0.0073390733907300002
sS'magicskyfairy'
p17
F0.010388792696399999
sS'photoshopbattles'
p18
F0.0075741093282599998
sS'IWantToLearn'
p19
F0.0099965358539100008
sS'CrappyDesign'
p20
F0.013301088270899999
sS'NewsOfTheWeird'
p21
F0.018210724093100001
sS'Cyberpunk'
p22
F0.011295928500499999
sS'Libertarian'
p23
F0.0089639202211100003
sS'Anarcho_Capitalism'
p24
F0.0091150442477899996
sS'Whatisthis'
p25
F0.0095796130952400006
sS'EatCheapAndHealthy'
p26
F0.0071660126258300001
sS'blackpeoplegifs'
p27
F0.0098472836518400005
sS'SelfDrivingCars'
p28
F0.0077381911978100003
sS'OneY'
p29
F0.012615235322699999
sS'forwardsfromgrandma'
p30
F0.014280069989300001
sS'no_sob_story'
p31
F0.0135691785801
sS'Glitch_in_the_Matrix'
p32
F0.0074990385847999996
sS'skeptic'
p33
F0.016773283634700001
sS'socialskills'
p34
F0.0079616209043599992
sS'Anticonsumption'
p35
F0.0089655172413800003
sS'GuessTheMovie'
p36
F0.0074349442379200003
sS'vexillology'
p37
F0.010346168805900001
sS'Economics'
p38
F0.0095613558093200005
sS'ExposurePorn'
p39
F0.0079515335100299993
sS'needamod'
p40
F0.00852242462981
sS'answers'
p41
F0.026273945634900001
sS'ainbow'
p42
F0.0094799326659
sS'ThriftStoreHauls'
p43
F0.0095967861925300001
sS'WarshipPorn'
p44
F0.00778556334112
sS'cripplingalcoholism'
p45
F0.0076384468491399998
sS'IWantOut'
p46
F0.0071422839258500001
sS'whatsthisbug'
p47
F0.00885676473582
sS'QuotesPorn'
p48
F0.0118509136964
sS'firefox'
p49
F0.0079276462706599996
sS'itookapicture'
p50
F0.0098855572418900008
sS'TrueReddit'
p51
F0.017057726291000001
sS'AmIFreeToGo'
p52
F0.0090875598673700007
sS'AntiJokes'
p53
F0.0089294878374199995
sS'IdiotsFightingThings'
p54
F0.0142243864932
sS'Health'
p55
F0.0098391674550599995
sS'gamernews'
p56
F0.0091717926186299994
sS'ContagiousLaughter'
p57
F0.0097439932215699996
sS'environment'
p58
F0.011186003155000001
sS'FiftyFifty'
p59
F0.0073828577587400001
sS'eldertrees'
p60
F0.0086452680952800003
sS'AskHistorians'
p61
F0.0087361516838500002
sS'OutOfTheLoop'
p62
F0.015430253414899999
sS'ifyoulikeblank'
p63
F0.0094491106719400003
sS'firstimpression'
p64
F0.0070098917361199999
sS'WebGames'
p65
F0.010143406785600001
sS'Pareidolia'
p66
F0.016040170165299999
sS'tipofmytongue'
p67
F0.0076091940846000003
sS'cordcutters'
p68
F0.010563204005
sS'LifeProTips'
p69
F0.00763090720006
sS'Shitty_Car_Mods'
p70
F0.0085800390001799995
sS'UFOs'
p71
F0.00771590592173
sS'ghettoglamourshots'
p72
F0.0080462141530799995
sS'EDC'
p73
F0.0073197180553000001
sS'techsupportgore'
p74
F0.012436249509599999
sS'firstworldproblems'
p75
F0.0149647058824
sS'findareddit'
p76
F0.015774114677799999
sS'standupshots'
p77
F0.0115447407292
sS'history'
p78
F0.0081821232222599998
sS'AskScienceFiction'
p79
F0.0105877639787
sS'NewsOfTheStupid'
p80
F0.022825659189300001
sS'awesome'
p81
F0.020195368236199999
sS'DecidingToBeBetter'
p82
F0.0072055137844599998
sS'techsupportmacgyver'
p83
F0.011992296918799999
sS'gadgets'
p84
F0.0076999211554900004
sS'Infographics'
p85
F0.0120291231402
sS'polandball'
p86
F0.0081664398211199994
sS'counting'
p87
F0.0070270270270299997
sS'Ask_Politics'
p88
F0.0086206896551700007
sS'netsec'
p89
F0.0076095311298999997
sS'MURICA'
p90
F0.0086484453949400002
sS'needadvice'
p91
F0.0088006680799099998
sS'scifi'
p92
F0.012070916635199999
sS'spaceporn'
p93
F0.012532252119399999
sS'SRSsucks'
p94
F0.0099688473520199994
sS'wheredidthesodago'
p95
F0.012552630543400001
sS'BasicIncome'
p96
F0.00928888430179
sS'highdeas'
p97
F0.0076103500760999997
sS'wallpaper'
p98
F0.010414858531499999
sS'budgetfood'
p99
F0.0089926240274800003
sS'Images'
p100
F0.023628518594599999
sS'dogpictures'
p101
F0.0072691846522799997
sS'wallpapers'
p102
F0.0095017305557400008
sS'law'
p103
F0.00811508668388
sS'MachinePorn'
p104
F0.010781142801099999
sS'eFreebies'
p105
F0.0075248900208400001
sS'FanTheories'
p106
F0.0096860529334300005
sS'ImGoingToHellForThis'
p107
F0.0076777599006400002
sS'cableporn'
p108
F0.0073260073260100001
sS'help'
p109
F0.010108613829400001
sS'DoesAnybodyElse'
p110
F0.0107524095761
sS'pettyrevenge'
p111
F0.0103461313718
sS'CityPorn'
p112
F0.0096357080691300001
sS'DeepIntoYouTube'
p113
F0.011265969802599999
sS'dataisbeautiful'
p114
F0.0098693375958699998
sS'linguistics'
p115
F0.0095826038883300001
sS'nostalgia'
p116
F0.012000880798600001
sS'Documentaries'
p117
F0.00720777848235
sS'AndroidQuestions'
p118
F0.0072143233280699999
sS'MensRights'
p119
F0.0080203568897800007
sS'MilitaryPorn'
p120
F0.0076894910289299996
sS'Frisson'
p121
F0.0138755980861
sS'childfree'
p122
F0.0071876277421999996
sS'GunsAreCool'
p123
F0.0088258471237200008
sS'NoStupidQuestions'
p124
F0.0150388046244
sS'Braveryjerk'
p125
F0.0085590189064899992
sS'Liberal'
p126
F0.010478237506699999
sS'creepyPMs'
p127
F0.0078732106339500004
sS'freebies'
p128
F0.0099159389537300004
sS'PropagandaPosters'
p129
F0.0153971652901
sS'shittyadviceanimals'
p130
F0.010365425158099999
sS'SubredditDrama'
p131
F0.012592621787800001
sS'minimalism'
p132
F0.0087890202190800005
sS'economy'
p133
F0.0081418692839600008
sS'TrueAtheism'
p134
F0.011026241222100001
sS'badhistory'
p135
F0.0099957283212299998
sS'energy'
p136
F0.0083166999334699995
sS'Cinemagraphs'
p137
F0.0131016804329
sS'psychology'
p138
F0.011251862891200001
sS'space'
p139
F0.0079413234349300001
sS'shittyfoodporn'
p140
F0.0094305163539799997
sS'LearnUselessTalents'
p141
F0.014705882352899999
sS'RoomPorn'
p142
F0.0106792185444
sS'memes'
p143
F0.0095895020188400005
sS'Astronomy'
p144
F0.0091306584362100002
sS'math'
p145
F0.0077389112457399998
sS'bestof'
p146
F0.00899014778325
sS'Roadcam'
p147
F0.0111049416991
sS'GamePhysics'
p148
F0.012918879926599999
sS'youtubehaiku'
p149
F0.011347571925300001
sS'PoliticalHumor'
p150
F0.0126068376068
sS'recipes'
p151
F0.0076390810960400004
sS'TalesFromThePizzaGuy'
p152
F0.0082534017399100001
sS'programming'
p153
F0.0070601639911299996
sS'howtonotgiveafuck'
p154
F0.0089131855725200007
sS'whatstheword'
p155
F0.0125402286095
sS'patientgamers'
p156
F0.010349561727699999
sS'rant'
p157
F0.0097747556311100006
sS'seinfeld'
p158
F0.0071094860857199996
sS'privacy'
p159
F0.0113521926211
sS'ANormalDayInRussia'
p160
F0.014364325019699999
sS'TheFacebookDelusion'
p161
F0.0092491176828499999
sS'shittyreactiongifs'
p162
F0.0131238624389
sS'alternativeart'
p163
F0.011575178997599999
sS'shittyadvice'
p164
F0.0114311431143
sS'MeanJokes'
p165
F0.0083488959683600001
sS'ObscureMedia'
p166
F0.011143539400400001
sS'CombatFootage'
p167
F0.0076723016905100002
sS'GTA'
p168
F0.0070831819832899998
sS'TrollYChromosome'
p169
F0.0080708305727900005
sS'collapse'
p170
F0.011043553790799999
sS'mildlyinfuriating'
p171
F0.0117889773062
sS'Awwducational'
p172
F0.0134922901199
sS'POLITIC'
p173
F0.014834406623699999
sS'worldpolitics'
p174
F0.0125587980089
sS'nononono'
p175
F0.0176266760408
sS'torrents'
p176
F0.010023866348399999
sS'conspiracy'
p177
F0.010080533697
sS'AnythingGoesNews'
p178
F0.021940447357200001
sS'DaystromInstitute'
p179
F0.0077437521999300001
sS'TalesFromYourServer'
p180
F0.0097138160352700006
sS'HighQualityGifs'
p181
F0.0113609467456
sS'self'
p182
F0.020378062729500001
sS'slowcooking'
p183
F0.0083518930957700004
sS'UnresolvedMysteries'
p184
F0.0079624878350899996
sS'conspiratard'
p185
F0.015157770569200001
sS'startrek'
p186
F0.0088914447491799994
sS'FutureWhatIf'
p187
F0.0109128257799
sS'badphilosophy'
p188
F0.0074296328046899998
sS'Futurology'
p189
F0.0078313743587000006
sS'EnoughLibertarianSpam'
p190
F0.01
sS'Gaming4Gamers'
p191
F0.0084557918069099996
sS'windows'
p192
F0.0097535158022100006
sS'TumblrInAction'
p193
F0.0075585101538999996
sS'HailCorporate'
p194
F0.0147045223342
sS'Heavymind'
p195
F0.0102751654476
sS'talesfromcallcenters'
p196
F0.0080910997902300004
sS'PanicHistory'
p197
F0.0088688085676000006
sS'fffffffuuuuuuuuuuuu'
p198
F0.0081686778941800001
sS'PoliticalDiscussion'
p199
F0.0145957117024
sS'Foodforthought'
p200
F0.020226171243899999
sS'TheoryOfReddit'
p201
F0.024272983114400001
sS'shittybattlestations'
p202
F0.0095278424730000002
sS'ProgrammerHumor'
p203
F0.0094304831146900005
sS'arresteddevelopment'
p204
F0.0077415277668099998
sS'shutupandtakemymoney'
p205
F0.0160235611241
sS'JusticePorn'
p206
F0.0085614986861099994
sS'geek'
p207
F0.0147817843475
sS'lostgeneration'
p208
F0.0113176201848
sS'spicy'
p209
F0.0073639540689000001
sS'AbandonedPorn'
p210
F0.0115878254492
sS'progressive'
p211
F0.013391826367999999
sS'dadjokes'
p212
F0.0097069185218500009
sS'Marijuana'
p213
F0.0090964840556000005
sS'thatHappened'
p214
F0.0097777777777799998
sS'whitepeoplegifs'
p215
F0.012700116268700001
sS'TheSimpsons'
p216
F0.0088770312878999995
sS'Justrolledintotheshop'
p217
F0.0081585410608899997
sS'glitch_art'
p218
F0.0100810870042
sS'changemyview'
p219
F0.0100217777061
sS'KarmaCourt'
p220
F0.0081058020477799992
sS'firstworldanarchists'
p221
F0.012611780054900001
sS'PerfectTiming'
p222
F0.015189748156899999
sS'truegaming'
p223
F0.0100438446469
sS'wikipedia'
p224
F0.024398625429600002
sS'outside'
p225
F0.0127287976713
sS'AskCulinary'
p226
F0.0076885821528000003
sS'foodhacks'
p227
F0.012369008761399999
sS'europe'
p228
F0.0085642773137099993
sS'StandUpComedy'
p229
F0.010727901409699999
sS'casualiama'
p230
F0.0102817416758
sS'facepalm'
p231
F0.010481764375200001
sS'NotTimAndEric'
p232
F0.0091324200913200006
sS'Unexpected'
p233
F0.012178079457
sS'RedditDayOf'
p234
F0.0183556825676
sS'Design'
p235
F0.0087861415752700008
sS'drunk'
p236
F0.0089890796727399996
sS'reactiongifs'
p237
F0.00745380639142
sS'community'
p238
F0.0070008116883100002
sS'MMFB'
p239
F0.0070201830261999998
sS'chrome'
p240
F0.0100712355687
sS'California'
p241
F0.0076257213520200002
sS'confessions'
p242
F0.0074431703882499997
sS'somethingimade'
p243
F0.0126177840355
sS'MapPorn'
p244
F0.00952455001361
sS'shittyaskreddit'
p245
F0.0093635178380900002
sS'Perfectfit'
p246
F0.012349066959399999
sS'offbeat'
p247
F0.021885840428899999
sS'softwaregore'
p248
F0.0135708227311
sS'socialism'
p249
F0.0101641319078
sS'Cooking'
p250
F0.0074665870230700001
sS'IASIP'
p251
F0.00743971267317
sS'hardware'
p252
F0.0089363557105500008
sS'southpark'
p253
F0.0071644464345700003
sS'Israel'
p254
F0.0070471464019900001
sS'watchpeopledie'
p255
F0.0078725988573499998
sS'Whatcouldgowrong'
p256
F0.013066651384000001
sS'fifthworldproblems'
p257
F0.0099032972154300004
sS'talesfromtechsupport'
p258
F0.0095919895189999996
sS'Anarchism'
p259
F0.0076539387684899998
sS'notinteresting'
p260
F0.0119405284647
sS'AnimalsBeingJerks'
p261
F0.0118800678861
sS'Physics'
p262
F0.00782482903735
sS'TrueFilm'
p263
F0.0071817945833699999
sS'HumanPorn'
p264
F0.0133897599556
sS'awwwtf'
p265
F0.016480282519100001
sS'Piracy'
p266
F0.0099341210917099996
sS'circlebroke'
p267
F0.013444951801100001
sS'PublicFreakout'
p268
F0.0094864408463299996
sS'ArtisanVideos'
p269
F0.0085427449024100006
sS'Conservative'
p270
F0.0083338329636100002
sS'quotes'
p271
F0.0109729334309
sS'futurama'
p272
F0.0096505647171100002
sS'perfectloops'
p273
F0.0133543401606
sS'InternetIsBeautiful'
p274
F0.0089704987597299998
sS'TalesFromRetail'
p275
F0.0088294651866799995
sS'WouldYouRather'
p276
F0.010980006555199999
sS'quityourbullshit'
p277
F0.0129453778102
sS'ProtectAndServe'
p278
F0.0084157250470800003
sS'woahdude'
p279
F0.0090545728660799997
sS'offmychest'
p280
F0.0071428571428599997
sS'confession'
p281
F0.0097357440890100001
sS'howto'
p282
F0.0163357995751
sS'toosoon'
p283
F0.014978137501200001
sS'nonononoyes'
p284
F0.0123839009288
sS'4chan'
p285
F0.0081366045497200008
sS'Enhancement'
p286
F0.0153194920379
sS'zombies'
p287
F0.0082280903176399998
sS'ArcherFX'
p288
F0.00864405912741
sS'google'
p289
F0.010690128186900001
sS'gardening'
p290
F0.0073871642683299996
sS'whatisthisthing'
p291
F0.01448181518
sS'NetflixBestOf'
p292
F0.0092603277175200005
sS'circlebroke2'
p293
F0.0096368955429399997
sS'tumblr'
p294
F0.0090887904917299998
sS'interestingasfuck'
p295
F0.0126680055616
sS'MarkMyWords'
p296
F0.0138825149151
sS'aviation'
p297
F0.0074077911313700003
sS'humor'
p298
F0.0203138225145
sS'AMA'
p299
F0.0079667897805300002
sS'ExpectationVsReality'
p300
F0.01492992078
sS'lifehacks'
p301
F0.011264878140900001
sS'SCP'
p302
F0.00714990138067
sS'biology'
p303
F0.00734983526231
sS'business'
p304
F0.0079180783432900009
sS'FloridaMan'
p305
F0.0132437977989
sS'delusionalartists'
p306
F0.011729670596799999
sS'Frugal'
p307
F0.0082910494684700006
sS'promos'
p308
F0.0072666950483699999
sS'shittyaskscience'
p309
F0.010061773353799999
sS'lewronggeneration'
p310
F0.0093608635284600002
sS'worldbuilding'
p311
F0.0070218917802600004
sS'csshelp'
p312
F0.0077097505668899998
sS'calvinandhobbes'
p313
F0.0098309445057000004
sS'netflix'
p314
F0.0084174175794500001
sS'sixwordstories'
p315
F0.0102145045965
sS'AnimalsBeingBros'
p316
F0.0122410546139
sS'classic4chan'
p317
F0.013220277169899999
sS'NSFWFunny'
p318
F0.0090441567653800001
sS'software'
p319
F0.0091540752178199992
sS'ShitAmericansSay'
p320
F0.0113270691209
sS'marijuanaenthusiasts'
p321
F0.0084496223274900008
sS'Damnthatsinteresting'
p322
F0.013418360568599999
sS'CrazyIdeas'
p323
F0.016650594664099998
sS'TinyHouses'
p324
F0.0076670317634200003
sS'Bad_Cop_No_Donut'
p325
F0.013167587477
sS'MorbidReality'
p326
F0.010363717119899999
sS'gif'
p327
F0.013349285309499999
sS'introvert'
p328
F0.0093063334769500003
sS'Portal'
p329
F0.0073356038773899996
sS'happy'
p330
F0.0148640101202
sS'cablefail'
p331
F0.0079056679619500005
sS'explainlikeIAmA'
p332
F0.013551047891600001
sS'misleadingthumbnails'
p333
F0.0150480804522
sS'occupywallstreet'
p334
F0.012589413447799999
sS'teslamotors'
p335
F0.0072631578947400001
sS'Pizza'
p336
F0.0084330794341699999
sS'blunderyears'
p337
F0.0083103808528800002
sS'webcomics'
p338
F0.012966138019700001
sS'rage'
p339
F0.011624555672999999
sS'comics'
p340
F0.0124492341996
sS'behindthegifs'
p341
F0.013555080548499999
sS'BritishTV'
p342
F0.0072553045859000001
sS'fullmoviesonyoutube'
p343
F0.012982402758800001
sS'TrueAskReddit'
p344
F0.018928715263800001
sS'bestofworldstar'
p345
F0.0086206896551700007
sS'DAE'
p346
F0.0122197176415
sS'eatsandwiches'
p347
F0.0084173334718900001
sS'Survival'
p348
F0.0083712277800700001
sS'shittyama'
p349
F0.0079928952042599994
sS'AskSocialScience'
p350
F0.0090732339598199995
sS'ImaginaryLandscapes'
p351
F0.0108036600154
sS'TheWayWeWere'
p352
F0.0136618141097
sS'badtattoos'
p353
F0.0078631647211400008
sS'nottheonion'
p354
F0.0090683060574600002
sS'Frugal_Jerk'
p355
F0.0125158027813
sS'oddlysatisfying'
p356
F0.010979040014500001
sS'entertainment'
p357
F0.013509456619599999
sS'youtube'
p358
F0.0082140165787500004
sS'terriblefacebookmemes'
p359
F0.010476282859600001
sS'urbanexploration'
p360
F0.01053001053
s.