(dp1
S'awwwtf'
p2
F0.0074042186827399997
sS'Terraria'
p3
F0.0070864437952999999
sS'adventuretime'
p4
F0.0112313098601
sS'fffffffuuuuuuuuuuuu'
p5
F0.0078627224996799996
sS'rickandmorty'
p6
F0.0071621203413100003
sS'futurama'
p7
F0.00751433656318
sS'perfectloops'
p8
F0.0093826488985599994
sS'RandomActsOfGaming'
p9
F0.0081276893089600004
sS'TalesFromRetail'
p10
F0.0080243902439000002
sS'TheoryOfReddit'
p11
F0.0076015203040599999
sS'TheBluePill'
p12
F0.0073303912035299996
sS'furry'
p13
F0.023076923076899999
sS'nostalgia'
p14
F0.0071406179246900001
sS'Tulpas'
p15
F0.0120866907474
sS'whowouldwin'
p16
F0.0093006764128300001
sS'Fallout'
p17
F0.0116006011648
sS'ImaginaryMonsters'
p18
F0.0077396657871600001
sS'dwarffortress'
p19
F0.0077946512565499997
sS'NoStupidQuestions'
p20
F0.0071724137930999996
sS'Braveryjerk'
p21
F0.0075286415711899998
sS'GamePhysics'
p22
F0.0122421903269
sS'techsupportgore'
p23
F0.012004175365299999
sS'vexillology'
p24
F0.0092990489608999992
sS'thatHappened'
p25
F0.0073728743941499997
sS'montageparodies'
p26
F0.0092404912364399995
sS'Cyberpunk'
p27
F0.0073697440585000001
sS'DeepIntoYouTube'
p28
F0.010507597801500001
sS'firefly'
p29
F0.0082888903167799999
sS'gamemusic'
p30
F0.0070850202429100003
sS'badhistory'
p31
F0.0075792374827700001
sS'MechanicalKeyboards'
p32
F0.0071334648257700001
sS'DoctorWhumour'
p33
F0.0076094591430600003
sS'SubredditDrama'
p34
F0.010348395998599999
sS'tumblr'
p35
F0.0095292464429999994
sS'CrappyDesign'
p36
F0.0093445323682700004
sS'notinteresting'
p37
F0.0086210045662100006
sS'firstworldanarchists'
p38
F0.0096005441180299998
sS'forwardsfromgrandma'
p39
F0.0095681271567499993
sS'cosplay'
p40
F0.0078546257377000005
sS'truegaming'
p41
F0.00732688011914
sS'4chan'
p42
F0.0072192126719999999
sS'outside'
p43
F0.0117995465272
sS'tf2'
p44
F0.012263816198
sS'SCP'
p45
F0.0140769969073
sS'RWBY'
p46
F0.0106211474633
sS'Enhancement'
p47
F0.0079484235626599998
sS'starbound'
p48
F0.0093723626349200007
sS'glitch_art'
p49
F0.0071551230681200003
sS'FloridaMan'
p50
F0.0072538268220200004
sS'AnimalCrossing'
p51
F0.0093920476913599994
sS'lgbt'
p52
F0.0079510703363900002
sS'promos'
p53
F0.0075908161207600003
sS'JonTron'
p54
F0.0136310644785
sS'shittyaskscience'
p55
F0.0074029819730900004
sS'ainbow'
p56
F0.012725682017000001
sS'lewronggeneration'
p57
F0.0102826675694
sS'worldbuilding'
p58
F0.0092920353982299999
sS'Unexpected'
p59
F0.0077960387694900003
sS'RedditDayOf'
p60
F0.0075059382422800001
sS'Cynicalbrit'
p61
F0.00741850606636
sS'wheredidthesodago'
p62
F0.012378459237100001
sS'quityourbullshit'
p63
F0.0079717921201900004
sS'classic4chan'
p64
F0.0089126559714800008
sS'yiff'
p65
F0.010651995786
sS'Yogscast'
p66
F0.0070510576586500003
sS'patientgamers'
p67
F0.0083731468255900006
sS'IdiotsFightingThings'
p68
F0.0073934984156800001
sS'conspiratard'
p69
F0.0096331773157700001
sS'rpg'
p70
F0.0078753351206400004
sS'doctorwho'
p71
F0.00877539175856
sS'homestuck'
p72
F0.0127663852031
sS'TheLastAirbender'
p73
F0.0100266473962
sS'DnD'
p74
F0.0074734208880600003
sS'CrazyIdeas'
p75
F0.0077336919973100002
sS'OutOfTheLoop'
p76
F0.0094519636121600005
sS'mylittleandysonic1'
p77
F0.055818673883599998
sS'Portal'
p78
F0.0095035778175299995
sS'shittyreactiongifs'
p79
F0.0079519499196300004
sS'misleadingthumbnails'
p80
F0.0087795144662500008
sS'MLPCCG'
p81
F0.014045402580400001
sS'Pareidolia'
p82
F0.0077283669073900003
sS'explainlikeIAmA'
p83
F0.0101154978486
sS'alternativeart'
p84
F0.0073891625615799999
sS'gamegrumps'
p85
F0.0136589403974
sS'mylittlepony'
p86
F0.17407909326099999
sS'ftlgame'
p87
F0.0099332946635699998
sS'oddlysatisfying'
p88
F0.0072921816512500001
sS'youtubehaiku'
p89
F0.0070616354023300002
sS'rule34'
p90
F0.0085312177362400002
sS'Awwducational'
p91
F0.0082419365305999998
sS'skyrim'
p92
F0.0070080949986200004
sS'ProgrammerHumor'
p93
F0.0077675630499999997
sS'KillLaKill'
p94
F0.0142269996838
sS'Random_Acts_Of_Amazon'
p95
F0.0080571708820900007
sS'rage'
p96
F0.0079786617186599993
sS'comics'
p97
F0.0083258843059600008
sS'behindthegifs'
p98
F0.0107987158284
sS'softwaregore'
p99
F0.0135769359705
sS'KerbalSpaceProgram'
p100
F0.0093401127445599998
sS'gallifrey'
p101
F0.0079268292682899994
sS'ShingekiNoKyojin'
p102
F0.0091423893020399997
sS'AskScienceFiction'
p103
F0.0079053480475399993
sS'TwoBestFriendsPlay'
p104
F0.0097522917885700007
sS'polandball'
p105
F0.010179938982600001
sS'counting'
p106
F0.0073233542571999998
sS'ploungeafterdark'
p107
F0.082238010657200003
sS'techsupportmacgyver'
p108
F0.00915278103732
sS'MURICA'
p109
F0.0076499248668100003
sS'HighQualityGifs'
p110
F0.0085482262430499993
sS'circlebroke'
p111
F0.0073334845392000001
sS'zelda'
p112
F0.0075670277329599996
sS'touhou'
p113
F0.0072202166065000002
sS'katawashoujo'
p114
F0.0123443303474
sS'fifthworldproblems'
p115
F0.0085668212053999996
sS'talesfromtechsupport'
p116
F0.0098733487675300002
sS'awwnime'
p117
F0.0141282848262
sS'paydaytheheist'
p118
F0.0085367608268200005
sS'GiftofGames'
p119
F0.0091846600064499993
sS'ClopClop'
p120
F0.038200692041499999
sS'mildlyinfuriating'
p121
F0.0075681893863699997
sS'Gaming4Gamers'
p122
F0.0094101956135200001
sS'Minecraft'
p123
F0.0083645098205899996
sS'GirlGamers'
p124
F0.0084280674245399995
sS'anime'
p125
F0.0077336013334599997
sS'feedthebeast'
p126
F0.0073481026540899996
sS'terriblefacebookmemes'
p127
F0.0083197529805300006
sS'TumblrInAction'
p128
F0.010374721075200001
sS'GifSound'
p129
F0.0097021507564999995
sS'Nerf'
p130
F0.0078065011517799996
s.