(dp1
S'FancyFollicles'
p2
F0.0083954786360899997
sS'amiugly'
p3
F0.0091585713595300003
sS'SuicideWatch'
p4
F0.0176749001627
sS'MakeNewFriendsHere'
p5
F0.010516381286199999
sS'BPD'
p6
F0.00821716801174
sS'AskWomen'
p7
F0.0079424108803100007
sS'pettyrevenge'
p8
F0.00797982589471
sS'Assistance'
p9
F0.012336106019999999
sS'confession'
p10
F0.0152912377184
sS'misc'
p11
F0.0070201830261999998
sS'DecidingToBeBetter'
p12
F0.010064701653499999
sS'uglyduckling'
p13
F0.0085220901547399999
sS'self'
p14
F0.014181194110700001
sS'rant'
p15
F0.013466550825400001
sS'needadvice'
p16
F0.018544091536799999
sS'Frisson'
p17
F0.00772094305804
sS'AmISexy'
p18
F0.0090188752174199995
sS'Pets'
p19
F0.0070660522273399999
sS'AnythingGoesNews'
p20
F0.0072379849449899997
sS'OneY'
p21
F0.0105616302187
sS'Foodforthought'
p22
F0.0075698757764000001
sS'LongDistance'
p23
F0.0071030321545900001
sS'depression'
p24
F0.013098895624
sS'NewsOfTheStupid'
p25
F0.0070394474697800004
sS'DAE'
p26
F0.0093446601941700007
sS'ForeverAlone'
p27
F0.015118045009
sS'CrazyIdeas'
p28
F0.0078606262833700001
sS'quityourbullshit'
p29
F0.0073682067982899996
sS'psychology'
p30
F0.0078478720193199993
sS'TheBluePill'
p31
F0.0071863375042299999
sS'selfimprovement'
p32
F0.00794232649071
sS'OutOfTheLoop'
p33
F0.0075898282543400003
sS'shittyama'
p34
F0.00796596361003
sS'NoStupidQuestions'
p35
F0.0101971667366
sS'ExpectationVsReality'
p36
F0.0098605654417999993
sS'socialskills'
p37
F0.012385986733000001
sS'MorbidReality'
p38
F0.0074698854782500003
sS'TheWayWeWere'
p39
F0.0072951099965800001
sS'outside'
p40
F0.0072898586660100004
sS'ifyoulikeblank'
p41
F0.0072436617959300001
sS'firstimpression'
p42
F0.010651828298900001
sS'socialanxiety'
p43
F0.0106033294454
sS'raisedbynarcissists'
p44
F0.0094181346755100002
sS'confessions'
p45
F0.0122908489981
sS'Needafriend'
p46
F0.0134061093555
sS'Dreams'
p47
F0.0072597514458000003
sS'happy'
p48
F0.0141422257935
sS'getdisciplined'
p49
F0.0093324208299599993
sS'offmychest'
p50
F0.0126788869556
sS'Anxiety'
p51
F0.0132498743546
sS'YouShouldKnow'
p52
F0.0078314732447399994
sS'childfree'
p53
F0.00724065749288
sS'RandomKindness'
p54
F0.011956989247299999
sS'casualiama'
p55
F0.0088399816597900006
sS'LetsNotMeet'
p56
F0.0078327444051799998
sS'answers'
p57
F0.0085437774081399999
sS'PrettyGirlsUglyFaces'
p58
F0.0070724175714699999
sS'introvert'
p59
F0.0107243319269
sS'BipolarReddit'
p60
F0.0073311715776099998
sS'TrueAskReddit'
p61
F0.0083522542977600006
sS'Awwducational'
p62
F0.0079296424452099997
sS'TheGirlSurvivalGuide'
p63
F0.0094714771166200008
sS'ainbow'
p64
F0.0084799278304000004
sS'TrollYChromosome'
p65
F0.0071933674713499998
sS'DoesAnybodyElse'
p66
F0.0086314475873500007
sS'blunderyears'
p67
F0.0087832973362099998
sS'IWantToLearn'
p68
F0.0089937044069199994
sS'creepyPMs'
p69
F0.0092828164752800004
sS'penpals'
p70
F0.0083663188197199995
sS'dating_advice'
p71
F0.0087905935050400005
sS'relationship_advice'
p72
F0.0084223500410800008
sS'IWantOut'
p73
F0.0075967979088400004
sS'firstworldproblems'
p74
F0.0070744705937800002
sS'findareddit'
p75
F0.013606531134900001
sS'howtonotgiveafuck'
p76
F0.016492845015799999
sS'sixwordstories'
p77
F0.0075926168346599999
sS'LearnUselessTalents'
p78
F0.00705767826722
sS'whatstheword'
p79
F0.00974725150176
sS'Advice'
p80
F0.0101185178245
s.