(dp1
S'Gunpla'
p2
F0.019366852886399999
sS'hoggit'
p3
F0.0144801621778
sS'Warhammer40k'
p4
F0.0096362322332000008
sS'projectcar'
p5
F0.0078414288825999993
sS'flightsim'
p6
F0.015950376606099999
sS'lego'
p7
F0.0078054093301899996
sS'Warthunder'
p8
F0.019045046261900001
sS'flying'
p9
F0.0077208153181000001
sS'CompanyOfHeroes'
p10
F0.0077436582109500001
sS'WorldofTanks'
p11
F0.015856316224500001
sS'CombatFootage'
p12
F0.0088407134071299999
sS'TheWayWeWere'
p13
F0.0072409111479899996
sS'MilitaryPorn'
p14
F0.0137290322581
sS'classiccars'
p15
F0.0092961487383800001
sS'Gundam'
p16
F0.0088839533592400006
sS'wargame'
p17
F0.0100250626566
sS'Warhammer'
p18
F0.012736318408
sS'aviation'
p19
F0.0144393606275
sS'MachinePorn'
p20
F0.012758356723699999
sS'WarshipPorn'
p21
F0.023732965855199999
sS'PropagandaPosters'
p22
F0.0073060573857599998
sS'radiocontrol'
p23
F0.013634426928
sS'GunPorn'
p24
F0.0073613402716100002
s.