(dp1
S'breastfeeding'
p2
F0.1633707016
sS'FancyFollicles'
p3
F0.016693664506800002
sS'pettyrevenge'
p4
F0.0075548307651300004
sS'ABraThatFits'
p5
F0.0168248490078
sS'Pets'
p6
F0.0097370291400099996
sS'RandomActsofMakeup'
p7
F0.0115081768625
sS'TalesFromRetail'
p8
F0.0078169309298899998
sS'BabyBumps'
p9
F0.109838008692
sS'harrypotter'
p10
F0.0072236727589200002
sS'InfertilityBabies'
p11
F0.013241327862700001
sS'offmychest'
p12
F0.0072461851744099999
sS'Anxiety'
p13
F0.0076203671631499999
sS'TalesFromYourServer'
p14
F0.0084074826595700002
sS'xxketo'
p15
F0.014244238795100001
sS'wedding'
p16
F0.010822301671700001
sS'clothdiaps'
p17
F0.077464788732399995
sS'homestead'
p18
F0.0080084299262400006
sS'predaddit'
p19
F0.024403544648899999
sS'freebies'
p20
F0.0074292452830199999
sS'Paleo'
p21
F0.0087822376151899997
sS'gardening'
p22
F0.012411054112200001
sS'BackYardChickens'
p23
F0.0087264794109599992
sS'AskWomen'
p24
F0.011642728551000001
sS'TwoXChromosomes'
p25
F0.010797154961299999
sS'entwives'
p26
F0.011658370447999999
sS'knitting'
p27
F0.017412333736399999
sS'Feminism'
p28
F0.0070154489141000002
sS'SkincareAddiction'
p29
F0.0118701007839
sS'InteriorDesign'
p30
F0.0090421455938699997
sS'ExpectationVsReality'
p31
F0.00773323873714
sS'AskCulinary'
p32
F0.0097954479976999995
sS'foodhacks'
p33
F0.00731668522348
sS'disney'
p34
F0.0088501014074100007
sS'DeadBedrooms'
p35
F0.0080286110502899993
sS'tonightsdinner'
p36
F0.0073973616076899998
sS'Frugal'
p37
F0.011925635043700001
sS'LadyBoners'
p38
F0.013856627953499999
sS'ThriftStoreHauls'
p39
F0.0087253943878299999
sS'Breadit'
p40
F0.0071981677391199997
sS'glutenfree'
p41
F0.0085650592514400006
sS'recipes'
p42
F0.013274571231300001
sS'Hair'
p43
F0.010005717552900001
sS'MakeupAddicts'
p44
F0.0083793173921899999
sS'weddingplanning'
p45
F0.010333333333300001
sS'xxfitness'
p46
F0.014078565779099999
sS'Assistance'
p47
F0.0125122830003
sS'confession'
p48
F0.00761201220491
sS'Health'
p49
F0.0073354007633599999
sS'TrollXChromosomes'
p50
F0.010636322196099999
sS'femalefashionadvice'
p51
F0.01497778718
sS'BeautyBoxes'
p52
F0.0082476691369799994
sS'CrossStitch'
p53
F0.010387040929899999
sS'loseit'
p54
F0.0109990647745
sS'EatCheapAndHealthy'
p55
F0.0134900273111
sS'ketorecipes'
p56
F0.0078386660015700004
sS'raisedbynarcissists'
p57
F0.015508159281
sS'dogs'
p58
F0.0091256874153199993
sS'happy'
p59
F0.0098659991164799996
sS'MakeupAddiction'
p60
F0.0129973054367
sS'breakingmom'
p61
F0.16796411136
sS'somethingimade'
p62
F0.0086548864046199995
sS'HomeImprovement'
p63
F0.0080735149327200006
sS'namenerds'
p64
F0.050788335426299999
sS'curlyhair'
p65
F0.014451951952000001
sS'TheGirlSurvivalGuide'
p66
F0.018879415347100002
sS'Random_Acts_Of_Amazon'
p67
F0.010226283725
sS'RealEstate'
p68
F0.0082180234599999995
sS'TryingForABaby'
p69
F0.036028602860299998
sS'C25K'
p70
F0.0091958337243099996
sS'nursing'
p71
F0.00767818394258
sS'Cooking'
p72
F0.0107776528667
sS'bigboobproblems'
p73
F0.017214742882399998
sS'education'
p74
F0.0073564085636099999
sS'autism'
p75
F0.0104520157459
sS'Dogtraining'
p76
F0.0075162570728799999
sS'yoga'
p77
F0.0074831026713900002
sS'self'
p78
F0.0070069780235699998
sS'Parenting'
p79
F0.087838072422999999
sS'badtattoos'
p80
F0.0072633729288000002
sS'popping'
p81
F0.0071958623791299999
sS'slowcooking'
p82
F0.016160102739699998
sS'RedditLaqueristas'
p83
F0.0157876034316
sS'daddit'
p84
F0.035744089012500001
sS'Baking'
p85
F0.015517734553800001
sS'quilting'
p86
F0.0130293159609
sS'RandomKindness'
p87
F0.0096576633165800004
sS'birthcontrol'
p88
F0.0090469698847400002
sS'sewing'
p89
F0.021441441441399998
sS'budgetfood'
p90
F0.012863534675600001
sS'Teachers'
p91
F0.0084230229293399995
sS'progresspics'
p92
F0.0079334011847900007
sS'crochet'
p93
F0.024130589070299999
sS'beyondthebump'
p94
F0.19084139157499999
sS'infertility'
p95
F0.0135966332146
sS'GirlGamers'
p96
F0.0075349838536099998
sS'secretsanta'
p97
F0.0089304475730200006
sS'crafts'
p98
F0.0194605358436
s.