(dp1
S'canada'
p2
F0.036864170504499999
sS'toronto'
p3
F0.0144058849573
sS'ontario'
p4
F0.0106022808268
sS'CanadaPolitics'
p5
F0.023914738757500002
sS'TrueReddit'
p6
F0.0070875708757099998
sS'worldpolitics'
p7
F0.0076685904023999999
sS'nhl'
p8
F0.0086142963089699993
sS'CityPorn'
p9
F0.0072086916224699997
sS'French'
p10
F0.0147132169576
sS'Habs'
p11
F0.051319222963199997
sS'ottawa'
p12
F0.0139319865746
sS'france'
p13
F0.0115865904526
sS'BostonBruins'
p14
F0.0070428583698399997
sS'metacanada'
p15
F0.0085390104105699995
sS'vancouver'
p16
F0.00770154030806
sS'hockey'
p17
F0.0127950073582
sS'PersonalFinanceCanada'
p18
F0.0153282239254
sS'Quebec'
p19
F0.123722431415
s.