(dp1
S'exmormon'
p2
F0.064949051445599995
sS'DebateAChristian'
p3
F0.0073456702924100002
sS'DebateReligion'
p4
F0.0096205237840700005
sS'religion'
p5
F0.0121951219512
sS'latterdaysaints'
p6
F0.184181415929
sS'SaltLakeCity'
p7
F0.0238330046022
sS'exjw'
p8
F0.0110963160231
s.