(dp1
S'RandomActsOfGaming'
p2
F0.0129860837835
sS'skyrim'
p3
F0.0189622534664
sS'masseffect'
p4
F0.0116264267832
sS'teslore'
p5
F0.016915422885599999
sS'DeepIntoYouTube'
p6
F0.0091380461009300008
sS'Military'
p7
F0.0078562568131400005
sS'battlefield3'
p8
F0.0080663747407200004
sS'syriancivilwar'
p9
F0.0076978159684900002
sS'quityourbullshit'
p10
F0.0096496437054600006
sS'airsoft'
p11
F0.0071362495044300003
sS'HistoryPorn'
p12
F0.0115095455313
sS'whowouldwin'
p13
F0.012797221480100001
sS'Fallout'
p14
F0.018078285224900001
sS'ImaginaryMonsters'
p15
F0.0070875763747500001
sS'dwarffortress'
p16
F0.0263990189118
sS'MilitaryPorn'
p17
F0.0119723010179
sS'skyrimmods'
p18
F0.019873997708999998
sS'CrusaderKings'
p19
F0.055531533757500001
sS'JusticePorn'
p20
F0.0073191419503100003
sS'footballmanagergames'
p21
F0.0071556350626100001
sS'unitedkingdom'
p22
F0.0076210037023999996
sS'gmod'
p23
F0.0081457178413800006
sS'elderscrollsonline'
p24
F0.0070923935453699998
sS'Steam'
p25
F0.013732867151499999
sS'AskGames'
p26
F0.0076652826572999998
sS'SkyrimPorn'
p27
F0.0074004463761300002
sS'DarkSouls2'
p28
F0.0091143594153100006
sS'PropagandaPosters'
p29
F0.0121951219512
sS'vexillology'
p30
F0.0164842498665
sS'thatHappened'
p31
F0.0082956563862400003
sS'oblivion'
p32
F0.0190682333539
sS'montageparodies'
p33
F0.011523016935299999
sS'prisonarchitect'
p34
F0.018168538299999999
sS'eu4'
p35
F0.034145429621799998
sS'starcitizen'
p36
F0.0131542009224
sS'cringe'
p37
F0.0072528846700400003
sS'StarWars'
p38
F0.0090326028861600002
sS'pcgaming'
p39
F0.0142552165829
sS'badhistory'
p40
F0.018686173680000001
sS'totalwar'
p41
F0.065038639876400003
sS'stalker'
p42
F0.0174821072392
sS'ShouldIbuythisgame'
p43
F0.019201641667099999
sS'changemyview'
p44
F0.0071787370811599999
sS'ChivalryGame'
p45
F0.016560367013499999
sS'notinteresting'
p46
F0.00759717314488
sS'firstworldanarchists'
p47
F0.0072679978578500002
sS'forwardsfromgrandma'
p48
F0.0089851744621400002
sS'gameofthrones'
p49
F0.011247716025
sS'truegaming'
p50
F0.017045953782600001
sS'4chan'
p51
F0.00997250107677
sS'lotr'
p52
F0.013382746551399999
sS'Warthunder'
p53
F0.018186515112399999
sS'SteamGameSwap'
p54
F0.0076657198590099999
sS'CompanyOfHeroes'
p55
F0.0078059325087100001
sS'outside'
p56
F0.0132609469562
sS'pcmasterrace'
p57
F0.0095752181976500005
sS'tf2'
p58
F0.0086238651383499995
sS'letsplay'
p59
F0.0076501154734399997
sS'SCP'
p60
F0.0078397212543599992
sS'spaceengineers'
p61
F0.019102872505999999
sS'SubredditDrama'
p62
F0.011467803387499999
sS'europe'
p63
F0.011106074342700001
sS'starbound'
p64
F0.0144255538382
sS'bestof'
p65
F0.0079991178917599992
sS'FloridaMan'
p66
F0.0078282141886399995
sS'delusionalartists'
p67
F0.0070906861438400004
sS'Cynicalbrit'
p68
F0.0141050756901
sS'shittyaskscience'
p69
F0.0080006095702500005
sS'GamePhysics'
p70
F0.0161420036765
sS'gamingsuggestions'
p71
F0.017358229598899998
sS'Morrowind'
p72
F0.02001953125
sS'worldbuilding'
p73
F0.017735416540999999
sS'youtubehaiku'
p74
F0.0099897991487599997
sS'dayz'
p75
F0.0122655900889
sS'WarshipPorn'
p76
F0.0087453150098200007
sS'Xcom'
p77
F0.0200481154771
sS'Planetside'
p78
F0.016093953893000001
sS'wheredidthesodago'
p79
F0.0092355424077300002
sS'ukpolitics'
p80
F0.0076357267951000004
sS'classic4chan'
p81
F0.0096001209464099992
sS'GameDeals'
p82
F0.0138131980791
sS'OutOfTheLoop'
p83
F0.0089588588327400003
sS'paradoxplaza'
p84
F0.0496871321479
sS'HalfLife'
p85
F0.0073591057289200002
sS'ShitAmericansSay'
p86
F0.0096970908727400003
sS'Yogscast'
p87
F0.0076138485849699998
sS'dragonage'
p88
F0.010299909118399999
sS'patientgamers'
p89
F0.013272029198500001
sS'IdiotsFightingThings'
p90
F0.0071333036112300003
sS'conspiratard'
p91
F0.0107543640898
sS'rpg'
p92
F0.010483707751499999
sS'Warhammer40k'
p93
F0.0093951393741799998
sS'AskScienceFiction'
p94
F0.0107674335924
sS'ContagiousLaughter'
p95
F0.0075055892685999999
sS'TheLastAirbender'
p96
F0.0073737195337300002
sS'DnD'
p97
F0.0104020499054
sS'FiftyFifty'
p98
F0.0072948173753899998
sS'AskHistorians'
p99
F0.016857756138400001
sS'ANormalDayInRussia'
p100
F0.0090239410681399995
sS'MorbidReality'
p101
F0.0075586142540499997
sS'shittyreactiongifs'
p102
F0.0078622533217999994
sS'WebGames'
p103
F0.0081116632563600008
sS'lewronggeneration'
p104
F0.0112226575253
sS'arma'
p105
F0.0229038306992
sS'CombatFootage'
p106
F0.0136555822192
sS'GTA'
p107
F0.0076330108827099997
sS'explainlikeIAmA'
p108
F0.0086852139528299996
sS'WorldofTanks'
p109
F0.0099682575040400002
sS'swtor'
p110
F0.0075792113061299996
sS'rpg_gamers'
p111
F0.0098140983297199998
sS'Eve'
p112
F0.0085333503787300008
sS'Terraria'
p113
F0.0094110346967300005
sS'ftlgame'
p114
F0.014846743294999999
sS'roguelikes'
p115
F0.010404744563500001
sS'Unexpected'
p116
F0.0079410730834399996
sS'MapPorn'
p117
F0.012937723185099999
sS'asoiaf'
p118
F0.0139940621143
sS'IndieGaming'
p119
F0.0089118714930099992
sS'Battlefield'
p120
F0.0075075075075100002
sS'darksouls'
p121
F0.0123950780709
sS'rage'
p122
F0.00850212553138
sS'comics'
p123
F0.0071072319201999998
sS'behindthegifs'
p124
F0.0082298786441599991
sS'socialism'
p125
F0.00746268656716
sS'civ'
p126
F0.021911213677799999
sS'MMORPG'
p127
F0.0086221862160799998
sS'KerbalSpaceProgram'
p128
F0.0181155478185
sS'history'
p129
F0.0104956696188
sS'gamernews'
p130
F0.0128708980153
sS'FanTheories'
p131
F0.0090390658338800004
sS'polandball'
p132
F0.022251509486
sS'assassinscreed'
p133
F0.0109828095155
sS'MURICA'
p134
F0.0086432160803999996
sS'Fantasy'
p135
F0.00866120324698
sS'circlebroke'
p136
F0.0072207277360900003
sS'ImaginaryLandscapes'
p137
F0.0078601077453000004
sS'aoe2'
p138
F0.0094507449410700002
sS'britishproblems'
p139
F0.00718562874251
sS'nonononoyes'
p140
F0.0073850395509899996
sS'tolkienfans'
p141
F0.0083020359754900006
sS'FutureWhatIf'
p142
F0.0084728867623600004
sS'paydaytheheist'
p143
F0.0135865797865
sS'GiftofGames'
p144
F0.010914565299199999
sS'wargame'
p145
F0.01185019564
sS'nerdcubed'
p146
F0.0086213842559000001
sS'Games'
p147
F0.013757212710099999
sS'Warhammer'
p148
F0.012384536435200001
sS'Gaming4Gamers'
p149
F0.0124756063563
sS'playrust'
p150
F0.0126823376382
sS'Minecraft'
p151
F0.0084547675202199992
sS'thesims'
p152
F0.00816757417491
sS'Warframe'
p153
F0.0079578285772199994
sS'TumblrInAction'
p154
F0.010038150039900001
sS'HailCorporate'
p155
F0.0074712205534800003
sS'GifSound'
p156
F0.0077242259814899999
s.