(dp1
S'circlebroke2'
p2
F0.0219478737997
sS'Hiphopcirclejerk'
p3
F0.0076854862547999997
sS'MarkMyWords'
p4
F0.0096724927880499998
sS'superman'
p5
F0.0070208284577599998
sS'no_sob_story'
p6
F0.0110721535339
sS'shittyadviceanimals'
p7
F0.0091613812544000008
sS'circlebroke'
p8
F0.0148354712772
sS'Screenwriting'
p9
F0.012162876784800001
sS'GuessTheMovie'
p10
F0.0093314976288799995
sS'YMS'
p11
F0.018677435638599998
sS'PanicHistory'
p12
F0.0102893890675
sS'NotTimAndEric'
p13
F0.0075073551790599997
sS'marvelstudios'
p14
F0.0077876831642599998
sS'indieheads'
p15
F0.0088708187026400008
sS'comicbookmovies'
p16
F0.0126964933495
sS'magicskyfairy'
p17
F0.0152342627192
sS'lewronggeneration'
p18
F0.011687776747999999
sS'Braveryjerk'
p19
F0.011717171717199999
sS'TrueFilm'
p20
F0.029764705882399999
sS'dvdcollection'
p21
F0.017098888572199999
sS'terriblefacebookmemes'
p22
F0.0080321285140600007
sS'Filmmakers'
p23
F0.0070530512112799999
sS'MovieSuggestions'
p24
F0.011324730050000001
s.