(dp1
S'Heavymind'
p2
F0.010012334034699999
sS'MapPorn'
p3
F0.0077641770529599998
sS'DoesAnybodyElse'
p4
F0.0075327271397599999
sS'CityPorn'
p5
F0.0078192875760200002
sS'rickandmorty'
p6
F0.0070780706959399997
sS'quotes'
p7
F0.0095863526570000007
sS'BuyItForLife'
p8
F0.0070296248475700002
sS'perfectloops'
p9
F0.0073197123034799997
sS'everymanshouldknow'
p10
F0.0084545944489400008
sS'askphilosophy'
p11
F0.0072508014043699996
sS'Foodforthought'
p12
F0.0095338983050800002
sS'socialskills'
p13
F0.0078549573000900007
sS'TheoryOfReddit'
p14
F0.0082086829624199997
sS'WouldYouRather'
p15
F0.00880996627435
sS'quityourbullshit'
p16
F0.0084282123318100005
sS'nostalgia'
p17
F0.010000675721299999
sS'Documentaries'
p18
F0.0103522180436
sS'writing'
p19
F0.0088586857593600001
sS'HistoryPorn'
p20
F0.0091293464313500008
sS'booksuggestions'
p21
F0.0232546148293
sS'woahdude'
p22
F0.00748938360571
sS'PublicFreakout'
p23
F0.0078782213913700001
sS'AskCulinary'
p24
F0.0082407358179600008
sS'nononono'
p25
F0.00794465521089
sS'Frisson'
p26
F0.0107248084856
sS'YouShouldKnow'
p27
F0.0106265843853
sS'shutupandtakemymoney'
p28
F0.0071964817200499999
sS'moviescirclejerk'
p29
F0.011324730050000001
sS'horror'
p30
F0.017738895064999999
sS'howto'
p31
F0.0082814445828100006
sS'PandR'
p32
F0.0087054550009400006
sS'NoStupidQuestions'
p33
F0.010632261147400001
sS'IWantToLearn'
p34
F0.011572013530400001
sS'WatchItForThePlot'
p35
F0.00808510638298
sS'Animesuggest'
p36
F0.0080870917573900008
sS'PropagandaPosters'
p37
F0.0070543843819200003
sS'dvdcollection'
p38
F0.012694748990200001
sS'worldpolitics'
p39
F0.0076527463484900001
sS'SubredditDrama'
p40
F0.0071076271027500004
sS'Cyberpunk'
p41
F0.0076877267067299998
sS'minimalism'
p42
F0.0080664200834199996
sS'DeepIntoYouTube'
p43
F0.0091541372609200006
sS'cringe'
p44
F0.0075441686076199999
sS'europe'
p45
F0.0071812779858600002
sS'glitch_art'
p46
F0.0074222843171500002
sS'EatCheapAndHealthy'
p47
F0.0074594972609699998
sS'NetflixBestOf'
p48
F0.017150647580100001
sS'gentlemanboners'
p49
F0.0072904942187700002
sS'TheSimpsons'
p50
F0.0092996856444299992
sS'ShouldIbuythisgame'
p51
F0.0076041967465600002
sS'DCcomics'
p52
F0.0073865093613700002
sS'interestingasfuck'
p53
F0.0085037090645899999
sS'MarkMyWords'
p54
F0.0100497962879
sS'changemyview'
p55
F0.00827273077071
sS'CrappyDesign'
p56
F0.0071162228874499999
sS'Cinemagraphs'
p57
F0.0086186815746599997
sS'PerfectTiming'
p58
F0.0074554437974199998
sS'humor'
p59
F0.0078996022186100003
sS'truegaming'
p60
F0.0085200104326700003
sS'findareddit'
p61
F0.0142819006941
sS'skeptic'
p62
F0.0077467311481300002
sS'lotr'
p63
F0.0070828025477700004
sS'wikipedia'
p64
F0.0095690388432100003
sS'standupshots'
p65
F0.0092585998148299996
sS'breakingbad'
p66
F0.0083197481589700004
sS'LearnUselessTalents'
p67
F0.0084006974163899992
sS'GuessTheMovie'
p68
F0.022168340838200001
sS'RoomPorn'
p69
F0.0076404900763999998
sS'lifehacks'
p70
F0.0072969897128099996
sS'LetsTalkMusic'
p71
F0.0086273169898399994
sS'StandUpComedy'
p72
F0.0100868796937
sS'casualiama'
p73
F0.00722937963871
sS'classicalmusic'
p74
F0.0070417625322500002
sS'delusionalartists'
p75
F0.0078648102880200001
sS'answers'
p76
F0.0096043760335799994
sS'vinyl'
p77
F0.0074877455710399997
sS'gamingsuggestions'
p78
F0.016218816576200001
sS'youtubehaiku'
p79
F0.0077712045366999999
sS'ThriftStoreHauls'
p80
F0.0078011035707500004
sS'RedditDayOf'
p81
F0.011173184357499999
sS'netflix'
p82
F0.011848569502
sS'recipes'
p83
F0.0088982842534800002
sS'howtonotgiveafuck'
p84
F0.0078863529534700001
sS'Sherlock'
p85
F0.0079234246211100003
sS'whatstheword'
p86
F0.0098843879622300002
sS'IWantOut'
p87
F0.0081361448233799993
sS'QuotesPorn'
p88
F0.0090734458658599994
sS'TrueReddit'
p89
F0.00903933957478
sS'patientgamers'
p90
F0.0083666274970600005
sS'community'
p91
F0.0093722480815200005
sS'NotTimAndEric'
p92
F0.00886430285257
sS'IdiotsFightingThings'
p93
F0.0071032186459499998
sS'seinfeld'
p94
F0.0071616727033300001
sS'ContagiousLaughter'
p95
F0.0081167108753300004
sS'Damnthatsinteresting'
p96
F0.0083216643328700001
sS'CrazyIdeas'
p97
F0.0110194478363
sS'AskHistorians'
p98
F0.0076371450022000003
sS'Screenwriting'
p99
F0.0125964415053
sS'OutOfTheLoop'
p100
F0.0099965229485400008
sS'TheWire'
p101
F0.0081274643920499993
sS'MorbidReality'
p102
F0.0088138596777599994
sS'ifyoulikeblank'
p103
F0.025156541799399999
sS'misleadingthumbnails'
p104
F0.0076131045241799996
sS'Standup'
p105
F0.0071786888081599998
sS'Pareidolia'
p106
F0.0072165563308900001
sS'ObscureMedia'
p107
F0.0114977614978
sS'Filmmakers'
p108
F0.012595401975900001
sS'introvert'
p109
F0.0079011636259200008
sS'batman'
p110
F0.0087577377602699995
sS'androidapps'
p111
F0.0072048093249499996
sS'marvelstudios'
p112
F0.0070299946438099996
sS'oddlysatisfying'
p113
F0.0076403479831199999
sS'Unexpected'
p114
F0.0082210586807999995
sS'indieheads'
p115
F0.0073675262113900002
sS'Psychonaut'
p116
F0.0072905681140799997
sS'IASIP'
p117
F0.0091809886357299992
sS'blunderyears'
p118
F0.0078740157480300006
sS'television'
p119
F0.0076204249638399998
sS'rage'
p120
F0.0081900267707199995
sS'comics'
p121
F0.0074950199203200002
sS'entertainment'
p122
F0.0115384615385
sS'offbeat'
p123
F0.0085979028088399995
sS'movies'
p124
F0.00718479868409
sS'BritishTV'
p125
F0.0085461177696700003
sS'torrents'
p126
F0.0078131103992499992
sS'fullmoviesonyoutube'
p127
F0.015117020307799999
sS'AskScienceFiction'
p128
F0.0088884399777800008
sS'Cooking'
p129
F0.00753331136118
sS'DecidingToBeBetter'
p130
F0.0072997544628
sS'TrueAskReddit'
p131
F0.011009050385
sS'FanTheories'
p132
F0.0128518734226
sS'tipofmytongue'
p133
F0.0125463517997
sS'arresteddevelopment'
p134
F0.00782137843439
sS'bestofworldstar'
p135
F0.0086340491476600001
sS'southpark'
p136
F0.0077705955164400001
sS'Pizza'
p137
F0.00757178199265
sS'HouseOfCards'
p138
F0.0083396512509500004
sS'eatsandwiches'
p139
F0.0072888739946400001
sS'HighQualityGifs'
p140
F0.00725264488655
sS'travel'
p141
F0.0073459453479400002
sS'TheWayWeWere'
p142
F0.0088723272114299995
sS'scifi'
p143
F0.011245949552099999
sS'Design'
p144
F0.0070736750462500001
sS'nonononoyes'
p145
F0.0077626019455600001
sS'Whatcouldgowrong'
p146
F0.0072994652406399999
sS'wallpapers'
p147
F0.0072736089222900004
sS'firefly'
p148
F0.00749335267102
sS'literature'
p149
F0.00862210543603
sS'AnimalsBeingJerks'
p150
F0.0075699965433799997
sS'comicbookmovies'
p151
F0.0098706939097799994
sS'comicbooks'
p152
F0.0076773356401399996
sS'TrueFilm'
p153
F0.031859846244799997
sS'futurebeats'
p154
F0.0073972602739699996
sS'HumanPorn'
p155
F0.010326508684999999
sS'thatHappened'
p156
F0.0074505144882299999
sS'listentothis'
p157
F0.00839579582095
sS'self'
p158
F0.0085208286923600003
s.