(dp1
S'fullmoviesonyoutube'
p2
F0.011764065138100001
sS'gallifrey'
p3
F0.0083339425396599994
sS'badhistory'
p4
F0.0086115142718900008
sS'NetflixBestOf'
p5
F0.0104392298436
sS'TheSimpsons'
p6
F0.0117867946177
sS'FanTheories'
p7
F0.0078396035143099996
sS'conspiratard'
p8
F0.0097694910925200003
sS'futurama'
p9
F0.010712648945900001
sS'DeepIntoYouTube'
p10
F0.0071689095711199996
sS'cade'
p11
F0.0086974110032400007
sS'superman'
p12
F0.0085321260665200006
sS'forwardsfromgrandma'
p13
F0.0083358685731700008
sS'skeptic'
p14
F0.0076696165191700002
sS'nostalgia'
p15
F0.0070013464127699999
sS'startrek'
p16
F0.0140197982286
sS'TheWayWeWere'
p17
F0.0086979441223000008
sS'scifi'
p18
F0.0091529073941099999
sS'alternativeart'
p19
F0.0071133873950799996
sS'trailerparkboys'
p20
F0.0081776786544000002
sS'SCP'
p21
F0.0071386079714500002
sS'ObscureMedia'
p22
F0.023347583031900002
sS'firefly'
p23
F0.0087207038853900007
sS'StandUpComedy'
p24
F0.0081644995464199999
sS'arresteddevelopment'
p25
F0.010407400818399999
sS'DaystromInstitute'
p26
F0.011961722488000001
sS'GODZILLA'
p27
F0.011858664085199999
sS'TMNT'
p28
F0.0073233247894500001
sS'ActionFigures'
p29
F0.0077569489334199998
sS'horror'
p30
F0.011079363228200001
sS'FloridaMan'
p31
F0.0092128437881000003
sS'delusionalartists'
p32
F0.0071994715984100002
sS'NotTimAndEric'
p33
F0.0102618542109
sS'madmen'
p34
F0.0071167712332599999
sS'EnoughLibertarianSpam'
p35
F0.0073060780351300002
sS'comicbookmovies'
p36
F0.0074234457160500004
sS'comicbooks'
p37
F0.0074449881420599997
sS'KingOfTheHill'
p38
F0.0100209392761
sS'ThriftStoreHauls'
p39
F0.0078655406524299996
sS'calvinandhobbes'
p40
F0.0083035526592399999
sS'netflix'
p41
F0.0080452398997299997
sS'TrueFilm'
p42
F0.0084679007483300008
sS'seinfeld'
p43
F0.0092417061611399995
sS'TimAndEric'
p44
F0.0090467188765900007
sS'dvdcollection'
p45
F0.0071684587813600001
sS'wheredidthesodago'
p46
F0.0087886576569100004
sS'ArcherFX'
p47
F0.0094209685416799995
sS'retrogaming'
p48
F0.0078277886497099998
s.