(dp1
S'traps'
p2
F0.012253024965500001
sS'GoneWildCD'
p3
F0.0082285714285699994
sS'actuallesbians'
p4
F0.0168206052414
sS'bisexual'
p5
F0.0085235083860300005
sS'crossdressing'
p6
F0.026768642447400001
sS'GirlGamers'
p7
F0.010179223942900001
sS'transtimelines'
p8
F0.13426042983600001
sS'transpassing'
p9
F0.12823786939099999
sS'lgbt'
p10
F0.021124055818699999
sS'Tgirls'
p11
F0.0072048771476099999
sS'LGBTeens'
p12
F0.011749347258499999
sS'ainbow'
p13
F0.0358097895594
sS'ftm'
p14
F0.034615384615400001
sS'asktransgender'
p15
F0.126571304725
s.