(dp1
S'custommagic'
p2
F0.049368541905900003
sS'MTGLegacy'
p3
F0.059706584783399998
sS'spikes'
p4
F0.043241993293999997
sS'EDH'
p5
F0.042747221430600002
sS'SolForge'
p6
F0.011155378486099999
sS'ModernMagic'
p7
F0.051050420168099998
sS'mtgfinance'
p8
F0.058415268941599999
sS'Magicdeckbuilding'
p9
F0.027102496714800001
sS'magicTCG'
p10
F0.0208213788015
sS'tabletopgamedesign'
p11
F0.0089232599643099993
s.