(dp1
S'ModernMagic'
p2
F0.16771064861599999
sS'custommagic'
p3
F0.036725146198799997
sS'spikes'
p4
F0.11137575138899999
sS'EDH'
p5
F0.054458998743899999
sS'SolForge'
p6
F0.0076010945576199997
sS'magicTCG'
p7
F0.034075345965899999
sS'mtgfinance'
p8
F0.122536725188
sS'Magicdeckbuilding'
p9
F0.038870824711799999
sS'mtgcube'
p10
F0.059706584783399998
s.