(dp1
S'Random_Acts_Of_Amazon'
p2
F0.0072343763618900004
sS'DumpsterDiving'
p3
F0.0083087149187600004
sS'eFreebies'
p4
F0.0071238999860300002
sS'Assistance'
p5
F0.0085568917668799992
sS'beermoney'
p6
F0.038456759443300001
sS'budgetfood'
p7
F0.0081908831908800005
sS'Random_Acts_Of_Pizza'
p8
F0.0073654995730099999
sS'freebies'
p9
F0.0102958425648
sS'Frugal'
p10
F0.0073617250029900001
sS'HITsWorthTurkingFor'
p11
F0.182193144645
sS'Flipping'
p12
F0.013222560262099999
sS'giftcardexchange'
p13
F0.0109136264422
s.