(dp1
S'Starcitizen_trades'
p2
F0.0137461459404
sS'OutreachHPG'
p3
F0.387028798876
sS'dwarffortress'
p4
F0.0071088133128700002
sS'Planetside'
p5
F0.0113699812192
sS'Gundam'
p6
F0.00713526643388
sS'sto'
p7
F0.0091927126859399997
sS'Eve'
p8
F0.0084994979199499998
sS'ftlgame'
p9
F0.0071573738623299998
sS'wargame'
p10
F0.0095272335071000004
sS'Warframe'
p11
F0.010193429536399999
sS'Shadowrun'
p12
F0.0087702202299700001
sS'Xcom'
p13
F0.0081433224755699998
sS'Warhammer'
p14
F0.0094180364282500009
sS'WorldofTanks'
p15
F0.0107948294829
sS'Warhammer40k'
p16
F0.00854070012653
sS'starcitizen'
p17
F0.025800084590400001
sS'Warthunder'
p18
F0.0150333728401
sS'spaceengineers'
p19
F0.0100368324125
s.