(dp1
S'awwwtf'
p2
F0.0083371460525599999
sS'RandomActsOfGaming'
p3
F0.0107484076433
sS'MapPorn'
p4
F0.0077126306634499996
sS'DoesAnybodyElse'
p5
F0.00794145773565
sS'pettyrevenge'
p6
F0.0109767199896
sS'AskScienceFiction'
p7
F0.011218784942199999
sS'skyrim'
p8
F0.015241125009
sS'QuotesPorn'
p9
F0.0089670468948000008
sS'rickandmorty'
p10
F0.012080141426
sS'dadjokes'
p11
F0.0107138891973
sS'Unexpected'
p12
F0.0145883235693
sS'perfectloops'
p13
F0.0107318789585
sS'fifthworldproblems'
p14
F0.010077951002200001
sS'wiiu'
p15
F0.0099659123189099995
sS'InternetIsBeautiful'
p16
F0.0097644014707899997
sS'MLPLounge'
p17
F0.17407909326099999
sS'TalesFromRetail'
p18
F0.015625641657400002
sS'patientgamers'
p19
F0.0094925541675500002
sS'secretsanta'
p20
F0.0086023245152800007
sS'furry'
p21
F0.030229558937300002
sS'smashbros'
p22
F0.0142594945645
sS'Yogscast'
p23
F0.0097503482267199994
sS'LearnUselessTalents'
p24
F0.0079901659495999998
sS'Showerthoughts'
p25
F0.0078914742458700005
sS'writing'
p26
F0.0085107445029600007
sS'HistoryPorn'
p27
F0.0072537913393000003
sS'shittybattlestations'
p28
F0.0072594319626999998
sS'Fantasy'
p29
F0.0073426785605899998
sS'Bioshock'
p30
F0.0087142014251399991
sS'woahdude'
p31
F0.0093406459870899999
sS'Fallout'
p32
F0.018475429071499998
sS'ImaginaryMonsters'
p33
F0.0102614345382
sS'dwarffortress'
p34
F0.0116329922155
sS'adventuretime'
p35
F0.024851682751500001
sS'MensRights'
p36
F0.0107350935912
sS'nononono'
p37
F0.0095053807244500008
sS'offmychest'
p38
F0.0073680582789600003
sS'Frisson'
p39
F0.0077532235996499999
sS'YouShouldKnow'
p40
F0.0088503235020400001
sS'childfree'
p41
F0.0093593257148800006
sS'skyrimmods'
p42
F0.0084179152569700006
sS'Tulpas'
p43
F0.0085688121402400005
sS'JusticePorn'
p44
F0.0084556576830500003
sS'softwaregore'
p45
F0.0123617436565
sS'fffffffuuuuuuuuuuuu'
p46
F0.017005054398999998
sS'geek'
p47
F0.0113055394508
sS'Jokes'
p48
F0.0073233077095300001
sS'NoStupidQuestions'
p49
F0.0096300674843600009
sS'MonsterHunter'
p50
F0.0083955223880599998
sS'firstworldproblems'
p51
F0.00759567630733
sS'Steam'
p52
F0.0129340678007
sS'halo'
p53
F0.00863408737696
sS'ACTrade'
p54
F0.0072647325909299997
sS'photoshopbattles'
p55
F0.012037395853499999
sS'AbandonedPorn'
p56
F0.0090396710866700002
sS'Sherlock'
p57
F0.0092778722746300005
sS'creepyPMs'
p58
F0.0100633811926
sS'masseffect'
p59
F0.0124804483837
sS'ConfusedBoners'
p60
F0.0083746898263
sS'techsupportgore'
p61
F0.0166561005129
sS'freebies'
p62
F0.0094389711521399994
sS'SCP'
p63
F0.0138489828755
sS'vexillology'
p64
F0.0093924141650199994
sS'Animesuggest'
p65
F0.0092195621656499995
sS'dbz'
p66
F0.0084030168880099999
sS'spaceengineers'
p67
F0.00777938230773
sS'techsupport'
p68
F0.0084140877357499998
sS'DeepIntoYouTube'
p69
F0.0112076422581
sS'ArcherFX'
p70
F0.00947473979045
sS'cringe'
p71
F0.0082059482604400005
sS'mylittleandysonic1'
p72
F0.023785785500599999
sS'talesfromtechsupport'
p73
F0.017202389005900001
sS'mildlyinteresting'
p74
F0.0088360981427999998
sS'pcgaming'
p75
F0.0103364250904
sS'whatisthisthing'
p76
F0.0093657448363399995
sS'MechanicalKeyboards'
p77
F0.0086108220603499999
sS'awwnime'
p78
F0.016292074416600001
sS'DoctorWhumour'
p79
F0.0083117508883900001
sS'TheSimpsons'
p80
F0.0071868241557100001
sS'linux'
p81
F0.0081622557506799993
sS'gaymers'
p82
F0.0080828075384599997
sS'Christianity'
p83
F0.0083940082548800005
sS'tumblr'
p84
F0.0154323001631
sS'interestingasfuck'
p85
F0.011045481394
sS'changemyview'
p86
F0.0094912036880099998
sS'roosterteeth'
p87
F0.013005170998
sS'fatpeoplestories'
p88
F0.0117835284557
sS'CrappyDesign'
p89
F0.013270690922000001
sS'popping'
p90
F0.00760876633934
sS'notinteresting'
p91
F0.011746391169
sS'firstworldanarchists'
p92
F0.0150096661381
sS'offbeat'
p93
F0.00777301824132
sS'Marvel'
p94
F0.0074923588758799998
sS'gameofthrones'
p95
F0.0076583615227400004
sS'cosplay'
p96
F0.017494572851499999
sS'truegaming'
p97
F0.0128675583024
sS'space'
p98
F0.0078237217688900008
sS'skeptic'
p99
F0.00846650799048
sS'shittyfoodporn'
p100
F0.0083710578892799998
sS'boardgames'
p101
F0.0075240128068299996
sS'ExpectationVsReality'
p102
F0.0077803810618500002
sS'nonononoyes'
p103
F0.0108489937358
sS'aww'
p104
F0.0074013617611199999
sS'outside'
p105
F0.017190519784400001
sS'mindcrack'
p106
F0.0082450300790900006
sS'gamedev'
p107
F0.0081523911016400004
sS'facepalm'
p108
F0.012013475736500001
sS'lifehacks'
p109
F0.0085437117895500007
sS'pcmasterrace'
p110
F0.011855253113400001
sS'tf2'
p111
F0.023679451793999998
sS'DarkSouls2'
p112
F0.0077373659388099997
sS'magicTCG'
p113
F0.011324678700800001
sS'disney'
p114
F0.012182782207499999
sS'montageparodies'
p115
F0.0129538053311
sS'starbound'
p116
F0.016101946063399999
sS'bestof'
p117
F0.0114764559053
sS'ProgrammerHumor'
p118
F0.0111236669256
sS'Cyberpunk'
p119
F0.0101536772777
sS'casualiama'
p120
F0.00967616074912
sS'FloridaMan'
p121
F0.0098757690951099993
sS'titanfall'
p122
F0.0075306479859900003
sS'delusionalartists'
p123
F0.0096637031310399992
sS'AnimalsBeingJerks'
p124
F0.0092857738608199993
sS'tf2trade'
p125
F0.00701090015864
sS'lgbt'
p126
F0.0132142597836
sS'promos'
p127
F0.0126570787566
sS'JonTron'
p128
F0.0154111378121
sS'AnimalCrossing'
p129
F0.017675289710899999
sS'corgi'
p130
F0.0081556732007399997
sS'shittyaskscience'
p131
F0.011556456307500001
sS'doctorwho'
p132
F0.019546227123600001
sS'lewronggeneration'
p133
F0.011982295289299999
sS'worldbuilding'
p134
F0.011881770089800001
sS'WritingPrompts'
p135
F0.0094622458918900004
sS'calvinandhobbes'
p136
F0.0074832611264299999
sS'Cynicalbrit'
p137
F0.0136570130608
sS'OnePiece'
p138
F0.00718046912398
sS'TheBluePill'
p139
F0.00736837196288
sS'programming'
p140
F0.0082411476054499999
sS'Xcom'
p141
F0.0073213834890199997
sS'creepy'
p142
F0.0084275637162799996
sS'RWBY'
p143
F0.015619932980200001
sS'badhistory'
p144
F0.00742738196613
sS'Planetside'
p145
F0.0089050131926100007
sS'4chan'
p146
F0.014297314242800001
sS'dogecoin'
p147
F0.0094174551695700003
sS'anime'
p148
F0.017682768873799999
sS'AnimalsBeingBros'
p149
F0.0075184880854599996
sS'quityourbullshit'
p150
F0.0118421439276
sS'classic4chan'
p151
F0.0098601913171400008
sS'GameDeals'
p152
F0.0095723402228799995
sS'battlestations'
p153
F0.0075830258302599998
sS'evangelion'
p154
F0.0073038877386700004
sS'HalfLife'
p155
F0.0082136670950399993
sS'yiff'
p156
F0.015996122152200001
sS'TrueReddit'
p157
F0.0076196884833900002
sS'StarWars'
p158
F0.010042383603200001
sS'todayilearned'
p159
F0.0073055999595600003
sS'nintendo'
p160
F0.013716616381700001
sS'reactiongifs'
p161
F0.0116161749094
sS'gamemusic'
p162
F0.0078178648777099992
sS'nostalgia'
p163
F0.0108870637671
sS'IdiotsFightingThings'
p164
F0.0092540885520500001
sS'FinalFantasy'
p165
F0.0074578095567600002
sS'startrek'
p166
F0.010739894166599999
sS'rpg'
p167
F0.0151992936428
sS'TrollXChromosomes'
p168
F0.011361453793300001
sS'Warthunder'
p169
F0.0075179533213600002
sS'TrueAtheism'
p170
F0.0081788440567100006
sS'harrypotter'
p171
F0.0130040228272
sS'pokemon'
p172
F0.0193278744456
sS'ainbow'
p173
F0.013010340307799999
sS'homestuck'
p174
F0.017774299927300001
sS'TheLastAirbender'
p175
F0.026208503203299999
sS'Damnthatsinteresting'
p176
F0.0087918939984399994
sS'DnD'
p177
F0.014991070754800001
sS'FiftyFifty'
p178
F0.011374182548099999
sS'CrazyIdeas'
p179
F0.0112688531851
sS'lego'
p180
F0.0121556156567
sS'Bad_Cop_No_Donut'
p181
F0.0070057581573900003
sS'OutOfTheLoop'
p182
F0.014912380303500001
sS'Enhancement'
p183
F0.0082529530097499998
sS'futurama'
p184
F0.011960109308999999
sS'gif'
p185
F0.0072492317390299996
sS'SubredditDrama'
p186
F0.015129526764400001
sS'wheredidthesodago'
p187
F0.019400608078800001
sS'PenmanshipPorn'
p188
F0.00749245163455
sS'alternativeart'
p189
F0.0095045273044300008
sS'MLPCCG'
p190
F0.015289870460799999
sS'whowouldwin'
p191
F0.015614804814899999
sS'Pareidolia'
p192
F0.010210513046800001
sS'asktransgender'
p193
F0.0082540255288399995
sS'holdmybeer'
p194
F0.0077858297897800003
sS'fatlogic'
p195
F0.0100326907902
sS'TrollYChromosome'
p196
F0.00900831536803
sS'explainlikeIAmA'
p197
F0.012327671387600001
sS'misleadingthumbnails'
p198
F0.0111964587944
sS'GODZILLA'
p199
F0.0076491853093700003
sS'3DS'
p200
F0.011645946672700001
sS'batman'
p201
F0.0084707603984900005
sS'gamegrumps'
p202
F0.026284839036099999
sS'Eve'
p203
F0.0083190349919400001
sS'mildlyinfuriating'
p204
F0.013747336708
sS'ftlgame'
p205
F0.011971378772599999
sS'somethingimade'
p206
F0.0070060051472700001
sS'raisedbynarcissists'
p207
F0.00856250348636
sS'youtubehaiku'
p208
F0.0108273806176
sS'rule34'
p209
F0.0149423976275
sS'Awwducational'
p210
F0.0118844049248
sS'Shitty_Car_Mods'
p211
F0.0072515738305799996
sS'IndieGaming'
p212
F0.0072084137550699999
sS'polandball'
p213
F0.0155143507745
sS'blunderyears'
p214
F0.0084734629532299995
sS'KillLaKill'
p215
F0.0199455146916
sS'webcomics'
p216
F0.0087410723803399999
sS'darksouls'
p217
F0.010580179467500001
sS'rage'
p218
F0.013196912865
sS'comics'
p219
F0.015808337244499999
sS'science'
p220
F0.0086214873154199997
sS'Borderlands'
p221
F0.0101601093088
sS'Justrolledintotheshop'
p222
F0.0080762108738799999
sS'Perfectfit'
p223
F0.00740595419099
sS'PerfectTiming'
p224
F0.0081347272177199996
sS'behindthegifs'
p225
F0.016988498469999998
sS'standupshots'
p226
F0.0095563139931699997
sS'starcitizen'
p227
F0.0075661260814300002
sS'civ'
p228
F0.0096771502461000004
sS'cats'
p229
F0.0096461960291999993
sS'KerbalSpaceProgram'
p230
F0.0147232572935
sS'feedthebeast'
p231
F0.0093685733871600001
sS'ICanDrawThat'
p232
F0.00777687100955
sS'fullmoviesonyoutube'
p233
F0.0081824095313099993
sS'gallifrey'
p234
F0.0114829396325
sS'ShingekiNoKyojin'
p235
F0.0125436155647
sS'gamernews'
p236
F0.0092414742869600004
sS'GifSound'
p237
F0.0147700718663
sS'Portal'
p238
F0.0097070243558099994
sS'spaceporn'
p239
F0.00721797508634
sS'TwoBestFriendsPlay'
p240
F0.012319991239100001
sS'teenagers'
p241
F0.0079740690578700008
sS'FanTheories'
p242
F0.012272741115200001
sS'tipofmytongue'
p243
F0.0099746835443000007
sS'Pathfinder_RPG'
p244
F0.0082395317424599993
sS'politics'
p245
F0.0076850122144000001
sS'hentai'
p246
F0.010613148232
sS'ploungeafterdark'
p247
F0.025000000000000001
sS'southpark'
p248
F0.010195035461
sS'shutupandtakemymoney'
p249
F0.0085207100591699995
sS'MorbidReality'
p250
F0.0088238825082999992
sS'asmr'
p251
F0.0081268654032900008
sS'techsupportmacgyver'
p252
F0.0107154870021
sS'MURICA'
p253
F0.0111943179186
sS'HighQualityGifs'
p254
F0.0088247273385499998
sS'Warframe'
p255
F0.0091927500092999995
sS'technology'
p256
F0.0088679869807499999
sS'self'
p257
F0.0080416492353499996
sS'circlebroke'
p258
F0.0070868728586799996
sS'zelda'
p259
F0.015274166863599999
sS'guns'
p260
F0.0075626959247599998
sS'GirlGamers'
p261
F0.0119359409214
sS'scifi'
p262
F0.0087195011513900005
sS'britishproblems'
p263
F0.0073289902280100003
sS'RedditLaqueristas'
p264
F0.0071124256188199999
sS'nottheonion'
p265
F0.00994318181818
sS'watchpeopledie'
p266
F0.0070767383818299999
sS'conspiratard'
p267
F0.0110635395749
sS'animegifs'
p268
F0.0072685539403200003
sS'katawashoujo'
p269
F0.0121568171242
sS'Whatcouldgowrong'
p270
F0.0101631512529
sS'wallpapers'
p271
F0.0088672411639799994
sS'firefly'
p272
F0.011676786548300001
sS'gaming'
p273
F0.0102730583172
sS'paydaytheheist'
p274
F0.010849220103999999
sS'wow'
p275
F0.0077267146867700002
sS'buildapc'
p276
F0.0071137094588200004
sS'GiftofGames'
p277
F0.00750999707403
sS'forwardsfromgrandma'
p278
F0.0114252017838
sS'ClopClop'
p279
F0.042333333333299999
sS'askscience'
p280
F0.0078662623504799998
sS'Futurology'
p281
F0.0083215915796600003
sS'KingdomHearts'
p282
F0.0079550772110399993
sS'nerdcubed'
p283
F0.0093533956892999995
sS'Games'
p284
F0.014186668255399999
sS'Terraria'
p285
F0.0125283875852
sS'Gaming4Gamers'
p286
F0.010778164924500001
sS'comicbooks'
p287
F0.0094056706652099996
sS'GamePhysics'
p288
F0.015733909428100001
sS'bindingofisaac'
p289
F0.0107066950053
sS'Minecraft'
p290
F0.019255315990999999
sS'thesims'
p291
F0.0081446166070700005
sS'oddlysatisfying'
p292
F0.0129763162802
sS'oculus'
p293
F0.0101695796921
sS'cosplaygirls'
p294
F0.0099764270079100003
sS'WTF'
p295
F0.0074235367448499999
sS'dataisbeautiful'
p296
F0.0076535206194799999
sS'youtube'
p297
F0.0081171695782599994
sS'atheism'
p298
F0.00995341624695
sS'terriblefacebookmemes'
p299
F0.00800729779039
sS'TumblrInAction'
p300
F0.020031919637599999
sS'thatHappened'
p301
F0.012195553667499999
sS'cringepics'
p302
F0.0099095900485699998
sS'ImGoingToHellForThis'
p303
F0.0108495931403
sS'speedrun'
p304
F0.0071740486587600003
sS'manga'
p305
F0.0087830294008199999
sS'sailormoon'
p306
F0.0086741016109000008
s.