(dp1
S'breastfeeding'
p2
F0.06056802134
sS'TryingForABaby'
p3
F0.085659081150700006
sS'daddit'
p4
F0.0097584776774800007
sS'weddingplanning'
p5
F0.0139966408062
sS'ABraThatFits'
p6
F0.010640608034699999
sS'Baking'
p7
F0.0085161290322599992
sS'TheGirlSurvivalGuide'
p8
F0.014107214832700001
sS'entwives'
p9
F0.0074899174188600001
sS'knitting'
p10
F0.0077488575402300001
sS'femalefashionadvice'
p11
F0.011044790149
sS'BeautyBoxes'
p12
F0.0079512772796500007
sS'RandomActsofMakeup'
p13
F0.0085572937558499994
sS'breakingmom'
p14
F0.051806632568900002
sS'BabyBumps'
p15
F0.095307024226699996
sS'clothdiaps'
p16
F0.058145766345099999
sS'SkincareAddiction'
p17
F0.0074812221324499998
sS'Dogtraining'
p18
F0.0075676827968500001
sS'Parenting'
p19
F0.022283629149399999
sS'Indiemakeupandmore'
p20
F0.0081208380704899993
sS'RedditLaqueristas'
p21
F0.0101982023508
sS'raisedbynarcissists'
p22
F0.0077921034662799997
sS'xxfitness'
p23
F0.00872968091511
sS'InfertilityBabies'
p24
F0.0154586052903
sS'bigboobproblems'
p25
F0.0112511251125
sS'RandomActsOfPolish'
p26
F0.0081261950286800003
sS'quilting'
p27
F0.0079562406762800006
sS'MakeupAddiction'
p28
F0.00733699688103
sS'birthcontrol'
p29
F0.0071111111111100004
sS'sewing'
p30
F0.0092255125284700003
sS'Mommit'
p31
F0.050788335426299999
sS'xxketo'
p32
F0.0083429895712599997
sS'curlyhair'
p33
F0.0098158022297599994
sS'crochet'
p34
F0.010868519765300001
sS'wedding'
p35
F0.014743263853599999
sS'beyondthebump'
p36
F0.074064415177999998
sS'infertility'
p37
F0.0196659482759
sS'predaddit'
p38
F0.033654832751900003
sS'Hair'
p39
F0.0083178150217300007
sS'FancyFollicles'
p40
F0.011564762671
sS'crafts'
p41
F0.0095369412846100007
sS'MakeupAddicts'
p42
F0.0095615353093800003
s.