(dp1
S'amiugly'
p2
F0.011839563685900001
sS'SuicideWatch'
p3
F0.013485477178400001
sS'MakeNewFriendsHere'
p4
F0.080227416298200002
sS'confession'
p5
F0.0085157036901400002
sS'teenagers'
p6
F0.0073024930371600001
sS'snapchat'
p7
F0.0121383311703
sS'rant'
p8
F0.0076815642458100001
sS'needadvice'
p9
F0.0092889527811599992
sS'AmISexy'
p10
F0.0080411356052700004
sS'LongDistance'
p11
F0.0081532043989399998
sS'depression'
p12
F0.014518984851499999
sS'ForeverAlone'
p13
F0.017235355770400002
sS'Advice'
p14
F0.0093349375596400008
sS'MMFB'
p15
F0.0134061093555
sS'socialskills'
p16
F0.0129917325338
sS'firstimpression'
p17
F0.0104445459886
sS'dirtykikpals'
p18
F0.0072231139646900004
sS'confessions'
p19
F0.0072138505931399997
sS'happy'
p20
F0.0081247542917000006
sS'offmychest'
p21
F0.0110398212848
sS'Anxiety'
p22
F0.0098793424568800001
sS'introvert'
p23
F0.012709457540499999
sS'RandomKindness'
p24
F0.0079783543776900008
sS'casualiama'
p25
F0.0081669691470099993
sS'LetsNotMeet'
p26
F0.0073991485911199997
sS'socialanxiety'
p27
F0.0161983471074
sS'Kikpals'
p28
F0.0281663634653
sS'dirtypenpals'
p29
F0.0073427016077999997
sS'Rateme'
p30
F0.0091337346244400007
sS'NoStupidQuestions'
p31
F0.0070347599905399997
sS'r4r'
p32
F0.0286247666459
sS'Random_Acts_Of_Amazon'
p33
F0.0082735440501600001
sS'creepyPMs'
p34
F0.0086986559477499996
sS'penpals'
p35
F0.037955879076000003
sS'dating_advice'
p36
F0.00717262770185
sS'findareddit'
p37
F0.0091569101968700002
sS'howtonotgiveafuck'
p38
F0.0072205889937599996
sS'self'
p39
F0.0092761809824399993
s.