(dp1
S'TagPro'
p2
F0.0082394484614100004
sS'RandomActsOfGaming'
p3
F0.015856472865300002
sS'help'
p4
F0.021366698748800001
sS'pettyrevenge'
p5
F0.0070728337390600004
sS'fffffffuuuuuuuuuuuu'
p6
F0.0090275455878200007
sS'dogemarket'
p7
F0.0076720736519099997
sS'dadjokes'
p8
F0.0091381472854300001
sS'futurama'
p9
F0.0085121210612799994
sS'perfectloops'
p10
F0.0114705680335
sS'InternetIsBeautiful'
p11
F0.0095759024330499994
sS'TalesFromRetail'
p12
F0.0081712538226300004
sS'TheoryOfReddit'
p13
F0.024706609017899998
sS'WouldYouRather'
p14
F0.0096819840619600007
sS'quityourbullshit'
p15
F0.0150040708719
sS'LearnUselessTalents'
p16
F0.0083534226607599998
sS'AndroidQuestions'
p17
F0.0070781567094000001
sS'picrequests'
p18
F0.0099686933596999996
sS'shittybattlestations'
p19
F0.0084388185654000001
sS'whowouldwin'
p20
F0.0094969620668899999
sS'GrandTheftAutoV'
p21
F0.0082781844117600003
sS'Fallout'
p22
F0.0074577861163199997
sS'FreeKarma'
p23
F0.023026315789499999
sS'AlienBlue'
p24
F0.0096778000708100005
sS'patientgamers'
p25
F0.0077738165973500004
sS'gmod'
p26
F0.010635571501800001
sS'NoStupidQuestions'
p27
F0.010400592556
sS'magicskyfairy'
p28
F0.0080506796885300002
sS'Steam'
p29
F0.00902665075043
sS'Braveryjerk'
p30
F0.015940251922899999
sS'photoshopbattles'
p31
F0.0097196712740099996
sS'creepyPMs'
p32
F0.0086814086814099994
sS'prisonarchitect'
p33
F0.0074604595643099998
sS'techsupportgore'
p34
F0.0090352449223400008
sS'freebies'
p35
F0.0096423017107299999
sS'nononono'
p36
F0.00740914419695
sS'vexillology'
p37
F0.010886580333000001
sS'thatHappened'
p38
F0.011660843136800001
sS'SteamGameSwap'
p39
F0.0085521646557800007
sS'Monstercat'
p40
F0.0071754729288999999
sS'montageparodies'
p41
F0.0117555328975
sS'techsupport'
p42
F0.0078831946609900002
sS'DeepIntoYouTube'
p43
F0.00997344029487
sS'fifthworldproblems'
p44
F0.0070279079242199999
sS'google'
p45
F0.0070896687028999998
sS'pcgaming'
p46
F0.0072580456953500001
sS'badhistory'
p47
F0.0071047957371200001
sS'ShouldIbuythisgame'
p48
F0.0076196281621499998
sS'SubredditDrama'
p49
F0.0155022297728
sS'tumblr'
p50
F0.0092678405931400001
sS'interestingasfuck'
p51
F0.0081875261615699992
sS'MarkMyWords'
p52
F0.0119754453054
sS'changemyview'
p53
F0.0071846413568399997
sS'KarmaCourt'
p54
F0.022019928650499999
sS'notinteresting'
p55
F0.010958702607299999
sS'firstworldanarchists'
p56
F0.011302702134399999
sS'forwardsfromgrandma'
p57
F0.0117578825266
sS'no_sob_story'
p58
F0.0100105374078
sS'Glitch_in_the_Matrix'
p59
F0.0076744601106600004
sS'tipofmytongue'
p60
F0.0080464467398499995
sS'ExpectationVsReality'
p61
F0.0077610699189199998
sS'breakingbad'
p62
F0.0077959715983199999
sS'RandomKindness'
p63
F0.0107213968448
sS'outside'
p64
F0.012336483403900001
sS'facepalm'
p65
F0.00916257912033
sS'lifehacks'
p66
F0.0076880834706199996
sS'pcmasterrace'
p67
F0.0074415561239700003
sS'SCP'
p68
F0.0078359811077700001
sS'CatsStandingUp'
p69
F0.0087320018578700004
sS'Enhancement'
p70
F0.0159229938827
sS'bestof'
p71
F0.0075208518908400001
sS'LucidDreaming'
p72
F0.0078691473216800003
sS'casualiama'
p73
F0.014031620553399999
sS'FloridaMan'
p74
F0.0085799838765399997
sS'delusionalartists'
p75
F0.0089225208945100005
sS'Random_Acts_Of_Pizza'
p76
F0.0077140013271399998
sS'promos'
p77
F0.0120871316976
sS'CrazyIdeas'
p78
F0.010801329394400001
sS'tf2trade'
p79
F0.0092764378478700001
sS'shittyaskscience'
p80
F0.010876670065600001
sS'GamePhysics'
p81
F0.0091437568124000008
sS'lewronggeneration'
p82
F0.012445126369199999
sS'forhire'
p83
F0.0082188089463799997
sS'youtubehaiku'
p84
F0.0070558283324199996
sS'4chan'
p85
F0.0093875227432599993
sS'dogecoin'
p86
F0.0086506886242200005
sS'wheredidthesodago'
p87
F0.010687767194200001
sS'classic4chan'
p88
F0.0094131128755000001
sS'battlestations'
p89
F0.0072791273738600001
sS'androidcirclejerk'
p90
F0.0074303405572799996
sS'HalfLife'
p91
F0.0079275198187999992
sS'onetruegod'
p92
F0.00812729917016
sS'Assistance'
p93
F0.0084275043095200005
sS'misc'
p94
F0.00852242462981
sS'AntiJokes'
p95
F0.0088568298027800006
sS'findareddit'
p96
F0.019746835442999999
sS'PropagandaPosters'
p97
F0.0074815215431799998
sS'rant'
p98
F0.0094012483624900008
sS'conspiratard'
p99
F0.0105823006909
sS'ContagiousLaughter'
p100
F0.00703116211047
sS'tf2'
p101
F0.0083279806861699997
sS'Damnthatsinteresting'
p102
F0.0082827860280300005
sS'FiftyFifty'
p103
F0.011210644874
sS'csshelp'
p104
F0.054708400214000003
sS'OutOfTheLoop'
p105
F0.015782050995100001
sS'RandomActsOfPizza'
p106
F0.0076594919526899998
sS'MorbidReality'
p107
F0.0074787345885500003
sS'Portal'
p108
F0.0086040982678600008
sS'shittyreactiongifs'
p109
F0.0071727435744199999
sS'misleadingthumbnails'
p110
F0.0100013424621
sS'shittyadvice'
p111
F0.0078485314345799993
sS'MeanJokes'
p112
F0.0088289511982100003
sS'Rainmeter'
p113
F0.0080286738351299999
sS'holdmybeer'
p114
F0.0075766591296799997
sS'GTA'
p115
F0.0088517334644699994
sS'explainlikeIAmA'
p116
F0.012290076335899999
sS'WebGames'
p117
F0.0095652173913000002
sS'mildlyinfuriating'
p118
F0.0084230016238899998
sS'oddlysatisfying'
p119
F0.0096837699306499998
sS'Unexpected'
p120
F0.0097954667491100007
sS'Awwducational'
p121
F0.0087684858002900004
sS'skyrim'
p122
F0.0077096989313800001
sS'shittyaskreddit'
p123
F0.0101691397738
sS'blunderyears'
p124
F0.0081271608818599995
sS'buildapcforme'
p125
F0.0077065351418000002
sS'Random_Acts_Of_Amazon'
p126
F0.0105531553226
sS'rage'
p127
F0.0106807210653
sS'comics'
p128
F0.0074481699513700003
sS'Perfectfit'
p129
F0.0072142974258099998
sS'PerfectTiming'
p130
F0.0072752548656200003
sS'behindthegifs'
p131
F0.0119018465005
sS'softwaregore'
p132
F0.0099527665317100007
sS'hacking'
p133
F0.0082900098355999999
sS'KerbalSpaceProgram'
p134
F0.0073323925735299996
sS'ICanDrawThat'
p135
F0.0107108854332
sS'fullmoviesonyoutube'
p136
F0.0077504636013500001
sS'teenagers'
p137
F0.011813771681800001
sS'FanTheories'
p138
F0.00924990911661
sS'conspiracy'
p139
F0.0070456710462500002
sS'learnprogramming'
p140
F0.0075671398189799998
sS'polandball'
p141
F0.0097448230627499993
sS'counting'
p142
F0.015980986723499999
sS'ShitRedditSays'
p143
F0.0070927453550199996
sS'southpark'
p144
F0.0079679851359600005
sS'SRSsucks'
p145
F0.0100747481313
sS'techsupportmacgyver'
p146
F0.0073303381413999998
sS'MURICA'
p147
F0.0094453973699299993
sS'HighQualityGifs'
p148
F0.011456156783599999
sS'terriblefacebookmemes'
p149
F0.0108591781774
sS'self'
p150
F0.0089639717290099993
sS'shittyama'
p151
F0.015923052053
sS'circlebroke'
p152
F0.012654344658299999
sS'nonononoyes'
p153
F0.0074707959793500001
sS'Frugal_Jerk'
p154
F0.0080838977496199994
sS'Whatcouldgowrong'
p155
F0.0074929065315
sS'wallpapers'
p156
F0.0073665402338499997
sS'talesfromtechsupport'
p157
F0.0094867594867599995
sS'GiftofGames'
p158
F0.017552493438299999
sS'AnimalsBeingJerks'
p159
F0.0074348107176199999
sS'SuicideWatch'
p160
F0.0074104999478099998
sS'CrappyDesign'
p161
F0.0098948167425699993
sS'nerdcubed'
p162
F0.0078912021490900007
sS'Gaming4Gamers'
p163
F0.0085144521622200001
sS'Minecraft'
p164
F0.0091914114088500008
sS'gtaglitches'
p165
F0.00752802552983
sS'beermoney'
p166
F0.0074154739680599999
sS'youtube'
p167
F0.0099626400996300005
sS'eFreebies'
p168
F0.0089485458613000005
sS'TumblrInAction'
p169
F0.0084607791608399992
sS'secretsanta'
p170
F0.0090002769316
sS'minecraftsuggestions'
p171
F0.0076162129037900001
sS'HailCorporate'
p172
F0.0116172931707
sS'ImGoingToHellForThis'
p173
F0.0088076351360700002
s.