(dp1
S'FancyFollicles'
p2
F0.0094207798061800001
sS'femalefashionadvice'
p3
F0.0082224294312099998
sS'RATS'
p4
F0.0071496663488999999
sS'MakeupAddiction'
p5
F0.0087201772814900005
sS'AdoptMyVillager'
p6
F0.010787298825600001
sS'SkincareAddiction'
p7
F0.0074275463871300001
sS'TheGirlSurvivalGuide'
p8
F0.0092391304347800001
sS'ACTrade'
p9
F0.0118645464283
sS'AnimalCrossing'
p10
F0.0157461809636
sS'disney'
p11
F0.0095261814332899993
sS'TrollXChromosomes'
p12
F0.0073618803187899999
sS'GirlGamers'
p13
F0.0078444747612600001
sS'secretsanta'
p14
F0.0071466291145899996
sS'LadyBoners'
p15
F0.0075824440343400003
sS'crochet'
p16
F0.0070095298101899997
sS'RedditLaqueristas'
p17
F0.011798958014100001
sS'harrypotter'
p18
F0.0083253001489799992
sS'BeautyBoxes'
p19
F0.0075868820362199997
sS'thesims'
p20
F0.014066417956100001
sS'freebies'
p21
F0.0072489601901399997
s.