(dp1
S'Terraria'
p2
F0.010606878592500001
sS'dadjokes'
p3
F0.0079203109815400002
sS'perfectloops'
p4
F0.0091736518329300007
sS'InternetIsBeautiful'
p5
F0.0101887273655
sS'RandomActsOfGaming'
p6
F0.021785067418000001
sS'GlobalOffensive'
p7
F0.0085779525781600006
sS'quityourbullshit'
p8
F0.010047810191
sS'Showerthoughts'
p9
F0.0075545468100300002
sS'whowouldwin'
p10
F0.0097128378378400007
sS'GrandTheftAutoV'
p11
F0.016167071743599999
sS'Fallout'
p12
F0.014107853912499999
sS'dwarffortress'
p13
F0.0091598683268899993
sS'skyrimmods'
p14
F0.0092853311879899994
sS'CrusaderKings'
p15
F0.0089601428129999997
sS'NoStupidQuestions'
p16
F0.0072595281306700003
sS'cringepics'
p17
F0.00727444323238
sS'Steam'
p18
F0.021713547315200001
sS'photoshopbattles'
p19
F0.0118487740286
sS'Sherlock'
p20
F0.0077895213161400002
sS'prisonarchitect'
p21
F0.013569576490899999
sS'techsupportgore'
p22
F0.0122924088104
sS'woahdude'
p23
F0.0073650517418199996
sS'CrappyDesign'
p24
F0.011802596571200001
sS'4chan'
p25
F0.0096140746939600008
sS'SteamGameSwap'
p26
F0.0116560849125
sS'Monstercat'
p27
F0.0080614844826899998
sS'montageparodies'
p28
F0.017072221982100001
sS'techsupport'
p29
F0.0095084254194399993
sS'DeepIntoYouTube'
p30
F0.0084884821710299995
sS'starcitizen'
p31
F0.0092420945165399993
sS'cringe'
p32
F0.0085054070801799993
sS'mildlyinteresting'
p33
F0.0071932733547699999
sS'pcgaming'
p34
F0.016154565733599999
sS'unitedkingdom'
p35
F0.010350659141399999
sS'MechanicalKeyboards'
p36
F0.0092539306185399992
sS'ShouldIbuythisgame'
p37
F0.010882487425699999
sS'InsideGaming'
p38
F0.010627356873500001
sS'tumblr'
p39
F0.0071512048528000003
sS'interestingasfuck'
p40
F0.0088206647735799993
sS'TalesFromRetail'
p41
F0.0088985088985100002
sS'roosterteeth'
p42
F0.020031777317399999
sS'sips'
p43
F0.019619567248399999
sS'notinteresting'
p44
F0.0104468374799
sS'firstworldanarchists'
p45
F0.0116397156472
sS'forwardsfromgrandma'
p46
F0.00746731114829
sS'mountandblade'
p47
F0.0086213842559000001
sS'space'
p48
F0.0072609694528700001
sS'Warthunder'
p49
F0.010544593527999999
sS'outside'
p50
F0.0135244480407
sS'mindcrack'
p51
F0.017280059825900002
sS'gamedev'
p52
F0.0079626062855299995
sS'pcmasterrace'
p53
F0.0198627804543
sS'tf2'
p54
F0.018095320474000001
sS'letsplay'
p55
F0.0101538461538
sS'vexillology'
p56
F0.0097924154624799992
sS'spaceengineers'
p57
F0.0134719744981
sS'SubredditDrama'
p58
F0.0100193032448
sS'starbound'
p59
F0.0126261202863
sS'bestof'
p60
F0.0075345706455300001
sS'needamod'
p61
F0.0078912021490900007
sS'casualiama'
p62
F0.0077713097112500004
sS'facepalm'
p63
F0.0083692045257700003
sS'Cynicalbrit'
p64
F0.040871030327799998
sS'promos'
p65
F0.010130580018200001
sS'JonTron'
p66
F0.0116399058901
sS'eu4'
p67
F0.0083391486392199992
sS'shittyaskscience'
p68
F0.0100050510938
sS'doctorwho'
p69
F0.013577817531299999
sS'lewronggeneration'
p70
F0.0095837076969199995
sS'worldbuilding'
p71
F0.0081904893558200006
sS'TopGear'
p72
F0.0101252835079
sS'dayz'
p73
F0.0088734817421000003
sS'Planetside'
p74
F0.0083125989595100001
sS'dogecoin'
p75
F0.0077973531147299997
sS'wheredidthesodago'
p76
F0.0110450084093
sS'youtubehaiku'
p77
F0.0086069101192700007
sS'GameDeals'
p78
F0.011742692126400001
sS'battlestations'
p79
F0.0094376321353100007
sS'paradoxplaza'
p80
F0.0094925785295099999
sS'HalfLife'
p81
F0.00806768130478
sS'buildapc'
p82
F0.0103129319205
sS'Yogscast'
p83
F0.037235200796300001
sS'patientgamers'
p84
F0.0090179159925699998
sS'gtaonline'
p85
F0.0073701240337899999
sS'pokemon'
p86
F0.0082552323605099998
sS'GamePhysics'
p87
F0.0175754080005
sS'TheLastAirbender'
p88
F0.0071277076596800003
sS'FiftyFifty'
p89
F0.0082317309932400003
sS'CrazyIdeas'
p90
F0.0082541762201099999
sS'lego'
p91
F0.0072853649118300003
sS'OutOfTheLoop'
p92
F0.0111097714315
sS'misleadingthumbnails'
p93
F0.00777864601833
sS'Rainmeter'
p94
F0.0082833265839600007
sS'battlefield_4'
p95
F0.0082745233512599992
sS'arma'
p96
F0.0086320409656199994
sS'GTA'
p97
F0.0092122357387499996
sS'tipofmytongue'
p98
F0.0077906037717900001
sS'Unexpected'
p99
F0.010847993992700001
sS'gamegrumps'
p100
F0.018361784535900001
sS'mildlyinfuriating'
p101
F0.011795743385499999
sS'ftlgame'
p102
F0.0176261016314
sS'oddlysatisfying'
p103
F0.0109214918844
sS'WritingPrompts'
p104
F0.0074067919332400003
sS'MapPorn'
p105
F0.00757793910368
sS'skyrim'
p106
F0.0129987216578
sS'IndieGaming'
p107
F0.0096876235666299992
sS'ProgrammerHumor'
p108
F0.0072318680333499996
sS'Battlefield'
p109
F0.0073794345898000003
sS'darksouls'
p110
F0.0070786763094500002
sS'rage'
p111
F0.0099272830968800008
sS'thatHappened'
p112
F0.0102063996885
sS'behindthegifs'
p113
F0.0095351255012600007
sS'softwaregore'
p114
F0.011433597185600001
sS'civ'
p115
F0.013953135663899999
sS'KerbalSpaceProgram'
p116
F0.025676985583800001
sS'gallifrey'
p117
F0.0076242756938099997
sS'formula1'
p118
F0.0073490450848899998
sS'teenagers'
p119
F0.0099709652290900005
sS'TwoBestFriendsPlay'
p120
F0.0075265138556300003
sS'polandball'
p121
F0.0149841043996
sS'counting'
p122
F0.0077176212489200001
sS'techsupportmacgyver'
p123
F0.00733137829912
sS'assassinscreed'
p124
F0.0097024029050500008
sS'britishproblems'
p125
F0.0131133770446
sS'nonononoyes'
p126
F0.0079711164251899998
sS'anime'
p127
F0.0070811963106000003
sS'talesfromtechsupport'
p128
F0.0134544113256
sS'gaming'
p129
F0.0098338108882499997
sS'paydaytheheist'
p130
F0.013769618004100001
sS'GiftofGames'
p131
F0.013469870027600001
sS'GTAV'
p132
F0.0088750371029999997
sS'Games'
p133
F0.015134529148
sS'mylittlepony'
p134
F0.0093533956892999995
sS'Gaming4Gamers'
p135
F0.0087607158971299993
sS'bindingofisaac'
p136
F0.016935160506599999
sS'Minecraft'
p137
F0.020990185057499999
sS'thesims'
p138
F0.0087466454626799993
sS'truegaming'
p139
F0.010616121892000001
sS'oculus'
p140
F0.0089380083635899991
sS'feedthebeast'
p141
F0.0109172402753
sS'youtube'
p142
F0.015602836879399999
sS'TumblrInAction'
p143
F0.0118015838099
sS'minecraftsuggestions'
p144
F0.0085275724843699996
sS'ImGoingToHellForThis'
p145
F0.0074554256977699997
sS'GifSound'
p146
F0.010287029710099999
s.