(dp1
S'climateskeptics'
p2
F0.0092735703245699994
sS'NoStupidQuestions'
p3
F0.0095540359257899991
sS'circlebroke'
p4
F0.0196361016033
sS'CityPorn'
p5
F0.0093312597200599992
sS'PanicHistory'
p6
F0.026602870813400001
sS'zen'
p7
F0.00738362760835
sS'inthenews'
p8
F0.020624430264400001
sS'Conservative'
p9
F0.0220830169577
sS'PurplePillDebate'
p10
F0.0074687449261200004
sS'quotes'
p11
F0.0102080497764
sS'BuyItForLife'
p12
F0.0114062311072
sS'everymanshouldknow'
p13
F0.011368752814
sS'dataisbeautiful'
p14
F0.0134333902965
sS'askphilosophy'
p15
F0.015309672929699999
sS'spacex'
p16
F0.0095628415300499994
sS'Foodforthought'
p17
F0.035325528856000002
sS'financialindependence'
p18
F0.010292576003000001
sS'chemistry'
p19
F0.0072452354701499997
sS'linguistics'
p20
F0.013990147783299999
sS'syriancivilwar'
p21
F0.0144575385737
sS'ShitRConservativeSays'
p22
F0.015915119363399999
sS'badlinguistics'
p23
F0.0127067014795
sS'quityourbullshit'
p24
F0.0072968490878900002
sS'LearnUselessTalents'
p25
F0.00782374663579
sS'ProtectAndServe'
p26
F0.0119193905136
sS'writing'
p27
F0.0079248801278600008
sS'HistoryPorn'
p28
F0.011397868800899999
sS'Fantasy'
p29
F0.0072501747030000001
sS'whowouldwin'
p30
F0.00704914259408
sS'collapse'
p31
F0.016021724372000001
sS'CCW'
p32
F0.0079516275987699999
sS'texas'
p33
F0.0091776138204099997
sS'MensRights'
p34
F0.0097247403988799993
sS'nononono'
p35
F0.0087498069895499998
sS'MilitaryPorn'
p36
F0.00736022646851
sS'robotics'
p37
F0.0075049777913899999
sS'YouShouldKnow'
p38
F0.012319644839100001
sS'shutupandtakemymoney'
p39
F0.0076769537847399998
sS'SelfDrivingCars'
p40
F0.020833333333300001
sS'misc'
p41
F0.0118761676007
sS'UpliftingNews'
p42
F0.0078642939581800003
sS'AbandonedPorn'
p43
F0.0073339569691300002
sS'geek'
p44
F0.0109555690809
sS'spaceporn'
p45
F0.0089946414901800002
sS'DebateAnAtheist'
p46
F0.0125693160813
sS'lostgeneration'
p47
F0.0240352064997
sS'toosoon'
p48
F0.0071765631144299997
sS'Military'
p49
F0.0079696394686900006
sS'firstworldproblems'
p50
F0.00776202873397
sS'homestead'
p51
F0.0099471165953200005
sS'GunsAreCool'
p52
F0.0128906939785
sS'IWantToLearn'
p53
F0.0093553499309899993
sS'Republican'
p54
F0.019779841761300002
sS'grammar'
p55
F0.0085395860471799995
sS'progressive'
p56
F0.031925718646699998
sS'progun'
p57
F0.013945752303000001
sS'conspiratard'
p58
F0.018464947374899999
sS'PropagandaPosters'
p59
F0.020760105448199999
sS'CrappyDesign'
p60
F0.0070326291213499998
sS'NewsOfTheWeird'
p61
F0.0075805432722700003
sS'comics'
p62
F0.0100528244933
sS'Frisson'
p63
F0.0087575649697400008
sS'compsci'
p64
F0.010665146951099999
sS'Enhancement'
p65
F0.011394173922400001
sS'Cyberpunk'
p66
F0.0086479509519199992
sS'Libertarian'
p67
F0.022348969852200001
sS'PoliticalDiscussion'
p68
F0.057942479431799997
sS'fifthworldproblems'
p69
F0.0090783003404400001
sS'Anarcho_Capitalism'
p70
F0.021402073623099999
sS'SubredditDrama'
p71
F0.014055783265
sS'marijuanaenthusiasts'
p72
F0.0079664570230599998
sS'europe'
p73
F0.0113850236031
sS'google'
p74
F0.0073965936739700004
sS'TrueAtheism'
p75
F0.0192220568248
sS'badhistory'
p76
F0.0283897133376
sS'HPMOR'
p77
F0.0070718654434300003
sS'NetflixBestOf'
p78
F0.0090259606620999994
sS'energy'
p79
F0.020586098328900002
sS'circlebroke2'
p80
F0.011865395837400001
sS'literature'
p81
F0.012411540555300001
sS'Christianity'
p82
F0.0082534691779799999
sS'POLITIC'
p83
F0.013412816691500001
sS'interestingasfuck'
p84
F0.0073222118605999996
sS'AskScienceDiscussion'
p85
F0.0130941469163
sS'changemyview'
p86
F0.0247563756998
sS'classicalmusic'
p87
F0.0077383046078099999
sS'FeMRADebates'
p88
F0.0112654900488
sS'OneY'
p89
F0.016807834833199999
sS'Feminism'
p90
F0.010572612704100001
sS'offbeat'
p91
F0.014609040342700001
sS'humor'
p92
F0.0143987020888
sS'psychology'
p93
F0.014542881848899999
sS'space'
p94
F0.0091119467746600003
sS'skeptic'
p95
F0.0240255993285
sS'wikipedia'
p96
F0.017165055560599999
sS'socialskills'
p97
F0.0086143113835699999
sS'DebateReligion'
p98
F0.013769670958499999
sS'religion'
p99
F0.0084826925707999993
sS'outside'
p100
F0.0085817295485699999
sS'China'
p101
F0.0080194904070699999
sS'AskCulinary'
p102
F0.0101776344902
sS'RoomPorn'
p103
F0.0082523764754999993
sS'medicine'
p104
F0.00711077844311
sS'Astronomy'
p105
F0.0085900275149299998
sS'Anarchy101'
p106
F0.0081984013117399994
sS'vexillology'
p107
F0.011242409322199999
sS'math'
p108
F0.0097676753845499995
sS'AskFeminists'
p109
F0.0089966453186900008
sS'LetsTalkMusic'
p110
F0.010767468499399999
sS'TheWayWeWere'
p111
F0.010360197566599999
sS'biology'
p112
F0.0088709677419399995
sS'bestof'
p113
F0.012168703421499999
sS'jobs'
p114
F0.0072336600607800002
sS'business'
p115
F0.012672133077
sS'FloridaMan'
p116
F0.0112570356473
sS'legaladvice'
p117
F0.0072969116023600001
sS'delusionalartists'
p118
F0.0071208015627999997
sS'answers'
p119
F0.016322346633000001
sS'budgetfood'
p120
F0.0087662337662299996
sS'Frugal'
p121
F0.0084618110933900002
sS'conservatives'
p122
F0.0152671755725
sS'ainbow'
p123
F0.0092183237701100006
sS'howto'
p124
F0.0089367552703899997
sS'worldbuilding'
p125
F0.0097628001157099992
sS'TheoryOfReddit'
p126
F0.034217608612099999
sS'sanfrancisco'
p127
F0.0074848080628399996
sS'CanadaPolitics'
p128
F0.012802275960199999
sS'RedditDayOf'
p129
F0.0152284263959
sS'WarshipPorn'
p130
F0.0101058710298
sS'minimalism'
p131
F0.0082405345211599996
sS'privacy'
p132
F0.015751883377400001
sS'programming'
p133
F0.0094889605556900004
sS'Liberal'
p134
F0.0246563060371
sS'bayarea'
p135
F0.0080014384608500001
sS'wheredidthesodago'
p136
F0.0079617194097099993
sS'AnimalsBeingBros'
p137
F0.0071413568578
sS'ukpolitics'
p138
F0.0099445568951900005
sS'gunpolitics'
p139
F0.0148705388383
sS'whatstheword'
p140
F0.0094272076372299996
sS'OutOfTheLoop'
p141
F0.0114418604651
sS'paradoxplaza'
p142
F0.0089138092157299998
sS'QuotesPorn'
p143
F0.0106630657478
sS'ShitAmericansSay'
p144
F0.0141003948111
sS'TrueReddit'
p145
F0.027751871549900001
sS'AmIFreeToGo'
p146
F0.012196756467000001
sS'Scotland'
p147
F0.0070619149285599996
sS'patientgamers'
p148
F0.0082432579975999995
sS'crypto'
p149
F0.0080515297906599993
sS'printSF'
p150
F0.0094272076372299996
sS'techsupportmacgyver'
p151
F0.00739644970414
sS'IdiotsFightingThings'
p152
F0.0087812666311900007
sS'Buddhism'
p153
F0.0079160069994199996
sS'Health'
p154
F0.0084110921277399994
sS'Documentaries'
p155
F0.0080669384252299997
sS'rpg'
p156
F0.0080899492664199997
sS'linux'
p157
F0.0082976621666099992
sS'AskScienceFiction'
p158
F0.0120905300774
sS'finance'
p159
F0.010734463276799999
sS'Damnthatsinteresting'
p160
F0.0071619600199400004
sS'environment'
p161
F0.0188808007279
sS'CrazyIdeas'
p162
F0.0107397009858
sS'eldertrees'
p163
F0.0070381231671599997
sS'AskHistorians'
p164
F0.0229711650679
sS'TinyHouses'
p165
F0.010041662215599999
sS'Bad_Cop_No_Donut'
p166
F0.0128618889416
sS'ANormalDayInRussia'
p167
F0.00925027974636
sS'EatCheapAndHealthy'
p168
F0.0075521405049400001
sS'MorbidReality'
p169
F0.00725163161711
sS'beer'
p170
F0.0070504527813700004
sS'California'
p171
F0.013681868743
sS'alternativeart'
p172
F0.0072202166065000002
sS'Ubuntu'
p173
F0.00718552506277
sS'HomeImprovement'
p174
F0.0070720326625800002
sS'urbanplanning'
p175
F0.011304201113499999
sS'CombatFootage'
p176
F0.0102158959341
sS'explainlikeIAmA'
p177
F0.0127292148834
sS'Firearms'
p178
F0.010534846029200001
sS'DaystromInstitute'
p179
F0.0126517571885
sS'occupywallstreet'
p180
F0.018583227446000002
sS'teslamotors'
p181
F0.0086089714544600009
sS'cordcutters'
p182
F0.0123949797739
sS'introvert'
p183
F0.0071103008204200001
sS'Awwducational'
p184
F0.0078951288544600005
sS'PoliticalHumor'
p185
F0.0206137811233
sS'polandball'
p186
F0.0099518991540899996
sS'ProgrammerHumor'
p187
F0.00795683688484
sS'webcomics'
p188
F0.0089552238805999992
sS'getdisciplined'
p189
F0.0078594249201300002
sS'againstmensrights'
p190
F0.0088333333333299995
sS'Anticonsumption'
p191
F0.013101767215100001
sS'worldpolitics'
p192
F0.022779151607399999
sS'science'
p193
F0.0092761706124000008
sS'PerfectTiming'
p194
F0.0078688191694600007
sS'Entrepreneur'
p195
F0.0070105479804499996
sS'standupshots'
p196
F0.010238635910900001
sS'socialism'
p197
F0.020404897175299998
sS'Ask_Politics'
p198
F0.044089362331700001
sS'TheBluePill'
p199
F0.0095112285336900002
sS'russia'
p200
F0.010877679428400001
sS'history'
p201
F0.011859269996
sS'ShitPoliticsSays'
p202
F0.025390625
sS'gamernews'
p203
F0.0076240327719599996
sS'NewsOfTheStupid'
p204
F0.010484556531599999
sS'Economics'
p205
F0.036543257241500003
sS'badphilosophy'
p206
F0.016717083266999999
sS'netsec'
p207
F0.0095732597760799995
sS'Infographics'
p208
F0.0104143083541
sS'BasicIncome'
p209
F0.031112116755299998
sS'DecidingToBeBetter'
p210
F0.0081011821112700003
sS'TrueAskReddit'
p211
F0.033902691511399997
sS'FanTheories'
p212
F0.0089090750283899994
sS'hardware'
p213
F0.0073137284778299998
sS'engineering'
p214
F0.0081181584873999992
sS'conspiracy'
p215
F0.0089443771545700008
sS'politics'
p216
F0.0107949329906
sS'AnythingGoesNews'
p217
F0.0115013988188
sS'education'
p218
F0.0110668437362
sS'ShitRedditSays'
p219
F0.0070263940185599999
sS'SRSsucks'
p220
F0.010732237467700001
sS'HouseOfCards'
p221
F0.0073444143795899997
sS'Israel'
p222
F0.0096911608093700006
sS'MURICA'
p223
F0.00743884411807
sS'Nootropics'
p224
F0.0075724980638500004
sS'preppers'
p225
F0.0072503419972599998
sS'self'
p226
F0.0103055175559
sS'AskSocialScience'
p227
F0.046430294259500002
sS'ImaginaryLandscapes'
p228
F0.00746357066698
sS'AskAcademia'
p229
F0.0089285714285700004
sS'TumblrInAction'
p230
F0.0072147232825699997
sS'scifi'
p231
F0.0136331693605
sS'slowcooking'
p232
F0.0080901473562599996
sS'nottheonion'
p233
F0.0084808859145399998
sS'nonononoyes'
p234
F0.0083838420498699995
sS'Frugal_Jerk'
p235
F0.0079604721383499995
sS'FutureWhatIf'
p236
F0.0164974619289
sS'economy'
p237
F0.027736867943099999
sS'talesfromtechsupport'
p238
F0.0080427046263299995
sS'ArtisanVideos'
p239
F0.0079287710404899996
sS'Anarchism'
p240
F0.0135730007337
sS'MapPorn'
p241
F0.0125004937004
sS'forwardsfromgrandma'
p242
F0.0111604534299
sS'AnimalsBeingJerks'
p243
F0.0070045799176399999
sS'askscience'
p244
F0.0110037438025
sS'Futurology'
p245
F0.0121028744327
sS'NorthCarolina'
p246
F0.0078088396064299997
sS'DebateAChristian'
p247
F0.0089445438282599998
sS'philosophy'
p248
F0.0135360846266
sS'EnoughLibertarianSpam'
p249
F0.029546103340000001
sS'law'
p250
F0.021693700865800001
sS'Physics'
p251
F0.011660801766399999
sS'startrek'
p252
F0.0087471526195900002
sS'truegaming'
p253
F0.0124419270668
sS'MachinePorn'
p254
F0.0089939343233600005
sS'TrueFilm'
p255
F0.013295171267700001
sS'entertainment'
p256
F0.0089602389397099996
sS'HumanPorn'
p257
F0.0089007887690899998
sS'IWantOut'
p258
F0.0096848186220400007
sS'investing'
p259
F0.0110876066817
sS'Shitstatistssay'
p260
F0.015788540003499999
sS'HailCorporate'
p261
F0.012773901935700001
sS'AskEngineers'
p262
F0.0120090634441
s.