(dp1
S'Rift'
p2
F0.0123543946347
sS'swtor'
p3
F0.0078676470588199994
sS'sto'
p4
F0.016826923076900001
sS'Warframe'
p5
F0.0079179071387900004
sS'marvelheroes'
p6
F0.0164233576642
sS'MMORPG'
p7
F0.0150875075438
sS'elderscrollsonline'
p8
F0.0073715378446699998
sS'TeraOnline'
p9
F0.010330277899
s.