(dp1
S'bostonceltics'
p2
F0.0082123758594300003
sS'progressive'
p3
F0.0072402044293000001
sS'hiking'
p4
F0.0088217522658599994
sS'BostonBruins'
p5
F0.018022111161600001
sS'boston'
p6
F0.017676172519399999
sS'progun'
p7
F0.0080268534734399995
sS'PoliticalDiscussion'
p8
F0.0071802972643099996
sS'Shitstatistssay'
p9
F0.0109512561735
sS'Patriots'
p10
F0.0139920663541
sS'EnoughLibertarianSpam'
p11
F0.011428571428599999
sS'redsox'
p12
F0.0147861039334
sS'Anarcho_Capitalism'
p13
F0.0105000519805
sS'Maine'
p14
F0.021157684630699999
s.