(dp1
S'awwwtf'
p2
F0.0188116776316
sS'Heavymind'
p3
F0.0074990964944000003
sS'lostgeneration'
p4
F0.010003261933199999
sS'talesfromcallcenters'
p5
F0.0122560877278
sS'pettyrevenge'
p6
F0.0154369715469
sS'AskSocialScience'
p7
F0.0075929283771500001
sS'CityPorn'
p8
F0.00759364431115
sS'PanicHistory'
p9
F0.010141253169100001
sS'ShitPoliticsSays'
p10
F0.0079591836734700001
sS'fffffffuuuuuuuuuuuu'
p11
F0.0074292610969600003
sS'inthenews'
p12
F0.0236633552852
sS'Conservative'
p13
F0.010183927910099999
sS'quotes'
p14
F0.010577472841600001
sS'BuyItForLife'
p15
F0.0082868525896400008
sS'calvinandhobbes'
p16
F0.0104496213211
sS'perfectloops'
p17
F0.0106827682304
sS'everymanshouldknow'
p18
F0.010638693598199999
sS'InternetIsBeautiful'
p19
F0.0075302386144399996
sS'Foodforthought'
p20
F0.014620269912700001
sS'help'
p21
F0.0072088308177499999
sS'TalesFromRetail'
p22
F0.0120040952137
sS'UFOs'
p23
F0.0090326340326300006
sS'privacy'
p24
F0.0095274390243900008
sS'ShitRConservativeSays'
p25
F0.0088087248322099992
sS'TheBluePill'
p26
F0.0105581999135
sS'WouldYouRather'
p27
F0.0109712536146
sS'quityourbullshit'
p28
F0.019296348665100001
sS'DoesAnybodyElse'
p29
F0.0097412799832400001
sS'LearnUselessTalents'
p30
F0.0131015212667
sS'ProtectAndServe'
p31
F0.0107839573488
sS'HistoryPorn'
p32
F0.011750749809699999
sS'Piracy'
p33
F0.0077714535901900004
sS'shittybattlestations'
p34
F0.0084360084360100007
sS'badtattoos'
p35
F0.016457414319599999
sS'offmychest'
p36
F0.0073488835349999997
sS'woahdude'
p37
F0.0074061058642699998
sS'collapse'
p38
F0.014632217242300001
sS'ImaginaryMonsters'
p39
F0.0082386067368899994
sS'PublicFreakout'
p40
F0.016728909807100002
sS'texas'
p41
F0.0085590752669199993
sS'scifi'
p42
F0.0095178546616600003
sS'MensRights'
p43
F0.0093592512598999998
sS'nononono'
p44
F0.018767996709199999
sS'MilitaryPorn'
p45
F0.0087001262921600001
sS'Frisson'
p46
F0.0094048287478900004
sS'arresteddevelopment'
p47
F0.0071200589246299996
sS'childfree'
p48
F0.0087655475868799997
sS'cringepics'
p49
F0.0073647933204299999
sS'horror'
p50
F0.0072711248209799996
sS'JusticePorn'
p51
F0.0114062477722
sS'UpliftingNews'
p52
F0.0097596192411600006
sS'AbandonedPorn'
p53
F0.0117072443235
sS'patientgamers'
p54
F0.0083112958065699998
sS'geek'
p55
F0.0112675055093
sS'spaceporn'
p56
F0.0095088161209100006
sS'DebateAnAtheist'
p57
F0.0072879330943800003
sS'anonymous'
p58
F0.0085306406685200006
sS'3amjokes'
p59
F0.010196737044100001
sS'toosoon'
p60
F0.0171156277351
sS'magicskyfairy'
p61
F0.0104977988486
sS'TrollYChromosome'
p62
F0.0074853077636900002
sS'PrettyGirlsUglyFaces'
p63
F0.0074482195694300004
sS'GunsAreCool'
p64
F0.015878436059400002
sS'IWantToLearn'
p65
F0.0088459788707500007
sS'Frugal_Jerk'
p66
F0.014632836622399999
sS'Liberal'
p67
F0.016094266417599999
sS'creepyPMs'
p68
F0.0107250702857
sS'progressive'
p69
F0.018717885979900001
sS'IdiotsFightingThings'
p70
F0.0171980420691
sS'WatchItForThePlot'
p71
F0.0086642149224000001
sS'firstworldproblems'
p72
F0.012854333541200001
sS'freebies'
p73
F0.0105639660622
sS'PropagandaPosters'
p74
F0.0139718430034
sS'vexillology'
p75
F0.0095015701747300004
sS'NewsOfTheWeird'
p76
F0.078508341511299998
sS'shittyadviceanimals'
p77
F0.010678871090800001
sS'futurama'
p78
F0.0086267701155700004
sS'dadjokes'
p79
F0.0104130907426
sS'Enhancement'
p80
F0.010288713910799999
sS'zombies'
p81
F0.0091036414565800004
sS'Libertarian'
p82
F0.010307317815299999
sS'DeepIntoYouTube'
p83
F0.012837353713899999
sS'ArcherFX'
p84
F0.0084257902449199999
sS'cringe'
p85
F0.0082505926812699998
sS'spiders'
p86
F0.00762753838534
sS'YouShouldKnow'
p87
F0.014037026802999999
sS'firefly'
p88
F0.0076103500760999997
sS'progun'
p89
F0.0100521221147
sS'TrueAtheism'
p90
F0.0126245004124
sS'whatisthisthing'
p91
F0.0131400414197
sS'glitch_art'
p92
F0.0099066927773300006
sS'NetflixBestOf'
p93
F0.0095004238650600002
sS'DoctorWhumour'
p94
F0.0073887985813499996
sS'TheSimpsons'
p95
F0.0093258594176300006
sS'Marijuana'
p96
F0.0092116538132000006
sS'tumblr'
p97
F0.0081320144569099993
sS'POLITIC'
p98
F0.017373344672599999
sS'interestingasfuck'
p99
F0.0111575529379
sS'MarkMyWords'
p100
F0.0146400483969
sS'changemyview'
p101
F0.0082876294942100005
sS'fatpeoplestories'
p102
F0.0110168632354
sS'OneY'
p103
F0.0089434010476599993
sS'KarmaCourt'
p104
F0.0080485952923299992
sS'Cinemagraphs'
p105
F0.0089841050449199992
sS'firstworldanarchists'
p106
F0.011626948132300001
sS'offbeat'
p107
F0.0222997184541
sS'no_sob_story'
p108
F0.0098239346772099993
sS'humor'
p109
F0.0190826916639
sS'psychology'
p110
F0.0113312263933
sS'Glitch_in_the_Matrix'
p111
F0.00885423549623
sS'skeptic'
p112
F0.017687706270600002
sS'shittyfoodporn'
p113
F0.0089956537852499997
sS'crappymusic'
p114
F0.0116325711994
sS'wikipedia'
p115
F0.0168394930426
sS'ExpectationVsReality'
p116
F0.0161022969453
sS'socialskills'
p117
F0.0076228267112199996
sS'DebateReligion'
p118
F0.0083798882681599997
sS'religion'
p119
F0.0085095067145299994
sS'outside'
p120
F0.0085401386516599995
sS'GuessTheMovie'
p121
F0.0072471847474600004
sS'RoomPorn'
p122
F0.0090472005376599999
sS'foodhacks'
p123
F0.010519746812900001
sS'lifehacks'
p124
F0.011506875477499999
sS'memes'
p125
F0.0082045910796900001
sS'Astronomy'
p126
F0.0086018659432299995
sS'SCP'
p127
F0.0075708132097600002
sS'needadvice'
p128
F0.0073306036190699999
sS'TheWayWeWere'
p129
F0.0172678888232
sS'blackpeoplegifs'
p130
F0.012603215992999999
sS'StandUpComedy'
p131
F0.00958967266021
sS'ProgrammerHumor'
p132
F0.0075937096079300003
sS'Cyberpunk'
p133
F0.0093011403452900009
sS'business'
p134
F0.0070812212204499998
sS'HumanPorn'
p135
F0.0118656182988
sS'casualiama'
p136
F0.0085811619556200001
sS'Whatisthis'
p137
F0.010980468370400001
sS'LetsNotMeet'
p138
F0.0076422472983499997
sS'delusionalartists'
p139
F0.0188085802353
sS'answers'
p140
F0.0155789800031
sS'KitchenConfidential'
p141
F0.0093042404281600006
sS'Frugal'
p142
F0.0075748661528500004
sS'windows'
p143
F0.00733801717408
sS'conservatives'
p144
F0.00851788756388
sS'shittyaskscience'
p145
F0.010378827192500001
sS'ainbow'
p146
F0.0082926379802799998
sS'wallpaper'
p147
F0.0084707578624900002
sS'lewronggeneration'
p148
F0.010015549254599999
sS'howto'
p149
F0.0147414575144
sS'TheoryOfReddit'
p150
F0.0091363138019199992
sS'PoliticalHumor'
p151
F0.021153846153800001
sS'ThriftStoreHauls'
p152
F0.0096967831306800003
sS'RedditDayOf'
p153
F0.012754222681799999
sS'lgbt'
p154
F0.0079013729335900007
sS'WarshipPorn'
p155
F0.0099706744868000002
sS'recipes'
p156
F0.00829262751335
sS'TinyHouses'
p157
F0.0082377476538099993
sS'punk'
p158
F0.00700764470331
sS'Paranormal'
p159
F0.00750710131205
sS'cripplingalcoholism'
p160
F0.0075732264172
sS'howtonotgiveafuck'
p161
F0.0082967301122499997
sS'sixwordstories'
p162
F0.0094709782167499996
sS'AnimalsBeingBros'
p163
F0.0148060614486
sS'AndroidQuestions'
p164
F0.0070638986249700001
sS'classic4chan'
p165
F0.012439464438299999
sS'whatstheword'
p166
F0.0120186697783
sS'history'
p167
F0.0088317525018900001
sS'OutOfTheLoop'
p168
F0.0134489635023
sS'software'
p169
F0.0085797101449299994
sS'whatsthisbug'
p170
F0.0086970107280500003
sS'QuotesPorn'
p171
F0.0095338983050800002
sS'ShitAmericansSay'
p172
F0.010644104803500001
sS'TrueReddit'
p173
F0.0127996046454
sS'drunk'
p174
F0.0079828937989999994
sS'Gore'
p175
F0.0090540862520800004
sS'AmIFreeToGo'
p176
F0.0162261188171
sS'misc'
p177
F0.022825659189300001
sS'AntiJokes'
p178
F0.0112129380054
sS'KingOfTheHill'
p179
F0.0093065932625499993
sS'NotTimAndEric'
p180
F0.010128236543299999
sS'rant'
p181
F0.0110580325548
sS'conspiratard'
p182
F0.022510980966300002
sS'confession'
p183
F0.0106987854523
sS'Health'
p184
F0.0097339390006499996
sS'MMFB'
p185
F0.0070394474697800004
sS'introvert'
p186
F0.0076049029256500004
sS'holdmybeer'
p187
F0.0148832435207
sS'AskScienceFiction'
p188
F0.00968196221101
sS'ContagiousLaughter'
p189
F0.010268857356199999
sS'nostalgia'
p190
F0.011712047743399999
sS'badhistory'
p191
F0.013096935139
sS'Damnthatsinteresting'
p192
F0.013783441793199999
sS'environment'
p193
F0.0127605905483
sS'FiftyFifty'
p194
F0.0080786026200899991
sS'CrazyIdeas'
p195
F0.015107609155700001
sS'eldertrees'
p196
F0.0096975516082600001
sS'AskHistorians'
p197
F0.0074965861271400003
sS'Roadcam'
p198
F0.0132520797059
sS'Bad_Cop_No_Donut'
p199
F0.020355029585799999
sS'ANormalDayInRussia'
p200
F0.020267260579099999
sS'Whatcouldgowrong'
p201
F0.0168982897765
sS'onetruegod'
p202
F0.0077720207253899999
sS'TheFacebookDelusion'
p203
F0.016856846472999999
sS'urbanexploration'
p204
F0.011241089380400001
sS'MorbidReality'
p205
F0.0131855484388
sS'gif'
p206
F0.010334582095300001
sS'SubredditDrama'
p207
F0.011217662358300001
sS'wheredidthesodago'
p208
F0.0126577208091
sS'IASIP'
p209
F0.0079275946356599999
sS'shittyreactiongifs'
p210
F0.0099750623441399993
sS'alternativeart'
p211
F0.0096867530507000008
sS'shittyadvice'
p212
F0.015535260333300001
sS'MeanJokes'
p213
F0.0120593692022
sS'California'
p214
F0.0090879584550499996
sS'confessions'
p215
F0.0113131740326
sS'Pareidolia'
p216
F0.0151722154311
sS'energy'
p217
F0.0079309540471199994
sS'happy'
p218
F0.012425406686800001
sS'CombatFootage'
p219
F0.0089177953600600001
sS'fatlogic'
p220
F0.0103421304209
sS'cablefail'
p221
F0.0105759611262
sS'explainlikeIAmA'
p222
F0.0116076104032
sS'Firearms'
p223
F0.0074876673713900003
sS'misleadingthumbnails'
p224
F0.0129486597001
sS'FloridaMan'
p225
F0.032651199165799998
sS'fifthworldproblems'
p226
F0.0092114959469400005
sS'occupywallstreet'
p227
F0.013147836722200001
sS'trailerparkboys'
p228
F0.0082913069493100004
sS'mildlyinfuriating'
p229
F0.011824614567600001
sS'cordcutters'
p230
F0.0106519178573
sS'somethingimade'
p231
F0.00979469868851
sS'raisedbynarcissists'
p232
F0.0078749231714799993
sS'Unexpected'
p233
F0.011812210977800001
sS'Awwducational'
p234
F0.012372956252800001
sS'Shitty_Car_Mods'
p235
F0.012184099208199999
sS'shittyaskreddit'
p236
F0.011919698870799999
sS'NeutralPolitics'
p237
F0.010484556531599999
sS'ghettoglamourshots'
p238
F0.022039473684199999
sS'blunderyears'
p239
F0.0133606397503
sS'webcomics'
p240
F0.0085144521622200001
sS'Colorado'
p241
F0.0074054826555799997
sS'showerbeer'
p242
F0.0074543040947600003
sS'rage'
p243
F0.015648231652300001
sS'worldpolitics'
p244
F0.0137683188649
sS'AMA'
p245
F0.0082028106234100003
sS'Justrolledintotheshop'
p246
F0.0099965627864299998
sS'Perfectfit'
p247
F0.010181748977100001
sS'PerfectTiming'
p248
F0.0148687604309
sS'behindthegifs'
p249
F0.0101601148997
sS'standupshots'
p250
F0.0115106206242
sS'socialism'
p251
F0.0090272373540900008
sS'Ask_Politics'
p252
F0.0076219512195099997
sS'findareddit'
p253
F0.0142822166
sS'ObscureMedia'
p254
F0.0144291979064
sS'lookatmydog'
p255
F0.0086206896551700007
sS'bestof'
p256
F0.0074427127298200002
sS'fullmoviesonyoutube'
p257
F0.0141810815023
sS'TalesFromThePizzaGuy'
p258
F0.011899151743599999
sS'gamernews'
p259
F0.0094047417919699994
sS'watchpeopledie'
p260
F0.0112861617837
sS'Economics'
p261
F0.00882747146092
sS'Anticonsumption'
p262
F0.0085218924478400009
sS'florida'
p263
F0.0085470085470099998
sS'awesome'
p264
F0.0145692325341
sS'Cooking'
p265
F0.00714573268921
sS'DecidingToBeBetter'
p266
F0.0073057878074500003
sS'TrueAskReddit'
p267
F0.013205980066399999
sS'FanTheories'
p268
F0.0104442036836
sS'NoStupidQuestions'
p269
F0.0142992393327
sS'PoliticalDiscussion'
p270
F0.0131465374145
sS'conspiracy'
p271
F0.0108788633912
sS'Infographics'
p272
F0.011957484499599999
sS'AnythingGoesNews'
p273
F0.032406696360000001
sS'budgetfood'
p274
F0.0091014922214
sS'bestofworldstar'
p275
F0.012354853692500001
sS'southpark'
p276
F0.0083203525701900007
sS'SRSsucks'
p277
F0.012299960322700001
sS'TalesFromYourServer'
p278
F0.0130293159609
sS'DAE'
p279
F0.0098725318670300002
sS'techsupportmacgyver'
p280
F0.013501185915
sS'MURICA'
p281
F0.0101327244184
sS'eatsandwiches'
p282
F0.0087212471383400006
sS'HighQualityGifs'
p283
F0.0097150787819400009
sS'eFreebies'
p284
F0.0091720679956000008
sS'softwaregore'
p285
F0.0146725750862
sS'Survival'
p286
F0.0091086532205600004
sS'shittyama'
p287
F0.0109451813375
sS'HalfLife'
p288
F0.0070693290338599999
sS'ImaginaryLandscapes'
p289
F0.0076282940360600003
sS'gats'
p290
F0.0077014218009499999
sS'comics'
p291
F0.0086707522680400002
sS'thatHappened'
p292
F0.0111900380846
sS'economy'
p293
F0.0091656874265599996
sS'slowcooking'
p294
F0.0076462196861599996
sS'UnresolvedMysteries'
p295
F0.012117287947499999
sS'nottheonion'
p296
F0.0110910321083
sS'itookapicture'
p297
F0.0076294505127999998
sS'nonononoyes'
p298
F0.0120734528629
sS'Pizza'
p299
F0.0080302314596099999
sS'FutureWhatIf'
p300
F0.011170140307899999
sS'wallpapers'
p301
F0.0072736890828500001
sS'talesfromtechsupport'
p302
F0.0090739384200899994
sS'Anarchism'
p303
F0.0083236373400200001
sS'MapPorn'
p304
F0.0081853251610600006
sS'notinteresting'
p305
F0.0097372125762600001
sS'facepalm'
p306
F0.0137689029994
sS'forwardsfromgrandma'
p307
F0.018546511627900001
sS'AnimalsBeingJerks'
p308
F0.0149672951135
sS'highdeas'
p309
F0.0082077502691099997
sS'CrappyDesign'
p310
F0.014280827774899999
sS'circlebroke'
p311
F0.0079524600192299993
sS'DebateAChristian'
p312
F0.0078551167357600003
sS'netflix'
p313
F0.0087947342220300005
sS'Images'
p314
F0.0137468030691
sS'EnoughLibertarianSpam'
p315
F0.011301742919400001
sS'spicy'
p316
F0.0076699285903199998
sS'Gaming4Gamers'
p317
F0.0072352740892100004
sS'dogpictures'
p318
F0.0089320388349499995
sS'GamePhysics'
p319
F0.011740098508899999
sS'law'
p320
F0.0086613415455700001
sS'whitepeoplegifs'
p321
F0.014936519790900001
sS'startrek'
p322
F0.0087082073726500002
sS'catpictures'
p323
F0.0077272727272699997
sS'truegaming'
p324
F0.0070424749269000003
sS'oddlysatisfying'
p325
F0.0094258626673699997
sS'MachinePorn'
p326
F0.0122138971569
sS'cosplaygirls'
p327
F0.0081691150125399997
sS'ConfusedBoners'
p328
F0.0096944151738699996
sS'Republican'
p329
F0.0085371860121500002
sS'entertainment'
p330
F0.0111398325948
sS'gunpolitics'
p331
F0.0078753351206400004
sS'NSFWFunny'
p332
F0.011476168440499999
sS'terriblefacebookmemes'
p333
F0.0151777528777
sS'TumblrInAction'
p334
F0.0088837642002600001
sS'marijuanaenthusiasts'
p335
F0.0103401360544
sS'techsupportgore'
p336
F0.014118305803300001
sS'HailCorporate'
p337
F0.0151485912775
sS'ImGoingToHellForThis'
p338
F0.0091459945380100004
sS'self'
p339
F0.0102694212879
sS'shutupandtakemymoney'
p340
F0.0146826408361
s.