(dp1
S'awwwtf'
p2
F0.016198823921
sS'Heavymind'
p3
F0.0072646261139100001
sS'lostgeneration'
p4
F0.0080292832683899994
sS'talesfromcallcenters'
p5
F0.0083956926446400008
sS'pettyrevenge'
p6
F0.0094893647497000001
sS'PublicFreakout'
p7
F0.0092362907056499997
sS'PanicHistory'
p8
F0.0087792642140500001
sS'inthenews'
p9
F0.020979869027400001
sS'mycology'
p10
F0.0078582844965400002
sS'quotes'
p11
F0.0111863711002
sS'PoliticalDiscussion'
p12
F0.0090422202128399992
sS'perfectloops'
p13
F0.0075335735342299997
sS'everymanshouldknow'
p14
F0.0089370965893900006
sS'Foodforthought'
p15
F0.011652909759300001
sS'TalesFromRetail'
p16
F0.0072975640160000002
sS'UFOs'
p17
F0.0134609317489
sS'ShitRConservativeSays'
p18
F0.0074478649453800002
sS'WouldYouRather'
p19
F0.0088792244269299998
sS'quityourbullshit'
p20
F0.010333829470599999
sS'DoesAnybodyElse'
p21
F0.0072463768115899998
sS'Anticonsumption'
p22
F0.00708518701598
sS'environment'
p23
F0.010893416927899999
sS'Piracy'
p24
F0.0075071496663499998
sS'holdmybeer'
p25
F0.0097556688345899999
sS'collapse'
p26
F0.0137206247263
sS'texas'
p27
F0.0071684587813600001
sS'Gore'
p28
F0.0089474128471299999
sS'nononono'
p29
F0.012644105615499999
sS'confession'
p30
F0.0082966125034399998
sS'YouShouldKnow'
p31
F0.0109117498172
sS'shutupandtakemymoney'
p32
F0.0107668760226
sS'horror'
p33
F0.0092091631173000007
sS'JusticePorn'
p34
F0.0070450827904800003
sS'UpliftingNews'
p35
F0.0076502137159299996
sS'AbandonedPorn'
p36
F0.0097209996555599996
sS'geek'
p37
F0.0083730751028399993
sS'spaceporn'
p38
F0.0075837509891800003
sS'anonymous'
p39
F0.0088052831698999991
sS'3amjokes'
p40
F0.0072235355923299998
sS'toosoon'
p41
F0.0127282211789
sS'spicy'
p42
F0.0083688151519600001
sS'homestead'
p43
F0.0078114478114500001
sS'occult'
p44
F0.0077305356156800002
sS'GunsAreCool'
p45
F0.0126631599455
sS'IWantToLearn'
p46
F0.0074485942089800002
sS'Liberal'
p47
F0.011525532255499999
sS'creepyPMs'
p48
F0.0072432893055000003
sS'progressive'
p49
F0.013242375601899999
sS'IdiotsFightingThings'
p50
F0.011759822910899999
sS'ConfusedBoners'
p51
F0.0092582009372499992
sS'techsupportgore'
p52
F0.0076585985174299999
sS'freebies'
p53
F0.0077035008131499999
sS'PropagandaPosters'
p54
F0.011203511203499999
sS'CrappyDesign'
p55
F0.0087170576310500007
sS'thatHappened'
p56
F0.0078226575366200004
sS'SubredditDrama'
p57
F0.00708451241295
sS'zombies'
p58
F0.0091891891891900009
sS'Libertarian'
p59
F0.0072192304690500003
sS'DeepIntoYouTube'
p60
F0.010094086859
sS'fifthworldproblems'
p61
F0.010148849797
sS'Whatisthis'
p62
F0.010363236679599999
sS'TrueAtheism'
p63
F0.0073514802304800002
sS'whatisthisthing'
p64
F0.0114917501331
sS'glitch_art'
p65
F0.0072891793389499998
sS'NetflixBestOf'
p66
F0.0072452965204699996
sS'Marijuana'
p67
F0.0089607820318899998
sS'POLITIC'
p68
F0.0131596437591
sS'interestingasfuck'
p69
F0.0091499615841299994
sS'MarkMyWords'
p70
F0.012735473600399999
sS'OneY'
p71
F0.0081839988711700003
sS'firstworldanarchists'
p72
F0.0077146690518799998
sS'offbeat'
p73
F0.018242934534299999
sS'no_sob_story'
p74
F0.0070293828201899999
sS'humor'
p75
F0.0135911447387
sS'psychology'
p76
F0.010044916292399999
sS'findareddit'
p77
F0.0116097730029
sS'skeptic'
p78
F0.012966915688399999
sS'shittyfoodporn'
p79
F0.0075577181902899996
sS'wikipedia'
p80
F0.0119879176893
sS'ExpectationVsReality'
p81
F0.011431909212299999
sS'firstworldproblems'
p82
F0.0082182286251800008
sS'LearnUselessTalents'
p83
F0.0096659098280899997
sS'AskCulinary'
p84
F0.0072402322092500002
sS'facepalm'
p85
F0.0082284445042700004
sS'foodhacks'
p86
F0.0092504291436200006
sS'lifehacks'
p87
F0.0087500302978899998
sS'memes'
p88
F0.0074633827782400004
sS'Astronomy'
p89
F0.0074388209121199998
sS'Paranormal'
p90
F0.0136151916876
sS'blackpeoplegifs'
p91
F0.0072088724584099999
sS'StandUpComedy'
p92
F0.0091044037605099992
sS'Cyberpunk'
p93
F0.0089590158454200004
sS'FloridaMan'
p94
F0.017802953671900001
sS'delusionalartists'
p95
F0.0121903263862
sS'answers'
p96
F0.013041338582700001
sS'NotTimAndEric'
p97
F0.0075468424705099997
sS'Roadcam'
p98
F0.0094476744185999998
sS'howto'
p99
F0.0110916054899
sS'Unexpected'
p100
F0.0085231596570399994
sS'PoliticalHumor'
p101
F0.013472137170899999
sS'TheoryOfReddit'
p102
F0.0078950889870200002
sS'RedditDayOf'
p103
F0.010655634950500001
sS'privacy'
p104
F0.0071618579905900004
sS'florida'
p105
F0.0076433121019099997
sS'watchpeopledie'
p106
F0.0083230286312199996
sS'wheredidthesodago'
p107
F0.0075166351762100004
sS'AnimalsBeingBros'
p108
F0.0114682249817
sS'classic4chan'
p109
F0.0086513994910900009
sS'whatstheword'
p110
F0.0112345206179
sS'ANormalDayInRussia'
p111
F0.013338533541299999
sS'whatsthisbug'
p112
F0.0076315219744500003
sS'QuotesPorn'
p113
F0.0082404496522799995
sS'ShitAmericansSay'
p114
F0.0095584888484300003
sS'TrueReddit'
p115
F0.0096103179183500004
sS'AmIFreeToGo'
p116
F0.0110998990918
sS'misc'
p117
F0.018210724093100001
sS'AntiJokes'
p118
F0.0085340191723200006
sS'KingOfTheHill'
p119
F0.0088572673152300004
sS'rant'
p120
F0.0102185637241
sS'conspiratard'
p121
F0.0136127643409
sS'Health'
p122
F0.0084445655134799992
sS'marijuanaenthusiasts'
p123
F0.0075483091787399998
sS'nostalgia'
p124
F0.0101505343394
sS'badhistory'
p125
F0.0079734219269099998
sS'Damnthatsinteresting'
p126
F0.0118069815195
sS'HistoryPorn'
p127
F0.0089658616306499996
sS'CrazyIdeas'
p128
F0.010193239923000001
sS'eldertrees'
p129
F0.0071170706549799996
sS'TinyHouses'
p130
F0.0091670439112700002
sS'Bad_Cop_No_Donut'
p131
F0.013495079411500001
sS'OutOfTheLoop'
p132
F0.0090915497920900003
sS'Whatcouldgowrong'
p133
F0.0106238162879
sS'TheFacebookDelusion'
p134
F0.010979609297000001
sS'MorbidReality'
p135
F0.0098076581040199996
sS'gif'
p136
F0.0080563265858799998
sS'shittyreactiongifs'
p137
F0.0075244544770500001
sS'misleadingthumbnails'
p138
F0.0095961615353900003
sS'shittyadvice'
p139
F0.0095583056645499997
sS'MeanJokes'
p140
F0.0077068856601400001
sS'confessions'
p141
F0.011477103179199999
sS'Pareidolia'
p142
F0.010814489904
sS'ObscureMedia'
p143
F0.0142202559646
sS'CombatFootage'
p144
F0.0076126030873299999
sS'explainlikeIAmA'
p145
F0.0079977680647299997
sS'alternativeart'
p146
F0.0090165071438499996
sS'occupywallstreet'
p147
F0.0131057078807
sS'trailerparkboys'
p148
F0.00729660707771
sS'mildlyinfuriating'
p149
F0.0079821150243200006
sS'DumpsterDiving'
p150
F0.0073568050446699996
sS'somethingimade'
p151
F0.0071959012146699999
sS'introvert'
p152
F0.0070908394020700004
sS'Awwducational'
p153
F0.0108129132633
sS'Shitty_Car_Mods'
p154
F0.0075816413328900004
sS'shittyaskreddit'
p155
F0.0079944865609899995
sS'NeutralPolitics'
p156
F0.0075805432722700003
sS'ghettoglamourshots'
p157
F0.015525005925600001
sS'blunderyears'
p158
F0.0086107054735900003
sS'ThriftStoreHauls'
p159
F0.0081512879034899999
sS'webcomics'
p160
F0.0075720566683000002
sS'calvinandhobbes'
p161
F0.0078253706754499996
sS'rage'
p162
F0.0095983024082100001
sS'worldpolitics'
p163
F0.011577982536499999
sS'AMA'
p164
F0.0076957182670400002
sS'PerfectTiming'
p165
F0.0111506648518
sS'Glitch_in_the_Matrix'
p166
F0.0083356487913300008
sS'BritishTV'
p167
F0.0072001309114700001
sS'happy'
p168
F0.0081462865066299992
sS'history'
p169
F0.0071833346635800004
sS'fullmoviesonyoutube'
p170
F0.010170586019499999
sS'TalesFromThePizzaGuy'
p171
F0.0073264781490999997
sS'AskScienceFiction'
p172
F0.0086428834130200007
sS'NewsOfTheStupid'
p173
F0.078508341511299998
sS'crappymusic'
p174
F0.0085849615156899997
sS'awesome'
p175
F0.013781007266300001
sS'TrueAskReddit'
p176
F0.010237401817999999
sS'FanTheories'
p177
F0.0076363149198400001
sS'NoStupidQuestions'
p178
F0.0102299233589
sS'conspiracy'
p179
F0.0088260755015200001
sS'Infographics'
p180
F0.0104806649801
sS'AnythingGoesNews'
p181
F0.0252447192169
sS'bestofworldstar'
p182
F0.0079475461951100008
sS'Pizza'
p183
F0.0070057873895799996
sS'TalesFromYourServer'
p184
F0.0078598329785500003
sS'DAE'
p185
F0.011454595639
sS'techsupportmacgyver'
p186
F0.0083722741432999993
sS'eatsandwiches'
p187
F0.0073468420428999997
sS'preppers'
p188
F0.0082730093071400005
sS'softwaregore'
p189
F0.0072761784245499997
sS'Survival'
p190
F0.0099173553718999996
sS'shittyama'
p191
F0.0082472178060399998
sS'AskSocialScience'
p192
F0.0088001983143299999
sS'TheWayWeWere'
p193
F0.015131919296400001
sS'badtattoos'
p194
F0.013446439851999999
sS'scifi'
p195
F0.0093051445684300006
sS'slowcooking'
p196
F0.0073284080076299997
sS'UnresolvedMysteries'
p197
F0.0123186966024
sS'nottheonion'
p198
F0.0075845423076599996
sS'nonononoyes'
p199
F0.0092980181515100006
sS'Frugal_Jerk'
p200
F0.010992275698200001
sS'FutureWhatIf'
p201
F0.0087706033570200004
sS'economy'
p202
F0.0079753022896800006
sS'Anarchism'
p203
F0.0074741280184000003
sS'forwardsfromgrandma'
p204
F0.010121091632
sS'AnimalsBeingJerks'
p205
F0.0097320724980300005
sS'highdeas'
p206
F0.0080753701211300002
sS'Images'
p207
F0.010729118597100001
sS'dogpictures'
p208
F0.0076574722107900003
sS'law'
p209
F0.0072471270317800004
sS'whitepeoplegifs'
p210
F0.0113931641015
sS'catpictures'
p211
F0.0080735312383600003
sS'Thetruthishere'
p212
F0.010150722854499999
sS'MachinePorn'
p213
F0.0090828533451500007
sS'comicbookmovies'
p214
F0.0073573573573600002
sS'entertainment'
p215
F0.0097906602254399996
sS'HumanPorn'
p216
F0.0099457504520799999
sS'NSFWFunny'
p217
F0.0081228330856899997
sS'terriblefacebookmemes'
p218
F0.0086480569239200007
sS'HailCorporate'
p219
F0.0100289495451
sS'urbanexploration'
p220
F0.0098903251077199997
sS'self'
p221
F0.0082644628099199993
s.