(dp1
S'graffhelp'
p2
F0.0096867936712900001
sS'longboarding'
p3
F0.018511224891699998
sS'TeenMFA'
p4
F0.0094434398231900002
sS'OFWGKTA'
p5
F0.015376266280800001
sS'skateboarding'
p6
F0.073108529328399993
sS'snowboarding'
p7
F0.0078604426670299994
sS'supremeclothing'
p8
F0.0107873527588
sS'streetwear'
p9
F0.013637396772499999
s.