(dp1
S'AirForce'
p2
F0.0102214650767
sS'army'
p3
F0.0146286990508
sS'WarshipPorn'
p4
F0.012308998302199999
sS'Veterans'
p5
F0.0130434782609
sS'navy'
p6
F0.17393011385900001
sS'Military'
p7
F0.0207638951446
sS'USMC'
p8
F0.0143226919758
s.