(dp1
S'losangeleskings'
p2
F0.0107791225416
sS'CalgaryFlames'
p3
F0.0090425531914899993
sS'devils'
p4
F0.012768674186000001
sS'nhl'
p5
F0.0180923662911
sS'SanJoseSharks'
p6
F0.0092712775820499999
sS'Madden'
p7
F0.0080428954423600006
sS'leafs'
p8
F0.015171744143700001
sS'NBA2k'
p9
F0.0072106929300000001
sS'stlouisblues'
p10
F0.014304947829000001
sS'hawks'
p11
F0.013012452777399999
sS'Habs'
p12
F0.013620312762699999
sS'rangers'
p13
F0.0128511655708
sS'MaddenUltimateTeam'
p14
F0.0144563167819
sS'hockey'
p15
F0.014425674195900001
sS'EA_NHL'
p16
F0.13526215303299999
sS'DetroitRedWings'
p17
F0.0118131868132
sS'canucks'
p18
F0.0116337045039
sS'hockeyplayers'
p19
F0.019694039036400001
sS'ColoradoAvalanche'
p20
F0.0108904548366
sS'caps'
p21
F0.00954706927176
sS'Flyers'
p22
F0.011881510416700001
sS'wildhockey'
p23
F0.0090374106767500007
sS'BostonBruins'
p24
F0.0150597962498
sS'penguins'
p25
F0.0094389092815900001
sS'OttawaSenators'
p26
F0.0104712041885
s.