(dp1
S'Kappa'
p2
F0.0083636721440500002
sS'Destiny'
p3
F0.018974831993699998
sS'heroesofthestorm'
p4
F0.0136885124822
sS'wow'
p5
F0.0070135469719399997
sS'diablo3'
p6
F0.0089648825956599992
sS'StarcraftCirclejerk'
p7
F0.0070294784580500003
sS'Cynicalbrit'
p8
F0.0098630355788000001
sS'Diablo'
p9
F0.0143392991105
sS'hearthstone'
p10
F0.0160323998345
sS'pathofexile'
p11
F0.0241359335779
sS'Twitch'
p12
F0.0157140485808
sS'speedrun'
p13
F0.0117002738362
sS'HeroesofNewerth'
p14
F0.0087303936075799997
sS'starcraft'
p15
F0.0099723394962900006
s.