(dp1
S'awwwtf'
p2
F0.0118760258762
sS'Heavymind'
p3
F0.0113038225904
sS'MapPorn'
p4
F0.0106984059181
sS'HalfLife'
p5
F0.00765394874174
sS'pettyrevenge'
p6
F0.010719545189900001
sS'malehairadvice'
p7
F0.0072947296991599997
sS'CityPorn'
p8
F0.0095655393729899996
sS'PanicHistory'
p9
F0.017209995035600001
sS'fffffffuuuuuuuuuuuu'
p10
F0.0077968072734999998
sS'uglyduckling'
p11
F0.0094155844155800004
sS'rickandmorty'
p12
F0.0087965562418099996
sS'dadjokes'
p13
F0.0133697850348
sS'Hiphopcirclejerk'
p14
F0.0107154112827
sS'SampleSize'
p15
F0.0076219512195099997
sS'perfectloops'
p16
F0.018463148452700001
sS'everymanshouldknow'
p17
F0.0087279074841799999
sS'dataisbeautiful'
p18
F0.0101628397376
sS'InternetIsBeautiful'
p19
F0.0104961087977
sS'ShitAmericansSay'
p20
F0.0145019717593
sS'Foodforthought'
p21
F0.0083682008368199997
sS'TalesFromRetail'
p22
F0.0088286339512499996
sS'TrueReddit'
p23
F0.0097434152978899992
sS'TheoryOfReddit'
p24
F0.022758780037
sS'badlinguistics'
p25
F0.010872894333800001
sS'WouldYouRather'
p26
F0.0103009165382
sS'quityourbullshit'
p27
F0.034697582308799997
sS'DoesAnybodyElse'
p28
F0.0074667215942700003
sS'LearnUselessTalents'
p29
F0.012654432049899999
sS'ProtectAndServe'
p30
F0.0071803852889699999
sS'MachinePorn'
p31
F0.0076313755796000001
sS'HistoryPorn'
p32
F0.0109996907717
sS'shittybattlestations'
p33
F0.013330534271
sS'whowouldwin'
p34
F0.0093932470170099997
sS'GrandTheftAutoV'
p35
F0.0084969516585899994
sS'Fallout'
p36
F0.0076554563181599998
sS'ImaginaryMonsters'
p37
F0.010562685093799999
sS'seinfeld'
p38
F0.0083408702643000005
sS'PublicFreakout'
p39
F0.0145912948533
sS'MensRights'
p40
F0.0090584947480000007
sS'nononono'
p41
F0.018438015290100002
sS'MilitaryPorn'
p42
F0.0081989614648800002
sS'Frisson'
p43
F0.0141083904226
sS'arresteddevelopment'
p44
F0.0076700320889100003
sS'childfree'
p45
F0.0083220108695700006
sS'AskScienceFiction'
p46
F0.00873907615481
sS'moviescirclejerk'
p47
F0.0110721535339
sS'whitepeoplegifs'
p48
F0.0172490441896
sS'JusticePorn'
p49
F0.0106569425599
sS'UpliftingNews'
p50
F0.0076759286033499996
sS'softwaregore'
p51
F0.019598649662399999
sS'PandR'
p52
F0.0084125027195600006
sS'patientgamers'
p53
F0.010656727387300001
sS'geek'
p54
F0.0080939312884300008
sS'spaceporn'
p55
F0.0103469263542
sS'tipofmytongue'
p56
F0.0086930369776300007
sS'NoStupidQuestions'
p57
F0.015275014440700001
sS'3amjokes'
p58
F0.0109074553019
sS'toosoon'
p59
F0.018941143860299998
sS'magicskyfairy'
p60
F0.024768772534900001
sS'Conservative'
p61
F0.0080952380952399993
sS'Steam'
p62
F0.0074201921639500002
sS'PrettyGirlsUglyFaces'
p63
F0.0087905718701700008
sS'freebies'
p64
F0.0082306195264400007
sS'Braveryjerk'
p65
F0.018947100712099998
sS'photoshopbattles'
p66
F0.0103189621139
sS'AbandonedPorn'
p67
F0.010836647571799999
sS'Frugal_Jerk'
p68
F0.0222641509434
sS'creepyPMs'
p69
F0.0121019976819
sS'IdiotsFightingThings'
p70
F0.017287573360599998
sS'WatchItForThePlot'
p71
F0.0123897014384
sS'Celebs'
p72
F0.0082023949608899995
sS'techsupportgore'
p73
F0.0131306420728
sS'woahdude'
p74
F0.0096110040301399993
sS'PropagandaPosters'
p75
F0.0127651020203
sS'vexillology'
p76
F0.013376633418399999
sS'NewsOfTheWeird'
p77
F0.0070293828201899999
sS'shittyadviceanimals'
p78
F0.016629135631400001
sS'futurama'
p79
F0.0103359173127
sS'montageparodies'
p80
F0.013508477734300001
sS'Cyberpunk'
p81
F0.0078604765413900005
sS'minimalism'
p82
F0.0089181853431600008
sS'DeepIntoYouTube'
p83
F0.0216783216783
sS'ArcherFX'
p84
F0.0092592592592599995
sS'cringe'
p85
F0.0133111480865
sS'mildlyinteresting'
p86
F0.0071860692965799999
sS'pcgaming'
p87
F0.0078357136010700004
sS'whatisthisthing'
p88
F0.0099992974732500007
sS'shittyreactiongifs'
p89
F0.0244276271674
sS'NetflixBestOf'
p90
F0.0087648715443400006
sS'gentlemanboners'
p91
F0.0084908987331499992
sS'TheSimpsons'
p92
F0.0112163991491
sS'TalesFromYourServer'
p93
F0.0072415576738299996
sS'ShouldIbuythisgame'
p94
F0.0080710250201800008
sS'watchpeopledie'
p95
F0.0126798561151
sS'tumblr'
p96
F0.010913481632800001
sS'interestingasfuck'
p97
F0.012763843201800001
sS'MarkMyWords'
p98
F0.0201640464798
sS'changemyview'
p99
F0.0095511944019899993
sS'fatpeoplestories'
p100
F0.0107419932365
sS'adventuretime'
p101
F0.0071965628356599996
sS'OneY'
p102
F0.0076172339919099996
sS'KarmaCourt'
p103
F0.015070422535200001
sS'Cinemagraphs'
p104
F0.0151486639067
sS'firstworldanarchists'
p105
F0.018199155428400001
sS'offbeat'
p106
F0.0124210067553
sS'humor'
p107
F0.00978511128166
sS'truegaming'
p108
F0.0101636093208
sS'Glitch_in_the_Matrix'
p109
F0.0093046969600400001
sS'skeptic'
p110
F0.010199512413600001
sS'shittyfoodporn'
p111
F0.016928254856899999
sS'wikipedia'
p112
F0.0103196576894
sS'ExpectationVsReality'
p113
F0.0181790637782
sS'breakingbad'
p114
F0.0103213417744
sS'firstworldproblems'
p115
F0.0116626236238
sS'outside'
p116
F0.0164442912707
sS'GuessTheMovie'
p117
F0.0079773275952600003
sS'RoomPorn'
p118
F0.0097521741316000006
sS'foodhacks'
p119
F0.0080447116605999996
sS'lifehacks'
p120
F0.0096167411239100001
sS'tf2'
p121
F0.0076896903708700004
sS'SCP'
p122
F0.010115783059100001
sS'CatsStandingUp'
p123
F0.0122406639004
sS'Enhancement'
p124
F0.0129198966408
sS'europe'
p125
F0.007655818422
sS'TheWayWeWere'
p126
F0.011359876475100001
sS'blackpeoplegifs'
p127
F0.0144458281445
sS'bestof'
p128
F0.0117898588712
sS'ProgrammerHumor'
p129
F0.0091608647856400004
sS'needamod'
p130
F0.0100105374078
sS'casualiama'
p131
F0.0101489485981
sS'FloridaMan'
p132
F0.0179224806202
sS'delusionalartists'
p133
F0.027707962974300001
sS'answers'
p134
F0.010719302136500001
sS'promos'
p135
F0.0076232920893700004
sS'JonTron'
p136
F0.0094112935522599993
sS'NotTimAndEric'
p137
F0.0193853427896
sS'shittyaskscience'
p138
F0.013518253689899999
sS'GamePhysics'
p139
F0.0176539819537
sS'wallpaper'
p140
F0.0083168995970200003
sS'lewronggeneration'
p141
F0.036464290616300001
sS'youtubehaiku'
p142
F0.018931555146799998
sS'ThriftStoreHauls'
p143
F0.0072847682119200003
sS'RedditDayOf'
p144
F0.0127361036158
sS'TheBluePill'
p145
F0.012651947407600001
sS'Roadcam'
p146
F0.0104300091491
sS'cripplingalcoholism'
p147
F0.0074384494499700003
sS'4chan'
p148
F0.0131223772258
sS'howtonotgiveafuck'
p149
F0.0071870397643599999
sS'sixwordstories'
p150
F0.0113350125945
sS'AnimalsBeingBros'
p151
F0.0137682128058
sS'classic4chan'
p152
F0.019702197203599999
sS'whatstheword'
p153
F0.0089519650655000005
sS'OutOfTheLoop'
p154
F0.020655155720500001
sS'androidcirclejerk'
p155
F0.010632183908
sS'whatsthisbug'
p156
F0.0075294355450000001
sS'QuotesPorn'
p157
F0.0100610851599
sS'circlebroke2'
p158
F0.025355490834299999
sS'misc'
p159
F0.0135691785801
sS'drunk'
p160
F0.0088814294206099997
sS'confession'
p161
F0.0073718159678800004
sS'reactiongifs'
p162
F0.010028981086
sS'AntiJokes'
p163
F0.0123130151623
sS'community'
p164
F0.0076178919337999999
sS'KingOfTheHill'
p165
F0.0107566312187
sS'rant'
p166
F0.0106983404936
sS'conspiratard'
p167
F0.023566239442400001
sS'marijuanaenthusiasts'
p168
F0.012281590276000001
sS'TrollXChromosomes'
p169
F0.0078274215552499998
sS'holdmybeer'
p170
F0.014741501712199999
sS'TrueAtheism'
p171
F0.0082337155403800003
sS'ContagiousLaughter'
p172
F0.0135118832187
sS'nostalgia'
p173
F0.0102878406479
sS'badhistory'
p174
F0.019815510761899999
sS'Damnthatsinteresting'
p175
F0.0148239654107
sS'FiftyFifty'
p176
F0.0130736608952
sS'CrazyIdeas'
p177
F0.016945894865000002
sS'AskHistorians'
p178
F0.0074901229148399999
sS'lego'
p179
F0.0070942226933600003
sS'Bad_Cop_No_Donut'
p180
F0.0097211446305500004
sS'ANormalDayInRussia'
p181
F0.0169828750089
sS'Whatcouldgowrong'
p182
F0.016214977367800001
sS'onetruegod'
p183
F0.0118393635158
sS'TheFacebookDelusion'
p184
F0.0094815170427300002
sS'urbanexploration'
p185
F0.0098958333333300005
sS'MorbidReality'
p186
F0.0144519380419
sS'gif'
p187
F0.0086485813837700008
sS'SubredditDrama'
p188
F0.023612187704999999
sS'wheredidthesodago'
p189
F0.022507021083000001
sS'PenmanshipPorn'
p190
F0.0106942697015
sS'ifyoulikeblank'
p191
F0.0074658833608700001
sS'alternativeart'
p192
F0.0092766557069000003
sS'shittyadvice'
p193
F0.012032085561500001
sS'MeanJokes'
p194
F0.0084607875040700001
sS'fifthworldproblems'
p195
F0.0117457392906
sS'Pareidolia'
p196
F0.018727890684599999
sS'GTA'
p197
F0.0073701240337899999
sS'happy'
p198
F0.0089570838850400007
sS'CombatFootage'
p199
F0.0092419052543100001
sS'fatlogic'
p200
F0.0145694985116
sS'TrollYChromosome'
p201
F0.010976487524
sS'explainlikeIAmA'
p202
F0.016382480775699999
sS'firstimpression'
p203
F0.0090487238979099997
sS'Unexpected'
p204
F0.016322379499499998
sS'gamegrumps'
p205
F0.0072953545756900004
sS'WebGames'
p206
F0.0109147609148
sS'snackexchange'
p207
F0.0079320113314399997
sS'mildlyinfuriating'
p208
F0.016536510998399999
sS'ftlgame'
p209
F0.0070528568032299996
sS'somethingimade'
p210
F0.0070644902328100001
sS'TopGear'
p211
F0.0070542873417199998
sS'HipHopImages'
p212
F0.00857480780603
sS'Awwducational'
p213
F0.0144568067465
sS'Shitty_Car_Mods'
p214
F0.011401055128700001
sS'shittyaskreddit'
p215
F0.0132613543011
sS'polandball'
p216
F0.013797357400299999
sS'IASIP'
p217
F0.0100197842874
sS'ghettoglamourshots'
p218
F0.0133196721311
sS'blunderyears'
p219
F0.0183144942052
sS'webcomics'
p220
F0.0076858285954899998
sS'GunsAreCool'
p221
F0.0094456488076800002
sS'againstmensrights'
p222
F0.0087059170724499996
sS'rage'
p223
F0.018740503123400001
sS'comics'
p224
F0.0136710470538
sS'Justrolledintotheshop'
p225
F0.0080180053453399996
sS'Perfectfit'
p226
F0.018577543028899999
sS'PerfectTiming'
p227
F0.016351457840799999
sS'behindthegifs'
p228
F0.023441996755799999
sS'standupshots'
p229
F0.0155788655789
sS'ShitPoliticsSays'
p230
F0.00713110257817
sS'civ'
p231
F0.0071948011759199997
sS'skyrim'
p232
F0.0071330453635199999
sS'findareddit'
p233
F0.014202106906
sS'ObscureMedia'
p234
F0.0096530133055000005
sS'fullmoviesonyoutube'
p235
F0.0131094640246
sS'TalesFromThePizzaGuy'
p236
F0.0084792423741899998
sS'gamernews'
p237
F0.0076830863121200004
sS'NewsOfTheStupid'
p238
F0.0098239346772099993
sS'FoodPorn'
p239
F0.0076666666666700004
sS'badphilosophy'
p240
F0.0087237934430800003
sS'awesome'
p241
F0.0101953208843
sS'teenagers'
p242
F0.0079027571053900004
sS'TrueAskReddit'
p243
F0.011647254575700001
sS'FanTheories'
p244
F0.011604760493000001
sS'oddlysatisfying'
p245
F0.015479200392899999
sS'crappymusic'
p246
F0.0123195619711
sS'conspiracy'
p247
F0.0087416440167500005
sS'YMS'
p248
F0.0093176605504600007
sS'Infographics'
p249
F0.0080988474717100002
sS'YouShouldKnow'
p250
F0.010685325305800001
sS'counting'
p251
F0.0112802148612
sS'ShitRedditSays'
p252
F0.012956219832299999
sS'southpark'
p253
F0.0111525550168
sS'SRSsucks'
p254
F0.017949987620699999
sS'HouseOfCards'
p255
F0.0089099176600700002
sS'asmr'
p256
F0.00880272182319
sS'ForeverAlone'
p257
F0.0077737568690500001
sS'misleadingthumbnails'
p258
F0.030213488956200001
sS'eatsandwiches'
p259
F0.0076946752847000003
sS'HighQualityGifs'
p260
F0.015702284682400001
sS'bestofworldstar'
p261
F0.0089749230092400004
sS'self'
p262
F0.010666112068499999
sS'shittyama'
p263
F0.0129847186644
sS'circlebroke'
p264
F0.034886703719499999
sS'ImaginaryLandscapes'
p265
F0.0094565217391299992
sS'gats'
p266
F0.0083555555555599997
sS'calvinandhobbes'
p267
F0.0089001907183699994
sS'badtattoos'
p268
F0.0122590531494
sS'popping'
p269
F0.0076389212352699996
sS'britishproblems'
p270
F0.0077163712200200001
sS'UnresolvedMysteries'
p271
F0.0078802206461800004
sS'nottheonion'
p272
F0.010150468777900001
sS'itookapicture'
p273
F0.0112828059848
sS'nonononoyes'
p274
F0.015932287776899999
sS'Pizza'
p275
F0.0076205845436600004
sS'FutureWhatIf'
p276
F0.0073103100579799997
sS'wallpapers'
p277
F0.0084156485573200004
sS'talesfromtechsupport'
p278
F0.0079195006056100008
sS'ArtisanVideos'
p279
F0.0084179252290200006
sS'notinteresting'
p280
F0.025013594344800001
sS'facepalm'
p281
F0.012901518409500001
sS'forwardsfromgrandma'
p282
F0.0284284739595
sS'AnimalsBeingJerks'
p283
F0.0138831408255
sS'CrappyDesign'
p284
F0.021387201582100002
sS'techsupportmacgyver'
p285
F0.011343955663299999
sS'Images'
p286
F0.0072934359076799998
sS'MURICA'
p287
F0.0121351802639
sS'Games'
p288
F0.0084039626631900004
sS'EnoughLibertarianSpam'
p289
F0.011511701454800001
sS'gamemusic'
p290
F0.00725088046406
sS'Gaming4Gamers'
p291
F0.011252446184
sS'DunderMifflin'
p292
F0.0082134216223100007
sS'glitch_art'
p293
F0.0123617436565
sS'DAE'
p294
F0.0082760228464900006
sS'short'
p295
F0.0074462506554799999
sS'cosplaygirls'
p296
F0.0081267217630900009
sS'ConfusedBoners'
p297
F0.0111564896902
sS'TrueFilm'
p298
F0.0078861649237100002
sS'entertainment'
p299
F0.00710984713829
sS'youtube'
p300
F0.0098765432098800003
sS'HumanPorn'
p301
F0.014048619241099999
sS'NSFWFunny'
p302
F0.0074476474196100003
sS'terriblefacebookmemes'
p303
F0.028607693809800001
sS'PrettyGirls'
p304
F0.0081893313298299995
sS'TumblrInAction'
p305
F0.015182053765399999
sS'thatHappened'
p306
F0.0254925923544
sS'cringepics'
p307
F0.0114069467024
sS'tall'
p308
F0.0076822576430599998
sS'HailCorporate'
p309
F0.024859070326200002
sS'ImGoingToHellForThis'
p310
F0.0099275556748100006
sS'shutupandtakemymoney'
p311
F0.00847290640394
sS'GifSound'
p312
F0.0078943485318000006
s.