(dp1
S'Charlotte'
p2
F0.046478198370899997
sS'NeutralPolitics'
p3
F0.0078088396064299997
sS'triangle'
p4
F0.098525844373999999
sS'progressive'
p5
F0.0097702667018699993
sS'florida'
p6
F0.0085079565148899992
sS'PoliticalDiscussion'
p7
F0.0092060635426000001
sS'inthenews'
p8
F0.0090304182509500005
sS'Conservative'
p9
F0.00822622107969
sS'environment'
p10
F0.0072992700729900004
sS'Liberal'
p11
F0.0078839482813000007
sS'asheville'
p12
F0.036101836393999998
sS'weather'
p13
F0.0071072130651699999
sS'raleigh'
p14
F0.092291738679599999
sS'lostgeneration'
p15
F0.0078426782160799999
sS'AnythingGoesNews'
p16
F0.0085113484646200006
sS'panthers'
p17
F0.0338959791409
sS'education'
p18
F0.0076699593259699998
sS'CollegeBasketball'
p19
F0.0079751883030600001
s.