(dp1
S'europe'
p2
F0.0080107235183400002
sS'AskUK'
p3
F0.0097613882863300007
sS'ireland'
p4
F0.048191956742100001
sS'Scotland'
p5
F0.019528371407500002
sS'glasgow'
p6
F0.0094339622641499993
sS'BritishTV'
p7
F0.0127118644068
sS'britishproblems'
p8
F0.0103605625374
sS'ukpolitics'
p9
F0.015910663108999998
sS'reddevils'
p10
F0.00850443445511
sS'rugbyunion'
p11
F0.013741277509399999
sS'vexillology'
p12
F0.0079717365703399993
sS'TheRedLion'
p13
F0.0072354537232400002
sS'unitedkingdom'
p14
F0.0159833430295
s.