(dp1
S'europe'
p2
F0.0139130434783
sS'linguistics'
p3
F0.0071371927042000001
sS'languagelearning'
p4
F0.0081746238803399995
sS'asatru'
p5
F0.0078160919540200009
sS'Iceland'
p6
F0.014995787700100001
sS'Finland'
p7
F0.011381272633200001
sS'PropagandaPosters'
p8
F0.0078107810781100004
sS'IWantOut'
p9
F0.0093610443146700008
sS'norge'
p10
F0.144927536232
sS'sweden'
p11
F0.0111862384409
sS'Denmark'
p12
F0.0107979699816
sS'polandball'
p13
F0.0070764119601300001
sS'vexillology'
p14
F0.0081872312272600004
s.