(dp1
S'uglyduckling'
p2
F0.0074577758280300003
sS'KitchenConfidential'
p3
F0.0071108002564600004
sS'BuyItForLife'
p4
F0.0094860870722899993
sS'everymanshouldknow'
p5
F0.013475221963399999
sS'wiiu'
p6
F0.0088698904622000006
sS'IndieGaming'
p7
F0.010166674812999999
sS'RandomActsOfGaming'
p8
F0.0075625554861400001
sS'JoeRogan'
p9
F0.0093905246576999994
sS'Showerthoughts'
p10
F0.0092055458222499997
sS'HistoryPorn'
p11
F0.016186468112700001
sS'holdmybeer'
p12
F0.020588548507299999
sS'ImaginaryMonsters'
p13
F0.0114301452868
sS'seinfeld'
p14
F0.0126529185599
sS'YouShouldKnow'
p15
F0.0146905022498
sS'moviescirclejerk'
p16
F0.0075073551790599997
sS'horror'
p17
F0.012643378519300001
sS'UpliftingNews'
p18
F0.0088898321071499992
sS'PandR'
p19
F0.0125765348337
sS'synthesizers'
p20
F0.010761979575799999
sS'3amjokes'
p21
F0.013343384847300001
sS'magicskyfairy'
p22
F0.0151501154734
sS'Steam'
p23
F0.0094028182764099993
sS'photoshopbattles'
p24
F0.014887825267999999
sS'IWantToLearn'
p25
F0.0088856577406199993
sS'Celebs'
p26
F0.0073489711440399997
sS'PoliticalDiscussion'
p27
F0.0075516693163799999
sS'CrappyDesign'
p28
F0.030898519816199999
sS'NewsOfTheWeird'
p29
F0.0075468424705099997
sS'Cyberpunk'
p30
F0.016219375578399999
sS'Libertarian'
p31
F0.0092024539877299995
sS'Anarcho_Capitalism'
p32
F0.0071248423707399996
sS'spiders'
p33
F0.00722619994696
sS'pcgaming'
p34
F0.0108669665949
sS'EatCheapAndHealthy'
p35
F0.0085531260065100003
sS'gentlemanboners'
p36
F0.0096041909196700002
sS'fatpeoplestories'
p37
F0.011347189254899999
sS'forwardsfromgrandma'
p38
F0.030682701541000001
sS'no_sob_story'
p39
F0.0193853427896
sS'Glitch_in_the_Matrix'
p40
F0.0110125573052
sS'skeptic'
p41
F0.0142991764658
sS'socialskills'
p42
F0.0093380369371200006
sS'Anticonsumption'
p43
F0.0074595236076999997
sS'GuessTheMovie'
p44
F0.0073102558589600002
sS'worldnews'
p45
F0.00719069918215
sS'vexillology'
p46
F0.0133317943095
sS'tattoos'
p47
F0.0071961825598399996
sS'Economics'
p48
F0.0075805906856299997
sS'LetsNotMeet'
p49
F0.0074994248907300004
sS'answers'
p50
F0.010989010989
sS'ainbow'
p51
F0.00801919555471
sS'TopGear'
p52
F0.0077132153089
sS'ThriftStoreHauls'
p53
F0.013690210102800001
sS'creepy'
p54
F0.0107299324274
sS'cripplingalcoholism'
p55
F0.00889271371199
sS'progmetal'
p56
F0.0092042076377799997
sS'HalfLife'
p57
F0.0096035648432699992
sS'QuotesPorn'
p58
F0.011716989634999999
sS'TrueReddit'
p59
F0.013548045997299999
sS'todayilearned'
p60
F0.0073930915030400004
sS'AmIFreeToGo'
p61
F0.0085975705947300002
sS'AntiJokes'
p62
F0.011093947479300001
sS'KingOfTheHill'
p63
F0.015892030027200001
sS'IdiotsFightingThings'
p64
F0.023275645849
sS'gamernews'
p65
F0.0133374552842
sS'ContagiousLaughter'
p66
F0.030097416759599999
sS'graphic_design'
p67
F0.0092235961889300007
sS'FiftyFifty'
p68
F0.0155883136059
sS'eldertrees'
p69
F0.0075222099734100004
sS'AskHistorians'
p70
F0.0087712850667600005
sS'Drugs'
p71
F0.0096713563621100007
sS'OutOfTheLoop'
p72
F0.019713299152499999
sS'ifyoulikeblank'
p73
F0.0178606190383
sS'firstimpression'
p74
F0.0072526333966499998
sS'WebGames'
p75
F0.011417816813
sS'musictheory'
p76
F0.0080079370703699995
sS'Pareidolia'
p77
F0.020910012268599999
sS'Filmmakers'
p78
F0.011951684678999999
sS'cordcutters'
p79
F0.0087197457419899999
sS'LifeProTips'
p80
F0.0082544927650299998
sS'Shitty_Car_Mods'
p81
F0.016251654406100002
sS'UFOs'
p82
F0.0094327263199299998
sS'ghettoglamourshots'
p83
F0.019984353886600002
sS'EDC'
p84
F0.0070097837088099997
sS'showerbeer'
p85
F0.0088777446462499996
sS'techsupportgore'
p86
F0.0152062027939
sS'science'
p87
F0.0090102182922500006
sS'firstworldproblems'
p88
F0.0120024779309
sS'movies'
p89
F0.0087762162109599993
sS'standupshots'
p90
F0.016682729055200001
sS'history'
p91
F0.0084130726205299995
sS'TalesFromThePizzaGuy'
p92
F0.0070292267850500002
sS'AskScienceFiction'
p93
F0.0084384357136400006
sS'NewsOfTheStupid'
p94
F0.010128236543299999
sS'audiophile'
p95
F0.0081593472522199992
sS'awesome'
p96
F0.0102739726027
sS'gadgets'
p97
F0.0070888836955699999
sS'Infographics'
p98
F0.0089775561097300005
sS'BasicIncome'
p99
F0.0080084299262400006
sS'counting'
p100
F0.0072917999232399999
sS'SRSsucks'
p101
F0.0113300885662
sS'HouseOfCards'
p102
F0.0097730901349799993
sS'asmr'
p103
F0.018044186251199999
sS'techsupportmacgyver'
p104
F0.011094396389599999
sS'MURICA'
p105
F0.0130554429678
sS'technology'
p106
F0.0087374521841899998
sS'scifi'
p107
F0.0091789299144299993
sS'spaceporn'
p108
F0.013235789575
sS'nyc'
p109
F0.010024627978800001
sS'Pizza'
p110
F0.0118003611039
sS'wallpapers'
p111
F0.0111696822909
sS'polandball'
p112
F0.0105931003229
sS'gaming'
p113
F0.0071375006935299997
sS'highdeas'
p114
F0.0077307134804299998
sS'wallpaper'
p115
F0.0085852930197799996
sS'MachinePorn'
p116
F0.0086750254151099996
sS'oculus'
p117
F0.0092190566823299996
sS'futurebeats'
p118
F0.020151588065399999
sS'FanTheories'
p119
F0.014790144678399999
sS'listentothis'
p120
F0.0160630429087
sS'tall'
p121
F0.0084554918206899993
sS'streetwear'
p122
F0.0076108870967700002
sS'ImGoingToHellForThis'
p123
F0.0123667377399
sS'DoesAnybodyElse'
p124
F0.0108083033747
sS'pettyrevenge'
p125
F0.011646263366399999
sS'malehairadvice'
p126
F0.0092470876206900005
sS'CityPorn'
p127
F0.0130458063574
sS'DeepIntoYouTube'
p128
F0.089125588308099996
sS'dataisbeautiful'
p129
F0.0114597394011
sS'japan'
p130
F0.0070206664688999996
sS'linguistics'
p131
F0.0082467532467499997
sS'beards'
p132
F0.0089722675366999995
sS'nostalgia'
p133
F0.0173756171667
sS'Documentaries'
p134
F0.0125254483762
sS'writing'
p135
F0.0072626173792199999
sS'StonerEngineering'
p136
F0.0078029883785300002
sS'Bioshock'
p137
F0.0092641146652699992
sS'WTF'
p138
F0.0075463457649899996
sS'MensRights'
p139
F0.0094002420421600008
sS'MilitaryPorn'
p140
F0.0073507123370700001
sS'Frisson'
p141
F0.020941857405899999
sS'electronicmusic'
p142
F0.013527970459299999
sS'childfree'
p143
F0.0079426006850099994
sS'food'
p144
F0.0073247187761400004
sS'whitepeoplegifs'
p145
F0.026215535610499999
sS'NoStupidQuestions'
p146
F0.014362404789300001
sS'Braveryjerk'
p147
F0.019048397645499999
sS'creepyPMs'
p148
F0.0150740322293
sS'WatchItForThePlot'
p149
F0.0126564141752
sS'freebies'
p150
F0.013096060815500001
sS'PropagandaPosters'
p151
F0.016228315612799998
sS'mashups'
p152
F0.0118959107807
sS'shittyadviceanimals'
p153
F0.014049911574
sS'trap'
p154
F0.010657494079200001
sS'minimalism'
p155
F0.014302871492500001
sS'mildlyinteresting'
p156
F0.010268653281900001
sS'TrueAtheism'
p157
F0.0095746728252499996
sS'badhistory'
p158
F0.014481990345300001
sS'MST3K'
p159
F0.0102618542109
sS'dubstep'
p160
F0.0075452061922699999
sS'Cinemagraphs'
p161
F0.018238909673999999
sS'DunderMifflin'
p162
F0.0124769177023
sS'psychology'
p163
F0.0073296684990799997
sS'space'
p164
F0.0095412904719400001
sS'shittyfoodporn'
p165
F0.023442987590700001
sS'malefashionadvice'
p166
F0.0084509956038299992
sS'LearnUselessTalents'
p167
F0.018618417911900002
sS'RoomPorn'
p168
F0.013212766835999999
sS'Astronomy'
p169
F0.0074574922939199999
sS'CatsStandingUp'
p170
F0.0087314545325500002
sS'LetsTalkMusic'
p171
F0.0152368573079
sS'bestof'
p172
F0.012707318273500001
sS'Metal'
p173
F0.0110358426359
sS'vinyl'
p174
F0.016126720183500001
sS'Roadcam'
p175
F0.011026293469
sS'GamePhysics'
p176
F0.030106530801300001
sS'youtubehaiku'
p177
F0.053131573590299998
sS'PoliticalHumor'
p178
F0.0077474892396000002
sS'headphones'
p179
F0.0072045106501499997
sS'punk'
p180
F0.013163695912300001
sS'howtonotgiveafuck'
p181
F0.0105041031653
sS'whatstheword'
p182
F0.0079493596349199998
sS'classicalmusic'
p183
F0.0088222853344600005
sS'misc'
p184
F0.0091324200913200006
sS'patientgamers'
p185
F0.013467869511299999
sS'rant'
p186
F0.0073484384568299997
sS'conspiratard'
p187
F0.024215921380500001
sS'tf2'
p188
F0.0099599123858299995
sS'OldSchoolCool'
p189
F0.0112713251994
sS'lego'
p190
F0.0093830067169899996
sS'ANormalDayInRussia'
p191
F0.020670147954699999
sS'onetruegod'
p192
F0.0179580306699
sS'TheFacebookDelusion'
p193
F0.0091793503844299993
sS'Autos'
p194
F0.0071072368162699998
sS'PenmanshipPorn'
p195
F0.011243658302500001
sS'shittyreactiongifs'
p196
F0.026499491697699998
sS'alternativeart'
p197
F0.0106902161283
sS'shittyadvice'
p198
F0.0121662291093
sS'ObscureMedia'
p199
F0.030077728962500001
sS'CombatFootage'
p200
F0.0122061938868
sS'GTA'
p201
F0.0094108547118700002
sS'TrollYChromosome'
p202
F0.0091408544094000004
sS'makinghiphop'
p203
F0.0078930202217900002
sS'GODZILLA'
p204
F0.0078773385848900004
sS'3DS'
p205
F0.0085491634196700004
sS'mildlyinfuriating'
p206
F0.018889683663499999
sS'madmen'
p207
F0.0085031962368799993
sS'indieheads'
p208
F0.012940161556
sS'Psychonaut'
p209
F0.0121614844534
sS'skyrim'
p210
F0.0095691560900999992
sS'television'
p211
F0.0089534843862500001
sS'worldpolitics'
p212
F0.0098942598187299995
sS'typography'
p213
F0.00776887594076
sS'nononono'
p214
F0.029047362532599999
sS'KerbalSpaceProgram'
p215
F0.0077820025348499999
sS'FoodPorn'
p216
F0.010477651277799999
sS'crappymusic'
p217
F0.041797715610000001
sS'teenagers'
p218
F0.0074572930354800003
sS'conspiracy'
p219
F0.012067084810499999
sS'HighQualityGifs'
p220
F0.015712616822400001
sS'self'
p221
F0.012848529527900001
sS'animation'
p222
F0.0078955135773299996
sS'slowcooking'
p223
F0.0075074408067199996
sS'UnresolvedMysteries'
p224
F0.0092943854324699995
sS'nonononoyes'
p225
F0.020459251475700001
sS'MovieSuggestions'
p226
F0.00886430285257
sS'badphilosophy'
p227
F0.0091177492184799994
sS'edmproduction'
p228
F0.0094074929856400001
sS'Futurology'
p229
F0.0105510115125
sS'Games'
p230
F0.012283136710600001
sS'EnoughLibertarianSpam'
p231
F0.0089973251195599995
sS'Gaming4Gamers'
p232
F0.0097052480230099998
sS'Minecraft'
p233
F0.0073105119411899996
sS'chicago'
p234
F0.0074205301333699998
sS'TumblrInAction'
p235
F0.0188697996248
sS'HailCorporate'
p236
F0.019548674888500001
sS'Heavymind'
p237
F0.021152996148300001
sS'Awwducational'
p238
F0.012298397971800001
sS'Justrolledintotheshop'
p239
F0.010409611959800001
sS'adventuretime'
p240
F0.014572629612300001
sS'PanicHistory'
p241
F0.0081803481403999994
sS'LucidDreaming'
p242
F0.0078136098877700007
sS'fffffffuuuuuuuuuuuu'
p243
F0.0080248082567900003
sS'Hiphopcirclejerk'
p244
F0.0113551749814
sS'Foodforthought'
p245
F0.0120302246968
sS'Bass'
p246
F0.0090366394654700002
sS'TheoryOfReddit'
p247
F0.0104040097205
sS'TheBluePill'
p248
F0.0115708487308
sS'shittybattlestations'
p249
F0.012780011487699999
sS'whowouldwin'
p250
F0.0085474370221800006
sS'GrandTheftAutoV'
p251
F0.0116694243665
sS'beatles'
p252
F0.0083798882681599997
sS'arresteddevelopment'
p253
F0.016544441185100001
sS'shutupandtakemymoney'
p254
F0.0144903940085
sS'JusticePorn'
p255
F0.019283155083800001
sS'smashbros'
p256
F0.0089019559802399999
sS'geek'
p257
F0.010933252793700001
sS'lostgeneration'
p258
F0.0078174519332299998
sS'Conservative'
p259
F0.0075846798888199998
sS'PrettyGirlsUglyFaces'
p260
F0.011957334058000001
sS'AbandonedPorn'
p261
F0.0152175285723
sS'dadjokes'
p262
F0.015730264642399999
sS'WeAreTheMusicMakers'
p263
F0.0150450749239
sS'thatHappened'
p264
F0.024073022153400001
sS'GTAV'
p265
F0.0079328436516300001
sS'cringe'
p266
F0.033377655040699998
sS'StarWars'
p267
F0.0097094028802800006
sS'TheSimpsons'
p268
F0.0152072995038
sS'Christianity'
p269
F0.0072834542891499999
sS'see'
p270
F0.00958806818182
sS'glitch_art'
p271
F0.026580299307599999
sS'changemyview'
p272
F0.0112486355479
sS'skateboarding'
p273
F0.0096042314294999993
sS'PS3'
p274
F0.0097610368570299998
sS'Android'
p275
F0.0071504598673600003
sS'firstworldanarchists'
p276
F0.019152513462799999
sS'PerfectTiming'
p277
F0.017644911369799999
sS'truegaming'
p278
F0.0145395799677
sS'trapmuzik'
p279
F0.0075238095238099999
sS'lotr'
p280
F0.00755148741419
sS'wikipedia'
p281
F0.013705365374
sS'breakingbad'
p282
F0.0143674338167
sS'outside'
p283
F0.0172260051881
sS'foodhacks'
p284
F0.010877626699600001
sS'pcmasterrace'
p285
F0.0075017791933500002
sS'StandUpComedy'
p286
F0.015192931155
sS'PixelArt'
p287
F0.0097447795823699997
sS'casualiama'
p288
F0.0123427526539
sS'facepalm'
p289
F0.015364164708799999
sS'AnimalCrossing'
p290
F0.0076121604262799998
sS'gamingsuggestions'
p291
F0.0078078788595799999
sS'Unexpected'
p292
F0.021903512061
sS'RedditDayOf'
p293
F0.0135531135531
sS'watchpeopledie'
p294
F0.0140982743712
sS'guitarpedals'
p295
F0.0080000000000000002
sS'GetMotivated'
p296
F0.0081053569156400006
sS'drunk'
p297
F0.013418938656300001
sS'reactiongifs'
p298
F0.0148457967551
sS'community'
p299
F0.0126488972756
sS'Music'
p300
F0.0082111754205700001
sS'startrek'
p301
F0.0096997860883700007
sS'EarthPorn'
p302
F0.0073203511480899996
sS'Enhancement'
p303
F0.00819277108434
sS'Guitar'
p304
F0.0097513297267800003
sS'beer'
p305
F0.010136636302999999
sS'fatlogic'
p306
F0.013720557969400001
sS'hiphopheads'
p307
F0.0126830559667
sS'somethingimade'
p308
F0.0102461685408
sS'MapPorn'
p309
F0.013069903365199999
sS'shittyaskreddit'
p310
F0.0089437162683100001
sS'darksouls'
p311
F0.00877611103323
sS'Perfectfit'
p312
F0.0165778182291
sS'offbeat'
p313
F0.0209863588667
sS'softwaregore'
p314
F0.016179298455000001
sS'socialism'
p315
F0.0091449730700199992
sS'Cooking'
p316
F0.0079429006130599996
sS'YMS'
p317
F0.0137602540355
sS'IASIP'
p318
F0.019866217371599999
sS'gamecollecting'
p319
F0.0099856588941399996
sS'LosAngeles'
p320
F0.0075497084766000004
sS'ShitRedditSays'
p321
F0.0097194881889800001
sS'southpark'
p322
F0.0147252676591
sS'Jazz'
p323
F0.010437310080600001
sS'itookapicture'
p324
F0.0093710017635499996
sS'Whatcouldgowrong'
p325
F0.021622866501199999
sS'fifthworldproblems'
p326
F0.0165092528603
sS'talesfromtechsupport'
p327
F0.0077709265985299999
sS'Anarchism'
p328
F0.0084205312364599993
sS'notinteresting'
p329
F0.024004781035199999
sS'AnimalsBeingJerks'
p330
F0.016971110247400001
sS'TrueFilm'
p331
F0.014075695964999999
sS'HumanPorn'
p332
F0.0149782999894
sS'TimAndEric'
p333
F0.080292557466599995
sS'sixwordstories'
p334
F0.0079948316240000001
sS'Graffiti'
p335
F0.0077631478803599999
sS'GifSound'
p336
F0.014506553153399999
sS'awwwtf'
p337
F0.0129570585442
sS'whatsthisbug'
p338
F0.0099378881987600004
sS'PublicFreakout'
p339
F0.032601932888100003
sS'ArtisanVideos'
p340
F0.017910594239199999
sS'OFWGKTA'
p341
F0.0079149146673300006
sS'rickandmorty'
p342
F0.020558694287499998
sS'postrock'
p343
F0.00758200098896
sS'futurama'
p344
F0.0108746842488
sS'perfectloops'
p345
F0.0192264321155
sS'InternetIsBeautiful'
p346
F0.015933566125799999
sS'carporn'
p347
F0.0086390784982899992
sS'TalesFromRetail'
p348
F0.0091265258056499998
sS'WouldYouRather'
p349
F0.0084093755591299994
sS'quityourbullshit'
p350
F0.027308147220500002
sS'audioengineering'
p351
F0.0098379039657499993
sS'DaftPunk'
p352
F0.0096834513156100008
sS'woahdude'
p353
F0.017677068276500001
sS'Fallout'
p354
F0.0124620127244
sS'offmychest'
p355
F0.0075823524216799996
sS'confession'
p356
F0.0084850576696299997
sS'howto'
p357
F0.0083647695588000004
sS'cringepics'
p358
F0.018780519994699998
sS'toosoon'
p359
F0.017149615612099999
sS'thewalkingdead'
p360
F0.0085688514732399999
sS'gifs'
p361
F0.0077110068929599996
sS'Art'
p362
F0.0088818818975099998
sS'ConfusedBoners'
p363
F0.0118486696231
sS'4chan'
p364
F0.018672604822900001
sS'montageparodies'
p365
F0.023144827586200001
sS'ArcherFX'
p366
F0.0099792099792100006
sS'whatisthisthing'
p367
F0.014260439537
sS'MechanicalKeyboards'
p368
F0.0082162419623700005
sS'NetflixBestOf'
p369
F0.0166812316866
sS'circlebroke2'
p370
F0.0094786729857799998
sS'ShouldIbuythisgame'
p371
F0.0091395743569699997
sS'SubredditDrama'
p372
F0.0196818107266
sS'tumblr'
p373
F0.011027994139
sS'interestingasfuck'
p374
F0.018408741348399999
sS'MarkMyWords'
p375
F0.0189238486092
sS'mathrock'
p376
F0.0082184016625700008
sS'radiohead'
p377
F0.0099252013809000006
sS'Coffee'
p378
F0.0077111812127599998
sS'gameofthrones'
p379
F0.0082208236960499993
sS'humor'
p380
F0.0156046161565
sS'AMA'
p381
F0.0070454606338199999
sS'ExpectationVsReality'
p382
F0.0176875391003
sS'lifehacks'
p383
F0.013234413751799999
sS'SCP'
p384
F0.0087094220110799994
sS'metalgearsolid'
p385
F0.0081574940178399998
sS'starbound'
p386
F0.0077263550240700002
sS'blackpeoplegifs'
p387
F0.022384398380999999
sS'ProgrammerHumor'
p388
F0.0088427854774300006
sS'FloridaMan'
p389
F0.027072258318599999
sS'delusionalartists'
p390
F0.045739070432300001
sS'OkCupid'
p391
F0.0071187123637300002
sS'Frugal'
p392
F0.0090995182608000005
sS'promos'
p393
F0.0088778604907599999
sS'JonTron'
p394
F0.0186431174657
sS'drums'
p395
F0.0086173347417599997
sS'shittyaskscience'
p396
F0.015984330036499999
sS'lewronggeneration'
p397
F0.038106545134199997
sS'worldbuilding'
p398
F0.0078748425031500008
sS'calvinandhobbes'
p399
F0.0074452932798100002
sS'netflix'
p400
F0.011260869565199999
sS'wheredidthesodago'
p401
F0.031838458133300003
sS'AnimalsBeingBros'
p402
F0.0147925933588
sS'classic4chan'
p403
F0.021760375268700002
sS'GameDeals'
p404
F0.0098239939438799998
sS'battlestations'
p405
F0.0085827330830900005
sS'NSFWFunny'
p406
F0.0075168972269600001
sS'ShitAmericansSay'
p407
F0.0086031977923900008
sS'gamemusic'
p408
F0.0122822050843
sS'marijuanaenthusiasts'
p409
F0.0087527352297600003
sS'TrollXChromosomes'
p410
F0.0072271970837600001
sS'tifu'
p411
F0.00746252824304
sS'Damnthatsinteresting'
p412
F0.015686274509800001
sS'CrazyIdeas'
p413
F0.021964991530200002
sS'DnB'
p414
F0.0079236864374200005
sS'Bad_Cop_No_Donut'
p415
F0.0125733445096
sS'MorbidReality'
p416
F0.0185284640172
sS'gif'
p417
F0.0104650594161
sS'cats'
p418
F0.0076889988170799999
sS'introvert'
p419
F0.0083601684419099993
sS'Standup'
p420
F0.011427323677100001
sS'happy'
p421
F0.0071750954750600003
sS'explainlikeIAmA'
p422
F0.013916015625
sS'misleadingthumbnails'
p423
F0.024273466206399998
sS'batman'
p424
F0.0097607155681799992
sS'gamegrumps'
p425
F0.0138310436999
sS'trailerparkboys'
p426
F0.015212798068200001
sS'HipHopImages'
p427
F0.013177866703499999
sS'blunderyears'
p428
F0.029114984246000002
sS'Marvel'
p429
F0.0073813379843
sS'webcomics'
p430
F0.0097206221198199994
sS'rage'
p431
F0.0254326627427
sS'comics'
p432
F0.0162506840515
sS'behindthegifs'
p433
F0.024622343603300002
sS'civ'
p434
F0.0080628345033699998
sS'findareddit'
p435
F0.012005567799600001
sS'fullmoviesonyoutube'
p436
F0.022410130378599999
sS'Design'
p437
F0.011992395066499999
sS'videos'
p438
F0.0080431399514999998
sS'TrueAskReddit'
p439
F0.0100891600188
sS'tipofmytongue'
p440
F0.013068358608700001
sS'politics'
p441
F0.0092450014213999992
sS'bestofworldstar'
p442
F0.017838874680300001
sS'ForeverAlone'
p443
F0.0081208296694800005
sS'eatsandwiches'
p444
F0.0112646121148
sS'bicycling'
p445
F0.0070941911919599997
sS'shittyama'
p446
F0.012593817580500001
sS'circlebroke'
p447
F0.018581185011999998
sS'zelda'
p448
F0.0096641535298099997
sS'ImaginaryLandscapes'
p449
F0.010369171937
sS'TheWayWeWere'
p450
F0.0133908644547
sS'badtattoos'
p451
F0.015892931827700001
sS'popping'
p452
F0.0101068773234
sS'nottheonion'
p453
F0.014657993882900001
sS'Frugal_Jerk'
p454
F0.0156641098103
sS'nintendo'
p455
F0.0097812097812100002
sS'comicbooks'
p456
F0.0096554190400800002
sS'oddlysatisfying'
p457
F0.0187078566238
sS'entertainment'
p458
F0.010505488293199999
sS'youtube'
p459
F0.0071825374558100001
sS'atheism'
p460
F0.0073941949083800003
sS'terriblefacebookmemes'
p461
F0.027773967905600001
sS'urbanexploration'
p462
F0.0147615442846
sS'speedrun'
p463
F0.0084895447552799999
s.