(dp1
S'borussiadortmund'
p2
F0.0075949367088600003
sS'football'
p3
F0.010535405872199999
sS'footballmanagergames'
p4
F0.015641920346499999
sS'Aleague'
p5
F0.0090452261306499995
sS'coys'
p6
F0.0075895567698799999
sS'Everton'
p7
F0.00748044882693
sS'MCFC'
p8
F0.0105263157895
sS'FifaCareers'
p9
F0.00780257666485
s.