(dp1
S'awwwtf'
p2
F0.0103777501038
sS'Heavymind'
p3
F0.0134810710988
sS'NoStupidQuestions'
p4
F0.0074677971628900001
sS'circlebroke'
p5
F0.0091506751954500004
sS'CityPorn'
p6
F0.0083952211817899993
sS'PanicHistory'
p7
F0.0093405566971799994
sS'inthenews'
p8
F0.010559424848299999
sS'rickandmorty'
p9
F0.0080875587195499993
sS'BuyItForLife'
p10
F0.0076173675981199996
sS'perfectloops'
p11
F0.0112262521589
sS'everymanshouldknow'
p12
F0.0081792717086800002
sS'InternetIsBeautiful'
p13
F0.0076936389810999999
sS'Foodforthought'
p14
F0.0147235979119
sS'linguistics'
p15
F0.0078041166715399997
sS'eldertrees'
p16
F0.0079929817721
sS'TheoryOfReddit'
p17
F0.015020653398400001
sS'quityourbullshit'
p18
F0.0095415888819700007
sS'JoeRogan'
p19
F0.0082666432152000008
sS'editors'
p20
F0.0087181143041700007
sS'Documentaries'
p21
F0.0143442622951
sS'writing'
p22
F0.0072781655034900002
sS'HistoryPorn'
p23
F0.0118424305072
sS'Screenwriting'
p24
F0.0099806497606700004
sS'shittybattlestations'
p25
F0.0078045469969499999
sS'VinylCollectors'
p26
F0.0072586090479400001
sS'holdmybeer'
p27
F0.0091684160918599992
sS'collapse'
p28
F0.0072308516336399998
sS'ImaginaryMonsters'
p29
F0.0075355550838500001
sS'seinfeld'
p30
F0.010002174385700001
sS'PublicFreakout'
p31
F0.0149938169827
sS'Gore'
p32
F0.0071537657744599999
sS'ArtisanVideos'
p33
F0.0111205046498
sS'nononono'
p34
F0.013469577333999999
sS'YMS'
p35
F0.0080038418440900004
sS'beatles'
p36
F0.010231835254500001
sS'arresteddevelopment'
p37
F0.0080604952634200002
sS'shutupandtakemymoney'
p38
F0.0088468422398399992
sS'horror'
p39
F0.017300454979499998
sS'JusticePorn'
p40
F0.0076468494126
sS'howto'
p41
F0.0109118657001
sS'AbandonedPorn'
p42
F0.0112907460895
sS'PandR'
p43
F0.0078878848215700008
sS'geek'
p44
F0.0089562890276499996
sS'synthesizers'
p45
F0.012138804591599999
sS'lostgeneration'
p46
F0.0093023255813999995
sS'toosoon'
p47
F0.0097201767304900006
sS'magicskyfairy'
p48
F0.0078288100208799994
sS'KingOfTheHill'
p49
F0.012649710671499999
sS'occult'
p50
F0.010649217346699999
sS'IWantToLearn'
p51
F0.0070759519446100001
sS'Liberal'
p52
F0.0075978959672699997
sS'progressive'
p53
F0.0099108027750199994
sS'WatchItForThePlot'
p54
F0.0085690882742099992
sS'freebies'
p55
F0.0077703972928899996
sS'PropagandaPosters'
p56
F0.0223488168273
sS'dvdcollection'
p57
F0.0098735492811400007
sS'NewsOfTheWeird'
p58
F0.0142202559646
sS'comics'
p59
F0.0074384381965099996
sS'Frisson'
p60
F0.0103833297774
sS'Enhancement'
p61
F0.0076791808873700003
sS'Cyberpunk'
p62
F0.014504014504000001
sS'minimalism'
p63
F0.0081365879685199993
sS'DeepIntoYouTube'
p64
F0.0281094984384
sS'cringe'
p65
F0.0089082928321800002
sS'MovieSuggestions'
p66
F0.0114977614978
sS'YouShouldKnow'
p67
F0.0099549263058900002
sS'standupshots'
p68
F0.0081375039695100009
sS'TrueAtheism'
p69
F0.0080454632526700005
sS'whatisthisthing'
p70
F0.0100081017967
sS'glitch_art'
p71
F0.018009478672999998
sS'NetflixBestOf'
p72
F0.0128227803325
sS'TheSimpsons'
p73
F0.0103175398177
sS'literature'
p74
F0.010496699491400001
sS'MST3K'
p75
F0.023347583031900002
sS'offbeat'
p76
F0.014396526957600001
sS'interestingasfuck'
p77
F0.0082220648437600005
sS'MarkMyWords'
p78
F0.012703502713400001
sS'torrents'
p79
F0.0083063209076200007
sS'classicalmusic'
p80
F0.0077118569801099997
sS'CrappyDesign'
p81
F0.011425959780600001
sS'Cinemagraphs'
p82
F0.012702893436800001
sS'firstworldanarchists'
p83
F0.0079804067255599999
sS'WeAreTheMusicMakers'
p84
F0.00903774587985
sS'no_sob_story'
p85
F0.0096530133055000005
sS'humor'
p86
F0.0089189914163099997
sS'psychology'
p87
F0.0094354335620699999
sS'Musicthemetime'
p88
F0.0072324011571800002
sS'skeptic'
p89
F0.013366490519100001
sS'shittyfoodporn'
p90
F0.0083996613039800001
sS'wikipedia'
p91
F0.0182047584715
sS'ExpectationVsReality'
p92
F0.0115510236597
sS'entertainment'
p93
F0.011764705882400001
sS'LearnUselessTalents'
p94
F0.0092540486462800008
sS'GuessTheMovie'
p95
F0.011301369863
sS'DaystromInstitute'
p96
F0.0092522179974700008
sS'foodhacks'
p97
F0.0084944876197400009
sS'lifehacks'
p98
F0.0072088415725799996
sS'graphic_design'
p99
F0.0072543115247700003
sS'vexillology'
p100
F0.0079908675799100007
sS'SubredditDrama'
p101
F0.00830370090784
sS'LetsTalkMusic'
p102
F0.0145375457875
sS'blackpeoplegifs'
p103
F0.0077281110037799999
sS'StandUpComedy'
p104
F0.016031686156200001
sS'Harmontown'
p105
F0.0077250512375800001
sS'FloridaMan'
p106
F0.012666408168499999
sS'delusionalartists'
p107
F0.016174045414199999
sS'answers'
p108
F0.011343190174500001
sS'vinyl'
p109
F0.0117523701341
sS'Roadcam'
p110
F0.0095070077428199996
sS'ainbow'
p111
F0.0071081182192299997
sS'lewronggeneration'
p112
F0.011121879182199999
sS'PoliticalDiscussion'
p113
F0.0071442879081300001
sS'youtubehaiku'
p114
F0.0100046896983
sS'PoliticalHumor'
p115
F0.0094651613639000001
sS'ThriftStoreHauls'
p116
F0.013624618275800001
sS'RedditDayOf'
p117
F0.015158636897800001
sS'netflix'
p118
F0.00989600805099
sS'BlackMetal'
p119
F0.0071134406589300004
sS'privacy'
p120
F0.0070545032856600002
sS'punk'
p121
F0.0125523012552
sS'cripplingalcoholism'
p122
F0.0078382369646700003
sS'DrugNerds'
p123
F0.0073903002309500003
sS'howtonotgiveafuck'
p124
F0.0070201367079299999
sS'wheredidthesodago'
p125
F0.0097735591038900001
sS'AnimalsBeingBros'
p126
F0.0074032686129300003
sS'classic4chan'
p127
F0.0080745938671500008
sS'whatstheword'
p128
F0.010704091341600001
sS'OutOfTheLoop'
p129
F0.0100234344184
sS'Whatisthis'
p130
F0.0070887072954599999
sS'QuotesPorn'
p131
F0.0085343228200399999
sS'audioengineering'
p132
F0.0080700786315400005
sS'TrueReddit'
p133
F0.011825664418899999
sS'Design'
p134
F0.0089465153970799995
sS'AmIFreeToGo'
p135
F0.00796706944629
sS'misc'
p136
F0.011143539400400001
sS'patientgamers'
p137
F0.0071832825424499999
sS'printSF'
p138
F0.00758833293811
sS'NotTimAndEric'
p139
F0.030077728962500001
sS'IdiotsFightingThings'
p140
F0.0105018278498
sS'conspiratard'
p141
F0.0141241210639
sS'cade'
p142
F0.0084048327788499994
sS'confession'
p143
F0.0070472401119500002
sS'ContagiousLaughter'
p144
F0.0090486364207600003
sS'nostalgia'
p145
F0.0143787405428
sS'badhistory'
p146
F0.010560519902499999
sS'Damnthatsinteresting'
p147
F0.0090670051681899996
sS'environment'
p148
F0.0076267384477299999
sS'CrazyIdeas'
p149
F0.0098700283396899995
sS'OldSchoolCool'
p150
F0.0081510845842099992
sS'AskHistorians'
p151
F0.0083805146028400005
sS'TinyHouses'
p152
F0.0073209549071600001
sS'Bad_Cop_No_Donut'
p153
F0.0099196976854000005
sS'ANormalDayInRussia'
p154
F0.011857707509899999
sS'Whatcouldgowrong'
p155
F0.0096816397732200007
sS'GamePhysics'
p156
F0.0089869281045800008
sS'MorbidReality'
p157
F0.012505650143100001
sS'IASIP'
p158
F0.0077509020446299998
sS'ifyoulikeblank'
p159
F0.0127569099929
sS'alternativeart'
p160
F0.0106848609681
sS'trailerparkboys'
p161
F0.0085047296710900003
sS'Standup'
p162
F0.010922612131100001
sS'Pareidolia'
p163
F0.011315006890500001
sS'howardstern'
p164
F0.0095940959409599996
sS'shittyreactiongifs'
p165
F0.0083096878800199992
sS'CombatFootage'
p166
F0.0078612089997299999
sS'tipofmytongue'
p167
F0.0073284958515200003
sS'misleadingthumbnails'
p168
F0.010099464422299999
sS'GODZILLA'
p169
F0.0070562293274500001
sS'occupywallstreet'
p170
F0.00938673341677
sS'cordcutters'
p171
F0.010748243075699999
sS'somethingimade'
p172
F0.0084816695496900008
sS'Unexpected'
p173
F0.0076982294072400004
sS'Psychonaut'
p174
F0.0070407623081000003
sS'UFOs'
p175
F0.0089894300108700007
sS'ghettoglamourshots'
p176
F0.010719416510099999
sS'blunderyears'
p177
F0.0112872356088
sS'webcomics'
p178
F0.0073034348967199996
sS'videography'
p179
F0.0071740047826700003
sS'rage'
p180
F0.0084086711383299997
sS'worldpolitics'
p181
F0.0082358446420200005
sS'typography'
p182
F0.0083368070029199992
sS'podcasts'
p183
F0.0089956869993799999
sS'PerfectTiming'
p184
F0.0085686761648799993
sS'behindthegifs'
p185
F0.0079284298494700003
sS'BritishTV'
p186
F0.0111144487834
sS'socialism'
p187
F0.0078001890954900004
sS'Ask_Politics'
p188
F0.0076682760579399999
sS'findareddit'
p189
F0.0102234314453
sS'history'
p190
F0.0081049180327900008
sS'fullmoviesonyoutube'
p191
F0.026308810268900001
sS'AskScienceFiction'
p192
F0.0070955534531699999
sS'NewsOfTheStupid'
p193
F0.0144291979064
sS'Anticonsumption'
p194
F0.0110338573156
sS'crappymusic'
p195
F0.0187456926258
sS'awesome'
p196
F0.0088444082392600005
sS'Filmmakers'
p197
F0.011095475211100001
sS'TrueAskReddit'
p198
F0.0101655044947
sS'FanTheories'
p199
F0.0101270243136
sS'gamecollecting'
p200
F0.0090543994158499997
sS'conspiracy'
p201
F0.0073809656608500003
sS'Infographics'
p202
F0.0076430257390100002
sS'AnythingGoesNews'
p203
F0.011275872721699999
sS'AskCulinary'
p204
F0.00754764450594
sS'bestofworldstar'
p205
F0.0104598567659
sS'Pizza'
p206
F0.0072943660619999998
sS'techsupportmacgyver'
p207
F0.0090430931069499995
sS'eatsandwiches'
p208
F0.0096763430096800003
sS'HighQualityGifs'
p209
F0.0071865190814500001
sS'softwaregore'
p210
F0.0073595226255599999
sS'self'
p211
F0.0077535814883199997
sS'Jazz'
p212
F0.0104041616647
sS'AskSocialScience'
p213
F0.0082128397917899994
sS'ImaginaryLandscapes'
p214
F0.0077857732688499997
sS'TheWayWeWere'
p215
F0.022945247056000002
sS'animation'
p216
F0.0099045346062100002
sS'scifi'
p217
F0.01159125928
sS'slowcooking'
p218
F0.0073169326496500004
sS'UnresolvedMysteries'
p219
F0.013460090361399999
sS'spaceporn'
p220
F0.0080742577404799998
sS'watchpeopledie'
p221
F0.0088946539423700004
sS'nonononoyes'
p222
F0.0071309635850299999
sS'Frugal_Jerk'
p223
F0.0086065573770499997
sS'FutureWhatIf'
p224
F0.0079265748852700001
sS'fifthworldproblems'
p225
F0.0072645290581199997
sS'BasicIncome'
p226
F0.0084839136183299992
sS'Anarchism'
p227
F0.0086395052746499994
sS'MapPorn'
p228
F0.0074018809023599997
sS'forwardsfromgrandma'
p229
F0.013084112149499999
sS'AnimalsBeingJerks'
p230
F0.0075361427253200003
sS'Images'
p231
F0.0072268363714799999
sS'EnoughLibertarianSpam'
p232
F0.0084828257544199998
sS'comicbookmovies'
p233
F0.0076061402295700001
sS'comicbooks'
p234
F0.0086080263235200002
sS'whitepeoplegifs'
p235
F0.010963046971
sS'startrek'
p236
F0.011261055895
sS'madmen'
p237
F0.0091927858518599994
sS'MachinePorn'
p238
F0.0075930934054500004
sS'ConfusedBoners'
p239
F0.0072812935003700001
sS'TrueFilm'
p240
F0.0232255667038
sS'futurebeats'
p241
F0.0084876543209899992
sS'HumanPorn'
p242
F0.0107721226142
sS'TimAndEric'
p243
F0.0160197165742
sS'terriblefacebookmemes'
p244
F0.0087574696064300003
sS'Graffiti'
p245
F0.0100439422473
sS'HailCorporate'
p246
F0.0140154856415
sS'urbanexploration'
p247
F0.0095485306387300007
sS'retrogaming'
p248
F0.0105562322371
sS'badtattoos'
p249
F0.0092315582528399998
s.