(dp1
S'Heavymind'
p2
F0.014980311590499999
sS'Psychonaut'
p3
F0.039536219773299998
sS'asatru'
p4
F0.0153156518491
sS'zen'
p5
F0.0260943961215
sS'DecidingToBeBetter'
p6
F0.0074512213857700002
sS'literature'
p7
F0.0081886345698500007
sS'Christianity'
p8
F0.0072894009758399997
sS'shrooms'
p9
F0.0104282676926
sS'POLITIC'
p10
F0.00721020521353
sS'Buddhism'
p11
F0.0250433139077
sS'conspiracy'
p12
F0.014107073795099999
sS'DMT'
p13
F0.014588659948900001
sS'rpg'
p14
F0.0079845573396500006
sS'askphilosophy'
p15
F0.0090637179371000007
sS'Foodforthought'
p16
F0.0077894340096699996
sS'Tulpas'
p17
F0.0173913043478
sS'StonerPhilosophy'
p18
F0.0088543795123300004
sS'LucidDreaming'
p19
F0.016657678710500001
sS'LSD'
p20
F0.0092899800929
sS'yoga'
p21
F0.0094187526516800006
sS'psychology'
p22
F0.0116338625887
sS'Wicca'
p23
F0.038945578231300002
sS'Glitch_in_the_Matrix'
p24
F0.0182304946456
sS'Drugs'
p25
F0.0080818859051099996
sS'JoeRogan'
p26
F0.0096499836440999999
sS'writing'
p27
F0.0077544426494299996
sS'DebateReligion'
p28
F0.0131415819489
sS'religion'
p29
F0.018300171947899999
sS'Anticonsumption'
p30
F0.0089297614287599993
sS'DrugNerds'
p31
F0.011995637949800001
sS'scifi'
p32
F0.0080254647658400003
sS'UnresolvedMysteries'
p33
F0.0089216110870500003
sS'mycology'
p34
F0.010298891749699999
sS'horror'
p35
F0.010373995850400001
sS'Dreams'
p36
F0.012042558166699999
sS'ObscureMedia'
p37
F0.010649217346699999
sS'Anarchism'
p38
F0.015092419874499999
sS'BasicIncome'
p39
F0.0073285814677199997
sS'collapse'
p40
F0.013630880579
sS'occupywallstreet'
p41
F0.0090821521948500003
sS'philosophy'
p42
F0.0089318693126499999
sS'Thetruthishere'
p43
F0.024639346355200001
sS'worldpolitics'
p44
F0.0087257680025199999
sS'lostgeneration'
p45
F0.010004042037199999
sS'martialarts'
p46
F0.0081882135855099996
sS'freemasonry'
p47
F0.013140385894900001
sS'Nootropics'
p48
F0.0112098646809
sS'UFOs'
p49
F0.020511405445199998
sS'glitch_art'
p50
F0.00851698073033
sS'HailCorporate'
p51
F0.0085339561624099992
sS'eldertrees'
p52
F0.0077227011494299998
sS'worldbuilding'
p53
F0.0080601463018200002
sS'BlackMetal'
p54
F0.0119605624697
sS'privacy'
p55
F0.0071288540367100001
sS'conspiratard'
p56
F0.0089533271719
sS'Paranormal'
p57
F0.034407319013499998
sS'NewsOfTheWeird'
p58
F0.0077305356156800002
sS'skeptic'
p59
F0.0073427951902200004
sS'socialism'
p60
F0.0089292303151100004
sS'Cyberpunk'
p61
F0.0114907401748
sS'Meditation'
p62
F0.025190464487600001
sS'fifthworldproblems'
p63
F0.0123666893578
sS'Anarcho_Capitalism'
p64
F0.0081286751988900001
s.