(dp1
S'NewSkaters'
p2
F0.015376266280800001
sS'teenagers'
p3
F0.0087095499766499992
sS'IASIP'
p4
F0.0077338489232600003
sS'NotTimAndEric'
p5
F0.0079149146673300006
sS'Hiphopcirclejerk'
p6
F0.026642664266399999
sS'DeepIntoYouTube'
p7
F0.0085136998621000003
sS'skateboarding'
p8
F0.017222358421199999
sS'supremeclothing'
p9
F0.042567053968900002
sS'Eminem'
p10
F0.0097233476096799994
sS'bestofworldstar'
p11
F0.0091949709138700007
sS'trapmuzik'
p12
F0.013852489704199999
sS'TeenMFA'
p13
F0.010774515927500001
sS'breakingbad'
p14
F0.0077964961628999999
sS'DaftPunk'
p15
F0.0092245311708099992
sS'GrandTheftAutoV'
p16
F0.0072179277719500003
sS'hiphopheads'
p17
F0.020910876757699998
sS'saplings'
p18
F0.0071358487200099997
sS'LetsTalkMusic'
p19
F0.00713234461678
sS'blackpeoplegifs'
p20
F0.0118702189396
sS'makinghiphop'
p21
F0.022460743391000002
sS'sneakermarket'
p22
F0.0105851220229
sS'trailerparkboys'
p23
F0.0074343015214399996
sS'skrillex'
p24
F0.0084714548802900004
sS'indieheads'
p25
F0.012669801462899999
sS'vinyl'
p26
F0.00887458128507
sS'HipHopImages'
p27
F0.041224712957899999
sS'lewronggeneration'
p28
F0.012177683472500001
sS'futurebeats'
p29
F0.0099315068493199994
sS'see'
p30
F0.0081362827358299993
sS'Graffiti'
p31
F0.00773453093812
sS'trap'
p32
F0.010613020750799999
sS'Sneakers'
p33
F0.016465204198399998
sS'streetwear'
p34
F0.0357641799385
s.