(dp1
S'Columbus'
p2
F0.0710275126334
sS'cincinnati'
p3
F0.0342264209385
sS'progressive'
p4
F0.0073199880489999997
sS'OSU'
p5
F0.0310402684564
sS'bengals'
p6
F0.0129911280101
sS'Cleveland'
p7
F0.060622222222199998
sS'Browns'
p8
F0.0270604087132
s.