(dp1
S'FancyFollicles'
p2
F0.0087068227233799995
sS'Dexter'
p3
F0.0078641082101300001
sS'shield'
p4
F0.0282868222949
sS'crafts'
p5
F0.0075548749361900001
sS'buffy'
p6
F0.0177149134853
sS'Cumberbitches'
p7
F0.00999666777741
sS'gallifrey'
p8
F0.0149367263675
sS'community'
p9
F0.010568122949400001
sS'FanTheories'
p10
F0.0078013262254600004
sS'DCcomics'
p11
F0.0079769687518699995
sS'LadyBoners'
p12
F0.012828654896499999
sS'xmen'
p13
F0.0088495575221199992
sS'femalefashionadvice'
p14
F0.0078055307760900002
sS'BeautyBoxes'
p15
F0.0074402632708500003
sS'RandomActsofMakeup'
p16
F0.0077102803738299999
sS'TheLastAirbender'
p17
F0.0097505829152800001
sS'HIMYM'
p18
F0.016390332738900001
sS'cosplay'
p19
F0.0070403092214200002
sS'AmericanHorrorStory'
p20
F0.0248885586924
sS'harrypotter'
p21
F0.016253964381600001
sS'Disneyland'
p22
F0.0130746520456
sS'sailormoon'
p23
F0.0153275250081
sS'RedditLaqueristas'
p24
F0.0100374369269
sS'disney'
p25
F0.0249044759825
sS'firefly'
p26
F0.0105885789397
sS'bigboobproblems'
p27
F0.0079876320535900002
sS'Baking'
p28
F0.0070771408351000004
sS'MakeupAddiction'
p29
F0.0072208498384800004
sS'sewing'
p30
F0.0072933549432699996
sS'KingdomHearts'
p31
F0.00880111623913
sS'PandR'
p32
F0.014367596484500001
sS'marvelstudios'
p33
F0.0123559167427
sS'Stargate'
p34
F0.0075824592442799996
sS'Scrubs'
p35
F0.0083143355236700005
sS'TheGirlSurvivalGuide'
p36
F0.0086372360844500003
sS'doctorwho'
p37
F0.014733144696999999
sS'thesims'
p38
F0.0099100872875200006
sS'Marvel'
p39
F0.0094797259766699997
sS'Random_Acts_Of_Amazon'
p40
F0.0070699767012100002
sS'lost'
p41
F0.0132489854381
sS'survivor'
p42
F0.0073306105351299998
sS'DoctorWhumour'
p43
F0.010775217000900001
sS'secretsanta'
p44
F0.0071268505932900001
sS'Sherlock'
p45
F0.014920674893
sS'arrow'
p46
F0.022061398389200002
sS'WaltDisneyWorld'
p47
F0.0124092409241
sS'MakeupAddicts'
p48
F0.0070112893642299999
sS'Supernatural'
p49
F0.023322657468999999
sS'ArcherFX'
p50
F0.0071316203460900004
sS'thewalkingdead'
p51
F0.0086092111263099992
sS'Sonsofanarchy'
p52
F0.0070052539404600002
s.