(dp1
S'awwwtf'
p2
F0.0149695805315
sS'Heavymind'
p3
F0.011702282308499999
sS'MapPorn'
p4
F0.0093581395348799994
sS'Justrolledintotheshop'
p5
F0.0080850387021500006
sS'HalfLife'
p6
F0.0077748981858599998
sS'pettyrevenge'
p7
F0.010838035128000001
sS'circlebroke'
p8
F0.0082481494536499993
sS'CityPorn'
p9
F0.0090256633318800007
sS'skyrim'
p10
F0.011713171702300001
sS'QuotesPorn'
p11
F0.0120111502829
sS'uglyduckling'
p12
F0.0083107339690299993
sS'rickandmorty'
p13
F0.012443005070999999
sS'dadjokes'
p14
F0.0168207409467
sS'dbz'
p15
F0.0089647194910399998
sS'perfectloops'
p16
F0.017686024824700001
sS'everymanshouldknow'
p17
F0.0097477064220200006
sS'dataisbeautiful'
p18
F0.0072022866198800002
sS'InternetIsBeautiful'
p19
F0.0094783159036799999
sS'RandomActsOfGaming'
p20
F0.0088482996339899998
sS'carporn'
p21
F0.0083001968883899997
sS'TalesFromRetail'
p22
F0.0081736726718099999
sS'NSFWFunny'
p23
F0.0074286554869100003
sS'patientgamers'
p24
F0.0095538403614499993
sS'TheoryOfReddit'
p25
F0.0075667791047500004
sS'TopGear'
p26
F0.0097838726492600007
sS'WouldYouRather'
p27
F0.0085334801458899993
sS'quityourbullshit'
p28
F0.017721896802600001
sS'DoesAnybodyElse'
p29
F0.0091814807579600009
sS'LearnUselessTalents'
p30
F0.013919880990300001
sS'Showerthoughts'
p31
F0.0072412906150999996
sS'harrypotter'
p32
F0.0085355648535599994
sS'HistoryPorn'
p33
F0.010958673157599999
sS'StonerEngineering'
p34
F0.0078312492105600002
sS'shittybattlestations'
p35
F0.0106582537517
sS'badtattoos'
p36
F0.0117986006311
sS'Bioshock'
p37
F0.0087020550237599994
sS'GrandTheftAutoV'
p38
F0.0091753589117399992
sS'Fallout'
p39
F0.011456252726299999
sS'ImaginaryMonsters'
p40
F0.0109747175026
sS'seinfeld'
p41
F0.0080758137618499991
sS'PublicFreakout'
p42
F0.0096316775171699995
sS'MetalMemes'
p43
F0.0097746402389400008
sS'MensRights'
p44
F0.0083700837008399993
sS'nononono'
p45
F0.0145116362656
sS'MilitaryPorn'
p46
F0.0090400165871899994
sS'Frisson'
p47
F0.011023993397399999
sS'arresteddevelopment'
p48
F0.016453135536099998
sS'childfree'
p49
F0.0077117572692799998
sS'popping'
p50
F0.0088900177800399997
sS'AskScienceFiction'
p51
F0.0089912613022199994
sS'cringepics'
p52
F0.011872455902300001
sS'horror'
p53
F0.0078506462422200003
sS'JusticePorn'
p54
F0.0107790836408
sS'UpliftingNews'
p55
F0.0074066709748
sS'softwaregore'
p56
F0.0110604068373
sS'PandR'
p57
F0.011430724783299999
sS'fffffffuuuuuuuuuuuu'
p58
F0.010878283537200001
sS'geek'
p59
F0.0093110471695099992
sS'Jokes'
p60
F0.0071625509470199999
sS'tipofmytongue'
p61
F0.0079518172608600002
sS'gmod'
p62
F0.0072869955157000002
sS'NoStupidQuestions'
p63
F0.0100898534285
sS'3amjokes'
p64
F0.011755131566999999
sS'toosoon'
p65
F0.0209169496758
sS'magicskyfairy'
p66
F0.010877111779700001
sS'beards'
p67
F0.010610741815700001
sS'Steam'
p68
F0.0087489757619000005
sS'halo'
p69
F0.0074594567071499997
sS'freebies'
p70
F0.010264641110800001
sS'Braveryjerk'
p71
F0.013698630137
sS'photoshopbattles'
p72
F0.018350946866200001
sS'AbandonedPorn'
p73
F0.013351858754999999
sS'Frugal_Jerk'
p74
F0.0121544795138
sS'creepyPMs'
p75
F0.011996191685200001
sS'masseffect'
p76
F0.0095402929629800001
sS'WatchItForThePlot'
p77
F0.014888603256200001
sS'Celebs'
p78
F0.010547366383899999
sS'techsupportgore'
p79
F0.013550526164
sS'woahdude'
p80
F0.013209093654299999
sS'PropagandaPosters'
p81
F0.0086277732128199995
sS'vexillology'
p82
F0.0089656536357000001
sS'shittyadviceanimals'
p83
F0.00938321030902
sS'oblivion'
p84
F0.0078923403824699995
sS'futurama'
p85
F0.014198205043
sS'montageparodies'
p86
F0.0151532812682
sS'zombies'
p87
F0.0085517024949000008
sS'minimalism'
p88
F0.0087418783225000005
sS'DeepIntoYouTube'
p89
F0.0205337746974
sS'ArcherFX'
p90
F0.0150621833257
sS'cringe'
p91
F0.0115554845775
sS'spiders'
p92
F0.0073174529036300002
sS'firefly'
p93
F0.011958963151799999
sS'mildlyinteresting'
p94
F0.0078463702402000006
sS'pcgaming'
p95
F0.0081778628214799996
sS'whatisthisthing'
p96
F0.0096220237432300005
sS'glitch_art'
p97
F0.0111325385694
sS'NetflixBestOf'
p98
F0.0109491029324
sS'gentlemanboners'
p99
F0.0124450386979
sS'TheSimpsons'
p100
F0.01195166798
sS'TrollXChromosomes'
p101
F0.0078924002762299997
sS'redditgetsdrawn'
p102
F0.0071585557299799997
sS'watchpeopledie'
p103
F0.010133616638700001
sS'tumblr'
p104
F0.011607293601200001
sS'DCcomics'
p105
F0.0092511692449999995
sS'see'
p106
F0.0110633066994
sS'MarkMyWords'
p107
F0.0094117647058799998
sS'changemyview'
p108
F0.00722660003844
sS'fatpeoplestories'
p109
F0.0092635479388600006
sS'adventuretime'
p110
F0.0103937637418
sS'KarmaCourt'
p111
F0.0090109418579700003
sS'assassinscreed'
p112
F0.0071126821277699998
sS'Cinemagraphs'
p113
F0.0133416556136
sS'firstworldanarchists'
p114
F0.0247300411736
sS'offbeat'
p115
F0.0093020551728100007
sS'no_sob_story'
p116
F0.0118393635158
sS'gameofthrones'
p117
F0.0087687181927999999
sS'humor'
p118
F0.0090878492090199995
sS'truegaming'
p119
F0.00811147483994
sS'space'
p120
F0.0078332562006099993
sS'skeptic'
p121
F0.0080634323343600003
sS'lotr'
p122
F0.0102755482849
sS'shittyfoodporn'
p123
F0.0140408517497
sS'ExpectationVsReality'
p124
F0.015583403675099999
sS'breakingbad'
p125
F0.0153698095049
sS'firstworldproblems'
p126
F0.0130635789117
sS'outside'
p127
F0.017912841992700001
sS'GuessTheMovie'
p128
F0.010099281068099999
sS'RoomPorn'
p129
F0.0092382936328199994
sS'foodhacks'
p130
F0.0080051461653899997
sS'lifehacks'
p131
F0.0106804594613
sS'pcmasterrace'
p132
F0.0079532149910700005
sS'tf2'
p133
F0.0081302570977599999
sS'SCP'
p134
F0.0072032270457200002
sS'CatsStandingUp'
p135
F0.010906323977000001
sS'metalgearsolid'
p136
F0.0074234457160500004
sS'tattoos'
p137
F0.0072184018980999999
sS'blackpeoplegifs'
p138
F0.020598853259700001
sS'bestof'
p139
F0.0094188215940799996
sS'Cyberpunk'
p140
F0.0095470572281000001
sS'needamod'
p141
F0.00812729917016
sS'casualiama'
p142
F0.00972185662894
sS'FloridaMan'
p143
F0.020281751904799999
sS'Metal'
p144
F0.0074698137662899998
sS'delusionalartists'
p145
F0.017327396598900001
sS'whitepeoplegifs'
p146
F0.0222588623248
sS'promos'
p147
F0.0077000667718
sS'JonTron'
p148
F0.0095355528154500001
sS'LadyBoners'
p149
F0.0077977849770199999
sS'corgi'
p150
F0.0076390890746600004
sS'shittyaskscience'
p151
F0.0179206881544
sS'doctorwho'
p152
F0.0094742581905800007
sS'wallpaper'
p153
F0.0091816078658200004
sS'lewronggeneration'
p154
F0.0183151684012
sS'spaceporn'
p155
F0.0123317178244
sS'PoliticalHumor'
p156
F0.0077751196172200004
sS'ThriftStoreHauls'
p157
F0.00933866971603
sS'calvinandhobbes'
p158
F0.0093287827076199998
sS'netflix'
p159
F0.0087399154821400007
sS'4chan'
p160
F0.014217169198699999
sS'creepy'
p161
F0.0074253918169499998
sS'badhistory'
p162
F0.0079846011264000007
sS'howtonotgiveafuck'
p163
F0.00841390122812
sS'sixwordstories'
p164
F0.0070887072954599999
sS'AnimalsBeingBros'
p165
F0.016505706760299999
sS'classic4chan'
p166
F0.017424242424200001
sS'battlestations'
p167
F0.0077083156374799996
sS'thewalkingdead'
p168
F0.0089914945322000003
sS'OutOfTheLoop'
p169
F0.014538945162400001
sS'whatsthisbug'
p170
F0.00728033853574
sS'Dexter'
p171
F0.0091646390916500006
sS'StarWars'
p172
F0.0122806704389
sS'reactiongifs'
p173
F0.0143218908272
sS'AntiJokes'
p174
F0.012503125781400001
sS'community'
p175
F0.012653434729100001
sS'KingOfTheHill'
p176
F0.0099372889532099995
sS'NotTimAndEric'
p177
F0.0179580306699
sS'IdiotsFightingThings'
p178
F0.0179513070795
sS'conspiratard'
p179
F0.0139141269924
sS'marijuanaenthusiasts'
p180
F0.0099068753715100006
sS'cosplay'
p181
F0.0095992810751199999
sS'comicbooks'
p182
F0.0096976920576399995
sS'holdmybeer'
p183
F0.018644523891900001
sS'TrueAtheism'
p184
F0.0083445491251700008
sS'ContagiousLaughter'
p185
F0.013008476835300001
sS'nostalgia'
p186
F0.014009973201299999
sS'TheLastAirbender'
p187
F0.00756156169397
sS'Damnthatsinteresting'
p188
F0.0134722110512
sS'HIMYM'
p189
F0.0079972775225500004
sS'FiftyFifty'
p190
F0.016617590577400001
sS'CrazyIdeas'
p191
F0.017413979139199998
sS'OldSchoolCool'
p192
F0.0085448876325700009
sS'lego'
p193
F0.0096460608790299995
sS'Bad_Cop_No_Donut'
p194
F0.0093787608415999996
sS'ANormalDayInRussia'
p195
F0.017878059305800002
sS'TheFacebookDelusion'
p196
F0.0099952403617300008
sS'Enhancement'
p197
F0.0087105177466600004
sS'MorbidReality'
p198
F0.0103456328818
sS'gif'
p199
F0.012706969580299999
sS'SubredditDrama'
p200
F0.0123861772524
sS'wheredidthesodago'
p201
F0.024134657514199999
sS'PenmanshipPorn'
p202
F0.0100640439158
sS'ifyoulikeblank'
p203
F0.0071235833783099998
sS'alternativeart'
p204
F0.0089736399327000008
sS'shittyadvice'
p205
F0.012247946228499999
sS'MeanJokes'
p206
F0.0093064091308200005
sS'whowouldwin'
p207
F0.011612112818599999
sS'fifthworldproblems'
p208
F0.016470805959099999
sS'Pareidolia'
p209
F0.020178830352799999
sS'GTA'
p210
F0.0085759422252299992
sS'happy'
p211
F0.0086533981228799992
sS'CombatFootage'
p212
F0.0081489445984900006
sS'fatlogic'
p213
F0.010794264539999999
sS'TrollYChromosome'
p214
F0.012272220156199999
sS'explainlikeIAmA'
p215
F0.014196920469
sS'misleadingthumbnails'
p216
F0.019770085901999999
sS'GODZILLA'
p217
F0.0078444462989199996
sS'Unexpected'
p218
F0.0177584400935
sS'Spiderman'
p219
F0.0074594120228199997
sS'batman'
p220
F0.013929644688
sS'gamegrumps'
p221
F0.0079665405297699998
sS'trailerparkboys'
p222
F0.0104766530216
sS'mildlyinfuriating'
p223
F0.0153633384444
sS'marvelstudios'
p224
F0.0070983727315300001
sS'somethingimade'
p225
F0.0071887280743799997
sS'youtubehaiku'
p226
F0.014984838868899999
sS'rule34'
p227
F0.0072691653348500003
sS'Awwducational'
p228
F0.0138752455796
sS'Shitty_Car_Mods'
p229
F0.011707445409100001
sS'shittyaskreddit'
p230
F0.0104467866803
sS'IASIP'
p231
F0.016810515033599999
sS'ghettoglamourshots'
p232
F0.0127335176342
sS'blunderyears'
p233
F0.017190739460999999
sS'Marvel'
p234
F0.010171539830099999
sS'webcomics'
p235
F0.0071880883107999999
sS'showerbeer'
p236
F0.01072
sS'rage'
p237
F0.013548342951000001
sS'comics'
p238
F0.0111463774273
sS'interestingasfuck'
p239
F0.013237262646500001
sS'Perfectfit'
p240
F0.015786278081399999
sS'PerfectTiming'
p241
F0.016832168143600001
sS'behindthegifs'
p242
F0.017918128655000001
sS'standupshots'
p243
F0.0143890042236
sS'civ'
p244
F0.0081865057061199994
sS'cats'
p245
F0.0089359156509400007
sS'findareddit'
p246
F0.0088295824205000002
sS'KerbalSpaceProgram'
p247
F0.0078198479026100002
sS'Glitch_in_the_Matrix'
p248
F0.0095152804209100005
sS'ICanDrawThat'
p249
F0.0080868424887099999
sS'fullmoviesonyoutube'
p250
F0.0149335275906
sS'ShingekiNoKyojin'
p251
F0.0070890279729200001
sS'gamernews'
p252
F0.0079890880748199992
sS'NewsOfTheStupid'
p253
F0.0077720207253899999
sS'Portal'
p254
F0.0074499144266600001
sS'FoodPorn'
p255
F0.0092032188597999994
sS'crappymusic'
p256
F0.0107589984351
sS'awesome'
p257
F0.0103541286
sS'teenagers'
p258
F0.0087934979339499997
sS'FanTheories'
p259
F0.012420431609999999
sS'conspiracy'
p260
F0.0095071480322999995
sS'polandball'
p261
F0.0118968335654
sS'YouShouldKnow'
p262
F0.0098513344080199995
sS'counting'
p263
F0.0093492894539999993
sS'DunderMifflin'
p264
F0.0112712387147
sS'southpark'
p265
F0.015241790217500001
sS'SRSsucks'
p266
F0.0078328981723199999
sS'HouseOfCards'
p267
F0.0083405545927199998
sS'asmr'
p268
F0.0081116315001700003
sS'ForeverAlone'
p269
F0.0072459533687799999
sS'MURICA'
p270
F0.0177514792899
sS'deadpool'
p271
F0.0085739627476099992
sS'HighQualityGifs'
p272
F0.019053389887600001
sS'drunk'
p273
F0.012191146750099999
sS'memes'
p274
F0.0087354702359999994
sS'bestofworldstar'
p275
F0.0073713696004700001
sS'self'
p276
F0.0076794657762900001
sS'shittyama'
p277
F0.012370370370399999
sS'PrettyGirlsUglyFaces'
p278
F0.012331838564999999
sS'zelda'
p279
F0.0096478533526299995
sS'ImaginaryLandscapes'
p280
F0.0089599437807400002
sS'TheWayWeWere'
p281
F0.010308362214500001
sS'DaftPunk'
p282
F0.0089397741530700004
sS'scifi'
p283
F0.0082995438418700003
sS'britishproblems'
p284
F0.00759142008011
sS'nottheonion'
p285
F0.0094913441614900007
sS'itookapicture'
p286
F0.0093300359712200007
sS'nonononoyes'
p287
F0.016486602570500001
sS'Pizza'
p288
F0.0074218457155699998
sS'Whatcouldgowrong'
p289
F0.0151992885439
sS'wallpapers'
p290
F0.0130772748057
sS'talesfromtechsupport'
p291
F0.0082932345832300008
sS'DoctorWhumour'
p292
F0.0072509457755400002
sS'notinteresting'
p293
F0.0204525985151
sS'facepalm'
p294
F0.013791670661900001
sS'forwardsfromgrandma'
p295
F0.017453232358699999
sS'AnimalsBeingJerks'
p296
F0.016992323796199998
sS'highdeas'
p297
F0.0071652925009799999
sS'Futurology'
p298
F0.0070228043872800003
sS'CrappyDesign'
p299
F0.016216645910100001
sS'techsupportmacgyver'
p300
F0.011516034985400001
sS'Images'
p301
F0.0079612606697300001
sS'Games'
p302
F0.0072520901476199997
sS'shittyreactiongifs'
p303
F0.022685809470900001
sS'bigdickproblems'
p304
F0.0075563440436300002
sS'Sherlock'
p305
F0.0082459967016000005
sS'eatsandwiches'
p306
F0.0072900955253899996
sS'GamePhysics'
p307
F0.021742881794699999
sS'Minecraft'
p308
F0.0077802193180699997
sS'startrek'
p309
F0.0095230441595999995
sS'oddlysatisfying'
p310
F0.015238995031099999
sS'urbanexploration'
p311
F0.0079422908772999994
sS'cosplaygirls'
p312
F0.0105635916212
sS'ConfusedBoners'
p313
F0.0120462181431
sS'TrueFilm'
p314
F0.0084537572254300003
sS'entertainment'
p315
F0.0073463819069100001
sS'HumanPorn'
p316
F0.0115959354453
sS'TimAndEric'
p317
F0.0105681510252
sS'GetMotivated'
p318
F0.0072494111489099997
sS'atheism'
p319
F0.0074176457037499997
sS'terriblefacebookmemes'
p320
F0.020352564102600001
sS'PrettyGirls'
p321
F0.0083935950413199997
sS'TumblrInAction'
p322
F0.0122590388203
sS'thatHappened'
p323
F0.016849593495900001
sS'EmmaWatson'
p324
F0.0108520900322
sS'tall'
p325
F0.0091609508597199994
sS'HailCorporate'
p326
F0.0106471975055
sS'ImGoingToHellForThis'
p327
F0.014812979253600001
sS'shutupandtakemymoney'
p328
F0.012278978389
sS'GifSound'
p329
F0.0141961887709
s.