(dp1
S'delusionalartists'
p2
F0.0086123825584199995
sS'daddit'
p3
F0.010307802433800001
sS'Heavymind'
p4
F0.0072301600964000002
sS'NoStupidQuestions'
p5
F0.010417332396
sS'DoesAnybodyElse'
p6
F0.0083013225398999996
sS'pettyrevenge'
p7
F0.0095153340635299993
sS'malehairadvice'
p8
F0.0088440387777100008
sS'PublicFreakout'
p9
F0.00914031620553
sS'PanicHistory'
p10
F0.010052735662499999
sS'fffffffuuuuuuuuuuuu'
p11
F0.0070815167129099996
sS'inthenews'
p12
F0.0094486553836599999
sS'Conservative'
p13
F0.0095476787206099992
sS'PurplePillDebate'
p14
F0.027266028002900001
sS'quotes'
p15
F0.0095927601810000002
sS'BuyItForLife'
p16
F0.010906958561400001
sS'SampleSize'
p17
F0.0074533045976999997
sS'whitepeoplegifs'
p18
F0.0078524792659299993
sS'everymanshouldknow'
p19
F0.018032245032900001
sS'dataisbeautiful'
p20
F0.0100175746924
sS'askphilosophy'
p21
F0.0085438677078499992
sS'japan'
p22
F0.0070311015392400004
sS'Foodforthought'
p23
F0.022328035518899999
sS'financialindependence'
p24
F0.0080709534368100001
sS'relationships'
p25
F0.00725923259541
sS'TalesFromRetail'
p26
F0.0071093023839999998
sS'AskMen'
p27
F0.017826237452400001
sS'privacy'
p28
F0.010057992026100001
sS'TheoryOfReddit'
p29
F0.021387283236999999
sS'badlinguistics'
p30
F0.0093529592149600004
sS'quityourbullshit'
p31
F0.011625560085599999
sS'LearnUselessTalents'
p32
F0.011332294040099999
sS'ProtectAndServe'
p33
F0.0086615555685600008
sS'writing'
p34
F0.0079898665107699992
sS'HistoryPorn'
p35
F0.0087527834733300003
sS'Piracy'
p36
F0.0078496178475500004
sS'swoleacceptance'
p37
F0.0080621940685299993
sS'whowouldwin'
p38
F0.0079472438281999996
sS'RedPillWomen'
p39
F0.0146419251957
sS'collapse'
p40
F0.010412838417199999
sS'ImaginaryMonsters'
p41
F0.0080891782578700003
sS'askseddit'
p42
F0.0074105896251700004
sS'scifi'
p43
F0.0128257746768
sS'MensRights'
p44
F0.032356713031499999
sS'nononono'
p45
F0.0090179367753399995
sS'offmychest'
p46
F0.0085479232158399993
sS'Frisson'
p47
F0.0135749677595
sS'YouShouldKnow'
p48
F0.0126138371619
sS'childfree'
p49
F0.011869436201799999
sS'webcomics'
p50
F0.0101512107434
sS'SelfDrivingCars'
p51
F0.0072957969865199996
sS'JusticePorn'
p52
F0.0086632615627699992
sS'BDSMcommunity'
p53
F0.0071478382147800003
sS'AbandonedPorn'
p54
F0.0077897495631900002
sS'geek'
p55
F0.013701502971
sS'spaceporn'
p56
F0.0074731150130599999
sS'DebateAnAtheist'
p57
F0.0078545780969499993
sS'lostgeneration'
p58
F0.021382603279999999
sS'toosoon'
p59
F0.0088884816274199998
sS'Liberal'
p60
F0.0091354428703799995
sS'magicskyfairy'
p61
F0.0072620519159500001
sS'beards'
p62
F0.0081882290030400005
sS'bodyweightfitness'
p63
F0.0081981310554400007
sS'GunsAreCool'
p64
F0.0090020176936199993
sS'IWantToLearn'
p65
F0.0116410989987
sS'grammar'
p66
F0.0071633237822299996
sS'creepyPMs'
p67
F0.0090460805985400003
sS'progressive'
p68
F0.014049114791500001
sS'IdiotsFightingThings'
p69
F0.0083560169652500006
sS'holdmybeer'
p70
F0.0075521805884099999
sS'BasicIncome'
p71
F0.013438654082900001
sS'firstworldproblems'
p72
F0.0096924510717600002
sS'FeMRADebates'
p73
F0.0500170706726
sS'Marijuana'
p74
F0.0071702686325999998
sS'PropagandaPosters'
p75
F0.014627257137099999
sS'CrappyDesign'
p76
F0.0082031250000000003
sS'NewsOfTheWeird'
p77
F0.0081839988711700003
sS'comics'
p78
F0.0112383319671
sS'compsci'
p79
F0.0077999541179199997
sS'MarkMyWords'
p80
F0.0070993914807300001
sS'Enhancement'
p81
F0.0105284068335
sS'zombies'
p82
F0.0071002556092000001
sS'Libertarian'
p83
F0.0112258978854
sS'PoliticalDiscussion'
p84
F0.015088282503999999
sS'ArcherFX'
p85
F0.0086513994910900009
sS'Anarcho_Capitalism'
p86
F0.010542036370000001
sS'polyamory'
p87
F0.0105890138981
sS'SubredditDrama'
p88
F0.016988325464699999
sS'Firearms'
p89
F0.0071410568764199997
sS'talesfromtechsupport'
p90
F0.0083927822072999998
sS'Paleo'
p91
F0.0071984435797699999
sS'TrueAtheism'
p92
F0.014810717797399999
sS'whatisthisthing'
p93
F0.0081141120074800007
sS'AskWomen'
p94
F0.013310462209499999
sS'NetflixBestOf'
p95
F0.0086824023229700002
sS'energy'
p96
F0.0081149248821100004
sS'TrollXChromosomes'
p97
F0.0120075368277
sS'literature'
p98
F0.0070042025215100003
sS'Christianity'
p99
F0.0071443332447700004
sS'POLITIC'
p100
F0.0074500507958000003
sS'interestingasfuck'
p101
F0.0082234316619199995
sS'bestof'
p102
F0.0111683054383
sS'changemyview'
p103
F0.018156367914999999
sS'TwoXChromosomes'
p104
F0.0115037876416
sS'fatpeoplestories'
p105
F0.0095092939266399994
sS'EatCheapAndHealthy'
p106
F0.0082490007653699994
sS'Cyberpunk'
p107
F0.0106651871031
sS'Cinemagraphs'
p108
F0.0071061243571800001
sS'firstworldanarchists'
p109
F0.00779690282199
sS'askgaybros'
p110
F0.00701852891634
sS'no_sob_story'
p111
F0.0076172339919099996
sS'humor'
p112
F0.0136907057462
sS'psychology'
p113
F0.0180965147453
sS'space'
p114
F0.00729914012569
sS'skeptic'
p115
F0.018117942283599999
sS'wikipedia'
p116
F0.014854827819000001
sS'ExpectationVsReality'
p117
F0.0084892194425700007
sS'socialskills'
p118
F0.0138931453672
sS'DebateReligion'
p119
F0.0099299065420599998
sS'religion'
p120
F0.0076789695318300001
sS'outside'
p121
F0.0100876548651
sS'AskCulinary'
p122
F0.0080669435915999999
sS'RoomPorn'
p123
F0.0088980494671200006
sS'foodhacks'
p124
F0.0081424936386800002
sS'medicine'
p125
F0.0075102734873199999
sS'lifehacks'
p126
F0.0073223966767599997
sS'vexillology'
p127
F0.0087868043779899992
sS'math'
p128
F0.0073943661971800001
sS'AskFeminists'
p129
F0.025420197249599999
sS'europe'
p130
F0.0080233187090599997
sS'TheWayWeWere'
p131
F0.0084848484848500001
sS'StandUpComedy'
p132
F0.0084180989126600003
sS'jobs'
p133
F0.0079651524580000004
sS'DeadBedrooms'
p134
F0.0105467235363
sS'business'
p135
F0.0084234490608999998
sS'linguistics'
p136
F0.0097716894977200007
sS'casualiama'
p137
F0.0084214363835199996
sS'FloridaMan'
p138
F0.0104770122026
sS'malelivingspace'
p139
F0.0112629246677
sS'OkCupid'
p140
F0.011104456755
sS'budgetfood'
p141
F0.0092055233139900008
sS'Frugal'
p142
F0.0093400570050400002
sS'slowcooking'
p143
F0.0091438071487899997
sS'answers'
p144
F0.015922619047599999
sS'Roadcam'
p145
F0.0077689425098300003
sS'ainbow'
p146
F0.017528328611899999
sS'lewronggeneration'
p147
F0.0085995633382300006
sS'howto'
p148
F0.0115092290988
sS'worldbuilding'
p149
F0.0098738343389999997
sS'Unexpected'
p150
F0.0074059379752699998
sS'PoliticalHumor'
p151
F0.0095920733635500004
sS'CanadaPolitics'
p152
F0.0092744775768999997
sS'RedditDayOf'
p153
F0.011994813053799999
sS'lgbt'
p154
F0.0109069095272
sS'minimalism'
p155
F0.0100574092459
sS'vegetarian'
p156
F0.0071230020847799997
sS'Ask_Politics'
p157
F0.0098115156209699992
sS'programming'
p158
F0.0073526424828400001
sS'relationship_advice'
p159
F0.0089109584382000007
sS'aspergers'
p160
F0.0072198028879199997
sS'bayarea'
p161
F0.0073170731707299999
sS'howtonotgiveafuck'
p162
F0.013289824977799999
sS'wheredidthesodago'
p163
F0.0076848059293900001
sS'AnimalsBeingBros'
p164
F0.0087894526568100002
sS'ukpolitics'
p165
F0.0093172823218999994
sS'classic4chan'
p166
F0.0073668134040099998
sS'whatstheword'
p167
F0.0086386003280500001
sS'Documentaries'
p168
F0.0077026969991099998
sS'OutOfTheLoop'
p169
F0.012769170919200001
sS'INTP'
p170
F0.0071795866886599996
sS'Whatcouldgowrong'
p171
F0.0084478197798400004
sS'QuotesPorn'
p172
F0.0099330306980099994
sS'circlebroke2'
p173
F0.010841944773800001
sS'TrueReddit'
p174
F0.020814902192099999
sS'AmIFreeToGo'
p175
F0.0086102352655799998
sS'misc'
p176
F0.012615235322699999
sS'patientgamers'
p177
F0.010985545335099999
sS'intj'
p178
F0.00827454054525
sS'rant'
p179
F0.0090120441337499992
sS'conspiratard'
p180
F0.0141769185706
sS'Health'
p181
F0.010600928365299999
sS'MMFB'
p182
F0.0105616302187
sS'rpg'
p183
F0.0091089984523499996
sS'ADHD'
p184
F0.0082960696634499995
sS'confession'
p185
F0.0131814267735
sS'AskScienceFiction'
p186
F0.013179665658699999
sS'badhistory'
p187
F0.0144656228727
sS'Damnthatsinteresting'
p188
F0.00745156482861
sS'environment'
p189
F0.011466419770700001
sS'CrazyIdeas'
p190
F0.0113799368844
sS'eldertrees'
p191
F0.0078317093160900006
sS'AskHistorians'
p192
F0.010600804009000001
sS'TheRedPill'
p193
F0.015388407634299999
sS'Bad_Cop_No_Donut'
p194
F0.011947814145100001
sS'ANormalDayInRussia'
p195
F0.0088220763638899996
sS'seduction'
p196
F0.0094090175474700003
sS'TheFacebookDelusion'
p197
F0.0075630252100800004
sS'MorbidReality'
p198
F0.0088482524701400007
sS'beer'
p199
F0.0073571203031300002
sS'California'
p200
F0.0091949325704900001
sS'alternativeart'
p201
F0.0073995771670200003
sS'shittyadvice'
p202
F0.00818141396176
sS'dadjokes'
p203
F0.0076765418296999999
sS'confessions'
p204
F0.00767008666202
sS'Pareidolia'
p205
F0.0087333241644900004
sS'happy'
p206
F0.011336095692299999
sS'ArtisanVideos'
p207
F0.0074908685693099997
sS'fatlogic'
p208
F0.0103236845858
sS'TrollYChromosome'
p209
F0.026771557506999999
sS'explainlikeIAmA'
p210
F0.012170723574499999
sS'Infographics'
p211
F0.0096895186497199994
sS'DaystromInstitute'
p212
F0.0098791259879099994
sS'unitedkingdom'
p213
F0.0083498321425499993
sS'wicked_edge'
p214
F0.0089126559714800008
sS'occupywallstreet'
p215
F0.010701210926499999
sS'cordcutters'
p216
F0.0100577574188
sS'somethingimade'
p217
F0.0076110843115199996
sS'raisedbynarcissists'
p218
F0.008356545961
sS'MachinePorn'
p219
F0.0077421852317800001
sS'Awwducational'
p220
F0.0093187433815700004
sS'polandball'
p221
F0.0072940872708499999
sS'NeutralPolitics'
p222
F0.016807834833199999
sS'SRSGaming'
p223
F0.0095732597760799995
sS'blunderyears'
p224
F0.0073189158560799999
sS'EDC'
p225
F0.0070603048972400001
sS'getdisciplined'
p226
F0.010509593058800001
sS'calvinandhobbes'
p227
F0.0083643967633400002
sS'againstmensrights'
p228
F0.0246468289751
sS'rage'
p229
F0.00997536062005
sS'worldpolitics'
p230
F0.012455677788899999
sS'science'
p231
F0.0077267181781200001
sS'fitmeals'
p232
F0.0075777146301599999
sS'sex'
p233
F0.0089887113051200004
sS'standupshots'
p234
F0.013344194887299999
sS'offbeat'
p235
F0.016321680945499999
sS'behindthegifs'
p236
F0.0082555079717200001
sS'BritishTV'
p237
F0.0071573261309900004
sS'socialism'
p238
F0.014104583989799999
sS'findareddit'
p239
F0.0099603143724200007
sS'introvert'
p240
F0.0132086799897
sS'TheBluePill'
p241
F0.022066198595799998
sS'Meditation'
p242
F0.0076805851874400003
sS'recipes'
p243
F0.0075970272502100004
sS'malegrooming'
p244
F0.0155096011817
sS'fullmoviesonyoutube'
p245
F0.0080341451167499998
sS'weightroom'
p246
F0.0084676762742199995
sS'gamernews'
p247
F0.0082955847841500001
sS'NewsOfTheStupid'
p248
F0.0089434010476599993
sS'Economics'
p249
F0.0134039759091
sS'Anticonsumption'
p250
F0.0131165459762
sS'bisexual'
p251
F0.0094627594627599999
sS'awesome'
p252
F0.0078309375670500003
sS'Cooking'
p253
F0.0077733075050900003
sS'history'
p254
F0.0082648883853899992
sS'DecidingToBeBetter'
p255
F0.011472723015699999
sS'TrueAskReddit'
p256
F0.019021739130399999
sS'FanTheories'
p257
F0.0097732272804200004
sS'hardware'
p258
F0.0070559435524500001
sS'blackladies'
p259
F0.010756089845
sS'conspiracy'
p260
F0.0071163933824900001
sS'politics'
p261
F0.0073453975924100004
sS'AnythingGoesNews'
p262
F0.0098583726742599992
sS'education'
p263
F0.0081458099989799998
sS'ShitRedditSays'
p264
F0.0113463166808
sS'SRSsucks'
p265
F0.034547976295500001
sS'TalesFromYourServer'
p266
F0.0074748371817600001
sS'asktrp'
p267
F0.0099906629318400001
sS'ForeverAlone'
p268
F0.0124705089316
sS'MURICA'
p269
F0.0070933608015700004
sS'Nootropics'
p270
F0.00718611223254
sS'HighQualityGifs'
p271
F0.0073294346978599999
sS'selfimprovement'
p272
F0.0070555032925699998
sS'self'
p273
F0.015896256013400001
sS'netsec'
p274
F0.0071673656118899998
sS'AskSocialScience'
p275
F0.0161429186397
sS'ImaginaryLandscapes'
p276
F0.0073905010324999999
sS'UpliftingNews'
p277
F0.0085017898504900005
sS'Parenting'
p278
F0.0082167370644099999
sS'TumblrInAction'
p279
F0.013739100879800001
sS'Feminism'
p280
F0.023920747422699999
sS'britishproblems'
p281
F0.0072307585343799998
sS'nottheonion'
p282
F0.0087516372110399993
sS'Design'
p283
F0.0084819217434400004
sS'nonononoyes'
p284
F0.00822856335641
sS'Frugal_Jerk'
p285
F0.0082058933233899994
sS'FutureWhatIf'
p286
F0.0102622576967
sS'economy'
p287
F0.010839508903899999
sS'firefly'
p288
F0.0087945836532400002
sS'canada'
p289
F0.00787232673374
sS'Anarchism'
p290
F0.010518214469
sS'MapPorn'
p291
F0.0082151437650199999
sS'forwardsfromgrandma'
p292
F0.010117949578
sS'AnimalsBeingJerks'
p293
F0.0078592814371299998
sS'askscience'
p294
F0.0076794365915799998
sS'Futurology'
p295
F0.0091201498310299993
sS'philosophy'
p296
F0.0092170566190600007
sS'circlebroke'
p297
F0.017084665881200001
sS'techsupportmacgyver'
p298
F0.0077780658542899997
sS'socialanxiety'
p299
F0.0070573795642800002
sS'netflix'
p300
F0.0072910523776300003
sS'badphilosophy'
p301
F0.0094579333709800002
sS'EnoughLibertarianSpam'
p302
F0.0128221404088
sS'bigdickproblems'
p303
F0.0122704121006
sS'Gaming4Gamers'
p304
F0.0092087034471499997
sS'law'
p305
F0.0097016291415000008
sS'Physics'
p306
F0.0087621787745999994
sS'startrek'
p307
F0.0107664475136
sS'truegaming'
p308
F0.0117690898364
sS'ProgrammerHumor'
p309
F0.00953978404445
sS'short'
p310
F0.0116058240135
sS'softwaregore'
p311
F0.0075180991275299999
sS'GirlGamers'
p312
F0.0144347577533
sS'windows'
p313
F0.00711077844311
sS'dating_advice'
p314
F0.0081944673596200009
sS'TrueFilm'
p315
F0.0085910652921000006
sS'entertainment'
p316
F0.0110151830902
sS'ShitAmericansSay'
p317
F0.010541021082
sS'HumanPorn'
p318
F0.012599834756300001
sS'IWantOut'
p319
F0.0080484500757000005
sS'Fantasy'
p320
F0.0073563607153400001
sS'Shitstatistssay'
p321
F0.0085456805469200006
sS'thatHappened'
p322
F0.0082027708074099998
sS'techsupportgore'
p323
F0.0071922867584200004
sS'tall'
p324
F0.0091147197485600007
sS'HailCorporate'
p325
F0.0114186535124
sS'AskEngineers'
p326
F0.0074685254996799998
sS'needadvice'
p327
F0.0089376915219600006
sS'shutupandtakemymoney'
p328
F0.010024196335999999
s.