(dp1
S'fullmoviesonyoutube'
p2
F0.0082222222222200006
sS'NetflixBestOf'
p3
F0.0078877005347599994
sS'PublicFreakout'
p4
F0.011282816753
sS'Conservative'
p5
F0.0083651760817900003
sS'conspiratard'
p6
F0.0081473609635100003
sS'conspiracy'
p7
F0.00868040333187
sS'Documentaries'
p8
F0.0078448638155699992
sS'bestofworldstar'
p9
F0.011875629768200001
sS'SRSsucks'
p10
F0.0074522589660000003
sS'newjersey'
p11
F0.0099070784367300008
sS'Bad_Cop_No_Donut'
p12
F0.0089398701881900008
sS'SquaredCircle'
p13
F0.012302402429200001
sS'JoeRogan'
p14
F0.036194343321200001
sS'ronandfez'
p15
F0.13184012875500001
sS'MensRights'
p16
F0.0073167841696799999
sS'MorbidReality'
p17
F0.00724470490517
sS'Standup'
p18
F0.016811692151699999
sS'nyc'
p19
F0.0084723815161500005
sS'TheSimpsons'
p20
F0.0072842574342299998
sS'howardstern'
p21
F0.0350578319735
sS'CombatFootage'
p22
F0.0073025005532200002
sS'StandUpComedy'
p23
F0.026555110949399999
sS'JusticePorn'
p24
F0.0089184809988700001
sS'NASCAR'
p25
F0.0072468499053299999
sS'toosoon'
p26
F0.00709849157054
sS'IASIP'
p27
F0.0071084864392
sS'rage'
p28
F0.0079820123665000006
sS'WatchItForThePlot'
p29
F0.00750039064535
sS'cringe'
p30
F0.00997845560721
sS'Celebs'
p31
F0.0083277708909400006
sS'entertainment'
p32
F0.0092735703245699994
sS'seinfeld'
p33
F0.0072596729158400002
sS'standupshots'
p34
F0.0088480039324499993
sS'watchpeopledie'
p35
F0.0075019055642499997
sS'SubredditDrama'
p36
F0.0082384298521899994
sS'quityourbullshit'
p37
F0.0079408443521700005
sS'Libertarian'
p38
F0.0081742020825600007
sS'ImGoingToHellForThis'
p39
F0.0074497009244199998
sS'MMA'
p40
F0.0121485797524
s.