(dp1
S'Miami'
p2
F0.00980613165014
sS'FloridaMan'
p3
F0.017110702802
sS'florida'
p4
F0.059303977272700002
sS'ucf'
p5
F0.10263085776899999
sS'miamidolphins'
p6
F0.0079390973355100009
sS'disney'
p7
F0.014360078980400001
sS'WaltDisneyWorld'
p8
F0.023669900842300001
sS'tampa'
p9
F0.0185948230322
s.