(dp1
S'Sidehugs'
p2
F0.039499670836100002
sS'Judaism'
p3
F0.0125144843569
sS'badlinguistics'
p4
F0.0074505992873299997
sS'Catholicism'
p5
F0.029239766081900001
sS'DebateAChristian'
p6
F0.0120173049191
sS'Christianity'
p7
F0.013260143513799999
sS'DebateReligion'
p8
F0.0079420696098999998
sS'religion'
p9
F0.011716207420300001
sS'TrueChristian'
p10
F0.029395138496299999
sS'magicskyfairy'
p11
F0.0079417604235600004
sS'Reformed'
p12
F0.027749229188100001
s.