(dp1
S'GlobalOffensive'
p2
F0.0073115420706899997
sS'summonerschool'
p3
F0.010272914521099999
sS'hentai'
p4
F0.0082001506150099993
sS'MechanicalKeyboards'
p5
F0.016742770167400001
sS'KillLaKill'
p6
F0.0101618072383
sS'speedrun'
p7
F0.0107601527247
sS'TeraOnline'
p8
F0.0081811832784599997
sS'Animesuggest'
p9
F0.016265060240999999
sS'LearnJapanese'
p10
F0.0084153833207100005
sS'pantsu'
p11
F0.0087636932707399993
sS'visualnovels'
p12
F0.015423283445700001
sS'touhou'
p13
F0.020422339538799999
sS'awwnime'
p14
F0.027052591751800002
sS'Rainmeter'
p15
F0.0077667160912200002
sS'anime'
p16
F0.017717387272699999
sS'Maplestory'
p17
F0.0099732200572499995
sS'katawashoujo'
p18
F0.0108014689998
sS'Twitch'
p19
F0.0075352455031600001
sS'animegifs'
p20
F0.011477761836400001
sS'manga'
p21
F0.011085180863500001
sS'montageparodies'
p22
F0.00876567421406
s.