(dp1
S'losangeleskings'
p2
F0.0095923261390899999
sS'CalgaryFlames'
p3
F0.016826003824099999
sS'devils'
p4
F0.0094707520891399999
sS'nhl'
p5
F0.018107425785700001
sS'SanJoseSharks'
p6
F0.010555946516500001
sS'leafs'
p7
F0.022055704792900001
sS'canada'
p8
F0.0102115410975
sS'ontario'
p9
F0.016312594840699999
sS'stlouisblues'
p10
F0.029244687565699999
sS'hawks'
p11
F0.00975851802845
sS'Habs'
p12
F0.0225705329154
sS'rangers'
p13
F0.013105924596100001
sS'Torontobluejays'
p14
F0.0241607868292
sS'hockey'
p15
F0.015513091028
sS'EA_NHL'
p16
F0.022797766749400001
sS'DetroitRedWings'
p17
F0.012018840344299999
sS'canucks'
p18
F0.0172555464256
sS'hockeyplayers'
p19
F0.014574722645199999
sS'ColoradoAvalanche'
p20
F0.017241379310299999
sS'caps'
p21
F0.0091688849452800005
sS'torontoraptors'
p22
F0.0142749812171
sS'Flyers'
p23
F0.0129559497708
sS'CanadaPolitics'
p24
F0.0109204368175
sS'wildhockey'
p25
F0.00769653655855
sS'BostonBruins'
p26
F0.0128815952003
sS'ottawa'
p27
F0.047211196991899997
sS'penguins'
p28
F0.0115543928494
sS'NHLHUT'
p29
F0.0104712041885
s.