(dp1
S'canada'
p2
F0.047188673086300002
sS'toronto'
p3
F0.019762454635399999
sS'ontario'
p4
F0.045366876310300001
sS'CanadaPolitics'
p5
F0.0304188565058
sS'nhl'
p6
F0.0088528812104299998
sS'metacanada'
p7
F0.0115216940004
sS'Habs'
p8
F0.0101001599192
sS'CanadianForces'
p9
F0.0115708962542
sS'Torontobluejays'
p10
F0.0102742633948
sS'vancouver'
p11
F0.0076259946949599998
sS'hockey'
p12
F0.013540743128899999
sS'leafs'
p13
F0.0127145581691
sS'canadaguns'
p14
F0.0099392067933999993
sS'Quebec'
p15
F0.010923708817600001
sS'PersonalFinanceCanada'
p16
F0.022585849274000001
sS'montreal'
p17
F0.0139319865746
sS'OttawaSenators'
p18
F0.047211196991899997
s.