(dp1
S'Starcitizen_trades'
p2
F0.00939443950743
sS'Planetside'
p3
F0.0080197720165399999
sS'Warthunder'
p4
F0.012397718819700001
sS'Warframe'
p5
F0.0082437713727400008
sS'Shadowrun'
p6
F0.0076982294072400004
sS'Warhammer'
p7
F0.0071428571428599997
sS'WorldofTanks'
p8
F0.0071643013100400003
sS'starcitizen'
p9
F0.019469026548699999
sS'mwo'
p10
F0.387028798876
sS'spaceengineers'
p11
F0.0080431404807600002
s.