(dp1
S'buildapc'
p2
F0.0190119244969
sS'computers'
p3
F0.0150866921864
sS'pcgaming'
p4
F0.022313229089099999
sS'watercooling'
p5
F0.065163856791099997
sS'audiophile'
p6
F0.011023723568799999
sS'ShouldIbuythisgame'
p7
F0.0077278880866400003
sS'hardware'
p8
F0.050463851567500002
sS'buildapcsales'
p9
F0.038067095428500002
sS'torrents'
p10
F0.0090349075975400001
sS'counterstrike'
p11
F0.0074618298702799997
sS'gamingpc'
p12
F0.055539287457300003
sS'razer'
p13
F0.0072967338429500003
sS'battlefield3'
p14
F0.0118904876099
sS'techsupportmacgyver'
p15
F0.019524617996600001
sS'24hoursupport'
p16
F0.0083847492485399997
sS'softwareswap'
p17
F0.022107839000899999
sS'linux4noobs'
p18
F0.0084210526315800002
sS'softwaregore'
p19
F0.0085702762653799992
sS'MechanicalKeyboards'
p20
F0.0215065306853
sS'AndroidQuestions'
p21
F0.0072908672294699998
sS'CableManagement'
p22
F0.054290718038499997
sS'shittybattlestations'
p23
F0.020327564177000001
sS'battlefield_4'
p24
F0.0088392700473800007
sS'SuggestALaptop'
p25
F0.010408091261899999
sS'Rainmeter'
p26
F0.0110377121833
sS'pcmasterrace'
p27
F0.010967905589
sS'windows8'
p28
F0.0085220639738500005
sS'arma'
p29
F0.0099522947853299994
sS'talesfromtechsupport'
p30
F0.0076520912547500004
sS'cablefail'
p31
F0.0074404761904800004
sS'GameSale'
p32
F0.0073655136130500003
sS'hackintosh'
p33
F0.0152682448522
sS'skyrimmods'
p34
F0.011472275334599999
sS'hometheater'
p35
F0.0081555239449999997
sS'titanfall'
p36
F0.0070325466257799996
sS'HomeNetworking'
p37
F0.0088649675478900004
sS'linux_gaming'
p38
F0.0085727009574699999
sS'emulation'
p39
F0.0107567229518
sS'htpc'
p40
F0.0113378684807
sS'Steam'
p41
F0.00864644573254
sS'RandomActsOfGaming'
p42
F0.00828256281607
sS'buildapcforme'
p43
F0.021243346193300001
sS'Battlefield'
p44
F0.0117474302496
sS'battlestations'
p45
F0.020062969687200002
sS'SkyrimPorn'
p46
F0.0077645359335499998
sS'hardwareswap'
p47
F0.047820655191600003
sS'simracing'
p48
F0.0091338582677200006
sS'techsupportgore'
p49
F0.0166774874209
sS'windows'
p50
F0.0136732888281
sS'GiftofGames'
p51
F0.0084074217240000006
sS'headphones'
p52
F0.014781076784300001
sS'SteamGameSwap'
p53
F0.0083104605062500007
sS'techsupport'
p54
F0.01319320889
sS'GameDeals'
p55
F0.0097814776274699998
sS'starcitizen'
p56
F0.0087429218573000008
sS'DataHoarder'
p57
F0.012578616352200001
sS'cableporn'
p58
F0.0097250794838200007
sS'androidcirclejerk'
p59
F0.0078482668410699997
sS'homelab'
p60
F0.0082150858849900001
s.