(dp1
S'ICanDrawThat'
p2
F0.0070298769771499998
sS'IDAP'
p3
F0.025324675324700001
sS'delusionalartists'
p4
F0.0081613998433000007
sS'Art'
p5
F0.014094214135600001
sS'crafts'
p6
F0.011574074074100001
sS'ImaginaryMonsters'
p7
F0.0071186440678000003
sS'SketchDaily'
p8
F0.0107369448511
sS'Graffiti'
p9
F0.0081026333558399995
sS'redditgetsdrawn'
p10
F0.0092245705803399997
sS'ArtistLounge'
p11
F0.021292585170299999
sS'somethingimade'
p12
F0.00946390443765
sS'PenmanshipPorn'
p13
F0.0071459372882400002
sS'ImaginaryLandscapes'
p14
F0.010020294266899999
sS'stencils'
p15
F0.0074812967580999996
sS'learnart'
p16
F0.040417879773900003
sS'drawing'
p17
F0.033529283692599998
sS'Heavymind'
p18
F0.0117761557178
s.