(dp1
S'climateskeptics'
p2
F0.0076820307281200003
sS'circlebroke'
p3
F0.054302061967
sS'ShitPoliticsSays'
p4
F0.023563589412499999
sS'inthenews'
p5
F0.011615195408599999
sS'Conservative'
p6
F0.0111511289652
sS'PurplePillDebate'
p7
F0.0084562012142199994
sS'thatHappened'
p8
F0.0090719545736799995
sS'Hiphopcirclejerk'
p9
F0.0091584158415799997
sS'DeepIntoYouTube'
p10
F0.0082277221153199999
sS'askphilosophy'
p11
F0.0085022129047299996
sS'Foodforthought'
p12
F0.0137467314158
sS'linguistics'
p13
F0.0074945232330200003
sS'syriancivilwar'
p14
F0.0156927215663
sS'ShitRConservativeSays'
p15
F0.046799724707499997
sS'badlinguistics'
p16
F0.032195594287099998
sS'quityourbullshit'
p17
F0.014407422275700001
sS'ProtectAndServe'
p18
F0.0081784386617100007
sS'environment'
p19
F0.0080590430946699994
sS'shittybattlestations'
p20
F0.0078512396694199998
sS'collapse'
p21
F0.012638770281800001
sS'dwarffortress'
p22
F0.0073969707643500001
sS'nononono'
p23
F0.0082132081796799997
sS'MilitaryPorn'
p24
F0.0083019252317400004
sS'Frisson'
p25
F0.0072666294019000004
sS'Judaism'
p26
F0.0071115973741800002
sS'SelfDrivingCars'
p27
F0.0090090090090099995
sS'moviescirclejerk'
p28
F0.0102893890675
sS'CrusaderKings'
p29
F0.0087081569066100005
sS'lostgeneration'
p30
F0.012111425110999999
sS'toosoon'
p31
F0.0083536373129100006
sS'magicskyfairy'
p32
F0.025891548607699998
sS'Braveryjerk'
p33
F0.0106837606838
sS'GunsAreCool'
p34
F0.031828275351600002
sS'Liberal'
p35
F0.019219680953300001
sS'progressive'
p36
F0.0168992248062
sS'PoliticalDiscussion'
p37
F0.019959174416000001
sS'PropagandaPosters'
p38
F0.028438538206000001
sS'vexillology'
p39
F0.015081534546099999
sS'NewsOfTheWeird'
p40
F0.0087792642140500001
sS'shittyadviceanimals'
p41
F0.00943126607602
sS'SubredditDrama'
p42
F0.021271292064799999
sS'Libertarian'
p43
F0.0102265319426
sS'whitepeoplegifs'
p44
F0.0071910609580700001
sS'fifthworldproblems'
p45
F0.0084440969507400005
sS'Anarcho_Capitalism'
p46
F0.015816834421000001
sS'europe'
p47
F0.0090806269187299997
sS'TrueAtheism'
p48
F0.0085263606650600003
sS'badhistory'
p49
F0.067474433081399998
sS'energy'
p50
F0.0077701216830400001
sS'circlebroke2'
p51
F0.060465116279099999
sS'literature'
p52
F0.0076762945615399996
sS'polandball'
p53
F0.0120503030091
sS'POLITIC'
p54
F0.0091659028414300004
sS'MarkMyWords'
p55
F0.015030674846599999
sS'changemyview'
p56
F0.0097664901807700006
sS'FeMRADebates'
p57
F0.0078905839032099995
sS'OneY'
p58
F0.010052735662499999
sS'KarmaCourt'
p59
F0.0097449720091199992
sS'againstmensrights'
p60
F0.023197634751
sS'forwardsfromgrandma'
p61
F0.020737476508300001
sS'no_sob_story'
p62
F0.017209995035600001
sS'humor'
p63
F0.0074895146794499998
sS'truegaming'
p64
F0.0079938713652899993
sS'skeptic'
p65
F0.020040876575500001
sS'wikipedia'
p66
F0.0110428169601
sS'DebateReligion'
p67
F0.0083479336287699997
sS'Anticonsumption'
p68
F0.0097087378640800005
sS'metacanada'
p69
F0.012812089356100001
sS'Republican'
p70
F0.0080645161290299992
sS'Anarchy101'
p71
F0.0092981403719300006
sS'SCP'
p72
F0.0093283582089600005
sS'LetsTalkMusic'
p73
F0.0084616451657700004
sS'bestof'
p74
F0.0071477231043300003
sS'FloridaMan'
p75
F0.013535891712900001
sS'delusionalartists'
p76
F0.0117102587476
sS'answers'
p77
F0.0089007565643100008
sS'NotTimAndEric'
p78
F0.0081803481403999994
sS'eu4'
p79
F0.0070539419087099998
sS'ainbow'
p80
F0.010685172945600001
sS'lewronggeneration'
p81
F0.020083345885399999
sS'worldbuilding'
p82
F0.0078784925276200006
sS'PoliticalHumor'
p83
F0.0121305075293
sS'TheoryOfReddit'
p84
F0.029058749210400001
sS'RedditDayOf'
p85
F0.0127928704902
sS'WarshipPorn'
p86
F0.0092934061070999996
sS'TheBluePill'
p87
F0.0263076126359
sS'wheredidthesodago'
p88
F0.0087952634288699996
sS'OutOfTheLoop'
p89
F0.0101160942242
sS'paradoxplaza'
p90
F0.0110985093973
sS'ShitAmericansSay'
p91
F0.025836972343499999
sS'TrueReddit'
p92
F0.0105122127177
sS'conservatives'
p93
F0.0084947332653800001
sS'misc'
p94
F0.0088688085676000006
sS'IdiotsFightingThings'
p95
F0.0082975255593399997
sS'conspiratard'
p96
F0.0602503359027
sS'GamePhysics'
p97
F0.0096946564885500002
sS'HistoryPorn'
p98
F0.0096466759646700005
sS'CrazyIdeas'
p99
F0.0078133031767200004
sS'AskHistorians'
p100
F0.012097842404300001
sS'privacy'
p101
F0.0077625570776300003
sS'Bad_Cop_No_Donut'
p102
F0.00820340364822
sS'ANormalDayInRussia'
p103
F0.0095262181756900002
sS'TheFacebookDelusion'
p104
F0.0077982412477199999
sS'MorbidReality'
p105
F0.0071517736398600002
sS'shittyreactiongifs'
p106
F0.0078388808490100007
sS'misleadingthumbnails'
p107
F0.0078131782272800009
sS'shittyadvice'
p108
F0.0070351758794000002
sS'ObscureMedia'
p109
F0.0093405566971799994
sS'CombatFootage'
p110
F0.012041765109400001
sS'explainlikeIAmA'
p111
F0.0125760230904
sS'DaystromInstitute'
p112
F0.0071146245059300001
sS'occupywallstreet'
p113
F0.0097672485453000005
sS'MapPorn'
p114
F0.0088062820851000003
sS'NeutralPolitics'
p115
F0.026602870813400001
sS'SRSGaming'
p116
F0.0119263676432
sS'CanadaPolitics'
p117
F0.0075429305087500002
sS'rage'
p118
F0.0075501237311200002
sS'worldpolitics'
p119
F0.011969366536499999
sS'offbeat'
p120
F0.0084188019911099997
sS'behindthegifs'
p121
F0.0078417602996299993
sS'softwaregore'
p122
F0.0082683675879999998
sS'socialism'
p123
F0.014311594202899999
sS'Ask_Politics'
p124
F0.017002402513399999
sS'russia'
p125
F0.00852634258081
sS'history'
p126
F0.0079616963064300002
sS'AskScienceFiction'
p127
F0.0090190183648100001
sS'NewsOfTheStupid'
p128
F0.010141253169100001
sS'Economics'
p129
F0.012262199122
sS'YMS'
p130
F0.0072805139186299999
sS'TrueAskReddit'
p131
F0.0147874306839
sS'conspiracy'
p132
F0.0097730501900800005
sS'Infographics'
p133
F0.0091718001368900001
sS'AnythingGoesNews'
p134
F0.0097839380350600007
sS'ShitRedditSays'
p135
F0.017549423829199998
sS'SRSsucks'
p136
F0.016931582584700001
sS'Israel'
p137
F0.0074987290289799998
sS'MURICA'
p138
F0.0071764414748800003
sS'HighQualityGifs'
p139
F0.0071258907363400004
sS'AskSocialScience'
p140
F0.0187356979405
sS'TheWayWeWere'
p141
F0.010201064458900001
sS'TumblrInAction'
p142
F0.0080938023450600003
sS'UnresolvedMysteries'
p143
F0.0071357997584800001
sS'911truth'
p144
F0.0129449838188
sS'Frugal_Jerk'
p145
F0.012060828526500001
sS'FutureWhatIf'
p146
F0.014895908112000001
sS'economy'
p147
F0.011269276393799999
sS'BasicIncome'
p148
F0.013676588897799999
sS'Anarchism'
p149
F0.0105330354293
sS'badphilosophy'
p150
F0.040930633347700002
sS'CrappyDesign'
p151
F0.0081991651759099997
sS'EnoughLibertarianSpam'
p152
F0.075651016916900002
sS'Gaming4Gamers'
p153
F0.0080120180270399997
sS'law'
p154
F0.0097346158303400002
sS'Sidehugs'
p155
F0.00811508668388
sS'MachinePorn'
p156
F0.0072175211548000003
sS'TrueFilm'
p157
F0.00791697870975
sS'HumanPorn'
p158
F0.0074821080026000004
sS'terriblefacebookmemes'
p159
F0.0108508014797
sS'Shitstatistssay'
p160
F0.015826637448299999
sS'HailCorporate'
p161
F0.013782719481100001
s.