(dp1
S'TopGear'
p2
F0.0076645471730500004
sS'RandomActsOfGaming'
p3
F0.0122623012044
sS'circlebroke'
p4
F0.0178877049633
sS'CityPorn'
p5
F0.0106439832547
sS'PanicHistory'
p6
F0.0110985093973
sS'Conservative'
p7
F0.0093255259162899999
sS'thatHappened'
p8
F0.010993933737800001
sS'PoliticalDiscussion'
p9
F0.012657071053200001
sS'teslore'
p10
F0.0134859872164
sS'DeepIntoYouTube'
p11
F0.0087066779374500008
sS'dataisbeautiful'
p12
F0.0156153078562
sS'InternetIsBeautiful'
p13
F0.0078787019980200001
sS'Foodforthought'
p14
F0.0090286284651300008
sS'islam'
p15
F0.0086283070845700003
sS'linguistics'
p16
F0.014983675373100001
sS'languagelearning'
p17
F0.010782683332399999
sS'syriancivilwar'
p18
F0.0150282189264
sS'TheoryOfReddit'
p19
F0.0093041802352599994
sS'badlinguistics'
p20
F0.012920908379
sS'quityourbullshit'
p21
F0.01048669862
sS'Documentaries'
p22
F0.0080114769064500001
sS'duolingo'
p23
F0.0090760201992599997
sS'HistoryPorn'
p24
F0.023975160161899999
sS'whowouldwin'
p25
F0.014011941448399999
sS'Fallout'
p26
F0.0169237586782
sS'4chan'
p27
F0.013068296144099999
sS'soccer'
p28
F0.0102074633791
sS'sweden'
p29
F0.0111791225305
sS'aoe2'
p30
F0.0077354770210799999
sS'MensRights'
p31
F0.00776911576249
sS'MilitaryPorn'
p32
F0.018095987411500002
sS'australia'
p33
F0.0082405770792499996
sS'BasicIncome'
p34
F0.0087632069608499993
sS'AskScienceFiction'
p35
F0.014133086565199999
sS'skyrimmods'
p36
F0.0116717213491
sS'reactiongifs'
p37
F0.0074833106022499998
sS'CrusaderKings'
p38
F0.18864765306699999
sS'JusticePorn'
p39
F0.0075201594636200002
sS'footballmanagergames'
p40
F0.017629493510999999
sS'unitedkingdom'
p41
F0.0172341938173
sS'nottheonion'
p42
F0.0103248653806
sS'NoStupidQuestions'
p43
F0.0081508031328800003
sS'cringepics'
p44
F0.0077970320974599999
sS'Military'
p45
F0.0091083569174700008
sS'Steam'
p46
F0.016601599514799999
sS'AbandonedPorn'
p47
F0.0079360379034599995
sS'masseffect'
p48
F0.0127816291161
sS'prisonarchitect'
p49
F0.016611515552600001
sS'techsupportgore'
p50
F0.0072753387872399999
sS'PropagandaPosters'
p51
F0.031361950851599998
sS'vexillology'
p52
F0.065263850073999999
sS'comics'
p53
F0.010102382893899999
sS'SteamGameSwap'
p54
F0.0070319279451799997
sS'montageparodies'
p55
F0.0107897808326
sS'Cyberpunk'
p56
F0.0078872740163099999
sS'Libertarian'
p57
F0.0097761148995200008
sS'eu4'
p58
F0.20356337131900001
sS'ArcherFX'
p59
F0.0078170125919400004
sS'cringe'
p60
F0.0077526113487800001
sS'StarWars'
p61
F0.0098250738540200007
sS'pcgaming'
p62
F0.0152732613028
sS'badhistory'
p63
F0.052225485115399997
sS'totalwar'
p64
F0.0674235633901
sS'ShouldIbuythisgame'
p65
F0.018982196569399999
sS'Christianity'
p66
F0.0083474534037699995
sS'interestingasfuck'
p67
F0.0085837571274499994
sS'changemyview'
p68
F0.0141883408072
sS'sips'
p69
F0.0076660540824400004
sS'writing'
p70
F0.0079803725971299994
sS'CrappyDesign'
p71
F0.0091446758984300002
sS'firstworldanarchists'
p72
F0.0091897757971799998
sS'forwardsfromgrandma'
p73
F0.0146661681
sS'gameofthrones'
p74
F0.014803376021699999
sS'mountandblade'
p75
F0.0496871321479
sS'space'
p76
F0.0111830583094
sS'skeptic'
p77
F0.0081368504711800006
sS'lotr'
p78
F0.01044397463
sS'Warthunder'
p79
F0.0194807962829
sS'boardgames'
p80
F0.010559078480400001
sS'wikipedia'
p81
F0.0092267135325100006
sS'oblivion'
p82
F0.0079370754379700006
sS'DebateReligion'
p83
F0.0073689956331900001
sS'CompanyOfHeroes'
p84
F0.0093719961550799997
sS'outside'
p85
F0.011434355552199999
sS'gamedev'
p86
F0.0072608406375699996
sS'DaystromInstitute'
p87
F0.0072997589070500002
sS'worldnews'
p88
F0.010157870325799999
sS'pcmasterrace'
p89
F0.0110606657247
sS'SimCity'
p90
F0.0152696141068
sS'letsplay'
p91
F0.0077644057456600002
sS'SCP'
p92
F0.0081356867071199993
sS'spaceengineers'
p93
F0.0097103178908499992
sS'SubredditDrama'
p94
F0.023646436220100001
sS'europe'
p95
F0.038146288152800002
sS'starbound'
p96
F0.0111882015329
sS'bestof'
p97
F0.012456633713100001
sS'casualiama'
p98
F0.0080910116216299996
sS'FloridaMan'
p99
F0.0080652308783100007
sS'tf2'
p100
F0.0081633463761500002
sS'delusionalartists'
p101
F0.0073702573048400003
sS'Cynicalbrit'
p102
F0.020899065946099998
sS'promos'
p103
F0.0080032227742699996
sS'shittyaskscience'
p104
F0.0085238368753599997
sS'GamePhysics'
p105
F0.012390198797999999
sS'gamingsuggestions'
p106
F0.0140422338943
sS'Morrowind'
p107
F0.0118768125949
sS'worldbuilding'
p108
F0.029095879711
sS'WritingPrompts'
p109
F0.0072284098810100001
sS'dayz'
p110
F0.0086723135308300007
sS'CanadaPolitics'
p111
F0.0079563077337999992
sS'RedditDayOf'
p112
F0.0085991144195599993
sS'WarshipPorn'
p113
F0.0149829887464
sS'Anarcho_Capitalism'
p114
F0.010355364418299999
sS'TheBluePill'
p115
F0.0080842059573500002
sS'Xcom'
p116
F0.019696422117800001
sS'Planetside'
p117
F0.0118549511855
sS'wheredidthesodago'
p118
F0.0095990965556199993
sS'ukpolitics'
p119
F0.015844397093399999
sS'classic4chan'
p120
F0.0083816522188399998
sS'Games'
p121
F0.020953447006900001
sS'GameDeals'
p122
F0.0184434842549
sS'OutOfTheLoop'
p123
F0.012767405095
sS'Warhammer'
p124
F0.010635469290099999
sS'QuotesPorn'
p125
F0.0076917698063099999
sS'ShitAmericansSay'
p126
F0.0173480270174
sS'TrueReddit'
p127
F0.0128373234075
sS'Yogscast'
p128
F0.0102420484097
sS'todayilearned'
p129
F0.0072511033770200004
sS'dragonage'
p130
F0.0118259224219
sS'Scotland'
p131
F0.0146589183812
sS'patientgamers'
p132
F0.014391626689899999
sS'conspiratard'
p133
F0.021408839778999999
sS'startrek'
p134
F0.0100804363586
sS'rpg'
p135
F0.0139724027667
sS'TrueAtheism'
p136
F0.0072243513501600003
sS'canada'
p137
F0.0099024898229699999
sS'TheLastAirbender'
p138
F0.0094179122615099999
sS'DnD'
p139
F0.011899276285500001
sS'CrazyIdeas'
p140
F0.0088218931305800007
sS'AskHistorians'
p141
F0.046497496475600003
sS'ANormalDayInRussia'
p142
F0.0121580547112
sS'MorbidReality'
p143
F0.0086826984464799997
sS'lewronggeneration'
p144
F0.017444105155999999
sS'arma'
p145
F0.014633892302899999
sS'CombatFootage'
p146
F0.017286925893300002
sS'explainlikeIAmA'
p147
F0.0103802447552
sS'WorldofTanks'
p148
F0.013884477517099999
sS'Unexpected'
p149
F0.0091478959839200007
sS'rpg_gamers'
p150
F0.0077047850770499996
sS'Eve'
p151
F0.012656435811799999
sS'mildlyinfuriating'
p152
F0.0076757623044199997
sS'ftlgame'
p153
F0.012872340425499999
sS'roguelikes'
p154
F0.0105263157895
sS'youtubehaiku'
p155
F0.0089488201042000007
sS'MapPorn'
p156
F0.048861105123200001
sS'asoiaf'
p157
F0.0199592028872
sS'starcitizen'
p158
F0.0103877404093
sS'IndieGaming'
p159
F0.0084525939177099996
sS'NeutralPolitics'
p160
F0.0089138092157299998
sS'ProgrammerHumor'
p161
F0.0074738415545599996
sS'dwarffortress'
p162
F0.034995625546799997
sS'darksouls'
p163
F0.0076652826572999998
sS'rage'
p164
F0.010674379408600001
sS'worldpolitics'
p165
F0.013597733710999999
sS'science'
p166
F0.0084921578932800005
sS'offbeat'
p167
F0.0075457020614500001
sS'behindthegifs'
p168
F0.0080981117383700004
sS'standupshots'
p169
F0.0078205008844599994
sS'socialism'
p170
F0.021017471736899999
sS'Ask_Politics'
p171
F0.0077497333807299996
sS'civ'
p172
F0.045249389766500003
sS'skyrim'
p173
F0.0147865093869
sS'KerbalSpaceProgram'
p174
F0.0227696993515
sS'russia'
p175
F0.012877631980499999
sS'history'
p176
F0.026594184918700001
sS'gallifrey'
p177
F0.0084335103904599994
sS'gamernews'
p178
F0.0130161579892
sS'Economics'
p179
F0.0135821632682
sS'Civcraft'
p180
F0.00848432556802
sS'TrueAskReddit'
p181
F0.0094593880462900005
sS'FanTheories'
p182
F0.0094535008017100006
sS'conspiracy'
p183
F0.0081458686458099998
sS'polandball'
p184
F0.073445358939199998
sS'politics'
p185
F0.0089303491327299995
sS'assassinscreed'
p186
F0.0089528142658
sS'ShitRedditSays'
p187
F0.0084885900121300008
sS'southpark'
p188
F0.0073496189644299999
sS'SRSsucks'
p189
F0.0078233176405399993
sS'HouseOfCards'
p190
F0.0098979138925899997
sS'Israel'
p191
F0.0080165188873999992
sS'MURICA'
p192
F0.0124477073251
sS'technology'
p193
F0.00779906870558
sS'self'
p194
F0.0070629929120500003
sS'AskSocialScience'
p195
F0.0121763650346
sS'scifi'
p196
F0.0115883329114
sS'britishproblems'
p197
F0.0126995957916
sS'spaceporn'
p198
F0.0078664029883500006
sS'starcraft'
p199
F0.0090789311154099994
sS'tolkienfans'
p200
F0.00762131170466
sS'FutureWhatIf'
p201
F0.016028368794299998
sS'talesfromtechsupport'
p202
F0.0086210402179699996
sS'gaming'
p203
F0.0075592507133600004
sS'paydaytheheist'
p204
F0.0093046600517400005
sS'Anarchism'
p205
F0.0096132473883100006
sS'notinteresting'
p206
F0.0076984664654800002
sS'facepalm'
p207
F0.00728947721479
sS'badphilosophy'
p208
F0.011157705556399999
sS'askscience'
p209
F0.0082232079776700003
sS'Futurology'
p210
F0.0099863594839100008
sS'philosophy'
p211
F0.0070854983467199999
sS'AskUK'
p212
F0.00728574167572
sS'wargame'
p213
F0.021099645772399998
sS'nerdcubed'
p214
F0.0094925785295099999
sS'germany'
p215
F0.0099053488884000007
sS'EnoughLibertarianSpam'
p216
F0.0153039535213
sS'Gaming4Gamers'
p217
F0.010517232080300001
sS'bindingofisaac'
p218
F0.0071607281511500004
sS'Minecraft'
p219
F0.0082077963982500005
sS'thesims'
p220
F0.010532977713499999
sS'truegaming'
p221
F0.021943409102800002
sS'HumanPorn'
p222
F0.0091044132445300009
sS'Fantasy'
p223
F0.0102095467631
sS'TumblrInAction'
p224
F0.0177098495876
sS'HailCorporate'
p225
F0.0073423136960199999
sS'GifSound'
p226
F0.0073047858942099997
s.