(dp1
S'FancyFollicles'
p2
F0.00819198149576
sS'whatsthisbug'
p3
F0.0071991953840500004
sS'awwwtf'
p4
F0.0097077134114200003
sS'RATS'
p5
F0.0099840833453900008
sS'snakes'
p6
F0.0113245960046
sS'ferrets'
p7
F0.0075729589952
sS'Aquariums'
p8
F0.0105571101501
sS'guineapigs'
p9
F0.0072229614141800002
sS'spiders'
p10
F0.0081017331555699994
sS'Pets'
p11
F0.0130122039926
sS'BackYardChickens'
p12
F0.0088105726872200005
sS'reptiles'
p13
F0.0147423960273
sS'RedditLaqueristas'
p14
F0.0074721169166499998
sS'dogs'
p15
F0.00706864247999
sS'childfree'
p16
F0.0076694099107000001
sS'AnimalsBeingJerks'
p17
F0.00727300862703
sS'sewing'
p18
F0.0077155666770899996
sS'Awwducational'
p19
F0.0119281292466
sS'crochet'
p20
F0.0077491760933499996
sS'dogpictures'
p21
F0.0086124401913900001
sS'bettafish'
p22
F0.0100466451381
sS'Rabbits'
p23
F0.012351326624
sS'whatsthisbird'
p24
F0.016933721777100001
sS'AnimalsBeingBros'
p25
F0.0080605246411700002
sS'crafts'
p26
F0.00756461441479
s.