(dp1
S'adventuretime'
p2
F0.00792524978414
sS'skyrim'
p3
F0.0098814229248999994
sS'Guildwars2'
p4
F0.00716638124094
sS'masseffect'
p5
F0.0098020372861799994
sS'Magicdeckbuilding'
p6
F0.0090849625699500006
sS'TalesFromRetail'
p7
F0.00737566256908
sS'startrek'
p8
F0.0090702115158600004
sS'writing'
p9
F0.0076122021619799999
sS'whowouldwin'
p10
F0.01328845236
sS'Fallout'
p11
F0.0079268557529400003
sS'ImaginaryMonsters'
p12
F0.013498698095100001
sS'dwarffortress'
p13
F0.0138266688789
sS'skyrimmods'
p14
F0.0079195098869400005
sS'CrusaderKings'
p15
F0.0094651908554900001
sS'geek'
p16
F0.0089250833909300005
sS'Shadowrun'
p17
F0.027645908964000002
sS'elderscrollsonline'
p18
F0.0072714145737699997
sS'SCP'
p19
F0.00832286432161
sS'fantasywriters'
p20
F0.0081293781890499992
sS'SubredditDrama'
p21
F0.0071690383786100001
sS'Cyberpunk'
p22
F0.0094366875300900006
sS'starcitizen'
p23
F0.0075680395866700003
sS'StarWars'
p24
F0.0087957507130500007
sS'lfg'
p25
F0.053585137417499998
sS'TrueAtheism'
p26
F0.0082245493233899999
sS'DCcomics'
p27
F0.0076056079904699998
sS'cosplay'
p28
F0.0090200902008999995
sS'truegaming'
p29
F0.012425745272200001
sS'skeptic'
p30
F0.0085608796202400004
sS'WoT'
p31
F0.0071609098567800003
sS'boardgames'
p32
F0.023792514365599999
sS'outside'
p33
F0.0089689689689700005
sS'gamedev'
p34
F0.0070714459887799997
sS'DarkSouls2'
p35
F0.0074407747159600003
sS'magicTCG'
p36
F0.016276559984399998
sS'starbound'
p37
F0.0103528499418
sS'Cynicalbrit'
p38
F0.0072692896958599998
sS'ainbow'
p39
F0.0070201830261999998
sS'custommagic'
p40
F0.0085783218657900003
sS'Borderlands'
p41
F0.0078000503229100002
sS'TrueReddit'
p42
F0.0074723065830600002
sS'Gaming4Gamers'
p43
F0.0071275837491100004
sS'patientgamers'
p44
F0.0074907952092800002
sS'FinalFantasy'
p45
F0.0072937744106200001
sS'rpg'
p46
F0.104690083478
sS'Warhammer40k'
p47
F0.013465580662099999
sS'AskScienceFiction'
p48
F0.0146771481801
sS'Warmachine'
p49
F0.011837602885400001
sS'doctorwho'
p50
F0.0088842886100000008
sS'TheLastAirbender'
p51
F0.0091552401150700007
sS'DnD'
p52
F0.0733327295233
sS'AskHistorians'
p53
F0.0075182463934400003
sS'alternativeart'
p54
F0.0078178891699199997
sS'itmejp'
p55
F0.0086308027484499998
sS'explainlikeIAmA'
p56
F0.0085686700458600003
sS'worldbuilding'
p57
F0.042623305061899999
sS'rpg_gamers'
p58
F0.012258114254899999
sS'Eve'
p59
F0.0076795350767999999
sS'mylittlepony'
p60
F0.0082395317424599993
sS'ftlgame'
p61
F0.0093556309203600002
sS'roguelikes'
p62
F0.0086407444333700002
sS'asoiaf'
p63
F0.0082931963892700009
sS'Marvel'
p64
F0.0088300220750599998
sS'darksouls'
p65
F0.0079901659495999998
sS'comics'
p66
F0.010193006465
sS'EDH'
p67
F0.017052907739399999
sS'civ'
p68
F0.0090934332916799993
sS'KerbalSpaceProgram'
p69
F0.00745627337984
sS'gallifrey'
p70
F0.0070472520786900002
sS'gamernews'
p71
F0.0084890386382500006
sS'FanTheories'
p72
F0.0088687076519200006
sS'Xcom'
p73
F0.0093949893390200007
sS'ImaginaryLandscapes'
p74
F0.0095550692924900003
sS'talesfromtechsupport'
p75
F0.010522312373199999
sS'scifi'
p76
F0.012289013917700001
sS'tabletopgamedesign'
p77
F0.012491962891499999
sS'firefly'
p78
F0.010463140004200001
sS'Games'
p79
F0.0095976516874699998
sS'Warhammer'
p80
F0.0140704109266
sS'dragonage'
p81
F0.010212977954899999
sS'comicbooks'
p82
F0.0125712241613
sS'dresdenfiles'
p83
F0.014050582095499999
sS'feedthebeast'
p84
F0.00700631031923
sS'Fantasy'
p85
F0.017593521570899998
sS'TumblrInAction'
p86
F0.0081516401492799997
sS'lotr'
p87
F0.0075163994169099996
sS'WildStar'
p88
F0.0078447015024599998
s.