(dp1
S'Boobies'
p2
F0.0091968503936999992
sS'workgonewild'
p3
F0.0132181515404
sS'GWCouples'
p4
F0.025382755842100001
sS'bisexual'
p5
F0.011009328515
sS'crossdressing'
p6
F0.0074074074074100002
sS'RandomActsOfBlowJob'
p7
F0.018517101538
sS'wifesharing'
p8
F0.019969524420600002
sS'gaybros'
p9
F0.0185507877732
sS'milf'
p10
F0.0112359550562
sS'incest'
p11
F0.0087537433771000001
sS'Tgirls'
p12
F0.018061408789900001
sS'thick'
p13
F0.0082422066264100004
sS'DirtySnapchat'
p14
F0.0131491646058
sS'gonewildcurvy'
p15
F0.0179959328078
sS'gonewildaudio'
p16
F0.011913386460600001
sS'curvy'
p17
F0.0074713086343700004
sS'BDSMGW'
p18
F0.0086043133311000004
sS'gaybrosgonemild'
p19
F0.024815422477400002
sS'Blowjobs'
p20
F0.011944620396299999
sS'cumsluts'
p21
F0.0106143856144
sS'gaybears'
p22
F0.031149301825999998
sS'AsianLadyboners'
p23
F0.0085990210345300005
sS'GoneMild'
p24
F0.014693218514500001
sS'TinyTits'
p25
F0.0102791315906
sS'pussy'
p26
F0.016419077404200001
sS'Hotwife'
p27
F0.0128443467974
sS'AsiansGoneWild'
p28
F0.0095124851367400006
sS'Rateme'
p29
F0.0071680809571500002
sS'BigBoobsGW'
p30
F0.019686274509800001
sS'ass'
p31
F0.0094484845267799999
sS'BeardPorn'
p32
F0.0097660223804700002
sS'Stacked'
p33
F0.0072599045841100001
sS'gaymers'
p34
F0.014945652173900001
sS'gay'
p35
F0.017857142857100002
sS'gonewild'
p36
F0.0099360006721999992
sS'dirtykikpals'
p37
F0.021224907300900001
sS'treesgonewild'
p38
F0.0109977124758
sS'BBWGW'
p39
F0.017389566260199999
sS'twinks'
p40
F0.051312792231100003
sS'altgonewild'
p41
F0.010754716981100001
sS'lgbt'
p42
F0.0092882283926500001
sS'dirtypenpals'
p43
F0.0143990343163
sS'LadyBoners'
p44
F0.00733431628294
sS'bigdickproblems'
p45
F0.020235861699300001
sS'BBW'
p46
F0.0108762569259
sS'Sissies'
p47
F0.017991494929700001
sS'ainbow'
p48
F0.0070328694107200003
sS'hugeboobs'
p49
F0.0081775700934600005
sS'Amateur'
p50
F0.012035718907699999
sS'feet'
p51
F0.0107182040679
sS'TributeMe'
p52
F0.014107085604400001
sS'gonewildstories'
p53
F0.0135814889336
sS'traps'
p54
F0.018471796720099999
sS'GoneWildCD'
p55
F0.016523389527700001
sS'GoneWildPlus'
p56
F0.021919009260799999
sS'Cuckold'
p57
F0.0128994994224
sS'askgaybros'
p58
F0.019198612745399999
sS'GaybrosGoneWild'
p59
F0.099223317916000003
sS'asstastic'
p60
F0.015128501124
sS'MassiveCock'
p61
F0.16407665172999999
sS'anal'
p62
F0.0075890791300300001
sS'GWNerdy'
p63
F0.0130830005947
sS'gaymersgonewild'
p64
F0.082107701216000001
sS'Pegging'
p65
F0.0114524242749
sS'ladybonersgw'
p66
F0.061656365883800003
s.