(dp1
S'MapPorn'
p2
F0.023924964890000001
sS'ABraThatFits'
p3
F0.0077782209812500003
sS'Shitty_Car_Mods'
p4
F0.0163952079688
sS'Poetry'
p5
F0.0070275500330999998
sS'uglyduckling'
p6
F0.013409227737900001
sS'Aquariums'
p7
F0.0083414161008700007
sS'KitchenConfidential'
p8
F0.0079201574875200006
sS'BuyItForLife'
p9
F0.018886564388700001
sS'SampleSize'
p10
F0.0084423599111299995
sS'everymanshouldknow'
p11
F0.021126565827
sS'RandomActsOfGaming'
p12
F0.0088394639292800007
sS'relationships'
p13
F0.0101466602901
sS'AskMen'
p14
F0.014432087967000001
sS'Showerthoughts'
p15
F0.0155383381402
sS'duolingo'
p16
F0.0071359251013300004
sS'HistoryPorn'
p17
F0.0259085733485
sS'picrequests'
p18
F0.0093799337522800005
sS'holdmybeer'
p19
F0.024693246840700001
sS'ImaginaryMonsters'
p20
F0.0125618973156
sS'seinfeld'
p21
F0.0075475653860299996
sS'fountainpens'
p22
F0.039283401683599999
sS'YouShouldKnow'
p23
F0.0245462364643
sS'UpliftingNews'
p24
F0.0162090496963
sS'PandR'
p25
F0.0123175382457
sS'Jokes'
p26
F0.013261278195499999
sS'3amjokes'
p27
F0.011743098842399999
sS'Military'
p28
F0.011193695710600001
sS'Steam'
p29
F0.011226681878299999
sS'AlienBlue'
p30
F0.010628484338
sS'photoshopbattles'
p31
F0.020319782733700002
sS'IWantToLearn'
p32
F0.016244314489899998
sS'Astronomy'
p33
F0.011653785457
sS'Celebs'
p34
F0.017066114605700001
sS'CrappyDesign'
p35
F0.035040861982400001
sS'math'
p36
F0.013419640037899999
sS'techsupport'
p37
F0.0092886537331
sS'Libertarian'
p38
F0.010713490650000001
sS'Seattle'
p39
F0.0080545229244099997
sS'spiders'
p40
F0.0083480900581799997
sS'Whatisthis'
p41
F0.0079992000799900004
sS'Paleo'
p42
F0.0079863091842600001
sS'pcgaming'
p43
F0.0097730138713699993
sS'EatCheapAndHealthy'
p44
F0.016551894512600002
sS'tea'
p45
F0.0134375428493
sS'blackpeoplegifs'
p46
F0.018507065036400001
sS'redditgetsdrawn'
p47
F0.0197593380491
sS'fatpeoplestories'
p48
F0.017412042260699999
sS'nba'
p49
F0.0079420012068299999
sS'LongDistance'
p50
F0.00821382586689
sS'depression'
p51
F0.00920526707387
sS'forwardsfromgrandma'
p52
F0.017039522744200002
sS'no_sob_story'
p53
F0.0106942697015
sS'Design'
p54
F0.0207382496597
sS'frugalmalefashion'
p55
F0.0104647431942
sS'Glitch_in_the_Matrix'
p56
F0.013444561431900001
sS'investing'
p57
F0.0083462629072799995
sS'InteriorDesign'
p58
F0.0135166846576
sS'socialskills'
p59
F0.0128272160061
sS'worldnews'
p60
F0.0100574837593
sS'guns'
p61
F0.010666614089399999
sS'disney'
p62
F0.010905835435799999
sS'tattoos'
p63
F0.0206698017058
sS'Economics'
p64
F0.00775292728839
sS'ExposurePorn'
p65
F0.010400233713099999
sS'LetsNotMeet'
p66
F0.0085958800363499996
sS'legaladvice'
p67
F0.0084709688404600008
sS'malelivingspace'
p68
F0.010931153788300001
sS'answers'
p69
F0.011906869688400001
sS'lgbt'
p70
F0.0112998469053
sS'baseball'
p71
F0.0086919120414299996
sS'gentlemanboners'
p72
F0.0260921524366
sS'ainbow'
p73
F0.0086240498928099995
sS'TopGear'
p74
F0.014889120217
sS'ThriftStoreHauls'
p75
F0.016167717864400001
sS'Breadit'
p76
F0.0086807538549400001
sS'environment'
p77
F0.0078357084427600008
sS'WarshipPorn'
p78
F0.0072384294801499998
sS'personalfinance'
p79
F0.0088030101120999994
sS'creepy'
p80
F0.0148436592925
sS'pics'
p81
F0.0093873512903400007
sS'Hair'
p82
F0.0074128984432900004
sS'howtonotgiveafuck'
p83
F0.011895138006699999
sS'learnart'
p84
F0.0070422535211300003
sS'IWantOut'
p85
F0.00742072271386
sS'vinyl'
p86
F0.0096106907493300007
sS'whatsthisbug'
p87
F0.0126199415937
sS'QuotesPorn'
p88
F0.027040171189600001
sS'design_critiques'
p89
F0.0094026266032999992
sS'apple'
p90
F0.0120385232745
sS'TrueReddit'
p91
F0.016424307975799999
sS'todayilearned'
p92
F0.0108451787314
sS'confession'
p93
F0.013393425508599999
sS'jailbreak'
p94
F0.0073076293832099997
sS'AntiJokes'
p95
F0.0096016882089199999
sS'findareddit'
p96
F0.013614766081899999
sS'IdiotsFightingThings'
p97
F0.020668372111900001
sS'gamernews'
p98
F0.0073874595145399999
sS'ContagiousLaughter'
p99
F0.0186556927298
sS'GamePhysics'
p100
F0.015091244617600001
sS'graphic_design'
p101
F0.017753189381100001
sS'HIMYM'
p102
F0.0119969040248
sS'FiftyFifty'
p103
F0.0217729053152
sS'AskHistorians'
p104
F0.0138014795186
sS'Drugs'
p105
F0.0091052649262500004
sS'OutOfTheLoop'
p106
F0.023097384082499998
sS'sports'
p107
F0.0096814281156099996
sS'ifyoulikeblank'
p108
F0.0115141955836
sS'firstimpression'
p109
F0.0114628820961
sS'WebGames'
p110
F0.0083631441554699992
sS'musictheory'
p111
F0.00701046258431
sS'battlefield_4'
p112
F0.0070605989831299997
sS'Pareidolia'
p113
F0.028605893503399999
sS'hockey'
p114
F0.0083997739971099997
sS'tipofmytongue'
p115
F0.015819958663999999
sS'cordcutters'
p116
F0.0088250384812699999
sS'LifeProTips'
p117
F0.018105330764300001
sS'TheGirlSurvivalGuide'
p118
F0.012808901539699999
sS'FanTheories'
p119
F0.012025335821999999
sS'ghettoglamourshots'
p120
F0.0120411627414
sS'popping'
p121
F0.018774376941900001
sS'EDC'
p122
F0.019091231577899999
sS'showerbeer'
p123
F0.0110773352568
sS'techsupportgore'
p124
F0.0200737878744
sS'science'
p125
F0.014899110329100001
sS'firstworldproblems'
p126
F0.019111433852700001
sS'Entrepreneur'
p127
F0.0074670571010199997
sS'standupshots'
p128
F0.026557415155699999
sS'Meditation'
p129
F0.0087399568881100006
sS'history'
p130
F0.0106989865218
sS'TalesFromThePizzaGuy'
p131
F0.0070256325813700003
sS'AskScienceFiction'
p132
F0.0095091909700100001
sS'audiophile'
p133
F0.010005100639499999
sS'awesome'
p134
F0.0129601394032
sS'DecidingToBeBetter'
p135
F0.011129863613599999
sS'gadgets'
p136
F0.011341273196399999
sS'buildapcsales'
p137
F0.0072098267268000003
sS'learnprogramming'
p138
F0.0099063139825900006
sS'Infographics'
p139
F0.0110748488577
sS'TalesFromYourServer'
p140
F0.0113903293002
sS'counting'
p141
F0.0097599447922299999
sS'CampingandHiking'
p142
F0.0083642419196100007
sS'Pizza'
p143
F0.010786739238
sS'HouseOfCards'
p144
F0.0104964091232
sS'hardbodies'
p145
F0.0119490422168
sS'techsupportmacgyver'
p146
F0.013797123979799999
sS'MURICA'
p147
F0.022615574396399999
sS'travel'
p148
F0.0115378688651
sS'RealGirls'
p149
F0.015065506472100001
sS'Hotchickswithtattoos'
p150
F0.0082226438962699992
sS'scifi'
p151
F0.010779565692899999
sS'RedditLaqueristas'
p152
F0.026643561139400002
sS'spaceporn'
p153
F0.021144327855900001
sS'nyc'
p154
F0.0122286671052
sS'wheredidthesodago'
p155
F0.030316396142100001
sS'polandball'
p156
F0.0166519934599
sS'gaming'
p157
F0.0097889006927499994
sS'asmr'
p158
F0.0146357447118
sS'askscience'
p159
F0.013996503693700001
sS'philosophy'
p160
F0.0077061855670099997
sS'budgetfood'
p161
F0.0093120585927300003
sS'Images'
p162
F0.0098517004663800003
sS'mac'
p163
F0.0072084917617199996
sS'piercing'
p164
F0.0078014898328999998
sS'dogpictures'
p165
F0.013770667142000001
sS'MachinePorn'
p166
F0.012906556530699999
sS'oculus'
p167
F0.0093172564985900003
sS'listentothis'
p168
F0.0120935183146
sS'crafts'
p169
F0.0143210385329
sS'tall'
p170
F0.015262275790700001
sS'ImGoingToHellForThis'
p171
F0.020781159090300001
sS'cableporn'
p172
F0.0127707099155
sS'DoesAnybodyElse'
p173
F0.017285302229600001
sS'pettyrevenge'
p174
F0.022672621092400001
sS'malehairadvice'
p175
F0.013018195460500001
sS'CityPorn'
p176
F0.0171596926385
sS'electronic_cigarette'
p177
F0.0080596639008200001
sS'actuallesbians'
p178
F0.0085595986941600002
sS'nsfw'
p179
F0.0149726199356
sS'dataisbeautiful'
p180
F0.0206290556332
sS'japan'
p181
F0.0078281814532300004
sS'linguistics'
p182
F0.014112701431299999
sS'beards'
p183
F0.0202902306297
sS'gaybros'
p184
F0.0086649642785400008
sS'nostalgia'
p185
F0.0231358189081
sS'Documentaries'
p186
F0.010646225912900001
sS'writing'
p187
F0.012886987163399999
sS'AndroidQuestions'
p188
F0.0080833865135099998
sS'StonerEngineering'
p189
F0.0093244194229399995
sS'Rainmeter'
p190
F0.0084224903255199993
sS'WTF'
p191
F0.011366221104999999
sS'soccer'
p192
F0.0088838613454800004
sS'wallpaper'
p193
F0.0134978229318
sS'texas'
p194
F0.0070820856504600002
sS'Gore'
p195
F0.0091648322027000004
sS'MensRights'
p196
F0.0135550063656
sS'MilitaryPorn'
p197
F0.0147730586063
sS'Frisson'
p198
F0.018952344772300001
sS'electronicmusic'
p199
F0.0079796666272600007
sS'childfree'
p200
F0.0152520240272
sS'food'
p201
F0.016379598916599999
sS'whitepeoplegifs'
p202
F0.019218418062299999
sS'NoStupidQuestions'
p203
F0.0198081630614
sS'grammar'
p204
F0.0082733170644600004
sS'creepyPMs'
p205
F0.0210363211387
sS'penpals'
p206
F0.0088568786802299994
sS'freebies'
p207
F0.015687444079900002
sS'Watches'
p208
F0.010537595999300001
sS'AdviceAnimals'
p209
F0.0100445492194
sS'SubredditDrama'
p210
F0.0172644988267
sS'minimalism'
p211
F0.027671845945299998
sS'wallpapers'
p212
F0.0217435480593
sS'mildlyinteresting'
p213
F0.018725777180399999
sS'TrueAtheism'
p214
F0.0094983907685099993
sS'ADHD'
p215
F0.0080355092982299994
sS'Rateme'
p216
F0.00942240438376
sS'books'
p217
F0.0129933267829
sS'malegrooming'
p218
F0.0086770219603599999
sS'TwoXChromosomes'
p219
F0.011905109915800001
sS'Cinemagraphs'
p220
F0.020587484035800001
sS'canada'
p221
F0.012833222184200001
sS'DunderMifflin'
p222
F0.012093023255800001
sS'psychology'
p223
F0.0102892470744
sS'space'
p224
F0.016046579870000001
sS'shittyfoodporn'
p225
F0.026551875694800001
sS'malefashionadvice'
p226
F0.017031944845200001
sS'LearnUselessTalents'
p227
F0.0249616730217
sS'BMW'
p228
F0.0075631648936199999
sS'RoomPorn'
p229
F0.0301196340605
sS'memes'
p230
F0.0087100591716000007
sS'TheLastAirbender'
p231
F0.0126645527049
sS'CatsStandingUp'
p232
F0.0087312995794100005
sS'ass'
p233
F0.0082622292575600005
sS'bestof'
p234
F0.018404966028899999
sS'Cyberpunk'
p235
F0.0131787240779
sS'cars'
p236
F0.010477751677299999
sS'LadyBoners'
p237
F0.025093416775500001
sS'corgi'
p238
F0.0120156348019
sS'Roadcam'
p239
F0.0091271820448900007
sS'knifeclub'
p240
F0.0082367799681500008
sS'youtubehaiku'
p241
F0.017750974312300001
sS'PoliticalHumor'
p242
F0.0083740404745299996
sS'recipes'
p243
F0.010171483127099999
sS'headphones'
p244
F0.0098659549584699992
sS'programming'
p245
F0.0098576310773000001
sS'dogecoin'
p246
F0.0108118382361
sS'MakeupAddicts'
p247
F0.0078223985016299992
sS'whatstheword'
p248
F0.0116917334504
sS'classicalmusic'
p249
F0.0109910844851
sS'weddingplanning'
p250
F0.0075194394599699997
sS'patientgamers'
p251
F0.0109839328878
sS'rant'
p252
F0.0077530441400300004
sS'Buddhism'
p253
F0.0084540510898900006
sS'pokemon'
p254
F0.0105252461959
sS'tf2'
p255
F0.0083317660334799992
sS'longboarding'
p256
F0.0082188696239600002
sS'OldSchoolCool'
p257
F0.0193895980032
sS'lego'
p258
F0.0140027526779
sS'ANormalDayInRussia'
p259
F0.018858926558600001
sS'seduction'
p260
F0.0085697862778900003
sS'onetruegod'
p261
F0.0100640439158
sS'TheFacebookDelusion'
p262
F0.0075566750629700004
sS'Autos'
p263
F0.0110807932916
sS'shittyreactiongifs'
p264
F0.015734355044699999
sS'alternativeart'
p265
F0.0101675660324
sS'shittyadvice'
p266
F0.0078492935635800006
sS'explainlikeimfive'
p267
F0.011857574224800001
sS'dogs'
p268
F0.010963335729699999
sS'CombatFootage'
p269
F0.0097288935927700004
sS'TrollYChromosome'
p270
F0.021053044262400001
sS'Indiemakeupandmore'
p271
F0.0072404049917600003
sS'mildlyinfuriating'
p272
F0.033715656768799999
sS'madmen'
p273
F0.0070389488503100001
sS'nsfw_gifs'
p274
F0.0089000456412600005
sS'Awwducational'
p275
F0.025837988826799999
sS'skyrim'
p276
F0.0148070876979
sS'sex'
p277
F0.011758934520499999
sS'toronto'
p278
F0.0080308836789900005
sS'television'
p279
F0.011627442362199999
sS'worldpolitics'
p280
F0.0125120617562
sS'TheRedPill'
p281
F0.0077884921055399996
sS'PerfectTiming'
p282
F0.030829848270100001
sS'sweden'
p283
F0.0070792947169900002
sS'knives'
p284
F0.0106662972711
sS'KerbalSpaceProgram'
p285
F0.0100335966585
sS'Boobies'
p286
F0.0073638344226600004
sS'formula1'
p287
F0.0083047339603400001
sS'FoodPorn'
p288
F0.027036187817800001
sS'boston'
p289
F0.0083128188661699999
sS'teenagers'
p290
F0.017416076378200002
sS'conspiracy'
p291
F0.0150555678688
sS'TheSimpsons'
p292
F0.013397515737
sS'HighQualityGifs'
p293
F0.021750173170200001
sS'self'
p294
F0.0166835306022
sS'IAmA'
p295
F0.0093448419937000003
sS'Parenting'
p296
F0.0098547190897099995
sS'britishproblems'
p297
F0.012812350787800001
sS'UnresolvedMysteries'
p298
F0.0073973136071600002
sS'conspiratard'
p299
F0.011789393361300001
sS'startrek'
p300
F0.0088273175635299999
sS'firefly'
p301
F0.0124957206436
sS'aww'
p302
F0.0131970582214
sS'Futurology'
p303
F0.015321806539400001
sS'sewing'
p304
F0.0114113192099
sS'Games'
p305
F0.0098070512772900006
sS'mylittlepony'
p306
F0.00749245163455
sS'progresspics'
p307
F0.021360656449399999
sS'crochet'
p308
F0.010523335378200001
sS'Minecraft'
p309
F0.0131915983607
sS'chicago'
p310
F0.0081517026073899997
sS'skeptic'
p311
F0.011489128198099999
sS'TumblrInAction'
p312
F0.0197712552749
sS'secretsanta'
p313
F0.012260432241400001
sS'HailCorporate'
p314
F0.0111692844677
sS'painting'
p315
F0.0071459372882400002
sS'IDAP'
p316
F0.0118446368446
sS'Heavymind'
p317
F0.016678012253200002
sS'Psychonaut'
p318
F0.0087792642140500001
sS'Justrolledintotheshop'
p319
F0.018137820295399999
sS'photocritique'
p320
F0.00798235942668
sS'adventuretime'
p321
F0.013689700130400001
sS'LucidDreaming'
p322
F0.010996269816600001
sS'fffffffuuuuuuuuuuuu'
p323
F0.018927241015500001
sS'dbz'
p324
F0.0071720044515899998
sS'bodybuilding'
p325
F0.0083793614441600005
sS'Foodforthought'
p326
F0.012180857500099999
sS'tattoo'
p327
F0.0091443850267400005
sS'RandomActsofMakeup'
p328
F0.0071522166411899998
sS'languagelearning'
p329
F0.011562310597200001
sS'TheoryOfReddit'
p330
F0.0084399977642400006
sS'TheBluePill'
p331
F0.0078521722775999996
sS'French'
p332
F0.0082571349404300005
sS'harrypotter'
p333
F0.0210620976903
sS'wicked_edge'
p334
F0.014811849479600001
sS'booksuggestions'
p335
F0.00989838163342
sS'shittybattlestations'
p336
F0.010348525469200001
sS'whowouldwin'
p337
F0.0102886667415
sS'GrandTheftAutoV'
p338
F0.011017434398899999
sS'piano'
p339
F0.0081275398562100001
sS'Anxiety'
p340
F0.0091045108713000006
sS'arresteddevelopment'
p341
F0.010395200806
sS'shutupandtakemymoney'
p342
F0.018543319254100001
sS'webcomics'
p343
F0.00795185901569
sS'photography'
p344
F0.0121491322048
sS'JusticePorn'
p345
F0.021339341087700001
sS'trees'
p346
F0.0114272968266
sS'smashbros'
p347
F0.0074480996486700002
sS'geek'
p348
F0.0189881857215
sS'Fitness'
p349
F0.010170819899899999
sS'Conservative'
p350
F0.0075979635914799996
sS'PrettyGirlsUglyFaces'
p351
F0.015623383342000001
sS'AbandonedPorn'
p352
F0.024151236709899999
sS'Rabbits'
p353
F0.0077634797405099999
sS'motorcycles'
p354
F0.0116773415019
sS'dadjokes'
p355
F0.024128383341800001
sS'vexillology'
p356
F0.015856381282199999
sS'WeAreTheMusicMakers'
p357
F0.0086145764937600004
sS'thatHappened'
p358
F0.024195286679099998
sS'futurama'
p359
F0.0155113738134
sS'architecture'
p360
F0.0096471058682400003
sS'DeepIntoYouTube'
p361
F0.014657300170900001
sS'cringe'
p362
F0.017582487714600002
sS'StarWars'
p363
F0.014476366416099999
sS'AskWomen'
p364
F0.016120013800199999
sS'EngineeringStudents'
p365
F0.0082925710791799997
sS'Christianity'
p366
F0.0092486895748399994
sS'see'
p367
F0.0095886603668700002
sS'changemyview'
p368
F0.016376050240400002
sS'roosterteeth'
p369
F0.0072198967953400004
sS'skateboarding'
p370
F0.0083723408303799998
sS'Android'
p371
F0.0129507765201
sS'firstworldanarchists'
p372
F0.029927669269399999
sS'nononono'
p373
F0.0242457829656
sS'cosplay'
p374
F0.0122274367079
sS'truegaming'
p375
F0.0096644035854900005
sS'lotr'
p376
F0.014370757972200001
sS'AmericanHorrorStory'
p377
F0.0075515167029300001
sS'wikipedia'
p378
F0.0093178036605699992
sS'breakingbad'
p379
F0.017954685793
sS'outside'
p380
F0.0213275820752
sS'AskCulinary'
p381
F0.011773879142299999
sS'foodhacks'
p382
F0.013794097856399999
sS'catpictures'
p383
F0.0086645727282599998
sS'pcmasterrace'
p384
F0.0126402410491
sS'europe'
p385
F0.0118816568047
sS'glitch_art'
p386
F0.013901811614
sS'jobs'
p387
F0.0083972911963899992
sS'PixelArt'
p388
F0.0070179410266600004
sS'casualiama'
p389
F0.016476852070600002
sS'facepalm'
p390
F0.027276572778899999
sS'celebnsfw'
p391
F0.0091353400630300001
sS'NotTimAndEric'
p392
F0.011243658302500001
sS'bigboobproblems'
p393
F0.0093816143241199999
sS'AnimalCrossing'
p394
F0.0070723556384500001
sS'news'
p395
F0.010116420615700001
sS'Unexpected'
p396
F0.031027691222300001
sS'RedditDayOf'
p397
F0.0108311108692
sS'fitmeals'
p398
F0.0077115866589599997
sS'relationship_advice'
p399
F0.0078446091770699999
sS'nosleep'
p400
F0.0078602395379099993
sS'itookapicture'
p401
F0.0240567461515
sS'Sherlock'
p402
F0.013240635863
sS'GunPorn'
p403
F0.0076527991782199996
sS'GetMotivated'
p404
F0.018066299682299999
sS'buildapc'
p405
F0.0080836410892700002
sS'drunk'
p406
F0.015292641917300001
sS'xxfitness'
p407
F0.0095630908493600005
sS'reactiongifs'
p408
F0.025189657014599999
sS'community'
p409
F0.013879160505399999
sS'Music'
p410
F0.0099358211231199995
sS'LearnJapanese'
p411
F0.0073037127206299996
sS'EarthPorn'
p412
F0.016927610978099999
sS'linux'
p413
F0.0086468220444299998
sS'femalefashionadvice'
p414
F0.015379796397800001
sS'3Dprinting'
p415
F0.0075461528095899996
sS'doctorwho'
p416
F0.014461016414099999
sS'chrome'
p417
F0.0085274930102499993
sS'Homebrewing'
p418
F0.0072944889391699996
sS'Guitar'
p419
F0.0085550745748099993
sS'beer'
p420
F0.0084384045528099992
sS'ketorecipes'
p421
F0.0088503486501000008
sS'web_design'
p422
F0.010951737618199999
sS'fatlogic'
p423
F0.020368973321399999
sS'hiphopheads'
p424
F0.0083715232088599992
sS'MakeupAddiction'
p425
F0.021870903261799999
sS'androidapps'
p426
F0.0085744161728799999
sS'androidthemes'
p427
F0.00914187585232
sS'movies'
p428
F0.011011406477700001
sS'somethingimade'
p429
F0.024434852586099998
sS'WritingPrompts'
p430
F0.011945153952700001
sS'curlyhair'
p431
F0.010771332492600001
sS'aviation'
p432
F0.010046367851599999
sS'Perfectfit'
p433
F0.029197817740999998
sS'offbeat'
p434
F0.018558765353700001
sS'softwaregore'
p435
F0.013693092820000001
sS'socialism'
p436
F0.0075374656380199998
sS'OnOff'
p437
F0.0099848570887800005
sS'ICanDrawThat'
p438
F0.010283773951
sS'Cooking'
p439
F0.0167878441304
sS'IASIP'
p440
F0.0114426653728
sS'LosAngeles'
p441
F0.0094270518169400006
sS'DIY'
p442
F0.017310043344599998
sS'technology'
p443
F0.012775801821
sS'shorthairedhotties'
p444
F0.0121532364597
sS'southpark'
p445
F0.012863799983300001
sS'funny'
p446
F0.0083046655434400006
sS'astrophotography'
p447
F0.0082206598161199997
sS'productivity'
p448
F0.0071388420460900001
sS'daddit'
p449
F0.0092612628207899995
sS'watchpeopledie'
p450
F0.0127750630769
sS'Whatcouldgowrong'
p451
F0.026666053653899999
sS'fifthworldproblems'
p452
F0.0079062464954599999
sS'talesfromtechsupport'
p453
F0.015701839302999999
sS'literature'
p454
F0.00700214244657
sS'knitting'
p455
F0.0099323448970799998
sS'notinteresting'
p456
F0.0274336538739
sS'AnimalsBeingJerks'
p457
F0.028284437868100001
sS'girlsinyogapants'
p458
F0.0098280098280099995
sS'running'
p459
F0.0109892594686
sS'yoga'
p460
F0.0070669679342300002
sS'Physics'
p461
F0.0110404268418
sS'thesims'
p462
F0.0089653792275399997
sS'HumanPorn'
p463
F0.027366069510699999
sS'Fantasy'
p464
F0.0082407520449299995
sS'anime'
p465
F0.0083065021017799997
sS'Graffiti'
p466
F0.013701719763200001
sS'chemistry'
p467
F0.0087750398865399995
sS'drawing'
p468
F0.020951909593300001
sS'EmmaWatson'
p469
F0.0114247311828
sS'GifSound'
p470
F0.0082068478644499992
sS'FancyFollicles'
p471
F0.024064965503599999
sS'awwwtf'
p472
F0.017221762515499998
sS'PublicFreakout'
p473
F0.0139958252062
sS'ArtisanVideos'
p474
F0.021814973733800001
sS'Bitcoin'
p475
F0.0088454591765899995
sS'rickandmorty'
p476
F0.0099520462458099999
sS'quotes'
p477
F0.011775812381999999
sS'woodworking'
p478
F0.017952646642200001
sS'perfectloops'
p479
F0.026409321995800001
sS'Pets'
p480
F0.0070745272524999998
sS'InternetIsBeautiful'
p481
F0.018615153726500001
sS'carporn'
p482
F0.0175492516212
sS'BeardPorn'
p483
F0.0076950396590500002
sS'TalesFromRetail'
p484
F0.017755021987300001
sS'WouldYouRather'
p485
F0.0098441728095499999
sS'quityourbullshit'
p486
F0.025803747829700002
sS'Advice'
p487
F0.0071604458268499996
sS'ProtectAndServe'
p488
F0.0096990988238899994
sS'woahdude'
p489
F0.027337654295499999
sS'Fallout'
p490
F0.011012081600300001
sS'offmychest'
p491
F0.0155816717285
sS'australia'
p492
F0.011900485000899999
sS'slowcooking'
p493
F0.0141298316996
sS'NSFW_GIF'
p494
F0.0126677926927
sS'howto'
p495
F0.0114756959595
sS'cringepics'
p496
F0.022129009879399999
sS'toosoon'
p497
F0.0125206590875
sS'bodyweightfitness'
p498
F0.0098752402849499998
sS'thewalkingdead'
p499
F0.012092011190600001
sS'gifs'
p500
F0.0133104942082
sS'Art'
p501
F0.018813887909800001
sS'ConfusedBoners'
p502
F0.0090785766461400005
sS'WatchItForThePlot'
p503
F0.0162187573455
sS'compsci'
p504
F0.0071987762080399998
sS'montageparodies'
p505
F0.0095826594897299999
sS'ArcherFX'
p506
F0.0148236199
sS'getdisciplined'
p507
F0.013383192285
sS'google'
p508
F0.00954449710374
sS'gardening'
p509
F0.0146496422403
sS'whatisthisthing'
p510
F0.024155818733499999
sS'MechanicalKeyboards'
p511
F0.015840854669399999
sS'NetflixBestOf'
p512
F0.015918161383499999
sS'tumblr'
p513
F0.027140913766199998
sS'interestingasfuck'
p514
F0.033547703714899998
sS'MarkMyWords'
p515
F0.010132501948599999
sS'PropagandaPosters'
p516
F0.0126682085786
sS'Coffee'
p517
F0.013776659160199999
sS'gameofthrones'
p518
F0.014095231502699999
sS'humor'
p519
F0.0121975929003
sS'4chan'
p520
F0.020394212145399999
sS'AMA'
p521
F0.0097566793893099999
sS'SkincareAddiction'
p522
F0.019278265642200001
sS'ExpectationVsReality'
p523
F0.026908067882700001
sS'nonononoyes'
p524
F0.032487420695700001
sS'RandomKindness'
p525
F0.0076690020829399998
sS'lifehacks'
p526
F0.026990819181199999
sS'Enhancement'
p527
F0.012221235702699999
sS'biology'
p528
F0.0078803702824599992
sS'ProgrammerHumor'
p529
F0.016061676839100002
sS'business'
p530
F0.0072906403940900004
sS'FloridaMan'
p531
F0.016758667249099999
sS'delusionalartists'
p532
F0.022898356520699999
sS'OkCupid'
p533
F0.0093780448197500008
sS'Frugal'
p534
F0.018400197795599999
sS'promos'
p535
F0.011501265658499999
sS'shittyaskscience'
p536
F0.0196955156168
sS'whatsthisplant'
p537
F0.0082075471698100002
sS'lewronggeneration'
p538
F0.0162119036221
sS'worldbuilding'
p539
F0.01064054385
sS'calvinandhobbes'
p540
F0.015001500149999999
sS'netflix'
p541
F0.0082471999135699994
sS'sixwordstories'
p542
F0.010564000234799999
sS'AnimalsBeingBros'
p543
F0.026811685847999998
sS'classic4chan'
p544
F0.013097836872399999
sS'GameDeals'
p545
F0.0085061053167100002
sS'battlestations'
p546
F0.017663551401899999
sS'NSFWFunny'
p547
F0.0097622882803700007
sS'amiugly'
p548
F0.0098855871290400004
sS'asoiaf'
p549
F0.0079768270944700001
sS'applehelp'
p550
F0.0076080100914499996
sS'Sneakers'
p551
F0.0080755043036100007
sS'marijuanaenthusiasts'
p552
F0.0101105102281
sS'TrollXChromosomes'
p553
F0.027443428021199999
sS'tifu'
p554
F0.0139420547995
sS'unitedkingdom'
p555
F0.010480986124100001
sS'Damnthatsinteresting'
p556
F0.032457743994399997
sS'DnD'
p557
F0.0077739047571300001
sS'loseit'
p558
F0.0140899103686
sS'CrazyIdeas'
p559
F0.028026821366700001
sS'typography'
p560
F0.019512484431499999
sS'Bad_Cop_No_Donut'
p561
F0.0129067736301
sS'MorbidReality'
p562
F0.020427640262400001
sS'gif'
p563
F0.0191389479597
sS'cats'
p564
F0.0220813842362
sS'introvert'
p565
F0.010868519765300001
sS'raisedbynarcissists'
p566
F0.012432143560300001
sS'Calligraphy'
p567
F0.041141255890999998
sS'happy'
p568
F0.018490409824799998
sS'explainlikeIAmA'
p569
F0.0145898678833
sS'misleadingthumbnails'
p570
F0.026716371544
sS'batman'
p571
F0.013007298855499999
sS'snackexchange'
p572
F0.0098844027475300002
sS'TinyHouses'
p573
F0.0094045515951400004
sS'Austin'
p574
F0.0070725506811799999
sS'blunderyears'
p575
F0.026865270165799999
sS'Marvel'
p576
F0.0097758897693499998
sS'Random_Acts_Of_Amazon'
p577
F0.010349346951700001
sS'rage'
p578
F0.0236469674954
sS'comics'
p579
F0.023998100869700001
sS'behindthegifs'
p580
F0.026164554702799998
sS'civ'
p581
F0.0092672008032999992
sS'BustyPetite'
p582
F0.010513702601400001
sS'fullmoviesonyoutube'
p583
F0.0142357382841
sS'iphone'
p584
F0.0124514205939
sS'videos'
p585
F0.0095705493201499996
sS'keto'
p586
F0.0131633162015
sS'TrueAskReddit'
p587
F0.011377245509
sS'engineering'
p588
F0.0084555651423600005
sS'politics'
p589
F0.012445590284
sS'bestofworldstar'
p590
F0.0081999219055099992
sS'DAE'
p591
F0.0070565654284699998
sS'ForeverAlone'
p592
F0.0080722340115699995
sS'eatsandwiches'
p593
F0.0127317281057
sS'bicycling'
p594
F0.0149853335034
sS'shittyama'
p595
F0.0093325515489100005
sS'circlebroke'
p596
F0.0073807721423200003
sS'zelda'
p597
F0.0103698889152
sS'ImaginaryLandscapes'
p598
F0.012383561643800001
sS'TheWayWeWere'
p599
F0.0134135570766
sS'badtattoos'
p600
F0.017076023391800001
sS'Feminism'
p601
F0.0085580196926499999
sS'nottheonion'
p602
F0.0157995962679
sS'Frugal_Jerk'
p603
F0.0090909090909099995
sS'Baking'
p604
F0.0154826549387
sS'bigdickproblems'
p605
F0.0085385136661400001
sS'comicbooks'
p606
F0.0095794179363200005
sS'oddlysatisfying'
p607
F0.041221594093800003
sS'GirlGamers'
p608
F0.0083588263173800005
sS'cosplaygirls'
p609
F0.013440517204700001
sS'entertainment'
p610
F0.00956089286403
sS'atheism'
p611
F0.014785696170400001
sS'terriblefacebookmemes'
p612
F0.0114353110097
sS'PrettyGirls'
p613
F0.0173243936462
sS'urbanexploration'
p614
F0.012299465240600001
s.