(dp1
S'ICanDrawThat'
p2
F0.0080943888050499999
sS'amiugly'
p3
F0.0087127474196899996
sS'MakeNewFriendsHere'
p4
F0.0247576014309
sS'AskWomen'
p5
F0.0081254291599900004
sS'Assistance'
p6
F0.0082353609359899996
sS'crochet'
p7
F0.0078475336322900002
sS'snapchat'
p8
F0.0101862630966
sS'AmISexy'
p9
F0.0074019245003699996
sS'confession'
p10
F0.0079334191539700005
sS'femalefashionadvice'
p11
F0.0072810883310999996
sS'depression'
p12
F0.0083069314581599996
sS'ForeverAlone'
p13
F0.0080213903743300008
sS'languagelearning'
p14
F0.0107135900266
sS'RandomActsOfPizza'
p15
F0.0072587880270800001
sS'MMFB'
p16
F0.0083663188197199995
sS'writing'
p17
F0.0071154413935599998
sS'booksuggestions'
p18
F0.0070045724292200004
sS'PenmanshipPorn'
p19
F0.0088568786802299994
sS'RandomActsofMakeup'
p20
F0.0081034623884800004
sS'firstimpression'
p21
F0.0095279884661199996
sS'SuicideWatch'
p22
F0.0074303405572799996
sS'raisedbynarcissists'
p23
F0.0070137577555999999
sS'Calligraphy'
p24
F0.0076930663773500003
sS'Rateme'
p25
F0.0080520683268200006
sS'happy'
p26
F0.0071073652431000002
sS'fountainpens'
p27
F0.0130401234568
sS'offmychest'
p28
F0.00871554915673
sS'Anxiety'
p29
F0.0076456215023299997
sS'French'
p30
F0.0070122714750800001
sS'MakeupAddiction'
p31
F0.0071725860155399997
sS'RandomKindness'
p32
F0.0156145288835
sS'casualiama'
p33
F0.0088972582623599999
sS'LetsNotMeet'
p34
F0.0076170819204899997
sS'snackexchange'
p35
F0.0094586605861000008
sS'loseit'
p36
F0.00706570134345
sS'Kikpals'
p37
F0.013098356751599999
sS'dirtypenpals'
p38
F0.0076508576364599998
sS'LadyBoners'
p39
F0.0075166022039
sS'NoStupidQuestions'
p40
F0.00725773674737
sS'TheGirlSurvivalGuide'
p41
F0.0081333875559199999
sS'Random_Acts_Of_Amazon'
p42
F0.0126700786419
sS'IWantToLearn'
p43
F0.0073893729711300002
sS'r4r'
p44
F0.0173658300867
sS'redditgetsdrawn'
p45
F0.0082343577813199995
sS'findareddit'
p46
F0.0074041538558100002
sS'secretsanta'
p47
F0.012235998568100001
sS'FancyFollicles'
p48
F0.0081001174517000007
sS'crafts'
p49
F0.0074299725091
sS'Needafriend'
p50
F0.037955879076000003
sS'IWantOut'
p51
F0.0073666004740200004
s.