(dp1
S'PJRP_Community'
p2
F0.239784946237
sS'TheNarutoWorld'
p3
F0.0098231827111999997
sS'PotterPlayRP'
p4
F0.110591900312
sS'GLRP_EastBlue'
p5
F0.0116772823779
sS'DWMA'
p6
F0.0134158926729
sS'HogwartsRP'
p7
F0.104166666667
sS'randomsuperpowers'
p8
F0.0151668351871
s.