(dp1
S'uglyduckling'
p2
F0.010671372153599999
sS'AndroidGaming'
p3
F0.00827285921626
sS'KitchenConfidential'
p4
F0.0070038910505800002
sS'BuyItForLife'
p5
F0.0150239744273
sS'SampleSize'
p6
F0.0078819871285000006
sS'everymanshouldknow'
p7
F0.016904419871000002
sS'aviation'
p8
F0.0091551849166099999
sS'RandomActsOfGaming'
p9
F0.00862279629953
sS'AskMen'
p10
F0.0079921962466599997
sS'Showerthoughts'
p11
F0.011409601188099999
sS'HistoryPorn'
p12
F0.0151201021968
sS'picrequests'
p13
F0.0074056931265900003
sS'holdmybeer'
p14
F0.0306523647746
sS'ImaginaryMonsters'
p15
F0.012759295499
sS'seinfeld'
p16
F0.0099928622412599998
sS'YouShouldKnow'
p17
F0.0191238716916
sS'UpliftingNews'
p18
F0.0114619537085
sS'PandR'
p19
F0.012067284251600001
sS'Jokes'
p20
F0.0099577369323400004
sS'3amjokes'
p21
F0.016873967121900001
sS'Military'
p22
F0.0080977620730300001
sS'Steam'
p23
F0.011173846093099999
sS'AlienBlue'
p24
F0.0085166019836099994
sS'photoshopbattles'
p25
F0.0182559540358
sS'IWantToLearn'
p26
F0.010660053082700001
sS'Celebs'
p27
F0.0110211211688
sS'CrappyDesign'
p28
F0.037490987743300001
sS'math'
p29
F0.0080305475731200001
sS'techsupport'
p30
F0.00915494966204
sS'Libertarian'
p31
F0.0080418989694199996
sS'spiders'
p32
F0.0083264571299999993
sS'Whatisthis'
p33
F0.0104189758368
sS'pcgaming'
p34
F0.0112283396968
sS'EatCheapAndHealthy'
p35
F0.010204861641999999
sS'tea'
p36
F0.0080334190231400003
sS'redditgetsdrawn'
p37
F0.0091998884862000002
sS'bestof'
p38
F0.0131331142811
sS'MechanicAdvice'
p39
F0.0077676101298099999
sS'fatpeoplestories'
p40
F0.010504841361700001
sS'forwardsfromgrandma'
p41
F0.022175238469900001
sS'no_sob_story'
p42
F0.018577543028899999
sS'findareddit'
p43
F0.015854526629099999
sS'skeptic'
p44
F0.0108533263028
sS'InteriorDesign'
p45
F0.0076707577374599996
sS'socialskills'
p46
F0.0079946404644899993
sS'Nexus5'
p47
F0.0071551017366000003
sS'GuessTheMovie'
p48
F0.0072861236184999997
sS'vexillology'
p49
F0.014635085692299999
sS'disney'
p50
F0.0071887175547400003
sS'tattoos'
p51
F0.0089136156975399995
sS'ExposurePorn'
p52
F0.0126522961575
sS'needamod'
p53
F0.0072142974258099998
sS'malelivingspace'
p54
F0.0107185097575
sS'answers'
p55
F0.0129299678297
sS'lgbt'
p56
F0.00767990897886
sS'gentlemanboners'
p57
F0.0146302987125
sS'doctorwho'
p58
F0.0086650054998100006
sS'TopGear'
p59
F0.014655921624399999
sS'ThriftStoreHauls'
p60
F0.0141071649548
sS'WarshipPorn'
p61
F0.0086602139582300005
sS'creepy'
p62
F0.0092883048372700006
sS'howtonotgiveafuck'
p63
F0.0088152866241999993
sS'HalfLife'
p64
F0.0095727707853199995
sS'QuotesPorn'
p65
F0.015030625403
sS'apple'
p66
F0.0084921683336499996
sS'TrueReddit'
p67
F0.00992629441161
sS'confession'
p68
F0.0082326946941500001
sS'AntiJokes'
p69
F0.0130546211757
sS'KingOfTheHill'
p70
F0.0083647394062000002
sS'IdiotsFightingThings'
p71
F0.030333167578299999
sS'gamernews'
p72
F0.0075588305205600004
sS'ContagiousLaughter'
p73
F0.023779527559100001
sS'GamePhysics'
p74
F0.028318883008699999
sS'graphic_design'
p75
F0.0070414726103300001
sS'HIMYM'
p76
F0.00813280230262
sS'FiftyFifty'
p77
F0.020456852791900001
sS'eldertrees'
p78
F0.0071595558153099998
sS'AskHistorians'
p79
F0.0074880523397000001
sS'OutOfTheLoop'
p80
F0.0225511536787
sS'ifyoulikeblank'
p81
F0.0085254183770099995
sS'firstimpression'
p82
F0.0093577746442800001
sS'WebGames'
p83
F0.0128982238511
sS'Pareidolia'
p84
F0.041072925398199997
sS'tipofmytongue'
p85
F0.011689191993199999
sS'ftlgame'
p86
F0.0087064676616900004
sS'LifeProTips'
p87
F0.0114160263447
sS'Shitty_Car_Mods'
p88
F0.023537499590799999
sS'FanTheories'
p89
F0.0131859756098
sS'ghettoglamourshots'
p90
F0.0136864986716
sS'popping'
p91
F0.0133677591305
sS'EDC'
p92
F0.013152055512999999
sS'showerbeer'
p93
F0.0109281206711
sS'techsupportgore'
p94
F0.029378978028700001
sS'science'
p95
F0.00916203010704
sS'firstworldproblems'
p96
F0.020333877243600001
sS'Glitch_in_the_Matrix'
p97
F0.0135593220339
sS'standupshots'
p98
F0.019800579874099999
sS'TalesFromThePizzaGuy'
p99
F0.0109112607621
sS'AskScienceFiction'
p100
F0.0104613866272
sS'NewsOfTheStupid'
p101
F0.010181748977100001
sS'audiophile'
p102
F0.0097545626179999997
sS'awesome'
p103
F0.017555648887000001
sS'gadgets'
p104
F0.0099730198496799996
sS'cordcutters'
p105
F0.0093011012152900002
sS'Infographics'
p106
F0.013392128041800001
sS'TalesFromYourServer'
p107
F0.0100810192343
sS'counting'
p108
F0.0113439306358
sS'Pizza'
p109
F0.0130077755977
sS'HouseOfCards'
p110
F0.0093971069580799996
sS'hardbodies'
p111
F0.0087157477715399997
sS'techsupportmacgyver'
p112
F0.032897572187900001
sS'MURICA'
p113
F0.015722851432400001
sS'RealGirls'
p114
F0.0087729089001500008
sS'CableManagement'
p115
F0.010308256517
sS'scifi'
p116
F0.0081696289367000005
sS'RedditLaqueristas'
p117
F0.0072506998302099999
sS'spaceporn'
p118
F0.018146331170500001
sS'nyc'
p119
F0.0080668925887700006
sS'wheredidthesodago'
p120
F0.035845154736400001
sS'polandball'
p121
F0.0139864319656
sS'asmr'
p122
F0.011783077796700001
sS'askscience'
p123
F0.0099887399658599996
sS'wallpaper'
p124
F0.015733651752500001
sS'budgetfood'
p125
F0.0085059462865200008
sS'Images'
p126
F0.011713494261999999
sS'mac'
p127
F0.0079284840100000004
sS'dogpictures'
p128
F0.0091230683299200008
sS'MachinePorn'
p129
F0.018774243599700001
sS'oculus'
p130
F0.0081756672096199995
sS'eFreebies'
p131
F0.0091968117719199993
sS'listentothis'
p132
F0.0070151477526700003
sS'tall'
p133
F0.0136954717329
sS'ImGoingToHellForThis'
p134
F0.0144200541265
sS'cableporn'
p135
F0.020090870367699999
sS'DoesAnybodyElse'
p136
F0.0141343612869
sS'pettyrevenge'
p137
F0.018496269128600001
sS'malehairadvice'
p138
F0.0087033485764899995
sS'CityPorn'
p139
F0.0133985538069
sS'DeepIntoYouTube'
p140
F0.022126799696899999
sS'dataisbeautiful'
p141
F0.0152968004192
sS'battlefield3'
p142
F0.0081695738573600001
sS'beards'
p143
F0.0118150210763
sS'arduino'
p144
F0.0074598070739500004
sS'nostalgia'
p145
F0.018770530267499998
sS'Documentaries'
p146
F0.0071841947714999998
sS'AndroidQuestions'
p147
F0.0108705665592
sS'StonerEngineering'
p148
F0.011367127496200001
sS'Bioshock'
p149
F0.0074404761904800004
sS'Gore'
p150
F0.0094786729857799998
sS'MensRights'
p151
F0.0092302230637200007
sS'MilitaryPorn'
p152
F0.012929276450000001
sS'Frisson'
p153
F0.017993079584799999
sS'electronicmusic'
p154
F0.0071108193851899997
sS'childfree'
p155
F0.0102314554869
sS'food'
p156
F0.0087615570810699994
sS'unitedkingdom'
p157
F0.0076918982220800002
sS'NoStupidQuestions'
p158
F0.018628934175799999
sS'IndieGaming'
p159
F0.0085306035402000005
sS'Braveryjerk'
p160
F0.0077125658389800003
sS'creepyPMs'
p161
F0.015201379094199999
sS'WatchItForThePlot'
p162
F0.015081145958400001
sS'freebies'
p163
F0.016069585729
sS'Watches'
p164
F0.0074395822743899996
sS'mashups'
p165
F0.0077755755450499998
sS'shittyadviceanimals'
p166
F0.0081166921538599994
sS'SubredditDrama'
p167
F0.0136899195811
sS'minimalism'
p168
F0.017649809086000001
sS'wallpapers'
p169
F0.0169409778742
sS'mildlyinteresting'
p170
F0.0134579439252
sS'TrueAtheism'
p171
F0.0089711977335899997
sS'badhistory'
p172
F0.0077780837004400001
sS'malegrooming'
p173
F0.0074267526320099999
sS'Cinemagraphs'
p174
F0.026636225266399999
sS'canada'
p175
F0.0077040040547400003
sS'DunderMifflin'
p176
F0.011679947604000001
sS'psychology'
p177
F0.0076852136489399996
sS'space'
p178
F0.011962661478900001
sS'shittyfoodporn'
p179
F0.023635635265499999
sS'malefashionadvice'
p180
F0.0079591514449600005
sS'LearnUselessTalents'
p181
F0.024747554020799999
sS'BMW'
p182
F0.0070889808881100004
sS'RoomPorn'
p183
F0.0208305335304
sS'highdeas'
p184
F0.0108950878182
sS'electronics'
p185
F0.00712270803949
sS'Astronomy'
p186
F0.0097632813352199997
sS'CatsStandingUp'
p187
F0.0123506947266
sS'AutoDetailing'
p188
F0.0090303818780100003
sS'Cyberpunk'
p189
F0.012609271523200001
sS'cars'
p190
F0.0096982554505299998
sS'LadyBoners'
p191
F0.0078766363434700001
sS'corgi'
p192
F0.0099714106408199995
sS'Roadcam'
p193
F0.016566821980599999
sS'knifeclub'
p194
F0.0070398642917700004
sS'youtubehaiku'
p195
F0.021804353893399998
sS'PoliticalHumor'
p196
F0.0086122047244100008
sS'headphones'
p197
F0.0099179079529000003
sS'programming'
p198
F0.00754964081428
sS'Rainmeter'
p199
F0.0087595001932200007
sS'dogecoin'
p200
F0.0078545349730999997
sS'whatstheword'
p201
F0.0110048251926
sS'gamingpc'
p202
F0.0084828939988799996
sS'misc'
p203
F0.012349066959399999
sS'patientgamers'
p204
F0.012919300512199999
sS'rant'
p205
F0.0089923119165300006
sS'conspiratard'
p206
F0.0132018209408
sS'tf2'
p207
F0.0092086947210599998
sS'OldSchoolCool'
p208
F0.010678797264200001
sS'lego'
p209
F0.0155282955935
sS'ANormalDayInRussia'
p210
F0.0248177820613
sS'onetruegod'
p211
F0.015786278081399999
sS'TheFacebookDelusion'
p212
F0.0098146128680500003
sS'Autos'
p213
F0.0127563993897
sS'PenmanshipPorn'
p214
F0.029197817740999998
sS'shittyreactiongifs'
p215
F0.0228313989004
sS'alternativeart'
p216
F0.010918202971200001
sS'shittyadvice'
p217
F0.011004819103800001
sS'MeanJokes'
p218
F0.0098476559212199999
sS'explainlikeimfive'
p219
F0.0074942866572399996
sS'CombatFootage'
p220
F0.0088675919806100005
sS'GTA'
p221
F0.0081177067478400006
sS'TrollYChromosome'
p222
F0.014420583048000001
sS'mildlyinfuriating'
p223
F0.034086591796699997
sS'Awwducational'
p224
F0.0210621062106
sS'skyrim'
p225
F0.010381227941900001
sS'television'
p226
F0.00732879843726
sS'worldpolitics'
p227
F0.0088813531952699996
sS'typography'
p228
F0.0082909364989600005
sS'nononono'
p229
F0.034416311897799999
sS'knives'
p230
F0.0095712599973800001
sS'KerbalSpaceProgram'
p231
F0.0114434745582
sS'torrents'
p232
F0.0083534015653200008
sS'gallifrey'
p233
F0.0072143616128899999
sS'FoodPorn'
p234
F0.0151518567789
sS'crappymusic'
p235
F0.0084690553745899993
sS'teenagers'
p236
F0.010189549354
sS'conspiracy'
p237
F0.0099542594767000007
sS'HighQualityGifs'
p238
F0.027261380805399998
sS'memes'
p239
F0.0095361351406600004
sS'self'
p240
F0.011041660930100001
sS'DaftPunk'
p241
F0.0100491122025
sS'britishproblems'
p242
F0.0109087429428
sS'lockpicking'
p243
F0.00704792589609
sS'nonononoyes'
p244
F0.0356042791375
sS'firefly'
p245
F0.010890681109099999
sS'aww'
p246
F0.00734394680404
sS'teslamotors'
p247
F0.0083842083842099995
sS'Futurology'
p248
F0.0111911415489
sS'Games'
p249
F0.0087219262997200002
sS'mylittlepony'
p250
F0.00740595419099
sS'progresspics'
p251
F0.0090300753750100007
sS'Gaming4Gamers'
p252
F0.0090192410475700008
sS'Minecraft'
p253
F0.0113462224741
sS'windows'
p254
F0.00917202221252
sS'TumblrInAction'
p255
F0.013510612775700001
sS'secretsanta'
p256
F0.0079328656657700006
sS'HailCorporate'
p257
F0.015687140963300001
sS'Heavymind'
p258
F0.013279932546399999
sS'Justrolledintotheshop'
p259
F0.0208780436107
sS'adventuretime'
p260
F0.0105539167486
sS'LucidDreaming'
p261
F0.00919754043301
sS'fffffffuuuuuuuuuuuu'
p262
F0.0137544068722
sS'Foodforthought'
p263
F0.0081816211530100005
sS'blender'
p264
F0.0073686079545499999
sS'Stance'
p265
F0.0077926955215499999
sS'harrypotter'
p266
F0.00963974881569
sS'wicked_edge'
p267
F0.010007080481499999
sS'shittybattlestations'
p268
F0.019978535457800001
sS'whowouldwin'
p269
F0.00960151105748
sS'GrandTheftAutoV'
p270
F0.011102066657599999
sS'buildapcsales'
p271
F0.00755880086596
sS'arresteddevelopment'
p272
F0.013073170731699999
sS'shutupandtakemymoney'
p273
F0.019938380281699999
sS'webcomics'
p274
F0.0120402441036
sS'photography'
p275
F0.0073918417799800004
sS'JusticePorn'
p276
F0.015894094132500002
sS'geek'
p277
F0.0163403928102
sS'spicy'
p278
F0.0074005550416300003
sS'Conservative'
p279
F0.00728391895358
sS'PrettyGirlsUglyFaces'
p280
F0.0139628172491
sS'AbandonedPorn'
p281
F0.020438985098699999
sS'motorcycles'
p282
F0.0082752247332600008
sS'dadjokes'
p283
F0.024863971347899999
sS'guns'
p284
F0.0075841116237200003
sS'thatHappened'
p285
F0.021550591327200001
sS'futurama'
p286
F0.017264647028700002
sS'whitepeoplegifs'
p287
F0.026567944250899998
sS'cringe'
p288
F0.0140199667978
sS'spotted'
p289
F0.0097353209613600007
sS'StarWars'
p290
F0.0103841059603
sS'TheSimpsons'
p291
F0.012562167724199999
sS'see'
p292
F0.0114980506179
sS'changemyview'
p293
F0.010369521627
sS'roosterteeth'
p294
F0.0070509840384300002
sS'Android'
p295
F0.010601493298700001
sS'KarmaCourt'
p296
F0.0095781536580399999
sS'firstworldanarchists'
p297
F0.031797935065300001
sS'PerfectTiming'
p298
F0.035175656494
sS'cosplay'
p299
F0.0084376374615099999
sS'truegaming'
p300
F0.0097828885265600005
sS'lotr'
p301
F0.0094649795755699997
sS'wikipedia'
p302
F0.011665408632400001
sS'breakingbad'
p303
F0.0146447599654
sS'outside'
p304
F0.025071350164699999
sS'AskCulinary'
p305
F0.0070364238410600003
sS'foodhacks'
p306
F0.014940931202200001
sS'pcmasterrace'
p307
F0.0096618928096900009
sS'europe'
p308
F0.0090150250417399998
sS'glitch_art'
p309
F0.0187034529452
sS'PixelArt'
p310
F0.0097356198642399999
sS'casualiama'
p311
F0.0138874331831
sS'facepalm'
p312
F0.018688461906100001
sS'NotTimAndEric'
p313
F0.0165778182291
sS'Unexpected'
p314
F0.029115069999000001
sS'RedditDayOf'
p315
F0.0109595917343
sS'watchpeopledie'
p316
F0.013134640102800001
sS'Sherlock'
p317
F0.0086586820137899995
sS'GunPorn'
p318
F0.0085253456221199998
sS'GetMotivated'
p319
F0.0095382049410999998
sS'drunk'
p320
F0.0133924270161
sS'reactiongifs'
p321
F0.015658010357700002
sS'community'
p322
F0.0116076970826
sS'incremental_games'
p323
F0.0073120330631099998
sS'startrek'
p324
F0.0091757570984100003
sS'EarthPorn'
p325
F0.010206065318800001
sS'linux'
p326
F0.0081584392551000001
sS'3Dprinting'
p327
F0.0086037831340500005
sS'chrome'
p328
F0.0097947761194000001
sS'beer'
p329
F0.0075371766143799996
sS'Portal'
p330
F0.0128180416345
sS'TheLastAirbender'
p331
F0.0071933036882000003
sS'fatlogic'
p332
F0.014818164888700001
sS'androidthemes'
p333
F0.0094269040849899993
sS'androidapps'
p334
F0.0096248988036299991
sS'somethingimade'
p335
F0.018458917076899999
sS'UnresolvedMysteries'
p336
F0.00730030477
sS'MapPorn'
p337
F0.0156365929663
sS'shittyaskreddit'
p338
F0.0098895224518900007
sS'Chromecast'
p339
F0.0084396099024799994
sS'offbeat'
p340
F0.0147211339018
sS'softwaregore'
p341
F0.029503223359900001
sS'OnOff'
p342
F0.0073235234284899997
sS'ICanDrawThat'
p343
F0.00993097619383
sS'Cooking'
p344
F0.0089951528709899999
sS'IASIP'
p345
F0.0112991266376
sS'hardware'
p346
F0.0094869780651399994
sS'gamecollecting'
p347
F0.0073520830902099998
sS'DIY'
p348
F0.0109949231627
sS'technology'
p349
F0.0090228057856100007
sS'shorthairedhotties'
p350
F0.0081177875049699994
sS'southpark'
p351
F0.0121553714519
sS'daddit'
p352
F0.00742115027829
sS'itookapicture'
p353
F0.016937217404200001
sS'Whatcouldgowrong'
p354
F0.0303660116605
sS'fifthworldproblems'
p355
F0.0125165271045
sS'talesfromtechsupport'
p356
F0.0147893075514
sS'notinteresting'
p357
F0.0307915810361
sS'AnimalsBeingJerks'
p358
F0.026769635683599999
sS'Physics'
p359
F0.0094570538495800001
sS'catpictures'
p360
F0.0081395348837200003
sS'HumanPorn'
p361
F0.020197880686100001
sS'Graffiti'
p362
F0.0076295711654800003
sS'drawing'
p363
F0.0080017659069599994
sS'EmmaWatson'
p364
F0.010118955662000001
sS'GifSound'
p365
F0.0133779264214
sS'FancyFollicles'
p366
F0.0071842029640000003
sS'awwwtf'
p367
F0.0201222815572
sS'Terraria'
p368
F0.0078230780803399992
sS'whatsthisbug'
p369
F0.0117536646407
sS'Piracy'
p370
F0.0073470046827100004
sS'PublicFreakout'
p371
F0.016782356559200001
sS'ArtisanVideos'
p372
F0.0161031457308
sS'rickandmorty'
p373
F0.0107486564179
sS'quotes'
p374
F0.0087974407445100006
sS'woodworking'
p375
F0.012049890775799999
sS'perfectloops'
p376
F0.040867070449499998
sS'InternetIsBeautiful'
p377
F0.0158183076969
sS'carporn'
p378
F0.015797908875800001
sS'TalesFromRetail'
p379
F0.013710632251999999
sS'WouldYouRather'
p380
F0.0123563986107
sS'quityourbullshit'
p381
F0.026911134112099999
sS'ProtectAndServe'
p382
F0.0080323313968200007
sS'woahdude'
p383
F0.0200572570252
sS'Fallout'
p384
F0.0098130311614700004
sS'offmychest'
p385
F0.00837808530414
sS'slowcooking'
p386
F0.010623400453900001
sS'NSFW_GIF'
p387
F0.00833440846342
sS'howto'
p388
F0.012678961417099999
sS'cringepics'
p389
F0.013781880977700001
sS'toosoon'
p390
F0.016887637952699999
sS'thewalkingdead'
p391
F0.0079598397716899999
sS'gifs'
p392
F0.0086133408692299993
sS'Art'
p393
F0.0088400449221899997
sS'ConfusedBoners'
p394
F0.015888072089200001
sS'4chan'
p395
F0.014384444958799999
sS'montageparodies'
p396
F0.012550143266500001
sS'ArcherFX'
p397
F0.0138545274617
sS'getdisciplined'
p398
F0.0074287208998200004
sS'google'
p399
F0.011247230003800001
sS'gardening'
p400
F0.0082843399251699996
sS'whatisthisthing'
p401
F0.0231961064476
sS'MechanicalKeyboards'
p402
F0.0153004773496
sS'NetflixBestOf'
p403
F0.011803120734399999
sS'ShouldIbuythisgame'
p404
F0.0081361990311799998
sS'tumblr'
p405
F0.017591283373500001
sS'interestingasfuck'
p406
F0.0279888909215
sS'MarkMyWords'
p407
F0.016482079009299998
sS'PropagandaPosters'
p408
F0.0120396039604
sS'Coffee'
p409
F0.0088236524066400007
sS'gameofthrones'
p410
F0.00738853503185
sS'humor'
p411
F0.013984096517700001
sS'AMA'
p412
F0.0080438756855600001
sS'ExpectationVsReality'
p413
F0.031238022230700001
sS'lifehacks'
p414
F0.0213946826605
sS'SCP'
p415
F0.0073333944449499996
sS'Enhancement'
p416
F0.015756716300300001
sS'starbound'
p417
F0.0077022357300499996
sS'blackpeoplegifs'
p418
F0.022618231665500001
sS'ProgrammerHumor'
p419
F0.0154777305489
sS'CookieClicker'
p420
F0.0075024857633599999
sS'FloridaMan'
p421
F0.022630002140000001
sS'delusionalartists'
p422
F0.0240951178451
sS'Frugal'
p423
F0.010816139708500001
sS'promos'
p424
F0.0093541139732399997
sS'JonTron'
p425
F0.0079640435262599996
sS'shittyaskscience'
p426
F0.0202721536629
sS'lewronggeneration'
p427
F0.019255507316300002
sS'worldbuilding'
p428
F0.0079145002888499991
sS'calvinandhobbes'
p429
F0.014620527514499999
sS'netflix'
p430
F0.0090546563452999999
sS'sixwordstories'
p431
F0.012645088232500001
sS'AnimalsBeingBros'
p432
F0.027662755923599999
sS'classic4chan'
p433
F0.0218571219011
sS'GameDeals'
p434
F0.0087870037380200008
sS'battlestations'
p435
F0.0149844441152
sS'NSFWFunny'
p436
F0.0103892407315
sS'androidcirclejerk'
p437
F0.0101691397738
sS'Design'
p438
F0.0106337728626
sS'subaru'
p439
F0.0085622104566499997
sS'marijuanaenthusiasts'
p440
F0.0132625994695
sS'TrollXChromosomes'
p441
F0.0118706508391
sS'tifu'
p442
F0.0096296733421700007
sS'SimCity'
p443
F0.0083909180651500007
sS'Damnthatsinteresting'
p444
F0.032622232935600001
sS'CrazyIdeas'
p445
F0.025818939845099999
sS'TinyHouses'
p446
F0.010227982510899999
sS'Bad_Cop_No_Donut'
p447
F0.012314969620400001
sS'gopro'
p448
F0.0076230076230099997
sS'MorbidReality'
p449
F0.012750497523999999
sS'gif'
p450
F0.018636216740299999
sS'cats'
p451
F0.011964033588499999
sS'introvert'
p452
F0.0086763378913000001
sS'happy'
p453
F0.011500936874100001
sS'cablefail'
p454
F0.0139229336209
sS'explainlikeIAmA'
p455
F0.016275730014400001
sS'misleadingthumbnails'
p456
F0.046520399823999997
sS'batman'
p457
F0.0091295777570299993
sS'gamegrumps'
p458
F0.0070797037616999996
sS'trailerparkboys'
p459
F0.0074896348802999998
sS'snackexchange'
p460
F0.0089619768554799993
sS'blunderyears'
p461
F0.023054019566099999
sS'Marvel'
p462
F0.0072430368078000001
sS'Random_Acts_Of_Amazon'
p463
F0.0075560353038300002
sS'rage'
p464
F0.020459603070099999
sS'comics'
p465
F0.0174623677282
sS'nsfw'
p466
F0.0085095937487200003
sS'behindthegifs'
p467
F0.033810143042899997
sS'civ'
p468
F0.0072119443305400004
sS'BustyPetite'
p469
F0.0081555190808399996
sS'fullmoviesonyoutube'
p470
F0.013381941048300001
sS'iphone'
p471
F0.0089392643284899997
sS'TrueAskReddit'
p472
F0.0098576837707299997
sS'engineering'
p473
F0.0075347930148000003
sS'bestofworldstar'
p474
F0.0096201810019200008
sS'DAE'
p475
F0.0087984358336300004
sS'girlsinyogapants'
p476
F0.0085011497456600003
sS'eatsandwiches'
p477
F0.014254474771199999
sS'bicycling'
p478
F0.0102090780003
sS'shittyama'
p479
F0.0133018665522
sS'circlebroke'
p480
F0.0092030813279700002
sS'zelda'
p481
F0.0096921114957199996
sS'ImaginaryLandscapes'
p482
F0.0140416173236
sS'TheWayWeWere'
p483
F0.012970389965000001
sS'badtattoos'
p484
F0.0156489312113
sS'linguistics'
p485
F0.0077542062911500004
sS'nottheonion'
p486
F0.0123998664887
sS'Frugal_Jerk'
p487
F0.017286734310399999
sS'raspberry_pi'
p488
F0.0089458935115300005
sS'GTAV'
p489
F0.0085164212910499998
sS'bigdickproblems'
p490
F0.0087266704885699993
sS'TheoryOfReddit'
p491
F0.0117338003503
sS'oddlysatisfying'
p492
F0.0430188006772
sS'cosplaygirls'
p493
F0.011787360681600001
sS'entertainment'
p494
F0.0078276885296199999
sS'youtube'
p495
F0.0089068825910899995
sS'atheism'
p496
F0.0077171430821299999
sS'terriblefacebookmemes'
p497
F0.018623980298600001
sS'PrettyGirls'
p498
F0.0128809299403
sS'urbanexploration'
p499
F0.0152985338905
s.