(dp1
S'RealEstate'
p2
F0.0089483857112199992
sS'EatCheapAndHealthy'
p3
F0.0081544350141500004
sS'StockMarket'
p4
F0.0085365853658500006
sS'UofT'
p5
F0.0073696145124699996
sS'Winnipeg'
p6
F0.012010261194
sS'saskatoon'
p7
F0.0094714329361400007
sS'leafs'
p8
F0.0118371667789
sS'Quebec'
p9
F0.0105688935282
sS'halifax'
p10
F0.013760932944600001
sS'financialindependence'
p11
F0.023684437171600001
sS'canada'
p12
F0.034583387778199998
sS'ontario'
p13
F0.034965872350600002
sS'investing'
p14
F0.0178609025195
sS'canadaguns'
p15
F0.0124980948026
sS'CanadianForces'
p16
F0.0085430257844099997
sS'Torontobluejays'
p17
F0.0122853202959
sS'vancouver'
p18
F0.024481888099599999
sS'HomeImprovement'
p19
F0.0075408742075400003
sS'canucks'
p20
F0.0085710787314799992
sS'finance'
p21
F0.01
sS'Economics'
p22
F0.0075237592397
sS'Calgary'
p23
F0.023354728945899999
sS'londonontario'
p24
F0.0087404401435899996
sS'torontoraptors'
p25
F0.0096489188560799997
sS'Frugal'
p26
F0.0101928214659
sS'stocks'
p27
F0.0090505767524400003
sS'uwaterloo'
p28
F0.0088764899822499996
sS'toronto'
p29
F0.0287906411425
sS'BuyItForLife'
p30
F0.0089114969785100001
sS'CanadaPolitics'
p31
F0.031334841629
sS'Edmonton'
p32
F0.020389623498500001
sS'VictoriaBC'
p33
F0.0098606363397300001
sS'personalfinance'
p34
F0.0115223493118
sS'ottawa'
p35
F0.022585849274000001
sS'Entrepreneur'
p36
F0.0086324257425699994
sS'metacanada'
p37
F0.011615989067300001
sS'blackberry'
p38
F0.0073540226503899997
sS'minimalism'
p39
F0.00707308858201
sS'Accounting'
p40
F0.0075187969924800004
sS'montreal'
p41
F0.0153282239254
s.