(dp1
S'ICanDrawThat'
p2
F0.0079234972677599998
sS'photoshopbattles'
p3
F0.013332332783
sS'Unexpected'
p4
F0.0072985105687200002
sS'whatisthisthing'
p5
F0.0077086065987300003
sS'photoshop'
p6
F0.01295207108
sS'reactiongifs'
p7
F0.0072536916109100001
sS'mildlyinfuriating'
p8
F0.0073296382648999998
sS'oddlysatisfying'
p9
F0.0076739920846899999
sS'picrequests'
p10
F0.041524518418999998
sS'tipofmytongue'
p11
F0.0072899414457300001
sS'itookapicture'
p12
F0.0074412365866099997
sS'redditgetsdrawn'
p13
F0.0087439507259100008
sS'techsupport'
p14
F0.0077661278382699997
sS'wallpapers'
p15
F0.0075348118959499997
s.