(dp1
S'YouShouldKnow'
p2
F0.0080293705924300001
sS'IDAP'
p3
F0.0101751064837
sS'delusionalartists'
p4
F0.0091989486915800001
sS'google'
p5
F0.0074264110180899999
sS'design_critiques'
p6
F0.024582104228100001
sS'iphone'
p7
F0.0070577268792899996
sS'glitch_art'
p8
F0.0124653739612
sS'applehelp'
p9
F0.011657196415
sS'Cinema4D'
p10
F0.0146876932591
sS'Filmmakers'
p11
F0.012706796890599999
sS'Graffiti'
p12
F0.0078027465667899996
sS'redditgetsdrawn'
p13
F0.0072985533809000001
sS'interestingasfuck'
p14
F0.0072339711312500001
sS'PhotoshopRequest'
p15
F0.01295207108
sS'perfectloops'
p16
F0.0079816768462000007
sS'torrents'
p17
F0.0079972183588300008
sS'webdev'
p18
F0.0084503910158999999
sS'CrappyDesign'
p19
F0.011769846254699999
sS'Cinemagraphs'
p20
F0.010199671536
sS'blender'
p21
F0.011659953360200001
sS'nononono'
p22
F0.0070512517154900003
sS'astrophotography'
p23
F0.0070045724292200004
sS'CrazyIdeas'
p24
F0.00771747854541
sS'humor'
p25
F0.0070001810391600002
sS'chrome'
p26
F0.0092977549323499994
sS'freelance'
p27
F0.011830711062299999
sS'editors'
p28
F0.0108904548366
sS'ImaginaryLandscapes'
p29
F0.00741839762611
sS'Enhancement'
p30
F0.0077237619264000001
sS'AndroidQuestions'
p31
F0.0070996450177500002
sS'picrequests'
p32
F0.024738705327
sS'LearnUselessTalents'
p33
F0.0081065759637199992
sS'animation'
p34
F0.012728001603499999
sS'Rainmeter'
p35
F0.0077806864456099996
sS'analog'
p36
F0.0104413347686
sS'forhire'
p37
F0.0090219397170399999
sS'photocritique'
p38
F0.0232541801321
sS'AfterEffects'
p39
F0.025824244703500001
sS'lifehacks'
p40
F0.0073071531974500002
sS'nonononoyes'
p41
F0.0071094097139100003
sS'graphic_design'
p42
F0.044966785896799998
sS'gopro'
p43
F0.00779438289101
sS'wallpapers'
p44
F0.0096114325460800003
sS'ArtisanVideos'
p45
F0.0082111436950099998
sS'advertising'
p46
F0.0089427213040499994
sS'ExposurePorn'
p47
F0.0141955835962
sS'shutupandtakemymoney'
p48
F0.0082090960558599997
sS'Wordpress'
p49
F0.012803979366199999
sS'photoshopbattles'
p50
F0.010901309503000001
sS'photography'
p51
F0.023279033105599999
sS'wallpaper'
p52
F0.0090075727381400007
sS'howto'
p53
F0.0087392453085799997
sS'AbandonedPorn'
p54
F0.0072545428933699996
sS'drawing'
p55
F0.011551459293400001
sS'geek'
p56
F0.0079849061689300001
sS'mac'
p57
F0.0107330306068
sS'web_design'
p58
F0.018105374796399998
sS'Design'
p59
F0.033643736857900002
sS'VideoEditing'
p60
F0.017159420289900001
sS'somethingimade'
p61
F0.0072034331255700001
sS'IWantToLearn'
p62
F0.0088999811640599995
sS'videography'
p63
F0.010330578512399999
sS'Art'
p64
F0.00792105350012
sS'windows'
p65
F0.0084912280701800007
sS'youtube'
p66
F0.0071363604561699998
sS'typography'
p67
F0.024404282260799999
sS'ArtistLounge'
p68
F0.0075175943698000004
sS'PerfectTiming'
p69
F0.0080516805542599993
sS'findareddit'
p70
F0.0079796880667399993
sS'apple'
p71
F0.0077939297899500002
sS'itookapicture'
p72
F0.0147646756126
sS'architecture'
p73
F0.0079566615879499997
sS'techsupport'
p74
F0.0088649629163699995
sS'vfx'
p75
F0.0104123281966
sS'minimalism'
p76
F0.0077500103609800001
sS'learnart'
p77
F0.012570173297500001
sS'AskPhotography'
p78
F0.0167830290011
s.