(dp1
S'getdisciplined'
p2
F0.0084623893805300006
sS'gamemusic'
p3
F0.0146849412602
sS'audioengineering'
p4
F0.015922237462
sS'audiophile'
p5
F0.0076833784754900001
sS'DecidingToBeBetter'
p6
F0.0076320132013199997
sS'literature'
p7
F0.0070223516314100003
sS'Frisson'
p8
F0.0087357437515199997
sS'everymanshouldknow'
p9
F0.0073285161467100002
sS'singing'
p10
F0.016979850577300001
sS'linguistics'
p11
F0.0079038887132500003
sS'languagelearning'
p12
F0.0079585020962099993
sS'Bass'
p13
F0.0115053971948
sS'classicalmusic'
p14
F0.054545454545499999
sS'Jazz'
p15
F0.03257463302
sS'LearnJapanese'
p16
F0.0074243289548799997
sS'socialskills'
p17
F0.0081890500701899994
sS'Guitar'
p18
F0.012692700481399999
sS'edmproduction'
p19
F0.010059144041400001
sS'LearnUselessTalents'
p20
F0.0091882781493000006
sS'PenmanshipPorn'
p21
F0.0081275398562100001
sS'chess'
p22
F0.0102966036576
sS'musictheory'
p23
F0.056668204891600002
sS'math'
p24
F0.0096931860188099999
sS'LetsTalkMusic'
p25
F0.0092120561667099997
sS'beatles'
p26
F0.0080875826018300002
sS'YouShouldKnow'
p27
F0.0073721513748399997
sS'ukulele'
p28
F0.0073109435686499998
sS'ableton'
p29
F0.0087620759379899993
sS'answers'
p30
F0.0072183214121700002
sS'synthesizers'
p31
F0.017236165709099999
sS'TrueAskReddit'
p32
F0.0076032366071399999
sS'drums'
p33
F0.0099901413079199995
sS'Physics'
p34
F0.0077099640986400004
sS'bodyweightfitness'
p35
F0.0073667711598700003
sS'IWantToLearn'
p36
F0.0095021595817199999
sS'youtubehaiku'
p37
F0.0072339818972299999
sS'progrockmusic'
p38
F0.00745909528393
sS'guitarlessons'
p39
F0.0110312721384
sS'WeAreTheMusicMakers'
p40
F0.0224068312703
sS'compsci'
p41
F0.0072458860973799999
sS'guitarpedals'
p42
F0.0070172321904399997
sS'minimalism'
p43
F0.0073458574181099997
sS'Meditation'
p44
F0.0084656670170999999
s.