(dp1
S'FancyFollicles'
p2
F0.043585206921799999
sS'awwwtf'
p3
F0.0099181360201500007
sS'DoesAnybodyElse'
p4
F0.0085588542806400002
sS'pettyrevenge'
p5
F0.0073985076514500002
sS'ABraThatFits'
p6
F0.0147973895887
sS'uglyduckling'
p7
F0.0082894395993400004
sS'actuallesbians'
p8
F0.0123713597548
sS'Pets'
p9
F0.011397835691899999
sS'RandomActsofMakeup'
p10
F0.0181563020788
sS'BeardPorn'
p11
F0.011821974965200001
sS'TalesFromRetail'
p12
F0.00847960856037
sS'BabyBumps'
p13
F0.0078146346794899998
sS'nostalgia'
p14
F0.00707294180746
sS'harrypotter'
p15
F0.0082757088505699995
sS'badtattoos'
p16
F0.022156674440899998
sS'reptiles'
p17
F0.0079193664506800009
sS'offmychest'
p18
F0.0078934066076500001
sS'Anxiety'
p19
F0.0097891872131299993
sS'TalesFromYourServer'
p20
F0.0070577856197599998
sS'childfree'
p21
F0.011557043165200001
sS'horror'
p22
F0.00774641193803
sS'BDSMcommunity'
p23
F0.011038489469899999
sS'vegan'
p24
F0.0092566776334099994
sS'altgonewild'
p25
F0.0077142069978900002
sS'makeupexchange'
p26
F0.0137569894382
sS'beards'
p27
F0.010309918638600001
sS'PrettyGirlsUglyFaces'
p28
F0.0110645696673
sS'Rabbits'
p29
F0.011101836394
sS'creepyPMs'
p30
F0.011459780275300001
sS'polyamory'
p31
F0.0082625482625500006
sS'RATS'
p32
F0.013659309116100001
sS'snakes'
p33
F0.011551304033899999
sS'AskWomen'
p34
F0.0117042645241
sS'tea'
p35
F0.0076887691397799999
sS'redditgetsdrawn'
p36
F0.0085114372437999995
sS'sex'
p37
F0.0097170971709699995
sS'tumblr'
p38
F0.0075615156452399999
sS'TwoXChromosomes'
p39
F0.0079489064510199995
sS'fatpeoplestories'
p40
F0.0074246793888400001
sS'knitting'
p41
F0.011028888572599999
sS'LongDistance'
p42
F0.0087083651156900001
sS'depression'
p43
F0.0072384380624499998
sS'cosplay'
p44
F0.0077811550151999998
sS'shittyfoodporn'
p45
F0.0076338218161800002
sS'ExpectationVsReality'
p46
F0.0090734824281200003
sS'Dreadlocks'
p47
F0.012697652132199999
sS'tattoos'
p48
F0.025513328162600001
sS'Indiemakeupandmore'
p49
F0.0151200711533
sS'transtimelines'
p50
F0.0087634925724100008
sS'delusionalartists'
p51
F0.00711275026344
sS'lgbt'
p52
F0.0099521716024899998
sS'LadyBoners'
p53
F0.0150154681959
sS'ThriftStoreHauls'
p54
F0.0079813976872799997
sS'SkincareAddiction'
p55
F0.015365571432399999
sS'vegetarian'
p56
F0.0091066782307000008
sS'Hair'
p57
F0.019661981258400001
sS'Stretched'
p58
F0.0813347236705
sS'MakeupAddicts'
p59
F0.015963107484899999
sS'amiugly'
p60
F0.0078918722786600008
sS'weddingplanning'
p61
F0.0074007220216600004
sS'xxfitness'
p62
F0.011072261072299999
sS'confession'
p63
F0.0081360494280299997
sS'selfharm'
p64
F0.0086714841578700002
sS'TrollXChromosomes'
p65
F0.013708799366499999
sS'femalefashionadvice'
p66
F0.0150811604556
sS'BeautyBoxes'
p67
F0.00855302877843
sS'CrossStitch'
p68
F0.0076406814661799998
sS'loseit'
p69
F0.0085891741027599999
sS'EatCheapAndHealthy'
p70
F0.0079616603540199997
sS'MorbidReality'
p71
F0.0077998050048700002
sS'cats'
p72
F0.010681805449199999
sS'PenmanshipPorn'
p73
F0.0078014898328999998
sS'catpictures'
p74
F0.0082976903336199996
sS'firstimpression'
p75
F0.0120283948994
sS'raisedbynarcissists'
p76
F0.0087185164683099992
sS'dogs'
p77
F0.0079781257023000002
sS'happy'
p78
F0.0077703147635999996
sS'TrollYChromosome'
p79
F0.0085070629627700001
sS'bdsm'
p80
F0.0093877211929900006
sS'MakeupAddiction'
p81
F0.023636959091000002
sS'somethingimade'
p82
F0.0083845457577100008
sS'Rateme'
p83
F0.0077525470783899996
sS'curlyhair'
p84
F0.016729539117600001
sS'TheGirlSurvivalGuide'
p85
F0.0210403631456
sS'ghettoglamourshots'
p86
F0.0073245000411500004
sS'blunderyears'
p87
F0.0111779512778
sS'Random_Acts_Of_Amazon'
p88
F0.0094984060893899998
sS'showerbeer'
p89
F0.0089969221056000002
sS'popping'
p90
F0.015712349652699999
sS'bisexual'
p91
F0.0110242698478
sS'entwives'
p92
F0.012285279408600001
sS'bigboobproblems'
p93
F0.0150291189179
sS'RandomActsOfPolish'
p94
F0.0101219512195
sS'shorthairedhotties'
p95
F0.014413969195300001
sS'tattoo'
p96
F0.020352781546800001
sS'pitbulls'
p97
F0.0094694005321599994
sS'Hotchickswithtattoos'
p98
F0.0085350841198199995
sS'transpassing'
p99
F0.0104327315613
sS'Gore'
p100
F0.0086507424144600005
sS'RedditLaqueristas'
p101
F0.026667300470600001
sS'Baking'
p102
F0.00959140610013
sS'birthcontrol'
p103
F0.0143869891576
sS'sewing'
p104
F0.0092917935503999995
sS'progresspics'
p105
F0.0099713668558799994
sS'crochet'
p106
F0.011590782898399999
sS'dogpictures'
p107
F0.0084944532488099994
sS'thesims'
p108
F0.0096180269304800003
sS'GirlGamers'
p109
F0.0074200218951499999
sS'drawing'
p110
F0.0076494740986600002
sS'crafts'
p111
F0.0118897637795
sS'AmericanHorrorStory'
p112
F0.0089607890305500003
sS'ladybonersgw'
p113
F0.0088672237697300007
s.