(dp1
S'IDAP'
p2
F0.0093652445369399994
sS'Heavymind'
p3
F0.0118793265533
sS'adventuretime'
p4
F0.0088201685473500002
sS'AndroidGaming'
p5
F0.0100674853413
sS'perfectloops'
p6
F0.013568320920299999
sS'fifthworldproblems'
p7
F0.0080362195812099992
sS'RandomActsOfGaming'
p8
F0.0076981999233999999
sS'blender'
p9
F0.018828451882799999
sS'TheoryOfReddit'
p10
F0.0074099023240099997
sS'unixporn'
p11
F0.0083855217068300007
sS'shittybattlestations'
p12
F0.0089811087023799994
sS'Rainmeter'
p13
F0.0077812018490000003
sS'gamedesign'
p14
F0.032244672017700003
sS'ImaginaryMonsters'
p15
F0.016089473167899999
sS'dwarffortress'
p16
F0.0117210250437
sS'geek'
p17
F0.0071196516209300004
sS'Steam'
p18
F0.0070528557284100001
sS'PropagandaPosters'
p19
F0.00731080814068
sS'CrappyDesign'
p20
F0.010024504344
sS'vexillology'
p21
F0.0070047205725600001
sS'Enhancement'
p22
F0.0070312500000000002
sS'Cyberpunk'
p23
F0.015479115479099999
sS'LearnUselessTalents'
p24
F0.0078231494103000003
sS'minimalism'
p25
F0.0076198630136999996
sS'DeepIntoYouTube'
p26
F0.0107650022904
sS'tabletopgamedesign'
p27
F0.0079547192901899995
sS'gamemusic'
p28
F0.014427040395699999
sS'pcgaming'
p29
F0.0072597014925399996
sS'MechanicalKeyboards'
p30
F0.0075044344385299996
sS'starbound'
p31
F0.0145927177177
sS'ShouldIbuythisgame'
p32
F0.0074806305102899998
sS'MarkMyWords'
p33
F0.0083333333333300008
sS'Cinemagraphs'
p34
F0.011685059816400001
sS'truegaming'
p35
F0.0119066027524
sS'ExpectationVsReality'
p36
F0.0072038618640899998
sS'graphic_design'
p37
F0.01044030867
sS'outside'
p38
F0.0097252613663999996
sS'gamedev'
p39
F0.038367998838400003
sS'tf2'
p40
F0.0071220240114000001
sS'SCP'
p41
F0.0091214594335100006
sS'iosgaming'
p42
F0.00801530194007
sS'glitch_art'
p43
F0.023487390410199999
sS'javascript'
p44
F0.0074925816023700001
sS'delusionalartists'
p45
F0.011259507695999999
sS'NotTimAndEric'
p46
F0.0097447795823699997
sS'JonTron'
p47
F0.0095992083127200006
sS'emulation'
p48
F0.0086734126542900008
sS'GamePhysics'
p49
F0.012981980236399999
sS'gamingsuggestions'
p50
F0.0082526583082100004
sS'Unity3D'
p51
F0.0268747691171
sS'youtubehaiku'
p52
F0.00765893227693
sS'programming'
p53
F0.0076178127152600004
sS'Design'
p54
F0.012075657692100001
sS'wheredidthesodago'
p55
F0.0077609623593300004
sS'classic4chan'
p56
F0.0073659921902700003
sS'learnart'
p57
F0.010890024200100001
sS'design_critiques'
p58
F0.0081147386299300003
sS'nintendo'
p59
F0.0093276621147699995
sS'patientgamers'
p60
F0.010010427528699999
sS'cade'
p61
F0.0073003802281400004
sS'rpg'
p62
F0.0079020150138299997
sS'JRPG'
p63
F0.0083308539125300004
sS'Damnthatsinteresting'
p64
F0.0071434793971599997
sS'CrazyIdeas'
p65
F0.0078117587526499999
sS'lego'
p66
F0.00964041653108
sS'OutOfTheLoop'
p67
F0.0071004037929300002
sS'PenmanshipPorn'
p68
F0.0070179410266600004
sS'shittyreactiongifs'
p69
F0.0082983682983699993
sS'alternativeart'
p70
F0.0123126960158
sS'WebGames'
p71
F0.011583011583
sS'web_design'
p72
F0.0086563357421599995
sS'Pareidolia'
p73
F0.010165097557600001
sS'explainlikeIAmA'
p74
F0.0073831009023799998
sS'misleadingthumbnails'
p75
F0.0094732309458899992
sS'worldbuilding'
p76
F0.0152291197159
sS'rpg_gamers'
p77
F0.0076477404403200002
sS'gamegrumps'
p78
F0.0088088445078499996
sS'snes'
p79
F0.00876572882794
sS'Terraria'
p80
F0.0096841134424699993
sS'ftlgame'
p81
F0.0090458585699700004
sS'roguelikes'
p82
F0.016756828077600001
sS'Awwducational'
p83
F0.0073975853164899999
sS'IndieGaming'
p84
F0.044103547459300001
sS'ProgrammerHumor'
p85
F0.010997029238499999
sS'webcomics'
p86
F0.0091638029782399998
sS'comics'
p87
F0.0097342804525099996
sS'typography'
p88
F0.0090705765407599996
sS'Perfectfit'
p89
F0.0097356198642399999
sS'PerfectTiming'
p90
F0.0071816770186300003
sS'behindthegifs'
p91
F0.010163749294200001
sS'softwaregore'
p92
F0.0118740795287
sS'ICanDrawThat'
p93
F0.0089239746009999992
sS'gamemaker'
p94
F0.032772820864799997
sS'gamernews'
p95
F0.0098198784722199998
sS'gamecollecting'
p96
F0.0097654906815200001
sS'Metroid'
p97
F0.0092085946883799993
sS'learnprogramming'
p98
F0.0084709224175099993
sS'techsupportmacgyver'
p99
F0.0094105569338699992
sS'HighQualityGifs'
p100
F0.0080290280243999999
sS'zelda'
p101
F0.0085079059314600008
sS'ImaginaryLandscapes'
p102
F0.015765036173199999
sS'animation'
p103
F0.0161237607583
sS'wallpapers'
p104
F0.0091995724142399996
sS'notinteresting'
p105
F0.0071423144137999998
sS'Portal'
p106
F0.0077539087326800003
sS'wallpaper'
p107
F0.0079755642287500008
sS'linux_gaming'
p108
F0.0080248771190700001
sS'Games'
p109
F0.0077955687510400003
sS'Gaming4Gamers'
p110
F0.010327577860300001
sS'bindingofisaac'
p111
F0.0072727272727299997
sS'Minecraft'
p112
F0.0085611650067799992
sS'oddlysatisfying'
p113
F0.0070921985815599999
sS'SketchDaily'
p114
F0.0082960231761899997
sS'sixwordstories'
p115
F0.0072920528982800001
sS'minecraftsuggestions'
p116
F0.0076562350464199997
sS'HailCorporate'
p117
F0.0075498831565700003
sS'retrogaming'
p118
F0.010063045586800001
sS'drawing'
p119
F0.0124580428608
s.