(dp1
S'uglyduckling'
p2
F0.0072530220925400004
sS'KitchenConfidential'
p3
F0.019964652746000001
sS'BuyItForLife'
p4
F0.015967638918500001
sS'everymanshouldknow'
p5
F0.013022823162
sS'aviation'
p6
F0.00831225153596
sS'HistoryPorn'
p7
F0.012328938584799999
sS'holdmybeer'
p8
F0.0145884117757
sS'ImaginaryMonsters'
p9
F0.0079131109387099996
sS'YouShouldKnow'
p10
F0.012241388031800001
sS'horror'
p11
F0.0078820950515400001
sS'UpliftingNews'
p12
F0.0079481895790399996
sS'PandR'
p13
F0.012027700157899999
sS'Military'
p14
F0.0076005140444299997
sS'photoshopbattles'
p15
F0.0081469062712800008
sS'IWantToLearn'
p16
F0.00945195976413
sS'Celebs'
p17
F0.0096577055824700001
sS'CrappyDesign'
p18
F0.014391865467299999
sS'NewsOfTheWeird'
p19
F0.0070057873895799996
sS'Cyberpunk'
p20
F0.00926754778579
sS'Libertarian'
p21
F0.0085715249890300008
sS'Paleo'
p22
F0.0075411460340199998
sS'pcgaming'
p23
F0.0080755820492600001
sS'EatCheapAndHealthy'
p24
F0.0169328828137
sS'gentlemanboners'
p25
F0.0110393720724
sS'polandball'
p26
F0.0076501111934799996
sS'bestof'
p27
F0.0087226110014600004
sS'MechanicAdvice'
p28
F0.0078522920203699994
sS'fatpeoplestories'
p29
F0.0090765588003199997
sS'forwardsfromgrandma'
p30
F0.012582588418199999
sS'no_sob_story'
p31
F0.0076205845436600004
sS'frugalmalefashion'
p32
F0.0080923166812699992
sS'chicago'
p33
F0.0086888676100299999
sS'skeptic'
p34
F0.0094116617054800008
sS'InteriorDesign'
p35
F0.0083133812184100001
sS'socialskills'
p36
F0.0076611286802400003
sS'guns'
p37
F0.0074616802265500002
sS'disney'
p38
F0.0072225869993400001
sS'tattoos'
p39
F0.0083617033984399996
sS'Economics'
p40
F0.0074097809108
sS'malelivingspace'
p41
F0.0103039670273
sS'answers'
p42
F0.0094635285442100005
sS'baseball'
p43
F0.0092931910672
sS'TopGear'
p44
F0.0087000822980799995
sS'ThriftStoreHauls'
p45
F0.0134976887519
sS'Breadit'
p46
F0.036941263391199998
sS'environment'
p47
F0.0083160083160099992
sS'WarshipPorn'
p48
F0.0073436312990599996
sS'vegetarian'
p49
F0.00969850305714
sS'cripplingalcoholism'
p50
F0.0078207739307499993
sS'whatsthisbug'
p51
F0.0085329540909300002
sS'QuotesPorn'
p52
F0.0112166005688
sS'apple'
p53
F0.0075667189952899998
sS'TrueReddit'
p54
F0.0103055175559
sS'confession'
p55
F0.0085545009370699993
sS'KingOfTheHill'
p56
F0.0112833684983
sS'IdiotsFightingThings'
p57
F0.013274096548699999
sS'Firearms'
p58
F0.0075080199303799999
sS'gamernews'
p59
F0.0085437630529699993
sS'ContagiousLaughter'
p60
F0.010749909556
sS'graphic_design'
p61
F0.0071318000884600004
sS'HIMYM'
p62
F0.0071087674798900003
sS'FiftyFifty'
p63
F0.0090225563909799994
sS'eldertrees'
p64
F0.0097030714233600004
sS'AskHistorians'
p65
F0.0075291595416099996
sS'OutOfTheLoop'
p66
F0.0110716973019
sS'iphone'
p67
F0.00789552302505
sS'misleadingthumbnails'
p68
F0.014826517591299999
sS'trailerparkboys'
p69
F0.0102899906455
sS'Pareidolia'
p70
F0.0145416472778
sS'hockey'
p71
F0.0072118989516200003
sS'tipofmytongue'
p72
F0.0074885744177099998
sS'cordcutters'
p73
F0.0131815984885
sS'LifeProTips'
p74
F0.0088691060577900001
sS'Shitty_Car_Mods'
p75
F0.0121509824199
sS'AskMen'
p76
F0.0075632578483999999
sS'ghettoglamourshots'
p77
F0.010387534958100001
sS'EDC'
p78
F0.010276584641299999
sS'showerbeer'
p79
F0.014303291294999999
sS'techsupportgore'
p80
F0.011675896857
sS'firstworldproblems'
p81
F0.011882089923
sS'findareddit'
p82
F0.0081279999999999998
sS'standupshots'
p83
F0.013503560029499999
sS'AskScienceFiction'
p84
F0.0083492952212599995
sS'NewsOfTheStupid'
p85
F0.0080302314596099999
sS'audiophile'
p86
F0.0076192464252200004
sS'awesome'
p87
F0.010295582862799999
sS'gadgets'
p88
F0.0077329490874200003
sS'Infographics'
p89
F0.0080064698746500004
sS'TalesFromYourServer'
p90
F0.010795139103099999
sS'CampingandHiking'
p91
F0.010500525026300001
sS'HouseOfCards'
p92
F0.0070378151260499996
sS'techsupportmacgyver'
p93
F0.0081721030942199999
sS'MURICA'
p94
F0.0117543084401
sS'travel'
p95
F0.0090877239083800004
sS'RealGirls'
p96
F0.0077736941752999996
sS'scifi'
p97
F0.0096015961094800002
sS'spaceporn'
p98
F0.0118674194898
sS'nyc'
p99
F0.011397167305999999
sS'wallpapers'
p100
F0.0091386931071599994
sS'BasicIncome'
p101
F0.0070041388093000003
sS'wallpaper'
p102
F0.0072866065232499999
sS'budgetfood'
p103
F0.019099698842900002
sS'Images'
p104
F0.0097537953276199997
sS'vegan'
p105
F0.0071300277581199997
sS'dogpictures'
p106
F0.0097796484278300008
sS'MachinePorn'
p107
F0.0092613853807900007
sS'FanTheories'
p108
F0.0088234180330999997
sS'tall'
p109
F0.0083737530886800002
sS'ImGoingToHellForThis'
p110
F0.0094048573641900002
sS'cableporn'
p111
F0.0074037857093000002
sS'wine'
p112
F0.0096314907872700004
sS'DoesAnybodyElse'
p113
F0.010543585784299999
sS'pettyrevenge'
p114
F0.011758434717200001
sS'malehairadvice'
p115
F0.00813645721008
sS'CityPorn'
p116
F0.0125549610637
sS'DeepIntoYouTube'
p117
F0.011669076946099999
sS'dataisbeautiful'
p118
F0.0088598872122299995
sS'beards'
p119
F0.0117954231301
sS'nostalgia'
p120
F0.016797462013699999
sS'Documentaries'
p121
F0.0076786533436999996
sS'AndroidQuestions'
p122
F0.00764897174003
sS'StonerEngineering'
p123
F0.00756558877364
sS'texas'
p124
F0.0077868852459000003
sS'MensRights'
p125
F0.0079948078000999998
sS'MilitaryPorn'
p126
F0.0098186391852999998
sS'Frisson'
p127
F0.0083143507972699999
sS'childfree'
p128
F0.0090202177293900003
sS'food'
p129
F0.017719229445600001
sS'NoStupidQuestions'
p130
F0.0105185838108
sS'creepyPMs'
p131
F0.0083605283605300007
sS'WatchItForThePlot'
p132
F0.011145093566899999
sS'freebies'
p133
F0.0130194007408
sS'PropagandaPosters'
p134
F0.0084885640179199993
sS'SubredditDrama'
p135
F0.0115971212291
sS'minimalism'
p136
F0.0120644986659
sS'mildlyinteresting'
p137
F0.0077615322440999996
sS'malegrooming'
p138
F0.00780360916924
sS'Cinemagraphs'
p139
F0.011803376662200001
sS'DunderMifflin'
p140
F0.0097772949483999998
sS'alcohol'
p141
F0.0093749999999999997
sS'space'
p142
F0.0078962115165799995
sS'shittyfoodporn'
p143
F0.030507634651699998
sS'malefashionadvice'
p144
F0.0082304526748999997
sS'LearnUselessTalents'
p145
F0.011328527291499999
sS'RoomPorn'
p146
F0.0153353780504
sS'Astronomy'
p147
F0.0076522305438000001
sS'AutoDetailing'
p148
F0.0073809161467099996
sS'cars'
p149
F0.0072296889157400001
sS'Metal'
p150
F0.00749941410827
sS'vinyl'
p151
F0.0089704769114300007
sS'Roadcam'
p152
F0.0079620160701200007
sS'GamePhysics'
p153
F0.010313258327799999
sS'youtubehaiku'
p154
F0.0091134190797200008
sS'PoliticalHumor'
p155
F0.0079980412960100004
sS'recipes'
p156
F0.0264452345006
sS'TalesFromThePizzaGuy'
p157
F0.016641065028200001
sS'punk'
p158
F0.00805660641726
sS'howtonotgiveafuck'
p159
F0.0079203899268900004
sS'whatstheword'
p160
F0.0072202166065000002
sS'misc'
p161
F0.0084330794341699999
sS'patientgamers'
p162
F0.0097270016058700007
sS'seinfeld'
p163
F0.011707934498899999
sS'OldSchoolCool'
p164
F0.0089159263550900002
sS'lego'
p165
F0.0103775667918
sS'ANormalDayInRussia'
p166
F0.011737506668999999
sS'onetruegod'
p167
F0.0074218457155699998
sS'Autos'
p168
F0.0088029652093300007
sS'PenmanshipPorn'
p169
F0.010786739238
sS'shittyreactiongifs'
p170
F0.011279043537100001
sS'alternativeart'
p171
F0.0073666459572200001
sS'tea'
p172
F0.0099460985626300003
sS'dogs'
p173
F0.0088266794696600006
sS'ObscureMedia'
p174
F0.0072943660619999998
sS'CombatFootage'
p175
F0.0072924662792
sS'TrollYChromosome'
p176
F0.011815695784500001
sS'shittyadvice'
p177
F0.0080011430204300002
sS'mildlyinfuriating'
p178
F0.014389132183400001
sS'madmen'
p179
F0.0077124270672700003
sS'Awwducational'
p180
F0.0124555160142
sS'BBQ'
p181
F0.025769745649299999
sS'television'
p182
F0.0070471285374099999
sS'worldpolitics'
p183
F0.0082528180354299995
sS'nononono'
p184
F0.0151368901369
sS'knives'
p185
F0.0093396904186499995
sS'happy'
p186
F0.0095758354755800003
sS'FoodPorn'
p187
F0.0320062272488
sS'boston'
p188
F0.0072911859713900001
sS'Aquariums'
p189
F0.0074699912420799998
sS'conspiracy'
p190
F0.0091321005580700006
sS'HighQualityGifs'
p191
F0.0138915810558
sS'self'
p192
F0.0108307218649
sS'slowcooking'
p193
F0.0237107869444
sS'conspiratard'
p194
F0.0115330378727
sS'firefly'
p195
F0.0076041179223200004
sS'MovieSuggestions'
p196
F0.00757178199265
sS'Futurology'
p197
F0.0073532292823100002
sS'progresspics'
p198
F0.0080412985207999992
sS'Gaming4Gamers'
p199
F0.0074443336656700001
sS'newjersey'
p200
F0.0080269814502499995
sS'TumblrInAction'
p201
F0.0084496785857799996
sS'Fishing'
p202
F0.0087349248101599997
sS'HailCorporate'
p203
F0.00962590242835
sS'Heavymind'
p204
F0.0077276524644900001
sS'adventuretime'
p205
F0.00743688433688
sS'fffffffuuuuuuuuuuuu'
p206
F0.0090574792072899996
sS'Foodforthought'
p207
F0.0106146764148
sS'harrypotter'
p208
F0.0075472733759600003
sS'wicked_edge'
p209
F0.0095538403614499993
sS'shittybattlestations'
p210
F0.0071422774125500001
sS'GrandTheftAutoV'
p211
F0.0077203565319199996
sS'bourbon'
p212
F0.0095794771878599996
sS'arresteddevelopment'
p213
F0.0098856367513100001
sS'shutupandtakemymoney'
p214
F0.0142794759825
sS'webcomics'
p215
F0.0070261437908500004
sS'photography'
p216
F0.0071830568720400003
sS'JusticePorn'
p217
F0.011358219728399999
sS'geek'
p218
F0.012265052564500001
sS'spicy'
p219
F0.0246231626252
sS'mycology'
p220
F0.0083138477526599995
sS'PrettyGirlsUglyFaces'
p221
F0.0077116896999300001
sS'homestead'
p222
F0.0083747710023600007
sS'AbandonedPorn'
p223
F0.0124987534488
sS'vexillology'
p224
F0.0082639374483500002
sS'WeAreTheMusicMakers'
p225
F0.0070245070245100001
sS'thatHappened'
p226
F0.012165596174200001
sS'futurama'
p227
F0.010886613156200001
sS'whitepeoplegifs'
p228
F0.014579759862799999
sS'cringe'
p229
F0.0099829090785600004
sS'StarWars'
p230
F0.0093947192159899995
sS'TheSimpsons'
p231
F0.014007882111
sS'cocktails'
p232
F0.0108649520414
sS'Justrolledintotheshop'
p233
F0.011296325418
sS'glitch_art'
p234
F0.0071636817992500003
sS'changemyview'
p235
F0.0076867460710100003
sS'skateboarding'
p236
F0.0073304212481800001
sS'Android'
p237
F0.0072346598416300001
sS'firstworldanarchists'
p238
F0.012872936543999999
sS'PerfectTiming'
p239
F0.0155429166848
sS'truegaming'
p240
F0.0086155250620499994
sS'camping'
p241
F0.0109481512084
sS'whiskey'
p242
F0.0080637686532600006
sS'lotr'
p243
F0.0080373089898800008
sS'wikipedia'
p244
F0.0090698308783400006
sS'breakingbad'
p245
F0.010485436893200001
sS'outside'
p246
F0.0094473922609000002
sS'AskCulinary'
p247
F0.0275876592608
sS'foodhacks'
p248
F0.026181309065500001
sS'StandUpComedy'
p249
F0.0093345590835199992
sS'jobs'
p250
F0.00864445934868
sS'tonightsdinner'
p251
F0.0293700627912
sS'casualiama'
p252
F0.010101888235900001
sS'facepalm'
p253
F0.0111075999368
sS'celebnsfw'
p254
F0.0075279886758500003
sS'NotTimAndEric'
p255
F0.0118003611039
sS'sushi'
p256
F0.0159737866066
sS'Unexpected'
p257
F0.011959974587000001
sS'RedditDayOf'
p258
F0.0084745762711900003
sS'fitmeals'
p259
F0.012380219626500001
sS'watchpeopledie'
p260
F0.0076941476638500003
sS'GunPorn'
p261
F0.0070266554647500003
sS'GetMotivated'
p262
F0.0070662198321799997
sS'drunk'
p263
F0.015485446250700001
sS'reactiongifs'
p264
F0.0106360230199
sS'community'
p265
F0.0088998763906100002
sS'startrek'
p266
F0.010784853971500001
sS'EarthPorn'
p267
F0.0072455345034699997
sS'RandomActsOfPizza'
p268
F0.0092150456563599992
sS'Guitar'
p269
F0.0077837531842599996
sS'beer'
p270
F0.017816783586300001
sS'California'
p271
F0.0070046963304900003
sS'HomeImprovement'
p272
F0.0087790697674399992
sS'fatlogic'
p273
F0.0098606815237799999
sS'androidapps'
p274
F0.0072515666965099999
sS'somethingimade'
p275
F0.0130553207476
sS'MapPorn'
p276
F0.0111242297901
sS'smoking'
p277
F0.018754688672199999
sS'Scotch'
p278
F0.0080933284724799999
sS'Chromecast'
p279
F0.0075230129433200002
sS'Perfectfit'
p280
F0.0130077755977
sS'offbeat'
p281
F0.0134739140427
sS'Cooking'
p282
F0.030252620071800001
sS'IASIP'
p283
F0.0115411835157
sS'gamecollecting'
p284
F0.0090898496678699994
sS'LosAngeles'
p285
F0.0078196688609599996
sS'DIY'
p286
F0.0101101863791
sS'southpark'
p287
F0.0114817950889
sS'daddit'
p288
F0.0090224665392000004
sS'itookapicture'
p289
F0.0104748603352
sS'Whatcouldgowrong'
p290
F0.014274722067400001
sS'talesfromtechsupport'
p291
F0.0078390155247499999
sS'notinteresting'
p292
F0.011276891047900001
sS'AnimalsBeingJerks'
p293
F0.0143081546237
sS'running'
p294
F0.0077137742207200001
sS'HumanPorn'
p295
F0.0128635994901
sS'Graffiti'
p296
F0.0076815642458100001
sS'EmmaWatson'
p297
F0.00751937389703
sS'awwwtf'
p298
F0.0106911034746
sS'PublicFreakout'
p299
F0.0121291448517
sS'ArtisanVideos'
p300
F0.012330587297399999
sS'rickandmorty'
p301
F0.0077503315649900002
sS'dadjokes'
p302
F0.0106440677966
sS'woodworking'
p303
F0.011386799747
sS'perfectloops'
p304
F0.012486092224
sS'InternetIsBeautiful'
p305
F0.0080137292941399995
sS'carporn'
p306
F0.0096521442900900003
sS'TalesFromRetail'
p307
F0.00920606517235
sS'hiking'
p308
F0.0074166601608199999
sS'WouldYouRather'
p309
F0.0079517593267499995
sS'quityourbullshit'
p310
F0.0141738021498
sS'ProtectAndServe'
p311
F0.0070465069458400002
sS'woahdude'
p312
F0.0105255945805
sS'Fallout'
p313
F0.0070428893905200001
sS'Conservative'
p314
F0.0072637986597799999
sS'offmychest'
p315
F0.0073326632129699998
sS'howto'
p316
F0.0137409200969
sS'cringepics'
p317
F0.00935388764758
sS'toosoon'
p318
F0.0099655601963800008
sS'nonononoyes'
p319
F0.013525757183499999
sS'thewalkingdead'
p320
F0.0079697698385399994
sS'ConfusedBoners'
p321
F0.0074155023027100003
sS'4chan'
p322
F0.0085541231749900002
sS'Enhancement'
p323
F0.0074702357793199996
sS'zombies'
p324
F0.0072099136312399996
sS'ArcherFX'
p325
F0.010601180890999999
sS'google'
p326
F0.0081936530383099997
sS'gardening'
p327
F0.013712797334
sS'whatisthisthing'
p328
F0.0133613074205
sS'NetflixBestOf'
p329
F0.014334324679200001
sS'tumblr'
p330
F0.0098418711909099999
sS'interestingasfuck'
p331
F0.0129508653012
sS'MarkMyWords'
p332
F0.0073118279569900002
sS'Coffee'
p333
F0.014518294729799999
sS'humor'
p334
F0.0104620749782
sS'AMA'
p335
F0.0073810058374500003
sS'ExpectationVsReality'
p336
F0.0219572212758
sS'lifehacks'
p337
F0.0138226353975
sS'blackpeoplegifs'
p338
F0.0136059026603
sS'business'
p339
F0.0072411544665200002
sS'FloridaMan'
p340
F0.012946522933799999
sS'delusionalartists'
p341
F0.012080676103099999
sS'Random_Acts_Of_Pizza'
p342
F0.0141807494489
sS'Frugal'
p343
F0.012974741562900001
sS'promos'
p344
F0.0076681279336899997
sS'shittyaskscience'
p345
F0.0085048903119300003
sS'lewronggeneration'
p346
F0.0106196802164
sS'calvinandhobbes'
p347
F0.0096125837459899999
sS'netflix'
p348
F0.0121104018025
sS'wheredidthesodago'
p349
F0.013499149659899999
sS'AnimalsBeingBros'
p350
F0.011570154645
sS'classic4chan'
p351
F0.0102571511124
sS'battlestations'
p352
F0.0088463963017400005
sS'Homebrewing'
p353
F0.013202174475800001
sS'marijuanaenthusiasts'
p354
F0.010148468333
sS'TrollXChromosomes'
p355
F0.0088893963365899997
sS'Damnthatsinteresting'
p356
F0.014015196252099999
sS'loseit'
p357
F0.0077353233443100003
sS'CrazyIdeas'
p358
F0.013185715963800001
sS'TinyHouses'
p359
F0.0078343158547900006
sS'Bad_Cop_No_Donut'
p360
F0.0106019985377
sS'MorbidReality'
p361
F0.010982165516900001
sS'gif'
p362
F0.012005762766100001
sS'cats'
p363
F0.010189713946900001
sS'introvert'
p364
F0.0073900131224499998
sS'sousvide'
p365
F0.0093918222425800005
sS'ifyoulikeblank'
p366
F0.0082896117523599995
sS'explainlikeIAmA'
p367
F0.00722582387898
sS'batman'
p368
F0.0093912923384999996
sS'snackexchange'
p369
F0.0111969447097
sS'beerporn'
p370
F0.015963978714700001
sS'blunderyears'
p371
F0.014306151645200001
sS'Marvel'
p372
F0.0070646995038300001
sS'Random_Acts_Of_Amazon'
p373
F0.0071478271870500003
sS'rage'
p374
F0.0126488262699
sS'comics'
p375
F0.0114174393371
sS'behindthegifs'
p376
F0.011835124472899999
sS'lookatmydog'
p377
F0.0073035349108999999
sS'fullmoviesonyoutube'
p378
F0.0111076691596
sS'Design'
p379
F0.0094794259386700008
sS'TrueAskReddit'
p380
F0.0081179373944700005
sS'politics'
p381
F0.0076148043741799997
sS'bestofworldstar'
p382
F0.0099417696350000001
sS'eatsandwiches'
p383
F0.045469659185400003
sS'bicycling'
p384
F0.0099239813253200002
sS'Survival'
p385
F0.0073376934120299997
sS'zelda'
p386
F0.0072921201567299997
sS'ImaginaryLandscapes'
p387
F0.0071088065568300001
sS'TheWayWeWere'
p388
F0.011450381679400001
sS'badtattoos'
p389
F0.0116993852865
sS'popping'
p390
F0.0087273028084500007
sS'nottheonion'
p391
F0.0085499912755200008
sS'Frugal_Jerk'
p392
F0.010493081994599999
sS'Baking'
p393
F0.021188043889500002
sS'comicbooks'
p394
F0.0074030677460600004
sS'oddlysatisfying'
p395
F0.013722097248700001
sS'cosplaygirls'
p396
F0.0081729654532799994
sS'entertainment'
p397
F0.0098154491079199997
sS'terriblefacebookmemes'
p398
F0.0093415356573299992
sS'PrettyGirls'
p399
F0.0089202170794100005
sS'urbanexploration'
p400
F0.0082685165720700008
s.