(dp1
S'PotterPlayRP'
p2
F0.102171136654
sS'GLRP_EastBlue'
p3
F0.0103626943005
sS'DWMA'
p4
F0.012077294686
sS'HogwartsRP'
p5
F0.112546125461
sS'randomsuperpowers'
p6
F0.018475750577399998
sS'PercyJacksonRP'
p7
F0.239784946237
s.