(dp1
S'YGOSales'
p2
F0.020325203252000001
sS'GameSale'
p3
F0.011189044756200001
sS'YGOBinders'
p4
F0.0173010380623
sS'pkmntcg'
p5
F0.192058823529
sS'CasualPokemonTrades'
p6
F0.0074779758246300001
sS'retrogameswap'
p7
F0.013176638176599999
sS'stunfisk'
p8
F0.0078244860386600008
sS'yugioh'
p9
F0.0080170575693000005
sS'SVExchange'
p10
F0.0070359011365699999
sS'ShinyPokemon'
p11
F0.0095068330362399998
sS'pokemontrades'
p12
F0.0076010456464900003
sS'gameswap'
p13
F0.0123507616303
s.