(dp1
S'pkmntcgtrades'
p2
F0.192058823529
sS'Pokemongiveaway'
p3
F0.0076314947676300003
sS'YGOBinders'
p4
F0.0082881734140899995
sS'3DS'
p5
F0.0073958947424800003
sS'CasualPokemonTrades'
p6
F0.010049760952300001
sS'stunfisk'
p7
F0.015331709414
sS'yugioh'
p8
F0.0134735458429
sS'SVExchange'
p9
F0.0074169900819300002
sS'YGOSales'
p10
F0.0105956471936
sS'nintendo'
p11
F0.0080726538849600002
sS'ShinyPokemon'
p12
F0.012286173329599999
sS'pokemontrades'
p13
F0.00911602209945
sS'pokemon'
p14
F0.010044997106
sS'gameswap'
p15
F0.0086889854331699996
s.