(dp1
S'whatsthisbug'
p2
F0.0090987211241999998
sS'gardening'
p3
F0.016836603547299999
sS'whatisthisthing'
p4
F0.0070473479103000001
sS'ArtisanVideos'
p5
F0.0074087794035899998
sS'Aquariums'
p6
F0.197580071174
sS'mycology'
p7
F0.0093997734994299992
sS'BuyItForLife'
p8
F0.0072328511432600004
sS'woodworking'
p9
F0.0078545173147599994
sS'marijuanaenthusiasts'
p10
F0.0074111292551199996
sS'Pets'
p11
F0.0087620759379899993
sS'RATS'
p12
F0.00712468193384
sS'Dogtraining'
p13
F0.00710815188051
sS'snakes'
p14
F0.012767897856799999
sS'Bonsai'
p15
F0.017999100045000001
sS'ReefTank'
p16
F0.065161703490199993
sS'reptiles'
p17
F0.019503546099299999
sS'homestead'
p18
F0.0087979890310800005
sS'biology'
p19
F0.0101289134438
sS'BeardedDragons'
p20
F0.0074249605055300002
sS'BackYardChickens'
p21
F0.00756315232189
sS'somethingimade'
p22
F0.00764746777903
sS'Awwducational'
p23
F0.0080843585237300002
sS'whatsthisplant'
p24
F0.014793882978700001
sS'bettafish'
p25
F0.105387205387
sS'Fishing'
p26
F0.0121375977911
s.