(dp1
S'Smite'
p2
F0.0093212423133799995
sS'Terraria'
p3
F0.010423649282700001
sS'LifeProTips'
p4
F0.0070645690426500004
sS'pettyrevenge'
p5
F0.0074612634088199997
sS'skyrim'
p6
F0.0173181114551
sS'Guildwars2'
p7
F0.0160870231347
sS'diablo3'
p8
F0.00888654353562
sS'thatHappened'
p9
F0.0087922335270500009
sS'DeepIntoYouTube'
p10
F0.0081563353086099993
sS'everymanshouldknow'
p11
F0.0074145953074099998
sS'dataisbeautiful'
p12
F0.0091116735601000001
sS'InternetIsBeautiful'
p13
F0.0082172901145500001
sS'RandomActsOfGaming'
p14
F0.011585619285099999
sS'GlobalOffensive'
p15
F0.0133561098228
sS'TopGear'
p16
F0.0075847290362600003
sS'quityourbullshit'
p17
F0.0096346312951999993
sS'airsoft'
p18
F0.0093253736002200001
sS'Diablo'
p19
F0.013260181333
sS'ProtectAndServe'
p20
F0.0070145997650600004
sS'HistoryPorn'
p21
F0.0092608560687100008
sS'whowouldwin'
p22
F0.010430112004
sS'GrandTheftAutoV'
p23
F0.00732034799242
sS'Fallout'
p24
F0.012590628418799999
sS'4chan'
p25
F0.012276874256200001
sS'dwarffortress'
p26
F0.016865992026999999
sS'mwo'
p27
F0.0113699812192
sS'MensRights'
p28
F0.0086328963595699998
sS'nononono'
p29
F0.0087377458442400007
sS'MilitaryPorn'
p30
F0.0137157469561
sS'buildapcsales'
p31
F0.0124706453964
sS'YouShouldKnow'
p32
F0.0074321738604999996
sS'photoshopbattles'
p33
F0.0091672855551400007
sS'skyrimmods'
p34
F0.0148119066315
sS'CrusaderKings'
p35
F0.010464141174800001
sS'JusticePorn'
p36
F0.0121447276746
sS'fffffffuuuuuuuuuuuu'
p37
F0.0087428877302200003
sS'geek'
p38
F0.0088882448131800008
sS'nottheonion'
p39
F0.0101960784314
sS'cringepics'
p40
F0.0081927083656100005
sS'Military'
p41
F0.0093553692270400002
sS'Steam'
p42
F0.0215888246084
sS'halo'
p43
F0.0087950570571800005
sS'gifs'
p44
F0.0075329395107699999
sS'masseffect'
p45
F0.0123656229807
sS'holdmybeer'
p46
F0.0082730093071400005
sS'prisonarchitect'
p47
F0.0075410594494599997
sS'techsupportgore'
p48
F0.014984910116800001
sS'woahdude'
p49
F0.0089394106610699992
sS'guns'
p50
F0.0096504475302999996
sS'comics'
p51
F0.0094991193524800004
sS'SteamGameSwap'
p52
F0.0082530256900599994
sS'montageparodies'
p53
F0.0145743919886
sS'techsupport'
p54
F0.012135405578
sS'Libertarian'
p55
F0.0075281040798300001
sS'eu4'
p56
F0.0090814737934600005
sS'starcitizen'
p57
F0.042799860529999997
sS'cringe'
p58
F0.0082915874935200005
sS'TalesFromRetail'
p59
F0.0084516178266199997
sS'StarWars'
p60
F0.011275991159600001
sS'mildlyinteresting'
p61
F0.0070914825619900002
sS'pcgaming'
p62
F0.0265006086712
sS'unitedkingdom'
p63
F0.0083766548102600005
sS'MechanicalKeyboards'
p64
F0.0119270458363
sS'totalwar'
p65
F0.017721426483499999
sS'Warhammer40k'
p66
F0.0098307402974900007
sS'heroesofthestorm'
p67
F0.0101027900147
sS'ShouldIbuythisgame'
p68
F0.0127046412145
sS'SubredditDrama'
p69
F0.014446532042899999
sS'interestingasfuck'
p70
F0.0096236249455600009
sS'changemyview'
p71
F0.0079731027857799994
sS'ChivalryGame'
p72
F0.0078228857756400001
sS'fatpeoplestories'
p73
F0.0075971196196800003
sS'Android'
p74
F0.0091067885427399999
sS'CrappyDesign'
p75
F0.0085796192793900009
sS'PS4'
p76
F0.0075258994747399999
sS'firstworldanarchists'
p77
F0.0098722649796500004
sS'forwardsfromgrandma'
p78
F0.0072179763537800002
sS'gameofthrones'
p79
F0.0102225196587
sS'mountandblade'
p80
F0.016093953893000001
sS'movies'
p81
F0.0073447860587100003
sS'skeptic'
p82
F0.0074979426376900003
sS'Warthunder'
p83
F0.026740683072100001
sS'outside'
p84
F0.0128286780093
sS'gamedev'
p85
F0.0116281922332
sS'facepalm'
p86
F0.0079283991989900007
sS'worldnews'
p87
F0.0097819498758699996
sS'lifehacks'
p88
F0.0071981480141799998
sS'pcmasterrace'
p89
F0.020527710435800001
sS'SimCity'
p90
F0.00745156482861
sS'DarkSouls2'
p91
F0.0121254666709
sS'magicTCG'
p92
F0.0075520353656299997
sS'spaceengineers'
p93
F0.0251054593111
sS'civ'
p94
F0.016460986089600001
sS'europe'
p95
F0.0092174936262000001
sS'starbound'
p96
F0.021135787747799999
sS'Warhammer'
p97
F0.0122640758143
sS'bestof'
p98
F0.0131490222522
sS'Cyberpunk'
p99
F0.010814183217200001
sS'battlefield3'
p100
F0.0120605156616
sS'FloridaMan'
p101
F0.0081579038335200006
sS'titanfall'
p102
F0.021559832151600001
sS'tf2'
p103
F0.0168240587597
sS'Cynicalbrit'
p104
F0.024447122943099999
sS'promos'
p105
F0.012513047368199999
sS'shittyaskscience'
p106
F0.0097334831821499993
sS'news'
p107
F0.0081223871971700008
sS'GamePhysics'
p108
F0.015748313961800001
sS'gamingsuggestions'
p109
F0.0089196830326899994
sS'worldbuilding'
p110
F0.0091753220538000006
sS'Bravenewbies'
p111
F0.0092696755613599999
sS'dayz'
p112
F0.021194888606400002
sS'Borderlands'
p113
F0.0109155923591
sS'headphones'
p114
F0.0082308983592399992
sS'programming'
p115
F0.0087180150745599996
sS'Xcom'
p116
F0.0137652525077
sS'dogecoin'
p117
F0.0085000429295099995
sS'anime'
p118
F0.0107486308163
sS'GameDeals'
p119
F0.0172340490145
sS'battlestations'
p120
F0.0133112062189
sS'OutOfTheLoop'
p121
F0.0103469047872
sS'paradoxplaza'
p122
F0.0118549511855
sS'buildapc'
p123
F0.0148410708625
sS'gamingpc'
p124
F0.010336985735
sS'TrueReddit'
p125
F0.00848637908303
sS'Yogscast'
p126
F0.0071237756010699999
sS'todayilearned'
p127
F0.0078842036089700005
sS'dragonage'
p128
F0.0099401108322399994
sS'reactiongifs'
p129
F0.00946541254911
sS'patientgamers'
p130
F0.0118885762165
sS'IdiotsFightingThings'
p131
F0.0088588905294200004
sS'conspiratard'
p132
F0.010005707954199999
sS'startrek'
p133
F0.0083663086489500008
sS'rpg'
p134
F0.010161217075400001
sS'linux'
p135
F0.0078977402419500003
sS'AskScienceFiction'
p136
F0.0096576814949599996
sS'ContagiousLaughter'
p137
F0.0072940454684900001
sS'PS2Cobalt'
p138
F0.041787076638500002
sS'ffxiv'
p139
F0.0080651506806199997
sS'TheLastAirbender'
p140
F0.0096014070099199999
sS'Damnthatsinteresting'
p141
F0.0072686293844199997
sS'DnD'
p142
F0.011654526534899999
sS'FiftyFifty'
p143
F0.0078815955718699992
sS'CrazyIdeas'
p144
F0.0085220189932200003
sS'AskHistorians'
p145
F0.0093442689843699998
sS'lego'
p146
F0.00715322971011
sS'Bad_Cop_No_Donut'
p147
F0.00832682799896
sS'ANormalDayInRussia'
p148
F0.0084212095241600008
sS'MorbidReality'
p149
F0.0072999532054299999
sS'sysadmin'
p150
F0.0080928026962899993
sS'wheredidthesodago'
p151
F0.0115300961715
sS'hearthstone'
p152
F0.010754547340800001
sS'Rainmeter'
p153
F0.0078394481028499999
sS'battlefield_4'
p154
F0.022327399938300001
sS'lewronggeneration'
p155
F0.00702542806758
sS'arma'
p156
F0.023310944290799999
sS'CombatFootage'
p157
F0.012926263167300001
sS'fatlogic'
p158
F0.0080947102010100001
sS'WorldofTanks'
p159
F0.015714941554500001
sS'Unexpected'
p160
F0.010459792175
sS'swtor'
p161
F0.012591665176199999
sS'Eve'
p162
F0.025577437393600001
sS'mildlyinfuriating'
p163
F0.0093182552504000003
sS'ftlgame'
p164
F0.0128098022835
sS'oddlysatisfying'
p165
F0.0097917955060799998
sS'youtubehaiku'
p166
F0.0097538437844900006
sS'MapPorn'
p167
F0.0085125587475499993
sS'asoiaf'
p168
F0.0071781131011099996
sS'IndieGaming'
p169
F0.0087410760926299996
sS'Twitch'
p170
F0.0106520031422
sS'ProgrammerHumor'
p171
F0.0091052299937000002
sS'buildapcforme'
p172
F0.00726286314316
sS'Battlefield'
p173
F0.017905568557500001
sS'pathofexile'
p174
F0.014924246237499999
sS'darksouls'
p175
F0.0135515623212
sS'rage'
p176
F0.010028837499800001
sS'worldpolitics'
p177
F0.0071278705486699998
sS'science'
p178
F0.0115192058234
sS'Justrolledintotheshop'
p179
F0.0078209277238400002
sS'offbeat'
p180
F0.0073202207191200002
sS'behindthegifs'
p181
F0.0093090091215799996
sS'softwaregore'
p182
F0.00746300481897
sS'DotA2'
p183
F0.0102267293735
sS'MMORPG'
p184
F0.013620434264199999
sS'KerbalSpaceProgram'
p185
F0.0233172206725
sS'history'
p186
F0.0074888927691400004
sS'fullmoviesonyoutube'
p187
F0.0081340740968100008
sS'gamernews'
p188
F0.015470618824799999
sS'videos'
p189
F0.0073050091491300003
sS'gadgets'
p190
F0.0076674403183000003
sS'conspiracy'
p191
F0.0086439440230100008
sS'learnprogramming'
p192
F0.0077901094462299999
sS'polandball'
p193
F0.0165029469548
sS'Briggs'
p194
F0.042731152204799998
sS'politics'
p195
F0.0104260901031
sS'assassinscreed'
p196
F0.0073662637003599997
sS'technology'
p197
F0.0122461262777
sS'starcraft'
p198
F0.013233896322299999
sS'techsupportmacgyver'
p199
F0.0090871540685700004
sS'MURICA'
p200
F0.0099934825114100009
sS'HighQualityGifs'
p201
F0.0071355759429199998
sS'MillerPlanetside'
p202
F0.054339010543399999
sS'scifi'
p203
F0.0103702290986
sS'spaceporn'
p204
F0.0077250566504200001
sS'nonononoyes'
p205
F0.0111347673935
sS'Whatcouldgowrong'
p206
F0.010032674262700001
sS'wallpapers'
p207
F0.0094987780698099992
sS'talesfromtechsupport'
p208
F0.015608571117800001
sS'gaming'
p209
F0.0118116096109
sS'paydaytheheist'
p210
F0.0221964083888
sS'GiftofGames'
p211
F0.0072014737899799997
sS'AnimalsBeingJerks'
p212
F0.0081517598659099997
sS'askscience'
p213
F0.0095153747286300001
sS'Futurology'
p214
F0.012045953512099999
sS'wargame'
p215
F0.0090769230769200005
sS'hardware'
p216
F0.011339582703400001
sS'nerdcubed'
p217
F0.0083125989595100001
sS'Games'
p218
F0.0258780987939
sS'mylittlepony'
p219
F0.0089050131926100007
sS'elderscrollsonline'
p220
F0.0174377300812
sS'Gaming4Gamers'
p221
F0.010120075499
sS'playrust'
p222
F0.0169996549886
sS'Tribes'
p223
F0.0102759680068
sS'Minecraft'
p224
F0.0152180135483
sS'truegaming'
p225
F0.020224061909500001
sS'Starcitizen_trades'
p226
F0.00743460302891
sS'OutreachHPG'
p227
F0.0080197720165399999
sS'oculus'
p228
F0.015997113302900001
sS'feedthebeast'
p229
F0.010135135135100001
sS'space'
p230
F0.0121575667353
sS'atheism'
p231
F0.0090411229247400002
sS'Warframe'
p232
F0.0300800108031
sS'TumblrInAction'
p233
F0.013454072129100001
sS'ImGoingToHellForThis'
p234
F0.0089681266313800002
sS'WildStar'
p235
F0.016167199893999999
sS'wow'
p236
F0.0118040312987
sS'GifSound'
p237
F0.00801465536982
s.