(dp1
S'uhccourtroom'
p2
F0.027067033199400001
sS'mcservers'
p3
F0.0131465517241
sS'Minecraft'
p4
F0.015768279605200001
sS'feedthebeast'
p5
F0.016503705548999999
sS'mindcrackcirclejerk'
p6
F0.111851171337
sS'youtube'
p7
F0.0087579617834400002
sS'Terraria'
p8
F0.0075402858011600002
sS'mindcrack'
p9
F0.107366277096
sS'MCPE'
p10
F0.0075574851262299996
sS'minecraftsuggestions'
p11
F0.032877007653299997
sS'admincraft'
p12
F0.014764248293399999
sS'letsplay'
p13
F0.0086112128985000001
sS'ultrahardcore'
p14
F0.037961954244500003
s.