(dp1
S'mflb'
p2
F0.0223912125053
sS'eldertrees'
p3
F0.016038048888399999
sS'highdeas'
p4
F0.0073553448839499998
sS'COents'
p5
F0.0082210550354000003
sS'glassheads'
p6
F0.00972762645914
sS'Marijuana'
p7
F0.0098589791588700008
sS'StonerEngineering'
p8
F0.015845824411099999
sS'see'
p9
F0.0136324907697
sS'saplings'
p10
F0.015376884422099999
sS'entwives'
p11
F0.0071627536808600003
sS'CannabisExtracts'
p12
F0.0123243776189
sS'vaporents'
p13
F0.059486808818200003
s.