(dp1
S'yiff'
p2
F0.0117114719191
sS'ClopClop'
p3
F0.039345539540299998
sS'furry'
p4
F0.0082049805671499994
sS'mylittlepony'
p5
F0.025000000000000001
sS'Tulpas'
p6
F0.00905349794239
sS'mylittleandysonic1'
p7
F0.070668693009100003
sS'MLPCCG'
p8
F0.0125091979397
sS'MLPLounge'
p9
F0.082238010657200003
s.