(dp1
S'cablefail'
p2
F0.0076272591609999997
sS'Cartalk'
p3
F0.0073014018691599999
sS'gardening'
p4
F0.0070022279816300001
sS'HVAC'
p5
F0.0400242571255
sS'InteriorDesign'
p6
F0.0075264820665300004
sS'electricians'
p7
F0.036050665800599999
sS'woodworking'
p8
F0.0104515222869
sS'MechanicAdvice'
p9
F0.0116479426563
sS'DIY'
p10
F0.0070122663848200002
sS'HomeImprovement'
p11
F0.034611415416399997
sS'Welding'
p12
F0.0072870806133300001
sS'cableporn'
p13
F0.0070759417978900003
sS'RealEstate'
p14
F0.0122864596482
sS'homestead'
p15
F0.0089173749477500005
s.