(dp1
S'fullmoviesonyoutube'
p2
F0.00760325713725
sS'StandUpComedy'
p3
F0.019510948283199998
sS'netflix'
p4
F0.0072187058638900001
sS'NetflixBestOf'
p5
F0.0078528094347099994
sS'scifi'
p6
F0.0074017013865600003
sS'horror'
p7
F0.00730574544696
sS'Filmmakers'
p8
F0.0084745762711900003
sS'JoeRogan'
p9
F0.014833226427200001
sS'cordcutters'
p10
F0.0071830712483000004
sS'Screenwriting'
p11
F0.0082592121982199996
sS'standupshots'
p12
F0.0070446540165900002
sS'ifyoulikeblank'
p13
F0.0071466857244999998
sS'Standup'
p14
F0.014460055378899999
sS'comicbooks'
p15
F0.0086030664395199997
sS'Harmontown'
p16
F0.0151251505823
sS'ObscureMedia'
p17
F0.0089956869993799999
s.