(dp1
S'ShinyPokemon'
p2
F0.093946449359699993
sS'adventuretime'
p3
F0.0070359177835699997
sS'nintendo'
p4
F0.018398579927099999
sS'ACTrade'
p5
F0.015885445799299999
sS'friendsafari'
p6
F0.0595170011438
sS'wiiu'
p7
F0.0119570623342
sS'Naruto'
p8
F0.0104629933056
sS'pokemon'
p9
F0.070376710870399997
sS'TheLastAirbender'
p10
F0.0107015050597
sS'CasualPokemonTrades'
p11
F0.13304022146200001
sS'pokemonzetaomicron'
p12
F0.0151476157212
sS'zelda'
p13
F0.011226704588
sS'whowouldwin'
p14
F0.0079960707269200008
sS'FreeKarma'
p15
F0.0109415934659
sS'MonsterHunter'
p16
F0.0095182736321999997
sS'GiveMeTheVirus'
p17
F0.0187388049419
sS'Vivillon'
p18
F0.036317768575399999
sS'3DS'
p19
F0.032102097037200003
sS'gamegrumps'
p20
F0.0086109379689299995
sS'acturnips'
p21
F0.0093915085110500007
sS'stunfisk'
p22
F0.055557942680399999
sS'AnimalCrossing'
p23
F0.016356244681900001
sS'smashbros'
p24
F0.0231675534151
sS'skyrim'
p25
F0.0072932053175800001
sS'pokemontrades'
p26
F0.18571664646899999
sS'Minecraft'
p27
F0.0080699518942200007
sS'RandomActsOfGaming'
p28
F0.0089249002297699994
sS'gameswap'
p29
F0.0071445582281500003
sS'pkmntcg'
p30
F0.0076314947676300003
sS'AdoptMyVillager'
p31
F0.011761571254599999
sS'OnePiece'
p32
F0.0073628850488400002
sS'fireemblem'
p33
F0.0099294804247399993
sS'yugioh'
p34
F0.00961668698361
sS'SVExchange'
p35
F0.114035757946
sS'anime'
p36
F0.011008232607799999
sS'3dsFCswap'
p37
F0.0093937450484799997
s.