(dp1
S'CrossStitch'
p2
F0.00739418663947
sS'Random_Acts_Of_Amazon'
p3
F0.0115649093561
sS'bigboobproblems'
p4
F0.0090854027861899996
sS'RandomActsOfPolish'
p5
F0.15708274894800001
sS'FancyFollicles'
p6
F0.0077880765644699999
sS'crafts'
p7
F0.0085922955749700002
sS'ABraThatFits'
p8
F0.0073235685752299998
sS'RedditLaqueristas'
p9
F0.028195611121999999
sS'randomactsofamazon'
p10
F0.0110497237569
sS'Indiemakeupandmore'
p11
F0.01616207603
sS'TheGirlSurvivalGuide'
p12
F0.00874988364516
sS'MakeupAddicts'
p13
F0.0112802148612
sS'makeupexchange'
p14
F0.0155571635311
sS'BeautyBoxes'
p15
F0.0198403097024
sS'RandomActsofMakeup'
p16
F0.027094032229499999
s.