(dp1
S'inthenews'
p2
F0.026873580620699999
sS'BuyItForLife'
p3
F0.0091986688105299991
sS'everymanshouldknow'
p4
F0.0137746855014
sS'askphilosophy'
p5
F0.0072373346643400003
sS'NeutralPolitics'
p6
F0.0206137811233
sS'syriancivilwar'
p7
F0.0093596059113299993
sS'HistoryPorn'
p8
F0.019461175498499999
sS'holdmybeer'
p9
F0.014411177644700001
sS'ImaginaryMonsters'
p10
F0.00924855491329
sS'YouShouldKnow'
p11
F0.015854949708800001
sS'UpliftingNews'
p12
F0.011099148979799999
sS'PandR'
p13
F0.0111776984715
sS'Jokes'
p14
F0.0076482415106499998
sS'anonymous'
p15
F0.0090454975023600004
sS'Military'
p16
F0.0139123599921
sS'magicskyfairy'
p17
F0.0092360469718999992
sS'GunsAreCool'
p18
F0.019641902725799999
sS'IWantToLearn'
p19
F0.0088582218285200003
sS'Celebs'
p20
F0.012758689973900001
sS'CrappyDesign'
p21
F0.014428050307600001
sS'NewsOfTheWeird'
p22
F0.013472137170899999
sS'Cyberpunk'
p23
F0.0123043151753
sS'Libertarian'
p24
F0.027428155693
sS'Anarcho_Capitalism'
p25
F0.018297597936500001
sS'EatCheapAndHealthy'
p26
F0.0070128501357999999
sS'gentlemanboners'
p27
F0.0126153764777
sS'SelfDrivingCars'
p28
F0.0076778017241400003
sS'fatpeoplestories'
p29
F0.0092628082279300004
sS'OneY'
p30
F0.0095920733635500004
sS'forwardsfromgrandma'
p31
F0.024491756042899999
sS'chicago'
p32
F0.0076327267258199999
sS'skeptic'
p33
F0.022536287242200002
sS'socialskills'
p34
F0.0080238312593099992
sS'DebateReligion'
p35
F0.0123938489787
sS'Anticonsumption'
p36
F0.012800758563500001
sS'guns'
p37
F0.0094438860188399993
sS'Economics'
p38
F0.024357298474900001
sS'legaladvice'
p39
F0.0072523192045500003
sS'answers'
p40
F0.012256076686099999
sS'lgbt'
p41
F0.0123018324068
sS'baseball'
p42
F0.0079874542603199997
sS'doctorwho'
p43
F0.0084925196025999999
sS'TopGear'
p44
F0.0107382550336
sS'ThriftStoreHauls'
p45
F0.0073504389845499996
sS'environment'
p46
F0.022951694689100001
sS'WarshipPorn'
p47
F0.011698780967399999
sS'DeepIntoYouTube'
p48
F0.0076203858833699999
sS'whatsthisbug'
p49
F0.0078521497653900006
sS'QuotesPorn'
p50
F0.0262654374674
sS'TrueReddit'
p51
F0.020154927557000001
sS'AmIFreeToGo'
p52
F0.014824363519200001
sS'AntiJokes'
p53
F0.0082961072112299993
sS'KingOfTheHill'
p54
F0.0083843921315700006
sS'IdiotsFightingThings'
p55
F0.015900428775599999
sS'Health'
p56
F0.011083743842400001
sS'Firearms'
p57
F0.0089993077455600007
sS'gamernews'
p58
F0.0078655151141300006
sS'ContagiousLaughter'
p59
F0.0071400461010899998
sS'HIMYM'
p60
F0.0071655488880999997
sS'FiftyFifty'
p61
F0.0100172621227
sS'eldertrees'
p62
F0.0086000165384899994
sS'AskHistorians'
p63
F0.0120917043418
sS'OutOfTheLoop'
p64
F0.0127409853624
sS'misleadingthumbnails'
p65
F0.010265011741
sS'trailerparkboys'
p66
F0.0071743516926999996
sS'Pareidolia'
p67
F0.0117835414665
sS'DCcomics'
p68
F0.0081521739130399999
sS'cordcutters'
p69
F0.011715797430100001
sS'LifeProTips'
p70
F0.0078718001969600004
sS'Shitty_Car_Mods'
p71
F0.010556066333
sS'UFOs'
p72
F0.0075966274313400001
sS'ghettoglamourshots'
p73
F0.0105630568568
sS'popping'
p74
F0.0076197226775399996
sS'techsupportgore'
p75
F0.012015271747300001
sS'science'
p76
F0.0088769870662600003
sS'firstworldproblems'
p77
F0.015365430009399999
sS'findareddit'
p78
F0.00771373473323
sS'standupshots'
p79
F0.022089708970899999
sS'history'
p80
F0.014452613556200001
sS'AskScienceFiction'
p81
F0.012218649517700001
sS'NewsOfTheStupid'
p82
F0.021153846153800001
sS'awesome'
p83
F0.013480982185799999
sS'DecidingToBeBetter'
p84
F0.0076521490381199998
sS'gadgets'
p85
F0.0070311473255400001
sS'ShitPoliticsSays'
p86
F0.011922959339699999
sS'Infographics'
p87
F0.013202247191000001
sS'BasicIncome'
p88
F0.016903750230899999
sS'SRSsucks'
p89
F0.011704779451600001
sS'HouseOfCards'
p90
F0.0110733029586
sS'hardbodies'
p91
F0.0092906650936400003
sS'techsupportmacgyver'
p92
F0.0097892160732600004
sS'MURICA'
p93
F0.0205265712767
sS'technology'
p94
F0.0078112540181499998
sS'RealGirls'
p95
F0.0076962189146699998
sS'scifi'
p96
F0.014620462046199999
sS'spaceporn'
p97
F0.0147817119285
sS'nyc'
p98
F0.0100305618682
sS'911truth'
p99
F0.00719534598898
sS'Pizza'
p100
F0.0079980412960100004
sS'economy'
p101
F0.021892725644300001
sS'polandball'
p102
F0.0133801272209
sS'askscience'
p103
F0.00738652451711
sS'philosophy'
p104
F0.010126664713
sS'Images'
p105
F0.014224879949300001
sS'vegan'
p106
F0.0073485482136500004
sS'dogpictures'
p107
F0.0078312839183900008
sS'law'
p108
F0.0149378285905
sS'MachinePorn'
p109
F0.011390519582900001
sS'Shitstatistssay'
p110
F0.014915434811600001
sS'FanTheories'
p111
F0.0123111813064
sS'tall'
p112
F0.0086053412462899995
sS'ImGoingToHellForThis'
p113
F0.0132537180167
sS'DoesAnybodyElse'
p114
F0.0093811924649500004
sS'pettyrevenge'
p115
F0.011761596405399999
sS'CityPorn'
p116
F0.013987231572799999
sS'washingtondc'
p117
F0.0085380955484600004
sS'nsfw'
p118
F0.0075811969421799999
sS'dataisbeautiful'
p119
F0.012787354245799999
sS'islam'
p120
F0.0086047503911299995
sS'linguistics'
p121
F0.0079397899263900003
sS'nostalgia'
p122
F0.013867868079300001
sS'Documentaries'
p123
F0.0101049760291
sS'writing'
p124
F0.0070129300898500004
sS'wallpaper'
p125
F0.0085403118389100006
sS'texas'
p126
F0.0104038224414
sS'MensRights'
p127
F0.017137317446899999
sS'MilitaryPorn'
p128
F0.0144889587152
sS'Frisson'
p129
F0.0084756403817200007
sS'Judaism'
p130
F0.0087699572745700005
sS'childfree'
p131
F0.0102014039231
sS'photoshopbattles'
p132
F0.0075034106411999996
sS'DebateAnAtheist'
p133
F0.0103916866507
sS'NoStupidQuestions'
p134
F0.0107088849798
sS'Braveryjerk'
p135
F0.0073967763303200004
sS'Liberal'
p136
F0.0414088529272
sS'creepyPMs'
p137
F0.0086782813728099994
sS'WatchItForThePlot'
p138
F0.0124121514396
sS'freebies'
p139
F0.0078755431409099994
sS'PropagandaPosters'
p140
F0.025951398441100001
sS'shittyadviceanimals'
p141
F0.0086692674468999992
sS'SubredditDrama'
p142
F0.0142265060241
sS'minimalism'
p143
F0.0087178221893200007
sS'wallpapers'
p144
F0.0090081607030799999
sS'TrueAtheism'
p145
F0.0188254316568
sS'badhistory'
p146
F0.017779164067399999
sS'DoctorWhumour'
p147
F0.0093835372372
sS'energy'
p148
F0.0135493372607
sS'Cinemagraphs'
p149
F0.0099287169042800005
sS'canada'
p150
F0.0089961624761499999
sS'DunderMifflin'
p151
F0.0089902357704199996
sS'psychology'
p152
F0.0146010419523
sS'space'
p153
F0.0107182262386
sS'shittyfoodporn'
p154
F0.0092858510434600007
sS'LearnUselessTalents'
p155
F0.0097626662178100006
sS'RoomPorn'
p156
F0.0134818568628
sS'memes'
p157
F0.017220172201699999
sS'Astronomy'
p158
F0.0117168818747
sS'bestof'
p159
F0.010403873285900001
sS'LadyBoners'
p160
F0.0075766497860499998
sS'conservatives'
p161
F0.0139042502765
sS'Roadcam'
p162
F0.0072920119323799997
sS'GamePhysics'
p163
F0.0091987412248900006
sS'CanadaPolitics'
p164
F0.0097581231184500003
sS'recipes'
p165
F0.0075698657126599999
sS'privacy'
p166
F0.013873978032900001
sS'florida'
p167
F0.0072430443780200004
sS'gunpolitics'
p168
F0.010504201680699999
sS'whatstheword'
p169
F0.0086702386751099994
sS'misc'
p170
F0.0126068376068
sS'patientgamers'
p171
F0.0071216617210700002
sS'rant'
p172
F0.0079188129468699998
sS'seinfeld'
p173
F0.0085052479189300003
sS'OldSchoolCool'
p174
F0.0093074065982099996
sS'lego'
p175
F0.0074938526989599998
sS'ANormalDayInRussia'
p176
F0.0166095438967
sS'onetruegod'
p177
F0.0077751196172200004
sS'TheFacebookDelusion'
p178
F0.017631972643699999
sS'Autos'
p179
F0.0070877161302000001
sS'PenmanshipPorn'
p180
F0.0083740404745299996
sS'shittyreactiongifs'
p181
F0.014435470012000001
sS'alternativeart'
p182
F0.00872908656344
sS'shittyadvice'
p183
F0.0103736121242
sS'MeanJokes'
p184
F0.0070626934984500001
sS'ObscureMedia'
p185
F0.0094651613639000001
sS'CombatFootage'
p186
F0.0096571704490600006
sS'TrollYChromosome'
p187
F0.015888273210400001
sS'DaystromInstitute'
p188
F0.0083179297597000008
sS'mildlyinfuriating'
p189
F0.014084292123200001
sS'Awwducational'
p190
F0.0149342105263
sS'skyrim'
p191
F0.0079050097592700003
sS'television'
p192
F0.00755856310244
sS'POLITIC'
p193
F0.033083324771399997
sS'worldpolitics'
p194
F0.037828728546699997
sS'TheRedPill'
p195
F0.0071253318993000003
sS'nononono'
p196
F0.0143942611733
sS'AskMen'
p197
F0.0074193512014199998
sS'russia'
p198
F0.0089594606582099993
sS'torrents'
p199
F0.0078511691414900001
sS'gallifrey'
p200
F0.0076705940108
sS'FoodPorn'
p201
F0.0088495575221199992
sS'boston'
p202
F0.00733606148318
sS'teenagers'
p203
F0.0073649470210200001
sS'conspiracy'
p204
F0.020226110069400002
sS'AnythingGoesNews'
p205
F0.0285189718482
sS'collapse'
p206
F0.017467722686300001
sS'HighQualityGifs'
p207
F0.0156148340924
sS'self'
p208
F0.0120714491501
sS'britishproblems'
p209
F0.0076652719665299997
sS'conspiratard'
p210
F0.024612478471
sS'FutureWhatIf'
p211
F0.012793414172899999
sS'firefly'
p212
F0.0126722121133
sS'badphilosophy'
p213
F0.0086479902557899998
sS'Futurology'
p214
F0.01191752909
sS'EnoughLibertarianSpam'
p215
F0.029385171790200001
sS'progresspics'
p216
F0.0078355314197099991
sS'windows'
p217
F0.0071818244596400004
sS'investing'
p218
F0.0077922961753099998
sS'TumblrInAction'
p219
F0.013278040362200001
sS'HailCorporate'
p220
F0.015986677768500001
sS'climateskeptics'
p221
F0.0085790048354399996
sS'Heavymind'
p222
F0.0088050314465400008
sS'Justrolledintotheshop'
p223
F0.010227521330099999
sS'PanicHistory'
p224
F0.0121305075293
sS'fffffffuuuuuuuuuuuu'
p225
F0.011965238918
sS'PoliticalDiscussion'
p226
F0.0406683867797
sS'Foodforthought'
p227
F0.0217952566797
sS'TheoryOfReddit'
p228
F0.013527257933300001
sS'TheBluePill'
p229
F0.012660147070000001
sS'harrypotter'
p230
F0.0086573861021600005
sS'whowouldwin'
p231
F0.0087764866712199997
sS'blunderyears'
p232
F0.0107086614173
sS'MetalMemes'
p233
F0.0085127691537300008
sS'beatles'
p234
F0.0075125208681099996
sS'TalesFromYourServer'
p235
F0.0082062504274099998
sS'shutupandtakemymoney'
p236
F0.0142857142857
sS'JusticePorn'
p237
F0.012506797172400001
sS'geek'
p238
F0.016839334525699998
sS'lostgeneration'
p239
F0.0199907019991
sS'beards'
p240
F0.0091902873174000005
sS'arresteddevelopment'
p241
F0.011791087963
sS'AbandonedPorn'
p242
F0.013078329348900001
sS'progressive'
p243
F0.047080979284399999
sS'dadjokes'
p244
F0.0091345464966299996
sS'progun'
p245
F0.0127887788779
sS'Marijuana'
p246
F0.0124008388803
sS'vexillology'
p247
F0.0152088539807
sS'thatHappened'
p248
F0.013145092843699999
sS'futurama'
p249
F0.014666132746
sS'whitepeoplegifs'
p250
F0.016108143111499999
sS'cringe'
p251
F0.0086365730078300004
sS'StarWars'
p252
F0.011934216271300001
sS'TheSimpsons'
p253
F0.013573827819399999
sS'Christianity'
p254
F0.0093937050720300005
sS'see'
p255
F0.0083798882681599997
sS'changemyview'
p256
F0.015594387603599999
sS'againstmensrights'
p257
F0.0078620339842800004
sS'firstworldanarchists'
p258
F0.016132439140299999
sS'PerfectTiming'
p259
F0.0157395731166
sS'truegaming'
p260
F0.0076217234061600001
sS'lotr'
p261
F0.0096231821376399993
sS'wikipedia'
p262
F0.016930807885599999
sS'breakingbad'
p263
F0.0094312246082400002
sS'outside'
p264
F0.011294970716699999
sS'AskCulinary'
p265
F0.0072692437732399997
sS'foodhacks'
p266
F0.0086794792312500004
sS'Republican'
p267
F0.018219677251400002
sS'europe'
p268
F0.0129411077355
sS'StandUpComedy'
p269
F0.012506012505999999
sS'jobs'
p270
F0.0081278249147599992
sS'facepalm'
p271
F0.017361224423200001
sS'celebnsfw'
p272
F0.0091439268485900005
sS'NotTimAndEric'
p273
F0.0077474892396000002
sS'news'
p274
F0.0074165163687999998
sS'Unexpected'
p275
F0.014447749485199999
sS'RedditDayOf'
p276
F0.0142056436026
sS'itookapicture'
p277
F0.0095684436633499993
sS'ukpolitics'
p278
F0.010046834869299999
sS'GunPorn'
p279
F0.0097104365322399997
sS'GetMotivated'
p280
F0.0092027395438499995
sS'drunk'
p281
F0.0103854064808
sS'reactiongifs'
p282
F0.0121579972394
sS'community'
p283
F0.0103956201525
sS'startrek'
p284
F0.012467882566
sS'ainbow'
p285
F0.011943887775599999
sS'beer'
p286
F0.0081794597894099992
sS'California'
p287
F0.0123229722273
sS'ireland'
p288
F0.0070388218095200003
sS'fatlogic'
p289
F0.013220620842600001
sS'somethingimade'
p290
F0.011008522727299999
sS'MapPorn'
p291
F0.0179792061577
sS'aviation'
p292
F0.0090279133320299992
sS'Perfectfit'
p293
F0.0086122047244100008
sS'offbeat'
p294
F0.021130609022999999
sS'softwaregore'
p295
F0.0081594885598900001
sS'socialism'
p296
F0.0312610011969
sS'Ask_Politics'
p297
F0.023553624514100001
sS'OnOff'
p298
F0.0072128160352299998
sS'Cooking'
p299
F0.0081943437273400005
sS'IASIP'
p300
F0.0089349535382400001
sS'hardware'
p301
F0.0071956825904499998
sS'exmormon'
p302
F0.0077505298213699997
sS'ShitRedditSays'
p303
F0.0087184630815500003
sS'shorthairedhotties'
p304
F0.0080990080990099994
sS'southpark'
p305
F0.0135761232626
sS'finance'
p306
F0.0073382786950600002
sS'Israel'
p307
F0.0129106936159
sS'daddit'
p308
F0.0091354428703799995
sS'watchpeopledie'
p309
F0.0087067861715700006
sS'Whatcouldgowrong'
p310
F0.016052880075500001
sS'fifthworldproblems'
p311
F0.0077377316228900003
sS'talesfromtechsupport'
p312
F0.0086126576525400005
sS'Anarchism'
p313
F0.018326254522600002
sS'notinteresting'
p314
F0.00998898273963
sS'AnimalsBeingJerks'
p315
F0.015379048308299999
sS'DebateAChristian'
p316
F0.0083110167143800005
sS'Physics'
p317
F0.0090809361287199995
sS'comicbookmovies'
p318
F0.0079382579933800004
sS'TrueFilm'
p319
F0.00751526538281
sS'HumanPorn'
p320
F0.016299813899800002
sS'Graffiti'
p321
F0.0083511559221900004
sS'EmmaWatson'
p322
F0.0099340659340700008
sS'awwwtf'
p323
F0.0106364428945
sS'Piracy'
p324
F0.0074019245003699996
sS'circlebroke'
p325
F0.0120232807474
sS'PublicFreakout'
p326
F0.010264341957299999
sS'Conservative'
p327
F0.0286105095178
sS'quotes'
p328
F0.016295806104700002
sS'woodworking'
p329
F0.0074252830889200002
sS'perfectloops'
p330
F0.0108375060018
sS'InternetIsBeautiful'
p331
F0.0078759424367999993
sS'carporn'
p332
F0.0085418429429099992
sS'TalesFromRetail'
p333
F0.0093540330084700002
sS'ShitRConservativeSays'
p334
F0.016442217350499999
sS'quityourbullshit'
p335
F0.015745588520499999
sS'ProtectAndServe'
p336
F0.011678510439000001
sS'woahdude'
p337
F0.010605586825100001
sS'Fallout'
p338
F0.0078812187741899992
sS'offmychest'
p339
F0.0072393187143
sS'australia'
p340
F0.0082592814697699992
sS'slowcooking'
p341
F0.0074490805855100001
sS'NSFW_GIF'
p342
F0.0070649546016200004
sS'howto'
p343
F0.012943464556400001
sS'cringepics'
p344
F0.0094431041281000001
sS'toosoon'
p345
F0.020682697158200002
sS'nonononoyes'
p346
F0.0128660159716
sS'thewalkingdead'
p347
F0.0074711222579400003
sS'4chan'
p348
F0.0112825673711
sS'Enhancement'
p349
F0.0101876675603
sS'zombies'
p350
F0.010215469139
sS'ArcherFX'
p351
F0.0124196588218
sS'google'
p352
F0.0078947368421099992
sS'gardening'
p353
F0.0086963589076699994
sS'whatisthisthing'
p354
F0.0110377293814
sS'NetflixBestOf'
p355
F0.0129219925601
sS'tumblr'
p356
F0.016030907233900001
sS'interestingasfuck'
p357
F0.014264542423099999
sS'MarkMyWords'
p358
F0.0115554662379
sS'gameofthrones'
p359
F0.0077388373274200001
sS'humor'
p360
F0.021887659471599999
sS'AMA'
p361
F0.00770814945572
sS'ExpectationVsReality'
p362
F0.0134391755449
sS'religion'
p363
F0.011461630826299999
sS'lifehacks'
p364
F0.0145091084959
sS'blackpeoplegifs'
p365
F0.0160823170732
sS'ProgrammerHumor'
p366
F0.0096558554097499992
sS'business'
p367
F0.0124977160607
sS'FloridaMan'
p368
F0.0185389666996
sS'delusionalartists'
p369
F0.0098858886001600005
sS'Frugal'
p370
F0.0100306532157
sS'promos'
p371
F0.0072394796804199999
sS'shittyaskscience'
p372
F0.011032102896599999
sS'lewronggeneration'
p373
F0.011491317671099999
sS'worldbuilding'
p374
F0.0082014114056800005
sS'calvinandhobbes'
p375
F0.013433949747100001
sS'netflix'
p376
F0.0091190029890099999
sS'wheredidthesodago'
p377
F0.0134566230642
sS'AnimalsBeingBros'
p378
F0.0140774884764
sS'classic4chan'
p379
F0.011804246249699999
sS'NSFWFunny'
p380
F0.010335710279600001
sS'ShitAmericansSay'
p381
F0.014627065654299999
sS'Scotland'
p382
F0.0074711825814699996
sS'TrollXChromosomes'
p383
F0.0127325327144
sS'confession'
p384
F0.0081357655882500005
sS'unitedkingdom'
p385
F0.0077515072375199997
sS'Damnthatsinteresting'
p386
F0.0177260065839
sS'CrazyIdeas'
p387
F0.015923074544699999
sS'Bad_Cop_No_Donut'
p388
F0.026914747867600002
sS'MorbidReality'
p389
F0.011900191938600001
sS'gif'
p390
F0.017862389094500001
sS'cats'
p391
F0.0092560784762800007
sS'Standup'
p392
F0.0074441687344900002
sS'happy'
p393
F0.012598085091099999
sS'explainlikeIAmA'
p394
F0.00881726968683
sS'batman'
p395
F0.0116965497012
sS'occupywallstreet'
p396
F0.027581941867700001
sS'teslamotors'
p397
F0.0096297681376200008
sS'shittyaskreddit'
p398
F0.0079635949943099998
sS'Marvel'
p399
F0.0098179159558499998
sS'webcomics'
p400
F0.0144335770582
sS'rage'
p401
F0.0171042443866
sS'comics'
p402
F0.016340122357300001
sS'behindthegifs'
p403
F0.0115983165313
sS'civ'
p404
F0.0081315095997
sS'BustyPetite'
p405
F0.0079223387636699998
sS'fullmoviesonyoutube'
p406
F0.011785475713300001
sS'Design'
p407
F0.0078106919694500001
sS'TrueAskReddit'
p408
F0.014249177932
sS'politics'
p409
F0.015833155990599999
sS'education'
p410
F0.0111834265286
sS'ForeverAlone'
p411
F0.0072974490114099998
sS'bicycling'
p412
F0.0071843822192899998
sS'Survival'
p413
F0.00872199779655
sS'shittyama'
p414
F0.0076091309571500003
sS'AskSocialScience'
p415
F0.0141980046048
sS'TheWayWeWere'
p416
F0.01340429726
sS'LosAngeles'
p417
F0.0087127359699300001
sS'badtattoos'
p418
F0.0086372360844500003
sS'Feminism'
p419
F0.011693342103299999
sS'nottheonion'
p420
F0.0125322396516
sS'Frugal_Jerk'
p421
F0.0104998359401
sS'comicbooks'
p422
F0.0095129163644499994
sS'oddlysatisfying'
p423
F0.0122846628385
sS'cosplaygirls'
p424
F0.0118856408609
sS'entertainment'
p425
F0.014054538328000001
sS'atheism'
p426
F0.0127548130427
sS'terriblefacebookmemes'
p427
F0.0127826086957
sS'PrettyGirls'
p428
F0.010711553175200001
sS'urbanexploration'
p429
F0.0080670673837400005
sS'Michigan'
p430
F0.0071096527208100004
s.