(dp1
S'MapPorn'
p2
F0.0143590541381
sS'ABraThatFits'
p3
F0.0082589471927900001
sS'Shitty_Car_Mods'
p4
F0.018781291977
sS'uglyduckling'
p5
F0.012067723342900001
sS'milf'
p6
F0.010586513258699999
sS'KitchenConfidential'
p7
F0.0081894042305500001
sS'BuyItForLife'
p8
F0.012321340561900001
sS'spiders'
p9
F0.0128031202306
sS'relationships'
p10
F0.0130062395845
sS'AskMen'
p11
F0.014591089227799999
sS'Showerthoughts'
p12
F0.0125528264781
sS'HistoryPorn'
p13
F0.019112356441100001
sS'picrequests'
p14
F0.0077997960477399998
sS'holdmybeer'
p15
F0.020826518373100001
sS'ImaginaryMonsters'
p16
F0.0077131899857799998
sS'YouShouldKnow'
p17
F0.019287533864399999
sS'Jeep'
p18
F0.0072658577345100003
sS'horror'
p19
F0.0122402504981
sS'UpliftingNews'
p20
F0.014123904264699999
sS'PandR'
p21
F0.00793562087851
sS'Jokes'
p22
F0.012005975825100001
sS'Military'
p23
F0.013962213587
sS'Steam'
p24
F0.0090875456689599992
sS'AlienBlue'
p25
F0.0087179132360100005
sS'photoshopbattles'
p26
F0.0162267794205
sS'IWantToLearn'
p27
F0.0085352340450999993
sS'Celebs'
p28
F0.0171530300479
sS'CrappyDesign'
p29
F0.019964415756400001
sS'techsupport'
p30
F0.00978502778848
sS'Libertarian'
p31
F0.0108155583438
sS'Seattle'
p32
F0.0078592434844299997
sS'everymanshouldknow'
p33
F0.013534617386800001
sS'Whatisthis'
p34
F0.011107850945200001
sS'Paleo'
p35
F0.0083271845683599993
sS'pcgaming'
p36
F0.0082363898679599992
sS'EatCheapAndHealthy'
p37
F0.0136048812665
sS'tea'
p38
F0.0074790855468599999
sS'redditgetsdrawn'
p39
F0.0139504194552
sS'AmISexy'
p40
F0.0085822057652999995
sS'fatpeoplestories'
p41
F0.024343865909199999
sS'depression'
p42
F0.013209051128100001
sS'forwardsfromgrandma'
p43
F0.017558147110600001
sS'no_sob_story'
p44
F0.0076389212352699996
sS'Glitch_in_the_Matrix'
p45
F0.0114453206783
sS'skeptic'
p46
F0.0118568706331
sS'InteriorDesign'
p47
F0.0078482410474799997
sS'socialskills'
p48
F0.0082758199474700003
sS'worldnews'
p49
F0.0108562922051
sS'guns'
p50
F0.014980240786700001
sS'disney'
p51
F0.0112351660698
sS'tattoos'
p52
F0.0210249891279
sS'LetsNotMeet'
p53
F0.0133143443845
sS'legaladvice'
p54
F0.0115454330522
sS'answers'
p55
F0.0079293498684699995
sS'lgbt'
p56
F0.011259608943900001
sS'baseball'
p57
F0.0076606563409500001
sS'Random_Acts_Of_Pizza'
p58
F0.0072011322011299997
sS'gentlemanboners'
p59
F0.018869070516100001
sS'doctorwho'
p60
F0.0125607927743
sS'TopGear'
p61
F0.010600212563599999
sS'ThriftStoreHauls'
p62
F0.0155138489481
sS'personalfinance'
p63
F0.0091440917147800008
sS'creepy'
p64
F0.021527047806
sS'pics'
p65
F0.0111655311443
sS'Hair'
p66
F0.00922023182297
sS'howtonotgiveafuck'
p67
F0.010085492920099999
sS'whatsthisbug'
p68
F0.019221883374899999
sS'QuotesPorn'
p69
F0.0134800784916
sS'apple'
p70
F0.0087243510841199991
sS'TrueReddit'
p71
F0.012361671416400001
sS'todayilearned'
p72
F0.0121027288332
sS'Assistance'
p73
F0.0095725008158399991
sS'AmIFreeToGo'
p74
F0.0077395750269700003
sS'findareddit'
p75
F0.0093421865348999999
sS'IdiotsFightingThings'
p76
F0.018446567958299999
sS'Health'
p77
F0.0080914506077199994
sS'ContagiousLaughter'
p78
F0.016287197584100001
sS'HIMYM'
p79
F0.0085015412150699996
sS'FiftyFifty'
p80
F0.027798068338600001
sS'AskHistorians'
p81
F0.0086974110032400007
sS'Drugs'
p82
F0.0124764781227
sS'OutOfTheLoop'
p83
F0.0186075388027
sS'sports'
p84
F0.0099525950741199999
sS'iphone'
p85
F0.0106810249575
sS'firstimpression'
p86
F0.011428571428599999
sS'trailerparkboys'
p87
F0.0085780922638999998
sS'battlefield_4'
p88
F0.0077748484492300004
sS'Pareidolia'
p89
F0.0171374282895
sS'GrandTheftAutoV'
p90
F0.0108663783625
sS'tipofmytongue'
p91
F0.0143077315146
sS'opiates'
p92
F0.010303546940399999
sS'cordcutters'
p93
F0.0085926193921900002
sS'ladybonersgw'
p94
F0.0109391509727
sS'LifeProTips'
p95
F0.015842946012700001
sS'TheGirlSurvivalGuide'
p96
F0.0119095903543
sS'UFOs'
p97
F0.0076492225380400004
sS'ghettoglamourshots'
p98
F0.017938408518499999
sS'EDC'
p99
F0.0115488550704
sS'showerbeer'
p100
F0.010627356873500001
sS'techsupportgore'
p101
F0.018772487876099999
sS'science'
p102
F0.0146696642718
sS'firstworldproblems'
p103
F0.0168427812482
sS'movies'
p104
F0.0117934216686
sS'standupshots'
p105
F0.0155078831739
sS'MMA'
p106
F0.0081678981572200007
sS'history'
p107
F0.0095890410958900003
sS'AskScienceFiction'
p108
F0.0074930770483800004
sS'nursing'
p109
F0.0104928326517
sS'awesome'
p110
F0.0094402934991699994
sS'gadgets'
p111
F0.0100680384541
sS'polandball'
p112
F0.010612375031299999
sS'TalesFromYourServer'
p113
F0.012591220176199999
sS'CampingandHiking'
p114
F0.0074066758838599997
sS'Pizza'
p115
F0.0087273028084500007
sS'hardbodies'
p116
F0.0118790071982
sS'techsupportmacgyver'
p117
F0.0093093215171299992
sS'MURICA'
p118
F0.0190438189205
sS'technology'
p119
F0.0123366554412
sS'travel'
p120
F0.0084461269240400007
sS'RealGirls'
p121
F0.0148475120385
sS'scifi'
p122
F0.0092955221063599994
sS'RedditLaqueristas'
p123
F0.0232462651211
sS'spaceporn'
p124
F0.011217240558799999
sS'nyc'
p125
F0.0091804328680800008
sS'wheredidthesodago'
p126
F0.0211300795978
sS'gaming'
p127
F0.0110209750617
sS'asmr'
p128
F0.0123727735369
sS'askscience'
p129
F0.0114216753227
sS'wallpaper'
p130
F0.0073603752982599998
sS'budgetfood'
p131
F0.0078886914307999996
sS'Mommit'
p132
F0.0071958623791299999
sS'Images'
p133
F0.0111425462459
sS'piercing'
p134
F0.015712349652699999
sS'dogpictures'
p135
F0.017060167555200002
sS'MachinePorn'
p136
F0.0075631329316799998
sS'FanTheories'
p137
F0.0102294116042
sS'crafts'
p138
F0.0124143835616
sS'tall'
p139
F0.0135004218882
sS'ImGoingToHellForThis'
p140
F0.026379274812399999
sS'needadvice'
p141
F0.0079323661413200006
sS'DoesAnybodyElse'
p142
F0.021892959068000001
sS'pettyrevenge'
p143
F0.024052425646299998
sS'malehairadvice'
p144
F0.0096853089841799998
sS'CityPorn'
p145
F0.0078213053724500003
sS'electronic_cigarette'
p146
F0.0098724422003700005
sS'actuallesbians'
p147
F0.0096508461724100006
sS'DeepIntoYouTube'
p148
F0.0155572473602
sS'dataisbeautiful'
p149
F0.012425575977199999
sS'LucidDreaming'
p150
F0.0072234914661999999
sS'BabyBumps'
p151
F0.0102611940299
sS'beards'
p152
F0.020128066293099999
sS'gaybros'
p153
F0.0084304424048700002
sS'nostalgia'
p154
F0.0249447902028
sS'Documentaries'
p155
F0.0121791143973
sS'pugs'
p156
F0.0070076750727000002
sS'StonerEngineering'
p157
F0.0089238845144399993
sS'WTF'
p158
F0.020015438722600001
sS'texas'
p159
F0.0080166746833400006
sS'Gore'
p160
F0.037172240540100002
sS'MensRights'
p161
F0.017978298115399999
sS'MilitaryPorn'
p162
F0.0132387571076
sS'Frisson'
p163
F0.010718653334300001
sS'childfree'
p164
F0.0215597424279
sS'food'
p165
F0.0162232844024
sS'NoStupidQuestions'
p166
F0.015716424003299999
sS'creepyPMs'
p167
F0.024930615369899999
sS'WatchItForThePlot'
p168
F0.0149699582471
sS'nfl'
p169
F0.00726563884459
sS'freebies'
p170
F0.016579313295500001
sS'AdviceAnimals'
p171
F0.012427649360100001
sS'SubredditDrama'
p172
F0.017325213614699998
sS'minimalism'
p173
F0.011451331839700001
sS'wallpapers'
p174
F0.013045970423
sS'mildlyinteresting'
p175
F0.017731542963900001
sS'TrueAtheism'
p176
F0.0087689484059499997
sS'snakes'
p177
F0.0082924817886099993
sS'ADHD'
p178
F0.0083854651936599994
sS'Rateme'
p179
F0.014723749510900001
sS'books'
p180
F0.0103938347595
sS'TwoXChromosomes'
p181
F0.0148861271841
sS'Cinemagraphs'
p182
F0.0074915824915799999
sS'canada'
p183
F0.010719986557999999
sS'DunderMifflin'
p184
F0.0093679261709900003
sS'space'
p185
F0.011632291938599999
sS'shittyfoodporn'
p186
F0.028621233893199999
sS'malefashionadvice'
p187
F0.0108039674834
sS'LearnUselessTalents'
p188
F0.0125754357574
sS'RoomPorn'
p189
F0.0138799914585
sS'medicine'
p190
F0.0093240952310799999
sS'memes'
p191
F0.011528761859
sS'Astronomy'
p192
F0.0073040937706499998
sS'ass'
p193
F0.0094314291468099998
sS'bestof'
p194
F0.016183086534399999
sS'Cyberpunk'
p195
F0.0086668713959100006
sS'cars'
p196
F0.0095327073205499994
sS'Metal'
p197
F0.0082177453495000004
sS'LadyBoners'
p198
F0.025011554250600001
sS'corgi'
p199
F0.0107840752453
sS'Roadcam'
p200
F0.011582204382
sS'GamePhysics'
p201
F0.0111991547808
sS'youtubehaiku'
p202
F0.0141905515428
sS'PoliticalHumor'
p203
F0.0076197226775399996
sS'recipes'
p204
F0.0094303310238599992
sS'TalesFromThePizzaGuy'
p205
F0.0077704992094000001
sS'dogecoin'
p206
F0.0082914841329199997
sS'weddingplanning'
p207
F0.0075727089811599996
sS'patientgamers'
p208
F0.0077444637969599998
sS'rant'
p209
F0.0088257712520599992
sS'conspiratard'
p210
F0.0126922949131
sS'thick'
p211
F0.0071407063277000001
sS'pokemon'
p212
F0.00967089478296
sS'TheLastAirbender'
p213
F0.0082397536972100005
sS'OldSchoolCool'
p214
F0.016301068571499999
sS'lego'
p215
F0.0115993158007
sS'ANormalDayInRussia'
p216
F0.0154193166691
sS'seduction'
p217
F0.0075753988921000003
sS'onetruegod'
p218
F0.0088900177800399997
sS'TheFacebookDelusion'
p219
F0.00761789035846
sS'Autos'
p220
F0.0106821258313
sS'PenmanshipPorn'
p221
F0.018774376941900001
sS'shittyreactiongifs'
p222
F0.011711291212299999
sS'shittyadvice'
p223
F0.0071102708478899997
sS'MeanJokes'
p224
F0.0081746316924199997
sS'explainlikeimfive'
p225
F0.0123930121475
sS'dogs'
p226
F0.0155387391269
sS'CombatFootage'
p227
F0.012495600140799999
sS'TrollYChromosome'
p228
F0.017671200352699999
sS'mildlyinfuriating'
p229
F0.028849304654399999
sS'short'
p230
F0.00708121265767
sS'Psychonaut'
p231
F0.0070058433016200001
sS'skyrim'
p232
F0.0131568138879
sS'sex'
p233
F0.017065212724900001
sS'toronto'
p234
F0.0074290060851900002
sS'television'
p235
F0.011046605909299999
sS'worldpolitics'
p236
F0.0107235547443
sS'TheRedPill'
p237
F0.0097362790585899996
sS'PerfectTiming'
p238
F0.019524413060500002
sS'knives'
p239
F0.0102794606215
sS'Supernatural'
p240
F0.0081444487130199993
sS'KerbalSpaceProgram'
p241
F0.0080093199359299993
sS'Boobies'
p242
F0.00811585570157
sS'FoodPorn'
p243
F0.021847655890200001
sS'teenagers'
p244
F0.0141630341911
sS'conspiracy'
p245
F0.017958609964700001
sS'HighQualityGifs'
p246
F0.0109285382111
sS'self'
p247
F0.0145844088797
sS'IAmA'
p248
F0.0103896179171
sS'Parenting'
p249
F0.014455762582100001
sS'britishproblems'
p250
F0.010236371482
sS'UnresolvedMysteries'
p251
F0.0098280098280099995
sS'nonononoyes'
p252
F0.021349525022
sS'firefly'
p253
F0.0089497716894999992
sS'aww'
p254
F0.016794422747699999
sS'Futurology'
p255
F0.0108917866919
sS'sewing'
p256
F0.0093167701863399992
sS'Games'
p257
F0.0087412713397299995
sS'mylittlepony'
p258
F0.00760876633934
sS'progresspics'
p259
F0.023783241344700001
sS'crochet'
p260
F0.0116418148473
sS'Minecraft'
p261
F0.0101389374923
sS'medical'
p262
F0.0094572184124400004
sS'chicago'
p263
F0.0082820572734100002
sS'cableporn'
p264
F0.0091903541946200002
sS'TumblrInAction'
p265
F0.020485072108400001
sS'secretsanta'
p266
F0.013282172373100001
sS'Fishing'
p267
F0.0096631059983600005
sS'HailCorporate'
p268
F0.0081101314257200005
sS'wow'
p269
F0.0074745996641
sS'Heavymind'
p270
F0.0083525929530099997
sS'Awwducational'
p271
F0.0174866627149
sS'Justrolledintotheshop'
p272
F0.021502460999400001
sS'adventuretime'
p273
F0.012360211889299999
sS'fffffffuuuuuuuuuuuu'
p274
F0.019219684773300001
sS'bodybuilding'
p275
F0.00877492321942
sS'nsfw_gifs'
p276
F0.0090478117592599997
sS'tattoo'
p277
F0.0073240679461700001
sS'RandomActsofMakeup'
p278
F0.0090970502139200004
sS'Amateur'
p279
F0.0076998565713000001
sS'TheBluePill'
p280
F0.0086186353165499992
sS'harrypotter'
p281
F0.015850423756200001
sS'wicked_edge'
p282
F0.0108881975748
sS'shittybattlestations'
p283
F0.0076892483096900003
sS'whowouldwin'
p284
F0.0095523003919999998
sS'hockey'
p285
F0.0074235233643699999
sS'CCW'
p286
F0.0075272137728700002
sS'Anxiety'
p287
F0.0124932564809
sS'arresteddevelopment'
p288
F0.0082913599380099994
sS'shutupandtakemymoney'
p289
F0.0138717167757
sS'gonewild'
p290
F0.0103842024789
sS'photography'
p291
F0.0071408899555399996
sS'JusticePorn'
p292
F0.027665824997600001
sS'trees'
p293
F0.0131209195208
sS'geek'
p294
F0.0134829840415
sS'Fitness'
p295
F0.0097731583251600002
sS'Conservative'
p296
F0.0091573862873999996
sS'PrettyGirlsUglyFaces'
p297
F0.0141862264638
sS'AbandonedPorn'
p298
F0.019337292280100001
sS'Rabbits'
p299
F0.0080957409362899992
sS'motorcycles'
p300
F0.010860166706999999
sS'thatHappened'
p301
F0.0242718446602
sS'futurama'
p302
F0.012789968652
sS'whitepeoplegifs'
p303
F0.013602638087400001
sS'cringe'
p304
F0.024178874325400002
sS'StarWars'
p305
F0.0135720170774
sS'RATS'
p306
F0.0076145778458900004
sS'AskWomen'
p307
F0.017000842076499999
sS'TheSimpsons'
p308
F0.0107408836009
sS'Christianity'
p309
F0.0094363791631099994
sS'see'
p310
F0.0083392060136199993
sS'changemyview'
p311
F0.012319245825699999
sS'PS3'
p312
F0.0070374030485400004
sS'Android'
p313
F0.0098698399005400003
sS'PS4'
p314
F0.00726584947392
sS'firstworldanarchists'
p315
F0.0209558452056
sS'nononono'
p316
F0.023566042919499999
sS'cosplay'
p317
F0.0124620319641
sS'truegaming'
p318
F0.0073100380914599998
sS'lotr'
p319
F0.0088361856584400003
sS'AmericanHorrorStory'
p320
F0.011184041656
sS'wikipedia'
p321
F0.0080835567649799999
sS'breakingbad'
p322
F0.014077796066899999
sS'outside'
p323
F0.011644963328800001
sS'AskCulinary'
p324
F0.0080204893172499993
sS'foodhacks'
p325
F0.0106091165793
sS'catpictures'
p326
F0.014235035250800001
sS'pcmasterrace'
p327
F0.010736452680500001
sS'europe'
p328
F0.0073537340147899997
sS'jobs'
p329
F0.0081537095341899998
sS'casualiama'
p330
F0.015509393117199999
sS'facepalm'
p331
F0.027359611081999999
sS'celebnsfw'
p332
F0.0090240123934900007
sS'NotTimAndEric'
p333
F0.0101068773234
sS'bigboobproblems'
p334
F0.0100042073769
sS'AnimalCrossing'
p335
F0.00741839762611
sS'news'
p336
F0.011588233731
sS'Unexpected'
p337
F0.025844407530500001
sS'relationship_advice'
p338
F0.010390748203999999
sS'lookatmydog'
p339
F0.0071879553181200002
sS'nosleep'
p340
F0.012810258051000001
sS'watchpeopledie'
p341
F0.033792204028399997
sS'Sherlock'
p342
F0.0075137302469800004
sS'GunPorn'
p343
F0.0082959161855900004
sS'GetMotivated'
p344
F0.012750958913599999
sS'buildapc'
p345
F0.0072372314559299997
sS'drunk'
p346
F0.016997578692500001
sS'xxfitness'
p347
F0.00870924519875
sS'reactiongifs'
p348
F0.022520047392599999
sS'community'
p349
F0.0090964505087400005
sS'Music'
p350
F0.0101579029597
sS'startrek'
p351
F0.0096560217190500008
sS'EarthPorn'
p352
F0.013540097474499999
sS'femalefashionadvice'
p353
F0.010416377322899999
sS'ainbow'
p354
F0.0076819351938900004
sS'beer'
p355
F0.0078264758497299993
sS'ketorecipes'
p356
F0.0094745253224800003
sS'confessions'
p357
F0.00905781398977
sS'fatlogic'
p358
F0.0242175150174
sS'MakeupAddiction'
p359
F0.024786833234200001
sS'Aquariums'
p360
F0.010424749502400001
sS'somethingimade'
p361
F0.018934081346400001
sS'WritingPrompts'
p362
F0.0083594692400500003
sS'curlyhair'
p363
F0.0088283900147899993
sS'aviation'
p364
F0.0081666615304000004
sS'Perfectfit'
p365
F0.0133677591305
sS'offbeat'
p366
F0.017692804777500001
sS'OnOff'
p367
F0.0079270235819000005
sS'Cooking'
p368
F0.0153398571806
sS'IASIP'
p369
F0.010567801339299999
sS'exmormon'
p370
F0.0075177404623100004
sS'DIY'
p371
F0.016343517517899999
sS'ShitRedditSays'
p372
F0.0070987406753800003
sS'shorthairedhotties'
p373
F0.0114645779548
sS'southpark'
p374
F0.0138000503651
sS'funny'
p375
F0.0104001617427
sS'pitbulls'
p376
F0.012129495173799999
sS'transpassing'
p377
F0.0076248220109299998
sS'daddit'
p378
F0.0094727104532800008
sS'itookapicture'
p379
F0.014893788004600001
sS'Whatcouldgowrong'
p380
F0.027906386757199999
sS'talesfromtechsupport'
p381
F0.014693187540500001
sS'knitting'
p382
F0.0081838339044500007
sS'notinteresting'
p383
F0.017551535115900001
sS'AnimalsBeingJerks'
p384
F0.0254987212276
sS'girlsinyogapants'
p385
F0.0073568050446699996
sS'running'
p386
F0.0079524509702399993
sS'thesims'
p387
F0.010006925207799999
sS'HumanPorn'
p388
F0.015705280035000001
sS'drawing'
p389
F0.00924396330533
sS'EmmaWatson'
p390
F0.0083151172260099993
sS'Sonsofanarchy'
p391
F0.0070468818460600003
sS'FancyFollicles'
p392
F0.022357307771
sS'awwwtf'
p393
F0.023387760405399999
sS'PublicFreakout'
p394
F0.021561293069399998
sS'ArtisanVideos'
p395
F0.013634016181799999
sS'Bitcoin'
p396
F0.0072422905540600003
sS'rickandmorty'
p397
F0.00936400383866
sS'dadjokes'
p398
F0.016020619598699999
sS'woodworking'
p399
F0.011281786498000001
sS'perfectloops'
p400
F0.0135523924894
sS'Pets'
p401
F0.0118712426756
sS'InternetIsBeautiful'
p402
F0.012339104570699999
sS'carporn'
p403
F0.0119850391766
sS'BeardPorn'
p404
F0.0086521822726400004
sS'TalesFromRetail'
p405
F0.0221484367503
sS'WouldYouRather'
p406
F0.0088254993893099997
sS'quityourbullshit'
p407
F0.024687056048500002
sS'Advice'
p408
F0.0079670961804000004
sS'ProtectAndServe'
p409
F0.0124550419608
sS'woahdude'
p410
F0.022002515483000001
sS'Fallout'
p411
F0.012349314438200001
sS'mycology'
p412
F0.0076360310928199997
sS'offmychest'
p413
F0.019947252645999999
sS'australia'
p414
F0.0106161489147
sS'slowcooking'
p415
F0.0134689922481
sS'NSFW_GIF'
p416
F0.0138797903701
sS'howto'
p417
F0.0097849542376700002
sS'cringepics'
p418
F0.0272880170834
sS'toosoon'
p419
F0.01273405102
sS'thewalkingdead'
p420
F0.014987216785699999
sS'gifs'
p421
F0.014251514581700001
sS'Art'
p422
F0.0112810470136
sS'ConfusedBoners'
p423
F0.0144107275023
sS'Paranormal'
p424
F0.0139971651311
sS'4chan'
p425
F0.0200575347647
sS'montageparodies'
p426
F0.0095473287323900001
sS'zombies'
p427
F0.0086864406779699997
sS'ArcherFX'
p428
F0.011715994479399999
sS'gonewildcurvy'
p429
F0.0081753679974599994
sS'gardening'
p430
F0.0137517533486
sS'whatisthisthing'
p431
F0.026782945029299999
sS'MechanicalKeyboards'
p432
F0.0078850161015299996
sS'NetflixBestOf'
p433
F0.0143367668699
sS'tumblr'
p434
F0.018730853391700001
sS'interestingasfuck'
p435
F0.0249783691011
sS'MarkMyWords'
p436
F0.0071077091306700002
sS'Coffee'
p437
F0.0077537457004600002
sS'gameofthrones'
p438
F0.012459367087499999
sS'humor'
p439
F0.010969815539399999
sS'AMA'
p440
F0.011936252541400001
sS'SkincareAddiction'
p441
F0.0216837540262
sS'ExpectationVsReality'
p442
F0.018851296984599999
sS'RandomKindness'
p443
F0.0081060575809600004
sS'lifehacks'
p444
F0.022328345150600001
sS'blackpeoplegifs'
p445
F0.0151260504202
sS'DeadBedrooms'
p446
F0.0088570548367200002
sS'FloridaMan'
p447
F0.016609353507600001
sS'delusionalartists'
p448
F0.0207466047908
sS'OkCupid'
p449
F0.011988689915199999
sS'Frugal'
p450
F0.019163309575500002
sS'promos'
p451
F0.0119384539331
sS'shittyaskscience'
p452
F0.015682582919400001
sS'whatsthisplant'
p453
F0.0087198885128399999
sS'lewronggeneration'
p454
F0.0152271309477
sS'calvinandhobbes'
p455
F0.0077686843089200004
sS'netflix'
p456
F0.010115058793799999
sS'anime'
p457
F0.0072642074632
sS'AnimalsBeingBros'
p458
F0.019367147845500001
sS'classic4chan'
p459
F0.010653732952
sS'GameDeals'
p460
F0.0073694280845499997
sS'battlestations'
p461
F0.0116573131019
sS'NSFWFunny'
p462
F0.012238695634300001
sS'amiugly'
p463
F0.015645683188700001
sS'asoiaf'
p464
F0.0073075628366199999
sS'subaru'
p465
F0.0078122739504099996
sS'TrollXChromosomes'
p466
F0.028338813214299999
sS'confession'
p467
F0.018907024937699999
sS'tifu'
p468
F0.016466422416399999
sS'unitedkingdom'
p469
F0.0087070909546500003
sS'Damnthatsinteresting'
p470
F0.019343014239399998
sS'loseit'
p471
F0.017095136728300001
sS'CrazyIdeas'
p472
F0.015655046037599998
sS'Bad_Cop_No_Donut'
p473
F0.0183324672325
sS'MorbidReality'
p474
F0.037748128864299998
sS'gif'
p475
F0.015670944753900001
sS'cats'
p476
F0.0274265276085
sS'raisedbynarcissists'
p477
F0.020301327885600001
sS'happy'
p478
F0.013866231647599999
sS'explainlikeIAmA'
p479
F0.00744367486665
sS'misleadingthumbnails'
p480
F0.0168887220867
sS'shortscarystories'
p481
F0.0072329077097100002
sS'batman'
p482
F0.0106860494772
sS'snackexchange'
p483
F0.0084172003659700005
sS'rule34'
p484
F0.010004637911600001
sS'blunderyears'
p485
F0.026816274293899999
sS'Marvel'
p486
F0.0082295428304699995
sS'Random_Acts_Of_Amazon'
p487
F0.0115313653137
sS'rage'
p488
F0.031069660076699999
sS'comics'
p489
F0.0141442436676
sS'nsfw'
p490
F0.016000952235200001
sS'behindthegifs'
p491
F0.015240401030500001
sS'BustyPetite'
p492
F0.0108801504416
sS'fullmoviesonyoutube'
p493
F0.0137537739014
sS'videos'
p494
F0.011214714669499999
sS'keto'
p495
F0.015631262525100002
sS'politics'
p496
F0.013363961435699999
sS'bestofworldstar'
p497
F0.013129192904500001
sS'atheism'
p498
F0.016328225211799999
sS'ForeverAlone'
p499
F0.0097076945121099996
sS'eatsandwiches'
p500
F0.0086502151576399993
sS'bicycling'
p501
F0.0108294075102
sS'circlebroke'
p502
F0.0073400351045200003
sS'zelda'
p503
F0.010192195690200001
sS'TheWayWeWere'
p504
F0.0081304485297400003
sS'LosAngeles'
p505
F0.0076588288491999997
sS'badtattoos'
p506
F0.022193938429700001
sS'Feminism'
p507
F0.0073566618660200001
sS'nottheonion'
p508
F0.0147623924779
sS'Frugal_Jerk'
p509
F0.0080068223812000006
sS'Baking'
p510
F0.011681442867499999
sS'SuicideWatch'
p511
F0.00932923076923
sS'GTAV'
p512
F0.0078567907320700008
sS'bigdickproblems'
p513
F0.010029589209499999
sS'comicbooks'
p514
F0.0082796688132500008
sS'oddlysatisfying'
p515
F0.0291081073016
sS'GirlGamers'
p516
F0.0081423623903900001
sS'cosplaygirls'
p517
F0.0118713812316
sS'entertainment'
p518
F0.0083283162753399996
sS'curvy'
p519
F0.0075972616463499997
sS'terriblefacebookmemes'
p520
F0.011099726775999999
sS'PrettyGirls'
p521
F0.0096142884286499995
sS'urbanexploration'
p522
F0.0095319564951699999
s.