(dp1
S'Boobies'
p2
F0.029544284242999999
sS'redheads'
p3
F0.0194174757282
sS'boltedontits'
p4
F0.015425531914900001
sS'GWCouples'
p5
F0.015270227054700001
sS'gentlemanboners'
p6
F0.0095186642998599993
sS'GWNerdy'
p7
F0.0085607730123699998
sS'pussy'
p8
F0.016460905349799999
sS'RandomActsOfBlowJob'
p9
F0.0081195932615000001
sS'wifesharing'
p10
F0.012040507136599999
sS'milf'
p11
F0.019453120718899999
sS'burstingout'
p12
F0.017587678218299999
sS'incest'
p13
F0.0089265101962299996
sS'Tgirls'
p14
F0.0070653796397700001
sS'nsfw'
p15
F0.027402465799700002
sS'thick'
p16
F0.0136479486969
sS'hentai'
p17
F0.012095817851199999
sS'gonewildcurvy'
p18
F0.0081442217436900003
sS'gonewildaudio'
p19
F0.010796873740999999
sS'hardbodies'
p20
F0.0096545065857500008
sS'girlsinyogapants'
p21
F0.020954770161599998
sS'NSFWFunny'
p22
F0.016335706257
sS'Blowjobs'
p23
F0.038923549678700001
sS'RealGirls'
p24
F0.021248309533100002
sS'GoneMild'
p25
F0.0123675861698
sS'Hotchickswithtattoos'
p26
F0.018669382213200001
sS'TinyTits'
p27
F0.020270876311799999
sS'randomsexiness'
p28
F0.021951219512199999
sS'Hotwife'
p29
F0.010135135135100001
sS'tightdresses'
p30
F0.019503202018200001
sS'AsianHotties'
p31
F0.0192717412357
sS'AsiansGoneWild'
p32
F0.0110676651866
sS'asstastic'
p33
F0.0157705656701
sS'BigBoobsGW'
p34
F0.0087855698958199998
sS'ass'
p35
F0.0270957274202
sS'pornID'
p36
F0.036096516832100002
sS'treesgonewild'
p37
F0.0089765026841499996
sS'Stacked'
p38
F0.0154104203795
sS'cumsluts'
p39
F0.0400308920067
sS'Bondage'
p40
F0.0135840034775
sS'NSFW_GIF'
p41
F0.035781645740199999
sS'celebnsfw'
p42
F0.0193394620361
sS'altgonewild'
p43
F0.0073515551366600002
sS'nsfw_gifs'
p44
F0.0414426229508
sS'ginger'
p45
F0.0203427105287
sS'Amateur'
p46
F0.030355021776399999
sS'hugeboobs'
p47
F0.0151336477987
sS'gonewild'
p48
F0.0100722145564
sS'gonewildstories'
p49
F0.0138667114884
sS'tipofmypenis'
p50
F0.039300922640199999
sS'cosplaygirls'
p51
F0.0074793413354200004
sS'ConfusedBoners'
p52
F0.010171173406099999
sS'Cuckold'
p53
F0.0089397289243500003
sS'AmateurArchives'
p54
F0.023821853961700001
sS'BustyPetite'
p55
F0.028109627547399998
sS'curvy'
p56
F0.017617711256599999
sS'WatchItForThePlot'
p57
F0.0165865254741
sS'PrettyGirls'
p58
F0.010177453027100001
sS'workgonewild'
p59
F0.0078895463510799992
sS'anal'
p60
F0.020195378545899999
sS'OnOff'
p61
F0.026346181608200001
sS'Celebs'
p62
F0.015990880964
sS'rule34'
p63
F0.014376078205900001
s.