(dp1
S'getdisciplined'
p2
F0.016520894071900001
sS'asktrp'
p3
F0.010272402091200001
sS'NoFap'
p4
F0.044386717867599998
sS'productivity'
p5
F0.0084908864485500005
sS'TheRedPill'
p6
F0.010159702167599999
sS'selfimprovement'
p7
F0.010844485463799999
sS'seduction'
p8
F0.0124187478618
sS'DecidingToBeBetter'
p9
F0.010288697788700001
sS'socialanxiety'
p10
F0.0075233222991300001
sS'Christianity'
p11
F0.0085532890482600005
sS'howtonotgiveafuck'
p12
F0.0127198124267
sS'Catholicism'
p13
F0.0076518412242900001
sS'TrueChristian'
p14
F0.0112002212389
sS'Meditation'
p15
F0.013141957364299999
sS'socialskills'
p16
F0.012065222878500001
sS'gainit'
p17
F0.0080287597363699996
sS'askseddit'
p18
F0.0094856661045500008
s.