(dp1
S'audioengineering'
p2
F0.00923182914227
sS'Heavymind'
p3
F0.0077803203661299999
sS'crappymusic'
p4
F0.0070527600705300002
sS'glitch_art'
p5
F0.00806357368237
sS'DeepIntoYouTube'
p6
F0.0073053892215600002
sS'mathrock'
p7
F0.053728489483700001
sS'radiohead'
p8
F0.0140459061322
sS'Djent'
p9
F0.0128547579299
sS'ToolBand'
p10
F0.0082215491129399992
sS'Bass'
p11
F0.0085171102661599999
sS'poppunkers'
p12
F0.0076352530541000004
sS'Jazz'
p13
F0.0095636580992199995
sS'Guitar'
p14
F0.0092023751381599996
sS'VinylCollectors'
p15
F0.0095895020188400005
sS'ifyoulikeblank'
p16
F0.013250144722499999
sS'musictheory'
p17
F0.0075605959528599999
sS'Hardcore'
p18
F0.013509114583299999
sS'LetsTalkMusic'
p19
F0.0204151852277
sS'Frisson'
p20
F0.0097135564378900002
sS'electronicmusic'
p21
F0.0072819573901500003
sS'Metal'
p22
F0.010818813347
sS'NotTimAndEric'
p23
F0.00758200098896
sS'progrockmusic'
p24
F0.018024145553500001
sS'PostHardcore'
p25
F0.015474969702600001
sS'vinyl'
p26
F0.0128837839018
sS'drums'
p27
F0.0080770425597999993
sS'Metalcore'
p28
F0.0090241664117500005
sS'pinkfloyd'
p29
F0.0070171265461499996
sS'synthesizers'
p30
F0.0071895424836600002
sS'BlackMetal'
p31
F0.0138576779026
sS'TrueFilm'
p32
F0.0078452837073499995
sS'futurebeats'
p33
F0.0109692347245
sS'punk'
p34
F0.0070987369779699997
sS'WeAreTheMusicMakers'
p35
F0.0130793289736
sS'progmetal'
p36
F0.022176759410799999
sS'guitarpedals'
p37
F0.024379077486599999
sS'listentothis'
p38
F0.0098638696719499999
sS'indieheads'
p39
F0.013065064018799999
s.