(dp1
S'PJRP_Community'
p2
F0.102171136654
sS'TheNarutoWorld'
p3
F0.025000000000000001
sS'GLRP_EastBlue'
p4
F0.010670731707300001
sS'DWMA'
p5
F0.014662756598200001
sS'HogwartsRP'
p6
F0.13618677042800001
sS'randomsuperpowers'
p7
F0.011331444759199999
sS'PercyJacksonRP'
p8
F0.110591900312
s.