(dp1
S'Paleo'
p2
F0.0094132817537099997
sS'steroids'
p3
F0.040980815075499999
sS'xxfitness'
p4
F0.014194464158999999
sS'bjj'
p5
F0.0076077768385500004
sS'bodybuilding'
p6
F0.053327882864499999
sS'hardbodies'
p7
F0.0148023683789
sS'Nootropics'
p8
F0.00792
sS'crossfit'
p9
F0.026501067953500001
sS'swoleacceptance'
p10
F0.044110423420800002
sS'fatlogic'
p11
F0.0071673418510399996
sS'ketogains'
p12
F0.016123076923099999
sS'leangains'
p13
F0.031792975970399998
sS'Supplements'
p14
F0.031700288184400002
sS'weightlifting'
p15
F0.080805256535700004
sS'Fitness'
p16
F0.015870012236799999
sS'bodyweightfitness'
p17
F0.016121629374599999
sS'fitnesscirclejerk'
p18
F0.054752987337300003
sS'gainit'
p19
F0.026283543683399999
sS'weightroom'
p20
F0.16478912577999999
sS'MMA'
p21
F0.00727579315513
sS'nutrition'
p22
F0.0137849878121
sS'fitmeals'
p23
F0.0151072961373
s.