(dp1
S'InfertilityBabies'
p2
F0.0089255063508400009
sS'TryingForABaby'
p3
F0.033422185769899998
sS'BabyBumps'
p4
F0.051321473021500003
sS'clothdiaps'
p5
F0.0274366344395
sS'infertility'
p6
F0.010458567980700001
sS'breakingmom'
p7
F0.020054548371599999
sS'Mommit'
p8
F0.024403544648899999
sS'Parenting'
p9
F0.019298059590699999
sS'namenerds'
p10
F0.033654832751900003
sS'breastfeeding'
p11
F0.0289987789988
sS'daddit'
p12
F0.070164839906800003
sS'beyondthebump'
p13
F0.039716670882899999
sS'HomeImprovement'
p14
F0.0090203153188499995
s.