(dp1
S'IDAP'
p2
F0.0091463414634100001
sS'FancyFollicles'
p3
F0.0223883803876
sS'awwwtf'
p4
F0.016424252328800001
sS'shittyama'
p5
F0.0081844120738799996
sS'Heavymind'
p6
F0.0107884430651
sS'curlyhair'
p7
F0.010945524964199999
sS'redheads'
p8
F0.0087519025875200003
sS'DoesAnybodyElse'
p9
F0.010973869396200001
sS'pettyrevenge'
p10
F0.012841143151399999
sS'malehairadvice'
p11
F0.0082096782417999999
sS'CityPorn'
p12
F0.0082007815509899992
sS'Shitty_Car_Mods'
p13
F0.0109628059484
sS'fffffffuuuuuuuuuuuu'
p14
F0.0101799123116
sS'uglyduckling'
p15
F0.025347506132499999
sS'rickandmorty'
p16
F0.0077124126997699998
sS'milf'
p17
F0.0078457012095500007
sS'dadjokes'
p18
F0.0132337022941
sS'futurama'
p19
F0.0093681292419499993
sS'perfectloops'
p20
F0.014913708889600001
sS'everymanshouldknow'
p21
F0.011237102870600001
sS'InternetIsBeautiful'
p22
F0.0078665257436199999
sS'breakingbad'
p23
F0.0098628273438399992
sS'tattoo'
p24
F0.0070069204152199997
sS'carporn'
p25
F0.0090855917332799997
sS'BeardPorn'
p26
F0.0117768595041
sS'Hotchickswithtattoos'
p27
F0.0122511485452
sS'NSFWFunny'
p28
F0.0124134817936
sS'patientgamers'
p29
F0.0074570152940100004
sS'TopGear'
p30
F0.0070655684754500001
sS'WouldYouRather'
p31
F0.0089591936725700004
sS'quityourbullshit'
p32
F0.016007816022799999
sS'cumsluts'
p33
F0.0075310656457899996
sS'LearnUselessTalents'
p34
F0.0118127147766
sS'MMFB'
p35
F0.0070724175714699999
sS'harrypotter'
p36
F0.0097272982850699994
sS'HistoryPorn'
p37
F0.0097738475533600006
sS'transpassing'
p38
F0.0093923170846199992
sS'offmychest'
p39
F0.0095249279106500006
sS'woahdude'
p40
F0.010475853803599999
sS'watchpeopledie'
p41
F0.011527972894800001
sS'ImaginaryMonsters'
p42
F0.0088510215898799996
sS'DeepIntoYouTube'
p43
F0.011783637873800001
sS'PublicFreakout'
p44
F0.011513974804700001
sS'Gore'
p45
F0.00914210003312
sS'MensRights'
p46
F0.0094373865698699991
sS'nononono'
p47
F0.014485514485499999
sS'MilitaryPorn'
p48
F0.0074430273886700003
sS'Frisson'
p49
F0.01118220415
sS'arresteddevelopment'
p50
F0.0086353437138800004
sS'childfree'
p51
F0.011184252572399999
sS'popping'
p52
F0.0141862264638
sS'Random_Acts_Of_Amazon'
p53
F0.0086689783942400008
sS'food'
p54
F0.0071170122894000003
sS'cringepics'
p55
F0.0112177780145
sS'whitepeoplegifs'
p56
F0.020175104682100001
sS'foodhacks'
p57
F0.0097603612790399998
sS'UpliftingNews'
p58
F0.0084597286879899997
sS'AbandonedPorn'
p59
F0.0110433211766
sS'PandR'
p60
F0.0088394276629599998
sS'altgonewild'
p61
F0.0082896617436900005
sS'geek'
p62
F0.0087593617714100003
sS'spaceporn'
p63
F0.0095740629929799998
sS'tipofmytongue'
p64
F0.0074173033301299998
sS'NoStupidQuestions'
p65
F0.010405702084100001
sS'3amjokes'
p66
F0.0096827738841800005
sS'toosoon'
p67
F0.0110548851693
sS'Rabbits'
p68
F0.0073908559642500002
sS'beards'
p69
F0.0133673823261
sS'memes'
p70
F0.0090303160610600008
sS'thewalkingdead'
p71
F0.0074486599373500004
sS'photoshopbattles'
p72
F0.011486010968100001
sS'IWantToLearn'
p73
F0.0077984940839000002
sS'Art'
p74
F0.0072293453065999996
sS'creepyPMs'
p75
F0.018996715822
sS'IdiotsFightingThings'
p76
F0.014561731542900001
sS'WatchItForThePlot'
p77
F0.0154681139756
sS'Celebs'
p78
F0.0117149365441
sS'techsupportgore'
p79
F0.0094121054155799997
sS'freebies'
p80
F0.0103193733052
sS'CrappyDesign'
p81
F0.0135365140152
sS'hardbodies'
p82
F0.0145888594164
sS'CatsStandingUp'
p83
F0.0090423699621100008
sS'zombies'
p84
F0.0083126848373400002
sS'minimalism'
p85
F0.0094673614702299996
sS'nsfw'
p86
F0.0095424211554899999
sS'ArcherFX'
p87
F0.0088868317519100008
sS'cringe'
p88
F0.010350618638000001
sS'StarWars'
p89
F0.0076549730559200002
sS'mildlyinteresting'
p90
F0.0072772253950600004
sS'whatisthisthing'
p91
F0.010986793425899999
sS'glitch_art'
p92
F0.0077623126338300001
sS'AskWomen'
p93
F0.010847781958299999
sS'NetflixBestOf'
p94
F0.0092862394814999995
sS'gentlemanboners'
p95
F0.016282330944200001
sS'TheSimpsons'
p96
F0.00762047396705
sS'Rateme'
p97
F0.0139232755637
sS'SubredditDrama'
p98
F0.0099750623441399993
sS'tumblr'
p99
F0.0148417450813
sS'burstingout'
p100
F0.0078149421694299996
sS'see'
p101
F0.0077492562097800002
sS'MarkMyWords'
p102
F0.0084080199575000004
sS'AmISexy'
p103
F0.014464094016599999
sS'TwoXChromosomes'
p104
F0.0071682387161599997
sS'fatpeoplestories'
p105
F0.0113462797294
sS'Baking'
p106
F0.0070634401569700002
sS'amiugly'
p107
F0.0121077057391
sS'thick'
p108
F0.0079993402606000005
sS'Cinemagraphs'
p109
F0.0104629042486
sS'firstworldanarchists'
p110
F0.014626596156299999
sS'offbeat'
p111
F0.010343413033300001
sS'no_sob_story'
p112
F0.0087905718701700008
sS'humor'
p113
F0.0090397407470599999
sS'Glitch_in_the_Matrix'
p114
F0.0087291690284499995
sS'AMA'
p115
F0.0070293223159499998
sS'Justrolledintotheshop'
p116
F0.00867499466154
sS'shittyfoodporn'
p117
F0.016845137453800001
sS'ExpectationVsReality'
p118
F0.019528664107
sS'socialskills'
p119
F0.0087346335151100001
sS'firstworldproblems'
p120
F0.0126338329764
sS'outside'
p121
F0.010234636871500001
sS'RandomActsofMakeup'
p122
F0.0094492440604800002
sS'RoomPorn'
p123
F0.0117020788399
sS'randomsexiness'
p124
F0.0095414273196400001
sS'catpictures'
p125
F0.00796037502211
sS'lifehacks'
p126
F0.0107154112827
sS'tightdresses'
p127
F0.0090221187427199992
sS'disney'
p128
F0.0074938504662199999
sS'Enhancement'
p129
F0.0072950344027200003
sS'ass'
p130
F0.010109114249
sS'tattoos'
p131
F0.0121203508202
sS'blackpeoplegifs'
p132
F0.017803302225400001
sS'bestof'
p133
F0.0082351641509200001
sS'Cyberpunk'
p134
F0.0074581848094300001
sS'TalesFromRetail'
p135
F0.0093576792955300005
sS'casualiama'
p136
F0.00985195629186
sS'LetsNotMeet'
p137
F0.0089954242928499996
sS'transtimelines'
p138
F0.0088081168469200007
sS'loseit'
p139
F0.0088954928182300008
sS'OkCupid'
p140
F0.0092383689172800005
sS'delusionalartists'
p141
F0.017719317317100001
sS'lgbt'
p142
F0.0081085065605199999
sS'adventuretime'
p143
F0.0097993153902899994
sS'LadyBoners'
p144
F0.0187903473717
sS'corgi'
p145
F0.0093279471171499994
sS'shittyaskscience'
p146
F0.0101214057508
sS'Amateur'
p147
F0.0076018452342300003
sS'doctorwho'
p148
F0.0073170731707299999
sS'lewronggeneration'
p149
F0.0089362574298000007
sS'bigboobproblems'
p150
F0.0095967429236099994
sS'youtubehaiku'
p151
F0.011981991563
sS'ThriftStoreHauls'
p152
F0.0105915784035
sS'calvinandhobbes'
p153
F0.0078667283665000004
sS'Frugal'
p154
F0.0075176238634900002
sS'treesgonewild'
p155
F0.0073607662291600004
sS'TheBluePill'
p156
F0.0085197018104399991
sS'piercing'
p157
F0.0110645696673
sS'creepy'
p158
F0.00845441534685
sS'lookatmydog'
p159
F0.0084495141529399992
sS'Hair'
p160
F0.0099315068493199994
sS'4chan'
p161
F0.0094882116158700007
sS'howtonotgiveafuck'
p162
F0.0097498940228899992
sS'sixwordstories'
p163
F0.0082769758756400004
sS'AnimalsBeingBros'
p164
F0.017223971016200001
sS'classic4chan'
p165
F0.011503067484699999
sS'badtattoos'
p166
F0.016889761020400001
sS'GWNerdy'
p167
F0.010713061364399999
sS'OutOfTheLoop'
p168
F0.0115963591808
sS'girlsinyogapants'
p169
F0.0118644067797
sS'SkincareAddiction'
p170
F0.0111839254766
sS'whatsthisbug'
p171
F0.0095435684647299998
sS'QuotesPorn'
p172
F0.0119210232212
sS'bigdickproblems'
p173
F0.0085527194975300001
sS'TrueReddit'
p174
F0.0072681820286100004
sS'drunk'
p175
F0.0127198027938
sS'TinyTits'
p176
F0.0086824203365600001
sS'xxfitness'
p177
F0.0074961779355900001
sS'confession'
p178
F0.0109259086818
sS'reactiongifs'
p179
F0.0125172417029
sS'AntiJokes'
p180
F0.00736040609137
sS'community'
p181
F0.0073371283997499996
sS'findareddit'
p182
F0.0087683798731999999
sS'AsiansGoneWild'
p183
F0.0073138297872299999
sS'rant'
p184
F0.0071438880069300001
sS'conspiratard'
p185
F0.00846970251477
sS'cosplay'
p186
F0.012367125780700001
sS'TrollXChromosomes'
p187
F0.0179387149478
sS'holdmybeer'
p188
F0.0140573105739
sS'Unexpected'
p189
F0.015724133477599999
sS'ContagiousLaughter'
p190
F0.0152056277056
sS'femalefashionadvice'
p191
F0.0094589178356699992
sS'nostalgia'
p192
F0.0131893665004
sS'gonewildcurvy'
p193
F0.0070527713242600001
sS'Damnthatsinteresting'
p194
F0.013644670050800001
sS'FiftyFifty'
p195
F0.014264052018800001
sS'CrazyIdeas'
p196
F0.012861736334399999
sS'OldSchoolCool'
p197
F0.0096810872272499997
sS'lego'
p198
F0.0073682221802399998
sS'Bad_Cop_No_Donut'
p199
F0.0092192934668699992
sS'ANormalDayInRussia'
p200
F0.0126968320159
sS'EatCheapAndHealthy'
p201
F0.0087567737375299996
sS'onetruegod'
p202
F0.012331838564999999
sS'TheFacebookDelusion'
p203
F0.0070894435272399999
sS'urbanexploration'
p204
F0.0070380797155100002
sS'MorbidReality'
p205
F0.012830170912
sS'gif'
p206
F0.013498438197199999
sS'wheredidthesodago'
p207
F0.016931178234500001
sS'PenmanshipPorn'
p208
F0.015623383342000001
sS'shittyreactiongifs'
p209
F0.0142685370741
sS'alternativeart'
p210
F0.0091795754446400007
sS'shittyadvice'
p211
F0.0087892104864399998
sS'raisedbynarcissists'
p212
F0.0086965669600599996
sS'confessions'
p213
F0.0072463768115899998
sS'Pareidolia'
p214
F0.019288469781399999
sS'asstastic'
p215
F0.0100542319176
sS'happy'
p216
F0.0143517888723
sS'Boobies'
p217
F0.0091457605589099992
sS'fatlogic'
p218
F0.012451277609399999
sS'TrollYChromosome'
p219
F0.019784270150100002
sS'explainlikeIAmA'
p220
F0.00972609597368
sS'firstimpression'
p221
F0.019845045534900001
sS'FloridaMan'
p222
F0.013962472406200001
sS'MakeupAddiction'
p223
F0.0138827833633
sS'batman'
p224
F0.0087971338370400002
sS'ketorecipes'
p225
F0.0070242237248099998
sS'snackexchange'
p226
F0.0073317865429199996
sS'mildlyinfuriating'
p227
F0.014515910221400001
sS'somethingimade'
p228
F0.012574324982900001
sS'nsfw_gifs'
p229
F0.0075191163976199996
sS'redditgetsdrawn'
p230
F0.015015780916200001
sS'Awwducational'
p231
F0.013198854439000001
sS'TheGirlSurvivalGuide'
p232
F0.011764705882400001
sS'shittyaskreddit'
p233
F0.0072263953598899998
sS'IASIP'
p234
F0.0086202007599399996
sS'ghettoglamourshots'
p235
F0.0165579958819
sS'blunderyears'
p236
F0.025381603835800001
sS'webcomics'
p237
F0.0077790402936799997
sS'showerbeer'
p238
F0.0133267925762
sS'rage'
p239
F0.0133440330162
sS'comics'
p240
F0.011442510813800001
sS'sex'
p241
F0.0075322756859100004
sS'interestingasfuck'
p242
F0.0129034398116
sS'Perfectfit'
p243
F0.0139628172491
sS'PerfectTiming'
p244
F0.016510707216099998
sS'behindthegifs'
p245
F0.016246339850799998
sS'standupshots'
p246
F0.0131237381021
sS'introvert'
p247
F0.0077462730195799996
sS'cats'
p248
F0.0112740208165
sS'AskMen'
p249
F0.0090960963984800004
sS'BustyPetite'
p250
F0.0106337501336
sS'OnOff'
p251
F0.012555603386400001
sS'ICanDrawThat'
p252
F0.0083055246570299997
sS'fullmoviesonyoutube'
p253
F0.011327677138299999
sS'NewsOfTheStupid'
p254
F0.0074482195694300004
sS'FoodPorn'
p255
F0.0110279008174
sS'keto'
p256
F0.0085299826335700005
sS'awesome'
p257
F0.011024182076800001
sS'Cooking'
p258
F0.0070757507631900004
sS'teenagers'
p259
F0.0076548960509599997
sS'ginger'
p260
F0.0084118131114599998
sS'FanTheories'
p261
F0.0076026355803300001
sS'oddlysatisfying'
p262
F0.015000087822499999
sS'NotTimAndEric'
p263
F0.011957334058000001
sS'conspiracy'
p264
F0.0071347638269200001
sS'celebnsfw'
p265
F0.0086183496199800005
sS'YouShouldKnow'
p266
F0.0098862056536700004
sS'bestofworldstar'
p267
F0.0073529411764700001
sS'shorthairedhotties'
p268
F0.022639567790099999
sS'southpark'
p269
F0.0076261785912399996
sS'Pizza'
p270
F0.0077116896999300001
sS'TalesFromYourServer'
p271
F0.0088655924415999999
sS'asmr'
p272
F0.0089460305044999997
sS'ForeverAlone'
p273
F0.00950288056067
sS'misleadingthumbnails'
p274
F0.019485930389100001
sS'eatsandwiches'
p275
F0.0087336244541499995
sS'HighQualityGifs'
p276
F0.014852159694800001
sS'softwaregore'
p277
F0.00706325537592
sS'self'
p278
F0.0097109177659299994
sS'pitbulls'
p279
F0.0078156474095600007
sS'RealGirls'
p280
F0.011354069489600001
sS'GoneMild'
p281
F0.0115631923056
sS'answers'
p282
F0.0070222909418899996
sS'TheWayWeWere'
p283
F0.0093415563214200008
sS'JusticePorn'
p284
F0.0106339074451
sS'thatHappened'
p285
F0.0134959084802
sS'Feminism'
p286
F0.0072682391662099999
sS'slowcooking'
p287
F0.0075867232343399997
sS'RedditLaqueristas'
p288
F0.0146889952153
sS'nottheonion'
p289
F0.0075534759358299999
sS'itookapicture'
p290
F0.0127076853046
sS'nonononoyes'
p291
F0.014928350566900001
sS'Frugal_Jerk'
p292
F0.0073911306432299997
sS'Whatcouldgowrong'
p293
F0.0148577935634
sS'wallpapers'
p294
F0.0097319133308899995
sS'firefly'
p295
F0.0090897924087899994
sS'ArtisanVideos'
p296
F0.0088999447208400004
sS'NSFW_GIF'
p297
F0.0092404896669699994
sS'MapPorn'
p298
F0.0077616284493500004
sS'notinteresting'
p299
F0.014529578069600001
sS'facepalm'
p300
F0.013730931489699999
sS'forwardsfromgrandma'
p301
F0.0123724876275
sS'AnimalsBeingJerks'
p302
F0.016992682240400001
sS'tifu'
p303
F0.0074542239706800002
sS'wallpaper'
p304
F0.0074906367041200003
sS'techsupportmacgyver'
p305
F0.0073122091735
sS'Images'
p306
F0.0076150627615099997
sS'MURICA'
p307
F0.0099205458544699993
sS'actuallesbians'
p308
F0.0072330718299699996
sS'progresspics'
p309
F0.016153316150799998
sS'dogpictures'
p310
F0.0119334854907
sS'DunderMifflin'
p311
F0.00753071739992
sS'GamePhysics'
p312
F0.0124220013866
sS'thesims'
p313
F0.0071140488460700001
sS'DAE'
p314
F0.00702420503085
sS'short'
p315
F0.0098672720922099999
sS'GirlGamers'
p316
F0.0092985521717400006
sS'cosplaygirls'
p317
F0.0139907135875
sS'ConfusedBoners'
p318
F0.014832816559099999
sS'HumanPorn'
p319
F0.017193025240799999
sS'GetMotivated'
p320
F0.0081721673323499992
sS'curvy'
p321
F0.0088826554464699996
sS'terriblefacebookmemes'
p322
F0.0126438644837
sS'PrettyGirls'
p323
F0.0175345728843
sS'TumblrInAction'
p324
F0.0104700067343
sS'Graffiti'
p325
F0.0071214392803600002
sS'EmmaWatson'
p326
F0.010899852483200001
sS'crafts'
p327
F0.0076829761423400002
sS'tall'
p328
F0.0132131272658
sS'HailCorporate'
p329
F0.0083455683486599996
sS'ImGoingToHellForThis'
p330
F0.0115507461865
sS'drawing'
p331
F0.0096796496888699995
sS'shutupandtakemymoney'
p332
F0.010314386091300001
sS'GifSound'
p333
F0.0071571345670300001
s.