(dp1
S'RandomActsOfGaming'
p2
F0.010126199652399999
sS'AndroidGaming'
p3
F0.0073327222731400001
sS'sgsflair'
p4
F0.0075218375930099996
sS'quityourbullshit'
p5
F0.00727287022841
sS'GrandTheftAutoV'
p6
F0.0072182515264800004
sS'WorldofTanks'
p7
F0.0074858499178400003
sS'dwarffortress'
p8
F0.0195799216803
sS'MilitaryPorn'
p9
F0.00710574232802
sS'CrusaderKings'
p10
F0.0183895967424
sS'KerbalAcademy'
p11
F0.016612698859600001
sS'gmod'
p12
F0.0082542302930300009
sS'Steam'
p13
F0.0134498717444
sS'CrappyDesign'
p14
F0.0082982991234599995
sS'SteamGameSwap'
p15
F0.0078856936154799995
sS'Enhancement'
p16
F0.0076027782992300003
sS'eu4'
p17
F0.0128161888702
sS'starcitizen'
p18
F0.0104108887656
sS'pcgaming'
p19
F0.0105318089093
sS'unitedkingdom'
p20
F0.0078760162601600008
sS'totalwar'
p21
F0.0136711157185
sS'ShouldIbuythisgame'
p22
F0.0126063662149
sS'sips'
p23
F0.0098726354661199996
sS'truegaming'
p24
F0.0105189340813
sS'Warthunder'
p25
F0.0110447927707
sS'outside'
p26
F0.0087602361455000003
sS'gamedev'
p27
F0.0087569934322500008
sS'pcmasterrace'
p28
F0.0071056964895100001
sS'tf2'
p29
F0.0077316122092200004
sS'spaceengineers'
p30
F0.0246943179094
sS'SubredditDrama'
p31
F0.0075307327461000004
sS'starbound'
p32
F0.0152896748641
sS'flightsim'
p33
F0.0071353065539099996
sS'needamod'
p34
F0.0074604595643099998
sS'Cynicalbrit'
p35
F0.011701407178899999
sS'Roadcam'
p36
F0.0082666202575700006
sS'GamePhysics'
p37
F0.011492087415199999
sS'gamingsuggestions'
p38
F0.0083717357910900007
sS'dayz'
p39
F0.0083516829191600007
sS'Planetside'
p40
F0.0075410594494599997
sS'dontstarve'
p41
F0.015464973371600001
sS'wheredidthesodago'
p42
F0.0084441387742600002
sS'GameDeals'
p43
F0.011409160559000001
sS'paradoxplaza'
p44
F0.016611515552600001
sS'HalfLife'
p45
F0.0081904553893200008
sS'Yogscast'
p46
F0.00891746163418
sS'patientgamers'
p47
F0.0108257161824
sS'SimCity'
p48
F0.021646773214599999
sS'rct'
p49
F0.010794473229699999
sS'OutOfTheLoop'
p50
F0.0073271599388699997
sS'misleadingthumbnails'
p51
F0.0072997775305900002
sS'WebGames'
p52
F0.0079227531567199992
sS'admincraft'
p53
F0.00792104921439
sS'arma'
p54
F0.013696601762000001
sS'GTA'
p55
F0.00789089973411
sS'Fallout'
p56
F0.0083953670892099996
sS'Eve'
p57
F0.0079359741744600004
sS'Terraria'
p58
F0.010021958223099999
sS'ftlgame'
p59
F0.023954872111899998
sS'roguelikes'
p60
F0.0081855388813099998
sS'skyrim'
p61
F0.0076645330707400001
sS'IndieGaming'
p62
F0.0115900036219
sS'ProgrammerHumor'
p63
F0.0086509592387200001
sS'techsupportgore'
p64
F0.010884925333200001
sS'nononono'
p65
F0.0078508814179800001
sS'softwaregore'
p66
F0.0096400459892100002
sS'civ'
p67
F0.014292300599399999
sS'KerbalSpaceProgram'
p68
F0.026428060128800002
sS'gamernews'
p69
F0.0083161184384799997
sS'polandball'
p70
F0.0091477940475799997
sS'techsupportmacgyver'
p71
F0.0097488433575699997
sS'Xcom'
p72
F0.018657398939100001
sS'britishproblems'
p73
F0.00795167565354
sS'talesfromtechsupport'
p74
F0.01074995963
sS'paydaytheheist'
p75
F0.014354782435300001
sS'GiftofGames'
p76
F0.0085120871637700008
sS'wargame'
p77
F0.0078262042909199997
sS'linux_gaming'
p78
F0.0076982294072400004
sS'nerdcubed'
p79
F0.013569576490899999
sS'Games'
p80
F0.0096307041114799992
sS'Gaming4Gamers'
p81
F0.0088061097256900006
sS'playrust'
p82
F0.010698395240699999
sS'bindingofisaac'
p83
F0.0088352027609999995
sS'Minecraft'
p84
F0.00921392373871
sS'thesims'
p85
F0.012284561789499999
sS'mountandblade'
p86
F0.018168538299999999
sS'feedthebeast'
p87
F0.0096444672715900008
sS'youtube'
p88
F0.0075349838536099998
s.