(dp1
S'weddingplanning'
p2
F0.00844665934623
sS'xxfitness'
p3
F0.0071689095711199996
sS'pitbulls'
p4
F0.014029813353400001
sS'lookatmydog'
p5
F0.019253672092100001
sS'germanshepherds'
p6
F0.0169056280762
sS'goldenretrievers'
p7
F0.017163289630500001
sS'Pets'
p8
F0.014210574882300001
sS'TheGirlSurvivalGuide'
p9
F0.0070590236434800004
sS'dogpictures'
p10
F0.0120295270209
sS'corgi'
p11
F0.011822125813399999
sS'wedding'
p12
F0.0087719298245599996
sS'Dogtraining'
p13
F0.089658621983200001
sS'dogs'
p14
F0.030005125099
s.