(dp1
S'DebateAnAtheist'
p2
F0.0073835414149599999
sS'PoliticalDiscussion'
p3
F0.0091536403323499993
sS'TrueAtheism'
p4
F0.0072352113619600002
sS'badhistory'
p5
F0.0147687524291
sS'TrueReddit'
p6
F0.0078238993710699999
sS'AskWomen'
p7
F0.0086793369688499995
sS'badphilosophy'
p8
F0.0164845009855
sS'PanicHistory'
p9
F0.0084562012142199994
sS'TrueAskReddit'
p10
F0.0080486496154499997
sS'Conservative'
p11
F0.0077013444719999996
sS'rant'
p12
F0.0082565284178199999
sS'blackladies'
p13
F0.0073831009023799998
sS'changemyview'
p14
F0.0147490781826
sS'TwoXChromosomes'
p15
F0.0072681980859899999
sS'TrollXChromosomes'
p16
F0.0075739023963599999
sS'confession'
p17
F0.0090808262858699997
sS'OneY'
p18
F0.027266028002900001
sS'Foodforthought'
p19
F0.0100939296229
sS'ShitRedditSays'
p20
F0.017895351098999999
sS'Feminism'
p21
F0.019880174291900001
sS'SRSsucks'
p22
F0.0284360189573
sS'relationships'
p23
F0.0070289314288699998
sS'forwardsfromgrandma'
p24
F0.0070405438213199997
sS'ForeverAlone'
p25
F0.0131677390394
sS'AskMen'
p26
F0.0092504247050299998
sS'psychology'
p27
F0.00810252170318
sS'ShitRConservativeSays'
p28
F0.0096203848153899995
sS'badlinguistics'
p29
F0.0082954769899300004
sS'skeptic'
p30
F0.0079314040728800002
sS'quityourbullshit'
p31
F0.00794973714579
sS'seduction'
p32
F0.0105701357466
sS'AskSocialScience'
p33
F0.0084842345194399999
sS'socialskills'
p34
F0.0071264115776800002
sS'DebateReligion'
p35
F0.0095971113644999998
sS'GirlGamers'
p36
F0.0105681366706
sS'TumblrInAction'
p37
F0.0086986501180200005
sS'againstmensrights'
p38
F0.035084318666400001
sS'collapse'
p39
F0.0071407319250199998
sS'raisedbynarcissists'
p40
F0.0080853945114900006
sS'circlebroke'
p41
F0.0171653241273
sS'conspiratard'
p42
F0.0109819946367
sS'askseddit'
p43
F0.0090665304558800001
sS'AskFeminists'
p44
F0.024644220756699999
sS'MensRights'
p45
F0.019665985003399999
sS'fatlogic'
p46
F0.0081964778902999993
sS'TrollYChromosome'
p47
F0.0097961867192600006
sS'Anarchism'
p48
F0.0078962760772099995
sS'BasicIncome'
p49
F0.0071933820884800001
sS'childfree'
p50
F0.0077577577577600003
sS'asktrp'
p51
F0.064152233363700004
sS'circlebroke2'
p52
F0.0101260126013
sS'Economics'
p53
F0.0071800308404
sS'BDSMcommunity'
p54
F0.0092147435897400008
sS'OkCupid'
p55
F0.0073277085429700002
sS'ShitAmericansSay'
p56
F0.0084046692606999998
sS'DeadBedrooms'
p57
F0.0146671350782
sS'short'
p58
F0.014764764764800001
sS'EnoughLibertarianSpam'
p59
F0.015783716205699998
sS'lostgeneration'
p60
F0.011491472118099999
sS'ainbow'
p61
F0.0083559851001700006
sS'NeutralPolitics'
p62
F0.0074687449261200004
sS'SRSGaming'
p63
F0.010651896037500001
sS'GunsAreCool'
p64
F0.0072187687988799999
sS'RedPillWomen'
p65
F0.076848059293899998
sS'TheoryOfReddit'
p66
F0.0115495668912
sS'Liberal'
p67
F0.0083702609551899992
sS'creepyPMs'
p68
F0.0107191510719
sS'asianamerican'
p69
F0.0083167600795499997
sS'dating_advice'
p70
F0.0075925150953499998
sS'TheBluePill'
p71
F0.112375827815
sS'FeMRADebates'
p72
F0.043080357142899997
sS'TheRedPill'
p73
F0.043642467477999998
sS'relationship_advice'
p74
F0.00730576499789
sS'socialism'
p75
F0.0093058350100599999
sS'howtonotgiveafuck'
p76
F0.0080770224864300001
sS'SubredditDrama'
p77
F0.0139711249899
sS'HailCorporate'
p78
F0.0075614366729700004
sS'Anarcho_Capitalism'
p79
F0.0093636729762400003
sS'polyamory'
p80
F0.0106429668642
sS'everymanshouldknow'
p81
F0.0089584374639499996
s.