(dp1
S'Boobies'
p2
F0.043072723136400003
sS'EmmaWatson'
p3
F0.0075061728395099999
sS'wifesharing'
p4
F0.044886534039800002
sS'boltedontits'
p5
F0.0176929506826
sS'GWCouples'
p6
F0.042771684945199999
sS'RandomActsOfBlowJob'
p7
F0.012188416422299999
sS'ginger'
p8
F0.043034709193200002
sS'milf'
p9
F0.044155181214900002
sS'penis'
p10
F0.016419077404200001
sS'incest'
p11
F0.013235157051
sS'Tgirls'
p12
F0.0148100450741
sS'nsfw'
p13
F0.024133062737099999
sS'AmISexy'
p14
F0.00802803440586
sS'thick'
p15
F0.026661239442399998
sS'hentai'
p16
F0.010911179173
sS'burstingout'
p17
F0.021409214092100001
sS'shorthairedhotties'
p18
F0.0105274022087
sS'gonewild'
p19
F0.016169439115899999
sS'gonewildaudio'
p20
F0.016773556980799999
sS'hardbodies'
p21
F0.0134847989539
sS'BDSMGW'
p22
F0.0205314009662
sS'DirtySnapchat'
p23
F0.0086069271881700007
sS'Blowjobs'
p24
F0.032657788071799997
sS'redheads'
p25
F0.036465981399899997
sS'RealGirls'
p26
F0.026640139751600001
sS'GoneMild'
p27
F0.033200448486399997
sS'Hotchickswithtattoos'
p28
F0.025414828817499999
sS'TinyTits'
p29
F0.053268765133200002
sS'BBWGW'
p30
F0.023141564318000001
sS'bdsm'
p31
F0.0113481139014
sS'randomsexiness'
p32
F0.025529265255299999
sS'Hotwife'
p33
F0.026941362916000001
sS'tightdresses'
p34
F0.023650321941600001
sS'gonewildcurvy'
p35
F0.028474555928900001
sS'AsianHotties'
p36
F0.0188145597639
sS'AsiansGoneWild'
p37
F0.034904985290600002
sS'asstastic'
p38
F0.0459154113557
sS'BigBoobsGW'
p39
F0.033403927608800003
sS'ass'
p40
F0.045173769264399997
sS'pornID'
p41
F0.018408622986599999
sS'treesgonewild'
p42
F0.027740641711200002
sS'Stacked'
p43
F0.0247729149463
sS'cumsluts'
p44
F0.039193729003399999
sS'Bondage'
p45
F0.019418872266999999
sS'dirtykikpals'
p46
F0.0080894249154300005
sS'NSFW_GIF'
p47
F0.022655367231599999
sS'celebnsfw'
p48
F0.0176686920371
sS'girlsinyogapants'
p49
F0.0214921166212
sS'altgonewild'
p50
F0.0317537860283
sS'ConfusedBoners'
p51
F0.010739614994900001
sS'nsfw_gifs'
p52
F0.0248824730519
sS'rule34'
p53
F0.011253166794299999
sS'BBW'
p54
F0.017299181976699999
sS'Sissies'
p55
F0.00755308536412
sS'hugeboobs'
p56
F0.023144049576300001
sS'Amateur'
p57
F0.052905054322200003
sS'feet'
p58
F0.026427061310799999
sS'TributeMe'
p59
F0.0374892272336
sS'gonewildstories'
p60
F0.0164511122607
sS'traps'
p61
F0.0120954194199
sS'GoneWildCD'
p62
F0.0079587324981600007
sS'tipofmypenis'
p63
F0.0139241112015
sS'cosplaygirls'
p64
F0.0085774058577400003
sS'GoneWildPlus'
p65
F0.028630627236799999
sS'Cuckold'
p66
F0.0181280059193
sS'NSFWFunny'
p67
F0.019722622478399999
sS'AmateurArchives'
p68
F0.0307401914521
sS'BustyPetite'
p69
F0.027873070325900001
sS'curvy'
p70
F0.034238714613600001
sS'WatchItForThePlot'
p71
F0.0081498601143399994
sS'PrettyGirls'
p72
F0.0119966378849
sS'pornvids'
p73
F0.016460905349799999
sS'workgonewild'
p74
F0.043156424580999997
sS'dirtypenpals'
p75
F0.014697461347599999
sS'pantyselling'
p76
F0.011948224361099999
sS'MassiveCock'
p77
F0.011185682326599999
sS'anal'
p78
F0.032455089820399997
sS'GWNerdy'
p79
F0.031723990600299998
sS'Celebs'
p80
F0.0095882291412400008
sS'Pegging'
p81
F0.0142594945645
sS'OnOff'
p82
F0.041471048513300003
s.