(dp1
S'canada'
p2
F0.024583006828599999
sS'ontario'
p3
F0.010101010101000001
sS'CanadaPolitics'
p4
F0.035819637589499999
sS'canadaguns'
p5
F0.0076084721365399996
sS'Habs'
p6
F0.039076376554200001
sS'ottawa'
p7
F0.010923708817600001
sS'france'
p8
F0.018959020254400001
sS'CanadianForces'
p9
F0.0074231177094399997
sS'metacanada'
p10
F0.018026796589499999
sS'French'
p11
F0.021041557075200001
sS'PersonalFinanceCanada'
p12
F0.0105688935282
sS'montreal'
p13
F0.123722431415
s.