(dp1
S'breastfeeding'
p2
F0.0123044471788
sS'TryingForABaby'
p3
F0.0079503105590100001
sS'BabyBumps'
p4
F0.0085193003618800004
sS'clothdiaps'
p5
F0.0147969717825
sS'knitting'
p6
F0.020194131429199999
sS'BackYardChickens'
p7
F0.0077101002313000001
sS'Breadit'
p8
F0.0078767722737599997
sS'crafts'
p9
F0.026905829596400001
sS'sewing'
p10
F0.074053832490799998
sS'breakingmom'
p11
F0.0122410546139
sS'Mommit'
p12
F0.0130293159609
sS'somethingimade'
p13
F0.0100997428016
sS'xxketo'
p14
F0.0070606694560699998
sS'namenerds'
p15
F0.0079562406762800006
sS'bigboobproblems'
p16
F0.00985048372911
sS'Indiemakeupandmore'
p17
F0.0071566731141199996
sS'crochet'
p18
F0.021372570078399999
sS'Baking'
p19
F0.0091276936106099993
sS'CrossStitch'
p20
F0.025114653854599999
sS'beyondthebump'
p21
F0.0114605171209
sS'homestead'
p22
F0.0072787427626099998
s.