(dp1
S'Poetry'
p2
F0.0105038818694
sS'inthenews'
p3
F0.011309087950500001
sS'BuyItForLife'
p4
F0.0103986135182
sS'SampleSize'
p5
F0.0072322268026300002
sS'everymanshouldknow'
p6
F0.0162653217995
sS'askphilosophy'
p7
F0.0128774422735
sS'NeutralPolitics'
p8
F0.0102080497764
sS'JoeRogan'
p9
F0.0090755164239799992
sS'Showerthoughts'
p10
F0.0084278471750400003
sS'HistoryPorn'
p11
F0.0153362664991
sS'holdmybeer'
p12
F0.010180783770599999
sS'ImaginaryMonsters'
p13
F0.010237574241999999
sS'YouShouldKnow'
p14
F0.019129237125999999
sS'UpliftingNews'
p15
F0.011116040619099999
sS'PandR'
p16
F0.0074672170956800003
sS'Jokes'
p17
F0.0092545550541399992
sS'3amjokes'
p18
F0.0096818810511799993
sS'Military'
p19
F0.0083609576427299999
sS'photoshopbattles'
p20
F0.0075066813394100004
sS'IWantToLearn'
p21
F0.019855040632500001
sS'Celebs'
p22
F0.00744000506554
sS'CrappyDesign'
p23
F0.010536722428900001
sS'NewsOfTheWeird'
p24
F0.0111863711002
sS'Cyberpunk'
p25
F0.0113299449386
sS'Libertarian'
p26
F0.012253487661700001
sS'Anarcho_Capitalism'
p27
F0.0092322988424099993
sS'EatCheapAndHealthy'
p28
F0.010016056273399999
sS'tea'
p29
F0.00700289110183
sS'blackpeoplegifs'
p30
F0.00975279376905
sS'POLITIC'
p31
F0.011125597566299999
sS'fatpeoplestories'
p32
F0.0075009869719700004
sS'OneY'
p33
F0.0095927601810000002
sS'depression'
p34
F0.0081506409632900005
sS'forwardsfromgrandma'
p35
F0.010013610733
sS'Entrepreneur'
p36
F0.0083188405797099997
sS'investing'
p37
F0.0082091722956600006
sS'InteriorDesign'
p38
F0.0073401841718900001
sS'socialskills'
p39
F0.016309244909000001
sS'DebateReligion'
p40
F0.0098179586827599995
sS'Anticonsumption'
p41
F0.01159188568
sS'vexillology'
p42
F0.0084913490391400007
sS'Economics'
p43
F0.0149694542218
sS'answers'
p44
F0.0154533606405
sS'lgbt'
p45
F0.0072061821457400001
sS'gentlemanboners'
p46
F0.0099561725736600007
sS'doctorwho'
p47
F0.0072423148501100003
sS'WritingPrompts'
p48
F0.0084249134757200007
sS'ThriftStoreHauls'
p49
F0.0086833353861299999
sS'vegetarian'
p50
F0.0071830985915499997
sS'IWantOut'
p51
F0.0072140608604400001
sS'QuotesPorn'
p52
F0.039639937236800003
sS'firefox'
p53
F0.0070626276378500004
sS'TrueReddit'
p54
F0.019915635156600001
sS'confession'
p55
F0.0124657950745
sS'AntiJokes'
p56
F0.0108782594785
sS'IdiotsFightingThings'
p57
F0.0105736904891
sS'Health'
p58
F0.013408723748
sS'gamernews'
p59
F0.0076107120772500002
sS'ContagiousLaughter'
p60
F0.010052855218199999
sS'environment'
p61
F0.0152497598463
sS'FiftyFifty'
p62
F0.0080250783699099999
sS'eldertrees'
p63
F0.0087141183362600006
sS'AskHistorians'
p64
F0.0139964494301
sS'Drugs'
p65
F0.0082058231231100006
sS'OutOfTheLoop'
p66
F0.013465397811900001
sS'ifyoulikeblank'
p67
F0.010392487866600001
sS'firstimpression'
p68
F0.0074903969270199997
sS'Pareidolia'
p69
F0.010584472230300001
sS'tipofmytongue'
p70
F0.0087044087623499994
sS'cordcutters'
p71
F0.0078457155380199997
sS'LifeProTips'
p72
F0.010536111942
sS'AskMen'
p73
F0.0110081949896
sS'EDC'
p74
F0.0070204998595900002
sS'techsupportgore'
p75
F0.0072157690953900001
sS'science'
p76
F0.0091568987431199997
sS'firstworldproblems'
p77
F0.0131338320865
sS'findareddit'
p78
F0.0133066339384
sS'standupshots'
p79
F0.015784096113900001
sS'Meditation'
p80
F0.016914213224799999
sS'history'
p81
F0.012772133526900001
sS'AskScienceFiction'
p82
F0.0129677291625
sS'NewsOfTheStupid'
p83
F0.010577472841600001
sS'awesome'
p84
F0.012633868808600001
sS'DecidingToBeBetter'
p85
F0.018328350448500001
sS'Glitch_in_the_Matrix'
p86
F0.0093707436665800004
sS'learnprogramming'
p87
F0.0072331009540999996
sS'Infographics'
p88
F0.0119154492777
sS'polandball'
p89
F0.0082040306759399995
sS'CampingandHiking'
p90
F0.0088646266339500006
sS'Ask_Politics'
p91
F0.0095877277085299993
sS'HouseOfCards'
p92
F0.0095092186592
sS'MURICA'
p93
F0.010094985641699999
sS'needadvice'
p94
F0.0081690447663700008
sS'scifi'
p95
F0.0129752092017
sS'spaceporn'
p96
F0.013183465518100001
sS'nyc'
p97
F0.0084046004128599996
sS'wheredidthesodago'
p98
F0.00947934352009
sS'BasicIncome'
p99
F0.011004016064299999
sS'askscience'
p100
F0.0093911486004000008
sS'philosophy'
p101
F0.0135555279194
sS'budgetfood'
p102
F0.0092293129289300006
sS'classic4chan'
p103
F0.010819053151300001
sS'vegan'
p104
F0.0072653774718699996
sS'wallpapers'
p105
F0.013097419568
sS'law'
p106
F0.0079964786149199999
sS'MachinePorn'
p107
F0.0077572964669700003
sS'FanTheories'
p108
F0.013693927372599999
sS'listentothis'
p109
F0.0083316062176200002
sS'tall'
p110
F0.0076587938546200003
sS'ImGoingToHellForThis'
p111
F0.0091386297495000008
sS'travel'
p112
F0.0097206679393499994
sS'DoesAnybodyElse'
p113
F0.0130571705426
sS'pettyrevenge'
p114
F0.0098152968108100001
sS'malehairadvice'
p115
F0.0072214580467700002
sS'CityPorn'
p116
F0.0108787943112
sS'zen'
p117
F0.0112021574525
sS'DeepIntoYouTube'
p118
F0.0091321922251600008
sS'dataisbeautiful'
p119
F0.01073176235
sS'linguistics'
p120
F0.0082033252764999991
sS'nostalgia'
p121
F0.0116201638143
sS'Documentaries'
p122
F0.010736534262799999
sS'writing'
p123
F0.0139731955045
sS'wallpaper'
p124
F0.0119047619048
sS'MensRights'
p125
F0.010878586673
sS'MilitaryPorn'
p126
F0.0092287677358999995
sS'Frisson'
p127
F0.016420834293600001
sS'childfree'
p128
F0.0083470894197500006
sS'NoStupidQuestions'
p129
F0.0158316811174
sS'Liberal'
p130
F0.011257953989200001
sS'creepyPMs'
p131
F0.0075929671697499996
sS'WatchItForThePlot'
p132
F0.0084552339454299994
sS'freebies'
p133
F0.0085273020055599991
sS'PropagandaPosters'
p134
F0.012933428548800001
sS'SubredditDrama'
p135
F0.010780967302699999
sS'minimalism'
p136
F0.014533302246099999
sS'economy'
p137
F0.0112676056338
sS'TrueAtheism'
p138
F0.013498549960499999
sS'badhistory'
p139
F0.0095921606514399998
sS'energy'
p140
F0.0089013224822000001
sS'ADHD'
p141
F0.00736040609137
sS'Anarchism'
p142
F0.0112085769981
sS'books'
p143
F0.0085234156877200002
sS'Cinemagraphs'
p144
F0.0107986501687
sS'canada'
p145
F0.0081963887198199994
sS'DunderMifflin'
p146
F0.0072314049586800003
sS'psychology'
p147
F0.025032855622999999
sS'entertainment'
p148
F0.011092851273599999
sS'malefashionadvice'
p149
F0.0071011519646499996
sS'LearnUselessTalents'
p150
F0.0129890291865
sS'RoomPorn'
p151
F0.012671171972299999
sS'memes'
p152
F0.0089930508243599994
sS'Astronomy'
p153
F0.0109830063931
sS'math'
p154
F0.0082325599716399998
sS'bestof'
p155
F0.0105629228417
sS'GamePhysics'
p156
F0.0081740859383600002
sS'youtubehaiku'
p157
F0.0089947272288700003
sS'PoliticalHumor'
p158
F0.016295806104700002
sS'recipes'
p159
F0.0090769378541900002
sS'howtonotgiveafuck'
p160
F0.018321239256900001
sS'whatstheword'
p161
F0.013591573224599999
sS'classicalmusic'
p162
F0.0085776036741900003
sS'misc'
p163
F0.0109729334309
sS'patientgamers'
p164
F0.0072067936653699999
sS'rant'
p165
F0.0105958442273
sS'seinfeld'
p166
F0.0088004439863600004
sS'OldSchoolCool'
p167
F0.0085756297560399992
sS'privacy'
p168
F0.010355137460799999
sS'ANormalDayInRussia'
p169
F0.0107002734514
sS'seduction'
p170
F0.0112773665144
sS'TheFacebookDelusion'
p171
F0.0077160493827199998
sS'PenmanshipPorn'
p172
F0.011775812381999999
sS'shittyreactiongifs'
p173
F0.0091231244816400003
sS'alternativeart'
p174
F0.0083996068269099992
sS'shittyadvice'
p175
F0.0084727507718800003
sS'MeanJokes'
p176
F0.0082429136176300002
sS'dogs'
p177
F0.0073562028685500002
sS'CombatFootage'
p178
F0.0077621800165200002
sS'nutrition'
p179
F0.0087483639870499993
sS'TrollYChromosome'
p180
F0.0091908917230300001
sS'collapse'
p181
F0.011914657799900001
sS'mildlyinfuriating'
p182
F0.0099758027403799993
sS'Psychonaut'
p183
F0.0145012649078
sS'sex'
p184
F0.0071819190026400003
sS'DCcomics'
p185
F0.0071049734814400004
sS'worldpolitics'
p186
F0.018137354799299999
sS'TheRedPill'
p187
F0.0078923824130899996
sS'nononono'
p188
F0.0114861902674
sS'knives'
p189
F0.0070017013479899996
sS'FoodPorn'
p190
F0.0086722689075599997
sS'conspiracy'
p191
F0.012156132522899999
sS'AnythingGoesNews'
p192
F0.0122718052738
sS'Nootropics'
p193
F0.0087037406152399993
sS'HighQualityGifs'
p194
F0.011390848488800001
sS'self'
p195
F0.0164202248436
sS'britishproblems'
p196
F0.00766515059954
sS'conspiratard'
p197
F0.0108558444837
sS'FutureWhatIf'
p198
F0.0086874409820600004
sS'firefly'
p199
F0.0078106647874100002
sS'MovieSuggestions'
p200
F0.0095863526570000007
sS'badphilosophy'
p201
F0.0075625958099100003
sS'Futurology'
p202
F0.0111529529083
sS'INTP'
p203
F0.0073110666461399998
sS'progresspics'
p204
F0.0071529692273299998
sS'skeptic'
p205
F0.015860393196400001
sS'TumblrInAction'
p206
F0.0081905431887800001
sS'HailCorporate'
p207
F0.0110793161641
sS'Heavymind'
p208
F0.012649332396300001
sS'Awwducational'
p209
F0.013892201287900001
sS'fffffffuuuuuuuuuuuu'
p210
F0.00742843040474
sS'PoliticalDiscussion'
p211
F0.0154639175258
sS'Foodforthought'
p212
F0.0270061302259
sS'StonerPhilosophy'
p213
F0.0076899726803599999
sS'TheoryOfReddit'
p214
F0.0125438596491
sS'TheBluePill'
p215
F0.0070797653563499999
sS'harrypotter'
p216
F0.0085312491400000006
sS'booksuggestions'
p217
F0.0122965101807
sS'whowouldwin'
p218
F0.0115685965189
sS'ProgrammerHumor'
p219
F0.0081688848095499995
sS'Anxiety'
p220
F0.0073955626623999999
sS'arresteddevelopment'
p221
F0.0070522774327099998
sS'shutupandtakemymoney'
p222
F0.0125464480874
sS'JusticePorn'
p223
F0.0097853750153100005
sS'geek'
p224
F0.0116768759571
sS'lostgeneration'
p225
F0.0114460744801
sS'beards'
p226
F0.0070148567927699997
sS'AbandonedPorn'
p227
F0.0112793212444
sS'progressive'
p228
F0.0143582559972
sS'Marijuana'
p229
F0.0085096230316499995
sS'WeAreTheMusicMakers'
p230
F0.0070071333880399999
sS'thatHappened'
p231
F0.0104202084042
sS'whitepeoplegifs'
p232
F0.0092850510677799994
sS'cringe'
p233
F0.0077074339443499998
sS'StarWars'
p234
F0.0078226857887899997
sS'AskWomen'
p235
F0.0096211665664500002
sS'TheSimpsons'
p236
F0.0087172036578100007
sS'Christianity'
p237
F0.0096791883740100001
sS'changemyview'
p238
F0.016448569397199998
sS'firstworldanarchists'
p239
F0.0117685683259
sS'PerfectTiming'
p240
F0.0133368087232
sS'truegaming'
p241
F0.0090064331665500007
sS'lotr'
p242
F0.0085150881386300004
sS'wikipedia'
p243
F0.0219909816164
sS'breakingbad'
p244
F0.0082628587272999994
sS'outside'
p245
F0.0117499132848
sS'AskCulinary'
p246
F0.0080841581592999995
sS'foodhacks'
p247
F0.0085694540428500002
sS'europe'
p248
F0.0085967059870899996
sS'StandUpComedy'
p249
F0.012903685748900001
sS'jobs'
p250
F0.0086654465319499999
sS'LucidDreaming'
p251
F0.0094637223974799994
sS'casualiama'
p252
F0.0102188256184
sS'facepalm'
p253
F0.010607521697200001
sS'Unexpected'
p254
F0.0115220189756
sS'RedditDayOf'
p255
F0.014026541239699999
sS'relationship_advice'
p256
F0.0073625130711299997
sS'itookapicture'
p257
F0.010276621606700001
sS'Sherlock'
p258
F0.0072005801906300003
sS'GetMotivated'
p259
F0.013316415294299999
sS'drunk'
p260
F0.0099577356557399993
sS'reactiongifs'
p261
F0.0102759153004
sS'community'
p262
F0.0071402077151300003
sS'startrek'
p263
F0.0083454710073599999
sS'EarthPorn'
p264
F0.0074356289747199997
sS'Guitar'
p265
F0.0075100961197800001
sS'confessions'
p266
F0.00746327284154
sS'fatlogic'
p267
F0.0082489490521600005
sS'somethingimade'
p268
F0.0104298801973
sS'MapPorn'
p269
F0.0110068700598
sS'Perfectfit'
p270
F0.0087974407445100006
sS'offbeat'
p271
F0.018158686097600001
sS'softwaregore'
p272
F0.0070537570537599998
sS'socialism'
p273
F0.013492410519100001
sS'Cooking'
p274
F0.0101512181462
sS'IASIP'
p275
F0.0079477408818700006
sS'technology'
p276
F0.00706504703574
sS'southpark'
p277
F0.0084605231987500001
sS'productivity'
p278
F0.0116959064327
sS'selfimprovement'
p279
F0.0140338251169
sS'Jazz'
p280
F0.0073688128023799999
sS'watchpeopledie'
p281
F0.0076738609112699998
sS'Whatcouldgowrong'
p282
F0.0115033927057
sS'fifthworldproblems'
p283
F0.0086131130251399998
sS'talesfromtechsupport'
p284
F0.0070993470353700001
sS'literature'
p285
F0.012285012285000001
sS'notinteresting'
p286
F0.0093717459215599992
sS'AnimalsBeingJerks'
p287
F0.0107768910716
sS'DebateAChristian'
p288
F0.0074163643692100002
sS'running'
p289
F0.0072223100848799997
sS'Physics'
p290
F0.0098563314400299997
sS'TrueFilm'
p291
F0.0087272219507100006
sS'HumanPorn'
p292
F0.016281512604999999
sS'Fantasy'
p293
F0.0080537932606499999
sS'Graffiti'
p294
F0.0074600667017700002
sS'awwwtf'
p295
F0.0091954022988500004
sS'circlebroke'
p296
F0.0092788428737099991
sS'PublicFreakout'
p297
F0.0085011770860599998
sS'ArtisanVideos'
p298
F0.0078581289157900001
sS'Conservative'
p299
F0.0096717769317800004
sS'dadjokes'
p300
F0.0116986906989
sS'futurama'
p301
F0.0099847455276699994
sS'perfectloops'
p302
F0.011532023064
sS'InternetIsBeautiful'
p303
F0.0098769866211699999
sS'TalesFromRetail'
p304
F0.00739101779493
sS'WouldYouRather'
p305
F0.0104069379586
sS'quityourbullshit'
p306
F0.011621129326
sS'Advice'
p307
F0.0070863883996200002
sS'ProtectAndServe'
p308
F0.0080367974120500001
sS'woahdude'
p309
F0.0105920765098
sS'Buddhism'
p310
F0.016717821458899999
sS'offmychest'
p311
F0.010166071705700001
sS'AmIFreeToGo'
p312
F0.0071252397917199997
sS'slowcooking'
p313
F0.0077564195211299999
sS'howto'
p314
F0.0135488182757
sS'cringepics'
p315
F0.0074058428271600004
sS'toosoon'
p316
F0.0099388942059899996
sS'grammar'
p317
F0.0093774168600199992
sS'bodyweightfitness'
p318
F0.0090994977872799997
sS'Art'
p319
F0.00901970854465
sS'4chan'
p320
F0.00871500295981
sS'compsci'
p321
F0.0078025881755900001
sS'Enhancement'
p322
F0.0082968065122100004
sS'ArcherFX'
p323
F0.0090025529627800003
sS'getdisciplined'
p324
F0.016639374570799999
sS'google'
p325
F0.0075015628255899998
sS'gardening'
p326
F0.0080953108293900008
sS'whatisthisthing'
p327
F0.010052023631100001
sS'NetflixBestOf'
p328
F0.0140327341025
sS'tumblr'
p329
F0.0084941448127999995
sS'interestingasfuck'
p330
F0.013612582618499999
sS'MarkMyWords'
p331
F0.0113774535348
sS'Coffee'
p332
F0.0071843281400100004
sS'humor'
p333
F0.0166144028167
sS'AMA'
p334
F0.0085571131002599998
sS'ExpectationVsReality'
p335
F0.010586982396800001
sS'nonononoyes'
p336
F0.013258558091300001
sS'religion'
p337
F0.0078066914498100002
sS'lifehacks'
p338
F0.012964812964799999
sS'biology'
p339
F0.0082814317979600007
sS'business'
p340
F0.0094794898310899996
sS'FloridaMan'
p341
F0.012186076083500001
sS'delusionalartists'
p342
F0.0095480255305900007
sS'Frugal'
p343
F0.01124513838
sS'shittyaskscience'
p344
F0.010772669060599999
sS'lewronggeneration'
p345
F0.0079942727598099998
sS'worldbuilding'
p346
F0.0076282940360600003
sS'calvinandhobbes'
p347
F0.012622000440300001
sS'netflix'
p348
F0.0079238559639899994
sS'sixwordstories'
p349
F0.0139992432841
sS'AnimalsBeingBros'
p350
F0.0120140541766
sS'Images'
p351
F0.0115634405196
sS'intj'
p352
F0.00868582727209
sS'TrollXChromosomes'
p353
F0.0079936051159099995
sS'unitedkingdom'
p354
F0.0072650823642099998
sS'Damnthatsinteresting'
p355
F0.0144916090819
sS'loseit'
p356
F0.0070378601785799997
sS'CrazyIdeas'
p357
F0.020084128206600001
sS'TinyHouses'
p358
F0.0075598160704499996
sS'Bad_Cop_No_Donut'
p359
F0.013105785326400001
sS'MorbidReality'
p360
F0.011302438460600001
sS'gif'
p361
F0.0117766714844
sS'introvert'
p362
F0.0121985222362
sS'Standup'
p363
F0.0083097889313599998
sS'happy'
p364
F0.0166363400052
sS'explainlikeIAmA'
p365
F0.0113736974733
sS'misleadingthumbnails'
p366
F0.0078759239064600008
sS'batman'
p367
F0.0089934278796300008
sS'occupywallstreet'
p368
F0.011665984445400001
sS'blunderyears'
p369
F0.0078816081834600007
sS'webcomics'
p370
F0.0098006918135399995
sS'rage'
p371
F0.010708179609500001
sS'comics'
p372
F0.012811634349
sS'behindthegifs'
p373
F0.0088419334361100003
sS'fullmoviesonyoutube'
p374
F0.0131181074351
sS'Design'
p375
F0.0089759932016099993
sS'TrueAskReddit'
p376
F0.019522490436599999
sS'engineering'
p377
F0.0074937921248699997
sS'politics'
p378
F0.0087568712129799994
sS'DAE'
p379
F0.0114163396361
sS'ForeverAlone'
p380
F0.0081892629663299996
sS'eatsandwiches'
p381
F0.0070020120724299997
sS'bicycling'
p382
F0.00710431874222
sS'Survival'
p383
F0.00842696629213
sS'AskSocialScience'
p384
F0.012246938265399999
sS'ImaginaryLandscapes'
p385
F0.0091843613077200008
sS'TheWayWeWere'
p386
F0.0122908842608
sS'Feminism'
p387
F0.0081720711297099992
sS'nottheonion'
p388
F0.0096205860568099998
sS'Frugal_Jerk'
p389
F0.0077324389789500004
sS'comicbooks'
p390
F0.0076847132908200002
sS'oddlysatisfying'
p391
F0.011704500268
sS'space'
p392
F0.0099824540483499993
sS'atheism'
p393
F0.0080352395144699992
sS'terriblefacebookmemes'
p394
F0.0070819372525099998
sS'PrettyGirls'
p395
F0.0073161580790399999
sS'urbanexploration'
p396
F0.0085193269027700001
s.