(dp1
S'FancyFollicles'
p2
F0.01404001404
sS'awwwtf'
p3
F0.0090963700334700005
sS'gardening'
p4
F0.0092080287549000002
sS'BackYardChickens'
p5
F0.0099527880566499995
sS'EatCheapAndHealthy'
p6
F0.0078178521055799997
sS'ferrets'
p7
F0.0075118608328899996
sS'ABraThatFits'
p8
F0.0081953778069199998
sS'Baking'
p9
F0.0093265670004099993
sS'crochet'
p10
F0.012066251967300001
sS'Aquariums'
p11
F0.0096046459682799998
sS'guineapigs'
p12
F0.021134442323400001
sS'nostalgia'
p13
F0.00730130032682
sS'tumblr'
p14
F0.0074310442802800001
sS'RandomActsofMakeup'
p15
F0.0077467482785000003
sS'bigboobproblems'
p16
F0.0095405993985299992
sS'TalesFromRetail'
p17
F0.0071299946464199997
sS'Pets'
p18
F0.012028318097500001
sS'TrollXChromosomes'
p19
F0.0090918207039499994
sS'tea'
p20
F0.0083421703782300006
sS'knitting'
p21
F0.0105376509499
sS'femalefashionadvice'
p22
F0.0088510147791399998
sS'popping'
p23
F0.0080957409362899992
sS'whatisthisthing'
p24
F0.0077609095241299997
sS'AnimalCrossing'
p25
F0.0086829869475099995
sS'forwardsfromgrandma'
p26
F0.0071242849714000002
sS'shittyfoodporn'
p27
F0.0074139788353099999
sS'pitbulls'
p28
F0.0090428254564099992
sS'PrettyGirlsUglyFaces'
p29
F0.0073908559642500002
sS'ExpectationVsReality'
p30
F0.0087022063861900006
sS'harrypotter'
p31
F0.0073472655021599997
sS'cats'
p32
F0.0114587504052
sS'PenmanshipPorn'
p33
F0.0077634797405099999
sS'blunderyears'
p34
F0.0076587407605299999
sS'Indiemakeupandmore'
p35
F0.0083287671232900005
sS'RedditLaqueristas'
p36
F0.0153838543728
sS'raisedbynarcissists'
p37
F0.0082932433402700002
sS'reptiles'
p38
F0.0078512873802100008
sS'bettafish'
p39
F0.0083816892327499993
sS'xxfitness'
p40
F0.0079105848729200002
sS'dogs'
p41
F0.0078396193299300008
sS'disney'
p42
F0.0080971659918999996
sS'happy'
p43
F0.0094326241134800003
sS'TrollYChromosome'
p44
F0.0072765650169400002
sS'Anxiety'
p45
F0.0080939062632400006
sS'curlyhair'
p46
F0.0078298781030299996
sS'childfree'
p47
F0.0093226416324399992
sS'MakeupAddiction'
p48
F0.010934734197500001
sS'AnimalsBeingJerks'
p49
F0.010018964468499999
sS'sewing'
p50
F0.010053676407899999
sS'delusionalartists'
p51
F0.0079320746285299996
sS'vegan'
p52
F0.0084690553745899993
sS'somethingimade'
p53
F0.0088859882524200007
sS'weddingplanning'
p54
F0.0077160493827199998
sS'parrots'
p55
F0.012351326624
sS'LadyBoners'
p56
F0.010720294221199999
sS'Awwducational'
p57
F0.017154784423700001
sS'TheGirlSurvivalGuide'
p58
F0.0104457276325
sS'dogpictures'
p59
F0.010831800531399999
sS'badtattoos'
p60
F0.0073566902177900004
sS'thesims'
p61
F0.0085116306185500003
sS'creepyPMs'
p62
F0.0090254471995000005
sS'Random_Acts_Of_Amazon'
p63
F0.0071109871723399999
sS'RATS'
p64
F0.020249221183800001
sS'ThriftStoreHauls'
p65
F0.0080818965517199994
sS'SkincareAddiction'
p66
F0.0092776125977300002
sS'Pareidolia'
p67
F0.0081454820988800004
sS'vegetarian'
p68
F0.0084487209575200006
sS'GirlGamers'
p69
F0.0078714545927699997
sS'piercing'
p70
F0.011101836394
sS'Hair'
p71
F0.00825396825397
sS'HumanPorn'
p72
F0.0076182081470799997
sS'AnimalsBeingBros'
p73
F0.0118117502307
sS'crafts'
p74
F0.0115929583512
sS'corgi'
p75
F0.0120089873712
sS'lookatmydog'
p76
F0.0076127712759899999
sS'catpictures'
p77
F0.0120891575368
s.