(dp1
S'audioengineering'
p2
F0.0099987731566700006
sS'Heavymind'
p3
F0.0089679043423499995
sS'Psychonaut'
p4
F0.0078219303751599998
sS'glitch_art'
p5
F0.0076232751133800004
sS'audiophile'
p6
F0.0092587300680100001
sS'TheSimpsons'
p7
F0.0087028215463499994
sS'community'
p8
F0.0071150097465900002
sS'IASIP'
p9
F0.0092989985693800008
sS'NotTimAndEric'
p10
F0.0099252013809000006
sS'postrock'
p11
F0.0140459061322
sS'seinfeld'
p12
F0.0088752037674299997
sS'Frisson'
p13
F0.0103825824314
sS'DeepIntoYouTube'
p14
F0.0078408046287800001
sS'bonnaroo'
p15
F0.0129504008457
sS'arresteddevelopment'
p16
F0.0104068801041
sS'southpark'
p17
F0.0075706174338500002
sS'ToolBand'
p18
F0.0142824234047
sS'DunderMifflin'
p19
F0.0071938168846600002
sS'Bass'
p20
F0.0101158973672
sS'classicalmusic'
p21
F0.0092235578740499993
sS'Jazz'
p22
F0.0105708245243
sS'TheWire'
p23
F0.0094472894225699992
sS'Muse'
p24
F0.027019687712200001
sS'breakingbad'
p25
F0.010400627523900001
sS'Guitar'
p26
F0.012896385066799999
sS'NetflixBestOf'
p27
F0.0071484201157099997
sS'VinylCollectors'
p28
F0.0092963202065799999
sS'ifyoulikeblank'
p29
F0.015960215115900001
sS'hiphopheads'
p30
F0.0070283001233700003
sS'musictheory'
p31
F0.0102154531947
sS'phish'
p32
F0.0082661290322600008
sS'Sherlock'
p33
F0.0072758037224999999
sS'LetsTalkMusic'
p34
F0.028119001919400002
sS'beatles'
p35
F0.024198683931200001
sS'electronicmusic'
p36
F0.0082135523613999992
sS'PandR'
p37
F0.0091428571428600006
sS'madmen'
p38
F0.0093563721421600007
sS'synthesizers'
p39
F0.011366050563
sS'indieheads'
p40
F0.0315834860407
sS'vinyl'
p41
F0.021151490404199998
sS'drums'
p42
F0.0092769440654800004
sS'pinkfloyd'
p43
F0.0266573482428
sS'DaftPunk'
p44
F0.0121217331499
sS'lewronggeneration'
p45
F0.0115803814714
sS'RedHotChiliPeppers'
p46
F0.0142089093702
sS'youtubehaiku'
p47
F0.0073475920267700003
sS'lost'
p48
F0.0078841036759599997
sS'progrockmusic'
p49
F0.0082698023000399995
sS'TrueFilm'
p50
F0.011559330030699999
sS'futurebeats'
p51
F0.0128720238095
sS'TimAndEric'
p52
F0.010308246597299999
sS'WeAreTheMusicMakers'
p53
F0.0150313012621
sS'literature'
p54
F0.00711135115672
sS'guitarpedals'
p55
F0.014703110273300001
sS'listentothis'
p56
F0.0104115235172
s.