(dp1
S'PJRP_Community'
p2
F0.018475750577399998
sS'TheNarutoWorld'
p3
F0.016077170418000001
sS'PotterPlayRP'
p4
F0.011331444759199999
sS'GLRP_EastBlue'
p5
F0.025531914893599999
sS'DWMA'
p6
F0.022727272727300001
sS'HogwartsRP'
p7
F0.0088888888888900008
sS'ExploreFiction'
p8
F0.0138248847926
sS'PercyJacksonRP'
p9
F0.0151668351871
s.