(dp1
S'FancyFollicles'
p2
F0.0099768173538699999
sS'awwwtf'
p3
F0.0076477404403200002
sS'RandomActsOfGaming'
p4
F0.014715223374999999
sS'Awwducational'
p5
F0.0076413348456799996
sS'DoesAnybodyElse'
p6
F0.0085389453314000004
sS'pettyrevenge'
p7
F0.0106815388978
sS'PublicFreakout'
p8
F0.0072676327656399997
sS'randomactsofamazon'
p9
F0.016339095429799999
sS'dadjokes'
p10
F0.0074137051521899998
sS'everymanshouldknow'
p11
F0.0076818196933900003
sS'Pets'
p12
F0.0074255868101399999
sS'RandomActsofMakeup'
p13
F0.012591006424
sS'TalesFromRetail'
p14
F0.010729766219
sS'BabyBumps'
p15
F0.00707152496626
sS'quityourbullshit'
p16
F0.0094580777096099997
sS'LearnUselessTalents'
p17
F0.0075635911516299999
sS'harrypotter'
p18
F0.0075036552732499996
sS'picrequests'
p19
F0.0072887992866299996
sS'HITsWorthTurkingFor'
p20
F0.0074223477208600003
sS'offmychest'
p21
F0.0089931548504800004
sS'bigboobproblems'
p22
F0.0074046987841700001
sS'YouShouldKnow'
p23
F0.0093763462659299992
sS'childfree'
p24
F0.0073405385143999998
sS'UnresolvedMysteries'
p25
F0.0071556350626100001
sS'geek'
p26
F0.0070144114271100001
sS'NoStupidQuestions'
p27
F0.0082839538928700003
sS'beards'
p28
F0.0070110701106999998
sS'creepyPMs'
p29
F0.0097996242955499992
sS'techsupportgore'
p30
F0.00714108954643
sS'freebies'
p31
F0.021524596879300001
sS'SubredditDrama'
p32
F0.0082051282051300006
sS'talesfromtechsupport'
p33
F0.0071853919005000003
sS'whatisthisthing'
p34
F0.00800776510556
sS'EatCheapAndHealthy'
p35
F0.011346590253500001
sS'NetflixBestOf'
p36
F0.0089465084509699998
sS'redditgetsdrawn'
p37
F0.0083607882140900001
sS'Paranormal'
p38
F0.0073751257123700004
sS'SuicideWatch'
p39
F0.0073183654546699999
sS'fatpeoplestories'
p40
F0.0081444651191200004
sS'KarmaCourt'
p41
F0.0075273252217
sS'depression'
p42
F0.0070120763537200002
sS'firstworldanarchists'
p43
F0.0082554910376199993
sS'forwardsfromgrandma'
p44
F0.0070707563271099998
sS'findareddit'
p45
F0.0092748735244500002
sS'AMA'
p46
F0.0072786774248200002
sS'shittyfoodporn'
p47
F0.0109712120286
sS'ExpectationVsReality'
p48
F0.0099059877594799995
sS'breakingbad'
p49
F0.0071428571428599997
sS'firstworldproblems'
p50
F0.0083579358809099998
sS'outside'
p51
F0.0073787924823099996
sS'AskCulinary'
p52
F0.0072441109026499997
sS'facepalm'
p53
F0.0082968535170800002
sS'foodhacks'
p54
F0.010194106968300001
sS'lifehacks'
p55
F0.008108647008
sS'bestof'
p56
F0.0071197798252999999
sS'jobs'
p57
F0.0074965328535599998
sS'needamod'
p58
F0.0077140013271399998
sS'casualiama'
p59
F0.0100122100122
sS'FloridaMan'
p60
F0.0074317868138899998
sS'legaladvice'
p61
F0.0087367587367599992
sS'loseit'
p62
F0.0086716517245399999
sS'delusionalartists'
p63
F0.00703344795249
sS'Frugal'
p64
F0.010281072390600001
sS'promos'
p65
F0.0081733080686699992
sS'doctorwho'
p66
F0.00748937318669
sS'giftcardexchange'
p67
F0.0088973024136299993
sS'forhire'
p68
F0.0102072188403
sS'Unexpected'
p69
F0.00702293948858
sS'ThriftStoreHauls'
p70
F0.0085634502016799993
sS'recipes'
p71
F0.0083526458091900003
sS'TalesFromThePizzaGuy'
p72
F0.011301872142199999
sS'cripplingalcoholism'
p73
F0.00711096411444
sS'wheredidthesodago'
p74
F0.0078030786692200003
sS'drunk'
p75
F0.0099006718313000008
sS'Assistance'
p76
F0.043851690558300002
sS'confession'
p77
F0.0083589166843999994
sS'nostalgia'
p78
F0.0085330488983699996
sS'rant'
p79
F0.0071932494120899998
sS'RandomKindness'
p80
F0.037285977076600002
sS'TrollXChromosomes'
p81
F0.0070881445066900001
sS'FiftyFifty'
p82
F0.00787302545528
sS'CrazyIdeas'
p83
F0.0080799177317499998
sS'Bad_Cop_No_Donut'
p84
F0.0080026130981500007
sS'OutOfTheLoop'
p85
F0.0087437813623900008
sS'RandomActsOfPizza'
p86
F0.070712544025999996
sS'MorbidReality'
p87
F0.0093233082706799999
sS'cats'
p88
F0.0073789791794099998
sS'raisedbynarcissists'
p89
F0.0086198015041700007
sS'dogs'
p90
F0.0076151560178300002
sS'happy'
p91
F0.0079896070152600009
sS'explainlikeIAmA'
p92
F0.0087695258975100006
sS'mturk'
p93
F0.0073654995730099999
sS'mildlyinfuriating'
p94
F0.0078509943603399992
sS'somethingimade'
p95
F0.0080622347949100004
sS'LetsNotMeet'
p96
F0.0075528700906299998
sS'TheGirlSurvivalGuide'
p97
F0.0072892394096900001
sS'blunderyears'
p98
F0.0083909596896599992
sS'gameswap'
p99
F0.0077110389610400001
sS'Random_Acts_Of_Amazon'
p100
F0.038555489535900003
sS'showerbeer'
p101
F0.0077525389565100003
sS'rage'
p102
F0.0081685006413299999
sS'thatHappened'
p103
F0.0080211229572100008
sS'offbeat'
p104
F0.0080445900132200005
sS'Glitch_in_the_Matrix'
p105
F0.0071151004323799999
sS'ICanDrawThat'
p106
F0.0088080693280300007
sS'fullmoviesonyoutube'
p107
F0.0079185017127100001
sS'FoodPorn'
p108
F0.0085608358611400006
sS'Cooking'
p109
F0.0079400294248099992
sS'tipofmytongue'
p110
F0.0076891220320299998
sS'RandomActsOfPolish'
p111
F0.0107053645771
sS'Pizza'
p112
F0.0141807494489
sS'TalesFromYourServer'
p113
F0.010545363783900001
sS'eatsandwiches'
p114
F0.0086319218241000008
sS'self'
p115
F0.010329494296699999
sS'Parenting'
p116
F0.0073265641150399999
sS'badtattoos'
p117
F0.0070624292091399999
sS'popping'
p118
F0.0072011322011299997
sS'slowcooking'
p119
F0.0094673981647800005
sS'RedditLaqueristas'
p120
F0.0078550965714799994
sS'nonononoyes'
p121
F0.0073127325675499998
sS'firefly'
p122
F0.00739207569486
sS'JusticePorn'
p123
F0.0070289451144099997
sS'GiftofGames'
p124
F0.013223261250700001
sS'AnimalsBeingJerks'
p125
F0.0072354948805500004
sS'snackexchange'
p126
F0.017853970509900001
sS'budgetfood'
p127
F0.010046244618099999
sS'beermoney'
p128
F0.0114753304605
sS'eFreebies'
p129
F0.0084145261293199995
sS'secretsanta'
p130
F0.016031598513000001
sS'crafts'
p131
F0.0070916518923899996
sS'HailCorporate'
p132
F0.0070064164023900003
sS'shutupandtakemymoney'
p133
F0.00862559656728
s.