(dp1
S'FancyFollicles'
p2
F0.019079329845099999
sS'weddingplanning'
p3
F0.0094621089421200004
sS'ABraThatFits'
p4
F0.012912482066
sS'Assistance'
p5
F0.0074670206587600001
sS'TheGirlSurvivalGuide'
p6
F0.018207040055500001
sS'randomactsofamazon'
p7
F0.022399056881800002
sS'Pets'
p8
F0.0082369273484499995
sS'entwives'
p9
F0.010772404309
sS'Baking'
p10
F0.0118959107807
sS'femalefashionadvice'
p11
F0.0106065790117
sS'BeautyBoxes'
p12
F0.032245062474800003
sS'RandomActsofMakeup'
p13
F0.063758921490899997
sS'CrossStitch'
p14
F0.0095594347464700007
sS'SkincareAddiction'
p15
F0.0099049493986300002
sS'AustralianMakeup'
p16
F0.0078517587939699995
sS'catpictures'
p17
F0.0092334750109900002
sS'Indiemakeupandmore'
p18
F0.026567278287499999
sS'RedditLaqueristas'
p19
F0.060463639250599999
sS'bigboobproblems'
p20
F0.013907967033000001
sS'knitting'
p21
F0.0083414581302100003
sS'MakeupAddiction'
p22
F0.0122397171265
sS'RandomKindness'
p23
F0.0105864916367
sS'birthcontrol'
p24
F0.0070907194994800004
sS'sewing'
p25
F0.013769580596300001
sS'snackexchange'
p26
F0.0090663273421300004
sS'Random_Acts_Of_Pizza'
p27
F0.0107053645771
sS'breakingmom'
p28
F0.00745725718443
sS'xxketo'
p29
F0.0089789635710599992
sS'namenerds'
p30
F0.0081261950286800003
sS'GirlGamers'
p31
F0.0076896492137500001
sS'LadyBoners'
p32
F0.0092656300169700005
sS'curlyhair'
p33
F0.013930213686799999
sS'crochet'
p34
F0.013408757594799999
sS'thesims'
p35
F0.0076307324006899997
sS'Random_Acts_Of_Amazon'
p36
F0.026097042335200001
sS'makeupexchange'
p37
F0.0296857729354
sS'braswap'
p38
F0.0074074074074100002
sS'PolishGauntlet'
p39
F0.15708274894800001
sS'piercing'
p40
F0.0101219512195
sS'Hair'
p41
F0.0106810930781
sS'secretsanta'
p42
F0.0087837303157400001
sS'crafts'
p43
F0.015196015834500001
sS'MakeupAddicts'
p44
F0.0221425230002
sS'AsianBeauty'
p45
F0.0128640343041
sS'lookatmydog'
p46
F0.0073985202959400004
sS'sailormoon'
p47
F0.0087638376383799999
s.