(dp1
S'Random_Acts_Of_Amazon'
p2
F0.066779627230100003
sS'RandomActsOfPolish'
p3
F0.022399056881800002
sS'GiftofGames'
p4
F0.0106310013717
sS'PolishGauntlet'
p5
F0.0110497237569
sS'RandomKindness'
p6
F0.021093915624299998
sS'snackexchange'
p7
F0.0078357624196800004
sS'Assistance'
p8
F0.014685140628900001
sS'RandomActsOfPizza'
p9
F0.0136579572447
sS'freebies'
p10
F0.0074650357512300002
sS'Random_Acts_Of_Pizza'
p11
F0.016339095429799999
sS'secretsanta'
p12
F0.0107063843236
sS'RandomActsofMakeup'
p13
F0.018743439796099999
sS'crafts'
p14
F0.0071428571428599997
sS'makeupexchange'
p15
F0.0070100579091699998
sS'RandomActsOfGaming'
p16
F0.00824374282922
s.