(dp1
S'FancyFollicles'
p2
F0.011568276684600001
sS'awwwtf'
p3
F0.0080108718975799992
sS'RandomActsOfGaming'
p4
F0.032137415154499999
sS'LifeProTips'
p5
F0.0073770113882599998
sS'DoesAnybodyElse'
p6
F0.010281986432499999
sS'pettyrevenge'
p7
F0.0111725022131
sS'xbox360'
p8
F0.0079436530212399995
sS'randomactsofamazon'
p9
F0.021093915624299998
sS'dadjokes'
p10
F0.0072575613280399997
sS'BuyItForLife'
p11
F0.0073441502988900002
sS'SampleSize'
p12
F0.00773615635179
sS'Pets'
p13
F0.0099467140319700002
sS'InternetIsBeautiful'
p14
F0.00733355913234
sS'RandomActsofMakeup'
p15
F0.0155436326337
sS'TalesFromRetail'
p16
F0.010656495608
sS'BabyBumps'
p17
F0.0080315121751600004
sS'WouldYouRather'
p18
F0.0071450955813199997
sS'quityourbullshit'
p19
F0.0094286518435099994
sS'Advice'
p20
F0.0092182307327099994
sS'LearnUselessTalents'
p21
F0.0082140573508399997
sS'MMFB'
p22
F0.011956989247299999
sS'writing'
p23
F0.0070299790843600003
sS'AndroidQuestions'
p24
F0.0074929478138199999
sS'picrequests'
p25
F0.0089962297958099992
sS'HITsWorthTurkingFor'
p26
F0.00744269127717
sS'FreeKarma'
p27
F0.0109347442681
sS'offmychest'
p28
F0.0119474466014
sS'Anxiety'
p29
F0.0086879295698499993
sS'RandomActsOfPolish'
p30
F0.0105864916367
sS'childfree'
p31
F0.0079612532162899995
sS'UnresolvedMysteries'
p32
F0.0083338889259300004
sS'UpliftingNews'
p33
F0.0082688332291700004
sS'NoStupidQuestions'
p34
F0.011419390009499999
sS'Steam'
p35
F0.0083137702494099994
sS'IWantToLearn'
p36
F0.0092395167021999992
sS'makeupexchange'
p37
F0.00778581075713
sS'creepyPMs'
p38
F0.0091209357292200005
sS'sgsflair'
p39
F0.0086397297648400009
sS'penpals'
p40
F0.0156145288835
sS'beermoney'
p41
F0.0159766601834
sS'freebies'
p42
F0.018051831992899999
sS'CrappyDesign'
p43
F0.0070147893030799999
sS'SteamGameSwap'
p44
F0.0136649626425
sS'techsupport'
p45
F0.0078881874042100002
sS'whatisthisthing'
p46
F0.010899889703500001
sS'AskWomen'
p47
F0.0094833472422400002
sS'ShouldIbuythisgame'
p48
F0.0094859517571600008
sS'Paranormal'
p49
F0.0077646313120600004
sS'interestingasfuck'
p50
F0.0079056464312100005
sS'fatpeoplestories'
p51
F0.0070882187896900003
sS'PS3'
p52
F0.0071064292283299999
sS'LongDistance'
p53
F0.0071722516167000002
sS'depression'
p54
F0.00906743185079
sS'notinteresting'
p55
F0.0078266711454499996
sS'PerfectTiming'
p56
F0.0071855789998299998
sS'femalefashionadvice'
p57
F0.0087191822008399998
sS'findareddit'
p58
F0.014041514041499999
sS'AMA'
p59
F0.0084787619361200006
sS'GameTrade'
p60
F0.010477499141200001
sS'shittyfoodporn'
p61
F0.0074087192656200002
sS'ExpectationVsReality'
p62
F0.0097690941385399997
sS'outside'
p63
F0.00730836309277
sS'AskCulinary'
p64
F0.0070178906790599998
sS'facepalm'
p65
F0.0083966972990600006
sS'SuicideWatch'
p66
F0.0103059684721
sS'lifehacks'
p67
F0.0100676965805
sS'Baking'
p68
F0.0100100693005
sS'disney'
p69
F0.0080577647551300004
sS'bestof'
p70
F0.0074338065433300002
sS'jobs'
p71
F0.0075036075036099999
sS'needamod'
p72
F0.0107213968448
sS'casualiama'
p73
F0.011981804137
sS'LetsNotMeet'
p74
F0.0084279078676399999
sS'legaladvice'
p75
F0.0077863221078499998
sS'loseit'
p76
F0.0093877786096899993
sS'Random_Acts_Of_Pizza'
p77
F0.037285977076600002
sS'delusionalartists'
p78
F0.0074154637136599998
sS'Frugal'
p79
F0.0104120329181
sS'promos'
p80
F0.0090098885618999994
sS'LadyBoners'
p81
F0.0090997026475099999
sS'shittyaskscience'
p82
F0.0071423329990500002
sS'doctorwho'
p83
F0.0078039129479000003
sS'giftcardexchange'
p84
F0.0093103448275899999
sS'forhire'
p85
F0.0100554785021
sS'Unexpected'
p86
F0.0078982283618199995
sS'ThriftStoreHauls'
p87
F0.0109851583499
sS'netflix'
p88
F0.00718778077269
sS'recipes'
p89
F0.0098991666282999997
sS'howtonotgiveafuck'
p90
F0.0077368497883299999
sS'GameDeals'
p91
F0.00729507625879
sS'amiugly'
p92
F0.0072946050775699999
sS'ChronicPain'
p93
F0.0073752273186500003
sS'Assistance'
p94
F0.053761584067199997
sS'confession'
p95
F0.0111685625646
sS'patientgamers'
p96
F0.0093140284276500007
sS'nostalgia'
p97
F0.0091547933724499993
sS'rant'
p98
F0.0083322568143699999
sS'TrollXChromosomes'
p99
F0.0076806890124399996
sS'harrypotter'
p100
F0.0080764173978399995
sS'BeautyBoxes'
p101
F0.00713903266107
sS'FiftyFifty'
p102
F0.0075718591487200001
sS'CrazyIdeas'
p103
F0.0085857721490100007
sS'OutOfTheLoop'
p104
F0.0109992188655
sS'EatCheapAndHealthy'
p105
F0.0111308335182
sS'RandomActsOfPizza'
p106
F0.026814131126699999
sS'MorbidReality'
p107
F0.0095128344179299992
sS'cats'
p108
F0.0088711587154100009
sS'PenmanshipPorn'
p109
F0.0076690020829399998
sS'introvert'
p110
F0.0071079230518399997
sS'raisedbynarcissists'
p111
F0.0097258182301000005
sS'confessions'
p112
F0.0070324518350300003
sS'Pareidolia'
p113
F0.0075982821275200002
sS'dogs'
p114
F0.0083029131772999996
sS'happy'
p115
F0.0151348039216
sS'indiegameswap'
p116
F0.0141496598639
sS'tipofmytongue'
p117
F0.0104530567686
sS'MakeupAddiction'
p118
F0.0086592024709099998
sS'snackexchange'
p119
F0.019064689587699999
sS'mildlyinfuriating'
p120
F0.0086592750782600002
sS'DumpsterDiving'
p121
F0.0071637289094199997
sS'somethingimade'
p122
F0.0119101326356
sS'redditgetsdrawn'
p123
F0.0106216053108
sS'Awwducational'
p124
F0.0084373945325699994
sS'TheGirlSurvivalGuide'
p125
F0.011237224010400001
sS'blunderyears'
p126
F0.0084427388406400003
sS'gameswap'
p127
F0.0112663361875
sS'Random_Acts_Of_Amazon'
p128
F0.044701780600199997
sS'rage'
p129
F0.0081352652756099993
sS'thatHappened'
p130
F0.0080340172045499994
sS'Flipping'
p131
F0.0084992009298299996
sS'firstworldproblems'
p132
F0.0076071371674400002
sS'Glitch_in_the_Matrix'
p133
F0.0088174273858899997
sS'Needafriend'
p134
F0.0079783543776900008
sS'ICanDrawThat'
p135
F0.011540757445100001
sS'fullmoviesonyoutube'
p136
F0.0078653118489899997
sS'Cooking'
p137
F0.0076582942061400004
sS'YouShouldKnow'
p138
F0.0109553132033
sS'SkincareAddiction'
p139
F0.0085087673925399992
sS'shutupandtakemymoney'
p140
F0.0082468184862699995
sS'TalesFromYourServer'
p141
F0.0083620840886499993
sS'breakingmom'
p142
F0.0090532850491499995
sS'self'
p143
F0.011423195807
sS'Parenting'
p144
F0.0108824225219
sS'badtattoos'
p145
F0.0072283150548399996
sS'popping'
p146
F0.0081060575809600004
sS'slowcooking'
p147
F0.0090085928116
sS'RedditLaqueristas'
p148
F0.0103862812693
sS'talesfromtechsupport'
p149
F0.0078027599845199996
sS'GameSale'
p150
F0.0090584226709899997
sS'knitting'
p151
F0.0072260920512999998
sS'GiftofGames'
p152
F0.040234293285
sS'howto'
p153
F0.0073239114264500001
sS'sewing'
p154
F0.0091031932294999996
sS'budgetfood'
p155
F0.0092708409977199993
sS'Mommit'
p156
F0.0096576633165800004
sS'crochet'
p157
F0.010398724082899999
sS'dogpictures'
p158
F0.0070372976776900001
sS'beyondthebump'
p159
F0.0071274779122399998
sS'oddlysatisfying'
p160
F0.0080042055995500003
sS'GirlGamers'
p161
F0.0085426567096600001
sS'eFreebies'
p162
F0.012046231483
sS'secretsanta'
p163
F0.022907175858599998
sS'crafts'
p164
F0.014009627128399999
sS'needadvice'
p165
F0.0105027816773
s.