(dp1
S'RandomActsOfGaming'
p2
F0.0096481059047900004
sS'drunk'
p3
F0.0079861347107999994
sS'pettyrevenge'
p4
F0.0083810030597300002
sS'Assistance'
p5
F0.032571771131699997
sS'randomactsofamazon'
p6
F0.0136579572447
sS'RandomActsofMakeup'
p7
F0.0093251779805499993
sS'Pizza'
p8
F0.0092150456563599992
sS'TalesFromRetail'
p9
F0.0087771203155800007
sS'quityourbullshit'
p10
F0.0085320243104300003
sS'shittyfoodporn'
p11
F0.010092867277199999
sS'EatCheapAndHealthy'
p12
F0.0079691094314799996
sS'ExpectationVsReality'
p13
F0.0073519015976199996
sS'MorbidReality'
p14
F0.0076041967465600002
sS'slowcooking'
p15
F0.0074089754445400002
sS'offmychest'
p16
F0.0071885406205399998
sS'TalesFromYourServer'
p17
F0.0096496748479099996
sS'GiftofGames'
p18
F0.0090803065644800007
sS'needamod'
p19
F0.0076594919526899998
sS'RandomKindness'
p20
F0.026814131126699999
sS'casualiama'
p21
F0.0083327347173300006
sS'snackexchange'
p22
F0.013262322472800001
sS'budgetfood'
p23
F0.0074785338380599998
sS'Random_Acts_Of_Pizza'
p24
F0.070712544025999996
sS'giftcardexchange'
p25
F0.0080389492753600005
sS'blunderyears'
p26
F0.0074104382614999997
sS'Random_Acts_Of_Amazon'
p27
F0.023509594258100001
sS'creepyPMs'
p28
F0.0085987366471499994
sS'showerbeer'
p29
F0.0078888390856099999
sS'beermoney'
p30
F0.0105630083448
sS'penpals'
p31
F0.0072587880270800001
sS'TalesFromThePizzaGuy'
p32
F0.0121876904327
sS'freebies'
p33
F0.012980351929299999
sS'forhire'
p34
F0.0072075782537100001
sS'secretsanta'
p35
F0.0105060409736
sS'OutOfTheLoop'
p36
F0.00705877096969
s.