(dp1
S'FancyFollicles'
p2
F0.017341927562900001
sS'awwwtf'
p3
F0.0077091779092199999
sS'Aquariums'
p4
F0.0072671011299199999
sS'curlyhair'
p5
F0.00842004381161
sS'Justrolledintotheshop'
p6
F0.0070095200218699997
sS'DoesAnybodyElse'
p7
F0.010098215520799999
sS'pettyrevenge'
p8
F0.0118959547835
sS'ABraThatFits'
p9
F0.010097112354500001
sS'adventuretime'
p10
F0.0084823898211300007
sS'TheGirlSurvivalGuide'
p11
F0.013836209199200001
sS'fffffffuuuuuuuuuuuu'
p12
F0.0077439096151600004
sS'uglyduckling'
p13
F0.00704427832087
sS'randomactsofamazon'
p14
F0.066779627230100003
sS'dadjokes'
p15
F0.0088034323851899996
sS'BuyItForLife'
p16
F0.0082481029363199992
sS'woodworking'
p17
F0.0071833896414900001
sS'Supernatural'
p18
F0.0077668802086299999
sS'everymanshouldknow'
p19
F0.0077396493845599997
sS'Pets'
p20
F0.010028972587500001
sS'InternetIsBeautiful'
p21
F0.00762882710409
sS'RandomActsOfGaming'
p22
F0.0226565087777
sS'MLPLounge'
p23
F0.0080571708820900007
sS'SkincareAddiction'
p24
F0.013431476703600001
sS'RandomActsofMakeup'
p25
F0.035197148585399997
sS'help'
p26
F0.0074526226133900001
sS'relationships'
p27
F0.00703616125497
sS'TalesFromRetail'
p28
F0.0135774252676
sS'BabyBumps'
p29
F0.011293384607899999
sS'DoctorWhumour'
p30
F0.0081864505889199992
sS'WouldYouRather'
p31
F0.0087698646262500003
sS'quityourbullshit'
p32
F0.0100111989683
sS'Advice'
p33
F0.0080021237864099995
sS'drunk'
p34
F0.0088138856300599994
sS'LearnUselessTalents'
p35
F0.0077562844594000003
sS'ProtectAndServe'
p36
F0.0075788893482199998
sS'writing'
p37
F0.0089784855158400005
sS'AndroidQuestions'
p38
F0.0074099023240099997
sS'booksuggestions'
p39
F0.0088107717332400002
sS'offmychest'
p40
F0.0125790139064
sS'woahdude'
p41
F0.0073247765607199998
sS'FreeKarma'
p42
F0.0085794747527699992
sS'Marvel'
p43
F0.0089197224975200006
sS'CrappyDesign'
p44
F0.0092185260244200002
sS'gentlemanboners'
p45
F0.00736408923543
sS'nononono'
p46
F0.0083678641831299999
sS'Shitty_Car_Mods'
p47
F0.0071184078999199998
sS'Anxiety'
p48
F0.0108170396253
sS'arresteddevelopment'
p49
F0.0073436603557099998
sS'childfree'
p50
F0.0121929669553
sS'AnimalCrossing'
p51
F0.0094771087745800005
sS'food'
p52
F0.0071543370730399996
sS'horror'
p53
F0.0089588066355199992
sS'UnresolvedMysteries'
p54
F0.0074654721911199999
sS'UpliftingNews'
p55
F0.0073296958059199998
sS'AbandonedPorn'
p56
F0.0079360139424899997
sS'geek'
p57
F0.0079854049527500002
sS'xxketo'
p58
F0.0076743410076700004
sS'tipofmytongue'
p59
F0.0108328511257
sS'NoStupidQuestions'
p60
F0.0109385437542
sS'cringepics'
p61
F0.0085449457624200004
sS'Rabbits'
p62
F0.0071109871723399999
sS'beards'
p63
F0.0097596293078499995
sS'Steam'
p64
F0.0071563666104399997
sS'PrettyGirlsUglyFaces'
p65
F0.0086689783942400008
sS'OkCupid'
p66
F0.0086095374046499997
sS'photoshopbattles'
p67
F0.0074957541086199996
sS'IWantToLearn'
p68
F0.0073926073926099999
sS'makeupexchange'
p69
F0.0149044491994
sS'creepyPMs'
p70
F0.0132657272566
sS'actuallesbians'
p71
F0.0078393418824100006
sS'penpals'
p72
F0.0126700786419
sS'Celebs'
p73
F0.0086204325130500008
sS'techsupportgore'
p74
F0.0079030558482599995
sS'freebies'
p75
F0.022774470441600001
sS'dvdcollection'
p76
F0.0077887197851400003
sS'thatHappened'
p77
F0.010837343599599999
sS'futurama'
p78
F0.0085021784188500007
sS'SubredditDrama'
p79
F0.0080740660996900006
sS'techsupport'
p80
F0.00746423675063
sS'minimalism'
p81
F0.0072404028818199998
sS'ArcherFX'
p82
F0.0071880391029299998
sS'YouShouldKnow'
p83
F0.010161818532100001
sS'talesfromtechsupport'
p84
F0.0079026461253899997
sS'mildlyinteresting'
p85
F0.0070799819508799997
sS'gardening'
p86
F0.0096724867536700006
sS'whatisthisthing'
p87
F0.011615605958
sS'AskWomen'
p88
F0.0119574734209
sS'NetflixBestOf'
p89
F0.0092846270928500004
sS'tea'
p90
F0.0092544987146500005
sS'Rateme'
p91
F0.0083265386801099992
sS'sex'
p92
F0.00717272556037
sS'tumblr'
p93
F0.011665264285200001
sS'DCcomics'
p94
F0.0072397777980100003
sS'interestingasfuck'
p95
F0.0089833618017300006
sS'books'
p96
F0.00714326622203
sS'college'
p97
F0.0079589072025299992
sS'TwoXChromosomes'
p98
F0.0079913915706600006
sS'fatpeoplestories'
p99
F0.0084301075268800006
sS'Baking'
p100
F0.014612843625800001
sS'LongDistance'
p101
F0.0086445749750600001
sS'amiugly'
p102
F0.0072349863267400002
sS'depression'
p103
F0.0101542850708
sS'notinteresting'
p104
F0.0091257469472600002
sS'firstworldanarchists'
p105
F0.010208738680300001
sS'offbeat'
p106
F0.0070647466435699996
sS'femalefashionadvice'
p107
F0.0115617411475
sS'cosplay'
p108
F0.0109645047389
sS'Glitch_in_the_Matrix'
p109
F0.00815564508205
sS'AMA'
p110
F0.0084250939824600003
sS'shittyfoodporn'
p111
F0.011639603391299999
sS'boardgames'
p112
F0.00709133517972
sS'ExpectationVsReality'
p113
F0.010312151616500001
sS'breakingbad'
p114
F0.0084926248258099992
sS'firstworldproblems'
p115
F0.00941698886039
sS'outside'
p116
F0.0079592486469299995
sS'AskCulinary'
p117
F0.0071854600103300002
sS'facepalm'
p118
F0.0113685179503
sS'foodhacks'
p119
F0.0096785975164400007
sS'catpictures'
p120
F0.0074200913242000004
sS'lifehacks'
p121
F0.0124370176669
sS'memes'
p122
F0.0070118662351700001
sS'disney'
p123
F0.011389068483600001
sS'needadvice'
p124
F0.0077157460192599997
sS'tattoos'
p125
F0.0096399423907800007
sS'bestof'
p126
F0.0070609606031600001
sS'jobs'
p127
F0.0077848057273900003
sS'Indiemakeupandmore'
p128
F0.012043356081900001
sS'needamod'
p129
F0.0105531553226
sS'casualiama'
p130
F0.0131490108703
sS'OnceUponATime'
p131
F0.0070699767012100002
sS'LetsNotMeet'
p132
F0.0090283160822600007
sS'legaladvice'
p133
F0.00754317941487
sS'loseit'
p134
F0.0126276449159
sS'Random_Acts_Of_Pizza'
p135
F0.038555489535900003
sS'delusionalartists'
p136
F0.0085108383881100005
sS'lgbt'
p137
F0.0085937500000000007
sS'promos'
p138
F0.0108917162371
sS'LadyBoners'
p139
F0.013871068419
sS'shittyaskscience'
p140
F0.0078971226797700002
sS'doctorwho'
p141
F0.0127579656334
sS'giftcardexchange'
p142
F0.0082057756036000001
sS'lewronggeneration'
p143
F0.0071844374032899996
sS'forhire'
p144
F0.0087013269523600004
sS'bigboobproblems'
p145
F0.011704011703999999
sS'WritingPrompts'
p146
F0.0074019443513199997
sS'LifeProTips'
p147
F0.0079252889360099995
sS'ThriftStoreHauls'
p148
F0.016038048888399999
sS'calvinandhobbes'
p149
F0.0070144114271100001
sS'Frugal'
p150
F0.012645193179
sS'recipes'
p151
F0.010321050551200001
sS'piercing'
p152
F0.0094984060893899998
sS'creepy'
p153
F0.0073574211177400003
sS'Paranormal'
p154
F0.0085089343810999998
sS'Hair'
p155
F0.0088237337594699993
sS'dogecoin'
p156
F0.0078492567258399999
sS'wheredidthesodago'
p157
F0.0094554831884200007
sS'AnimalsBeingBros'
p158
F0.0073581650258800002
sS'MakeupAddicts'
p159
F0.0090742773509000004
sS'thewalkingdead'
p160
F0.0086869695456800004
sS'whatsthisbug'
p161
F0.0089333278695200007
sS'QuotesPorn'
p162
F0.0077142751177500003
sS'weddingplanning'
p163
F0.0097395723057399994
sS'StarWars'
p164
F0.00759161858074
sS'xxfitness'
p165
F0.0078791572348899993
sS'Assistance'
p166
F0.034101825168100001
sS'confession'
p167
F0.0101897701577
sS'reactiongifs'
p168
F0.0090478752998499994
sS'patientgamers'
p169
F0.0074501220641500004
sS'community'
p170
F0.0072831090135800003
sS'findareddit'
p171
F0.011383788112800001
sS'rant'
p172
F0.0091959586181899998
sS'RandomKindness'
p173
F0.044701780600199997
sS'Mommit'
p174
F0.010226283725
sS'TrollXChromosomes'
p175
F0.014264132941100001
sS'tifu'
p176
F0.0072079610632399998
sS'harrypotter'
p177
F0.0129767990562
sS'BeautyBoxes'
p178
F0.012371978697299999
sS'nostalgia'
p179
F0.013238193596800001
sS'CrossStitch'
p180
F0.0089278264497299996
sS'HIMYM'
p181
F0.0090520492833799995
sS'FiftyFifty'
p182
F0.0086549036484500005
sS'CrazyIdeas'
p183
F0.0097848985475099994
sS'lego'
p184
F0.0085118066996199993
sS'Bad_Cop_No_Donut'
p185
F0.00717613465585
sS'OutOfTheLoop'
p186
F0.010422471260800001
sS'EatCheapAndHealthy'
p187
F0.0128328521014
sS'RandomActsOfPizza'
p188
F0.023509594258100001
sS'MorbidReality'
p189
F0.0107377212169
sS'gif'
p190
F0.0081544028950499992
sS'cats'
p191
F0.0130639198938
sS'PenmanshipPorn'
p192
F0.010349346951700001
sS'ifyoulikeblank'
p193
F0.0070482903133599999
sS'firstimpression'
p194
F0.0108323831243
sS'ketorecipes'
p195
F0.00797946543162
sS'raisedbynarcissists'
p196
F0.0127034154499
sS'HITsWorthTurkingFor'
p197
F0.013179800222
sS'Pareidolia'
p198
F0.0091169575410300005
sS'dogs'
p199
F0.0099810050077699993
sS'keto'
p200
F0.0092041406679599994
sS'happy'
p201
F0.0110060189166
sS'fatlogic'
p202
F0.0085199426977299996
sS'TrollYChromosome'
p203
F0.0104621158808
sS'explainlikeIAmA'
p204
F0.0071155226022499999
sS'misleadingthumbnails'
p205
F0.0084447572132300003
sS'FloridaMan'
p206
F0.0070647763616400001
sS'3DS'
p207
F0.0075163994169099996
sS'batman'
p208
F0.0087071923350799992
sS'snackexchange'
p209
F0.017917385111300001
sS'mildlyinfuriating'
p210
F0.0109426880323
sS'DumpsterDiving'
p211
F0.0084069657716400008
sS'somethingimade'
p212
F0.0138050043141
sS'Unexpected'
p213
F0.0099236876115500004
sS'redditgetsdrawn'
p214
F0.014649326248399999
sS'Awwducational'
p215
F0.0093507597492299994
sS'r4r'
p216
F0.0085975435589800003
sS'AskMen'
p217
F0.00847669181093
sS'ghettoglamourshots'
p218
F0.0073966542237000003
sS'blunderyears'
p219
F0.010989864471299999
sS'gameswap'
p220
F0.0097262748367400002
sS'EDC'
p221
F0.00856132514424
sS'hardwareswap'
p222
F0.007366212986
sS'rage'
p223
F0.0098138383729700004
sS'comics'
p224
F0.0080516431924900003
sS'PolishGauntlet'
p225
F0.0115649093561
sS'Flipping'
p226
F0.0076145552560599999
sS'Perfectfit'
p227
F0.0075560353038300002
sS'PerfectTiming'
p228
F0.0094087629071500003
sS'behindthegifs'
p229
F0.0093263385794000002
sS'standupshots'
p230
F0.0086387434554999996
sS'SuicideWatch'
p231
F0.0080862533692699998
sS'Needafriend'
p232
F0.0082735440501600001
sS'ICanDrawThat'
p233
F0.011277030795
sS'fullmoviesonyoutube'
p234
F0.0095346752505899995
sS'gallifrey'
p235
F0.0077628793225099999
sS'Damnthatsinteresting'
p236
F0.0091492308813900004
sS'iphone'
p237
F0.0070262408587200001
sS'FoodPorn'
p238
F0.010512511823900001
sS'Cooking'
p239
F0.0097451107196200003
sS'teenagers'
p240
F0.0094443260260000002
sS'FanTheories'
p241
F0.0076895943562599999
sS'oddlysatisfying'
p242
F0.0106896494129
sS'gamecollecting'
p243
F0.0086473455269600007
sS'conspiracy'
p244
F0.0073679763413600002
sS'DIY'
p245
F0.00793255889614
sS'RandomActsOfPolish'
p246
F0.026097042335200001
sS'shorthairedhotties'
p247
F0.00749656121045
sS'southpark'
p248
F0.0070000950239100003
sS'Pizza'
p249
F0.0071478271870500003
sS'TalesFromYourServer'
p250
F0.0093138605676500001
sS'breakingmom'
p251
F0.0095637053430300007
sS'MURICA'
p252
F0.0087515325751499999
sS'HighQualityGifs'
p253
F0.0087016258300899995
sS'eFreebies'
p254
F0.0105515228616
sS'self'
p255
F0.010813352139200001
sS'pitbulls'
p256
F0.0086081313733300004
sS'Parenting'
p257
F0.0111573210957
sS'badtattoos'
p258
F0.0092527524010300004
sS'popping'
p259
F0.0115313653137
sS'slowcooking'
p260
F0.0108537392455
sS'RedditLaqueristas'
p261
F0.017734115845900001
sS'daddit'
p262
F0.0070113466067199997
sS'itookapicture'
p263
F0.0095738109944399994
sS'nonononoyes'
p264
F0.0078811761139700003
sS'Whatcouldgowrong'
p265
F0.0082609350675400001
sS'wallpapers'
p266
F0.00747468479395
sS'firefly'
p267
F0.0090080598430199998
sS'MakeupAddiction'
p268
F0.0152377304809
sS'knitting'
p269
F0.0108775360548
sS'GiftofGames'
p270
F0.019317819572799998
sS'forwardsfromgrandma'
p271
F0.0091739053359300004
sS'AnimalsBeingJerks'
p272
F0.0097363212666800002
sS'mturk'
p273
F0.0072343763618900004
sS'sewing'
p274
F0.0124071125265
sS'budgetfood'
p275
F0.0101789862003
sS'netflix'
p276
F0.0091506637453300007
sS'shittyreactiongifs'
p277
F0.0074690427832
sS'progresspics'
p278
F0.0109785656575
sS'crochet'
p279
F0.015434508437900001
sS'dogpictures'
p280
F0.0094068171757400003
sS'comicbooks'
p281
F0.0087790520653599994
sS'beyondthebump'
p282
F0.0092407420177900001
sS'thesims'
p283
F0.0093608307737300007
sS'wicked_edge'
p284
F0.0070643980185200001
sS'beermoney'
p285
F0.017737084218
sS'GirlGamers'
p286
F0.0120501285347
sS'cosplaygirls'
p287
F0.0078243179802800003
sS'HumanPorn'
p288
F0.00778897081732
sS'drawing'
p289
F0.0079649542015099994
sS'picrequests'
p290
F0.0097743280149500001
sS'terriblefacebookmemes'
p291
F0.0073475872112299997
sS'TumblrInAction'
p292
F0.0082870557659999993
sS'secretsanta'
p293
F0.038520116766100003
sS'crafts'
p294
F0.015991970558700001
sS'tall'
p295
F0.0087553142231800007
sS'ImGoingToHellForThis'
p296
F0.0079099482811099998
sS'AmericanHorrorStory'
p297
F0.0091355547341199998
sS'shutupandtakemymoney'
p298
F0.0096732760696799994
s.