(dp1
S'awwwtf'
p2
F0.0080402983628799999
sS'redheads'
p3
F0.031035727174300001
sS'GWCouples'
p4
F0.019501834331000001
sS'uglyduckling'
p5
F0.0085013623978199993
sS'milf'
p6
F0.033389819870699999
sS'perfectloops'
p7
F0.0072097517466900001
sS'everymanshouldknow'
p8
F0.0075757575757600002
sS'carporn'
p9
F0.0090559011468000009
sS'BDSMGW'
p10
F0.0070453544694
sS'Amateur'
p11
F0.047822706065300001
sS'quityourbullshit'
p12
F0.0078597339782299994
sS'nostalgia'
p13
F0.0072942120427400003
sS'hugeboobs'
p14
F0.022979892594
sS'holdmybeer'
p15
F0.0090386537820699997
sS'AsianHotties'
p16
F0.026186979931500001
sS'BigBoobsGW'
p17
F0.017178259645199999
sS'nononono'
p18
F0.0087423008146199997
sS'MilitaryPorn'
p19
F0.0089645078668100005
sS'shutupandtakemymoney'
p20
F0.0070599851888399996
sS'cumsluts'
p21
F0.030728515768600001
sS'NSFW_GIF'
p22
F0.025827234451400002
sS'altgonewild'
p23
F0.016407085958899999
sS'Hotwife'
p24
F0.011848341232200001
sS'toosoon'
p25
F0.0089343280832599997
sS'PrettyGirlsUglyFaces'
p26
F0.0095414273196400001
sS'tightdresses'
p27
F0.062468257999
sS'AbandonedPorn'
p28
F0.0074381973309999997
sS'gonewildstories'
p29
F0.011825874197199999
sS'tipofmypenis'
p30
F0.0154044257917
sS'WatchItForThePlot'
p31
F0.0264664245707
sS'Celebs'
p32
F0.024071332910399999
sS'ConfusedBoners'
p33
F0.012763819095499999
sS'pornvids'
p34
F0.021951219512199999
sS'Whatcouldgowrong'
p35
F0.0099286733238199993
sS'whitepeoplegifs'
p36
F0.0085174341229699996
sS'anal'
p37
F0.014657980455999999
sS'ArcherFX'
p38
F0.0072367750484199998
sS'gentlemanboners'
p39
F0.022826266747500001
sS'Rateme'
p40
F0.0081089394066499992
sS'burstingout'
p41
F0.047873799725700002
sS'interestingasfuck'
p42
F0.0075774383479800004
sS'AmISexy'
p43
F0.0120129663764
sS'Cinemagraphs'
p44
F0.00723820266967
sS'firstworldanarchists'
p45
F0.0077270148326299996
sS'offbeat'
p46
F0.0075454122030699997
sS'Blowjobs'
p47
F0.028747433264900001
sS'ExpectationVsReality'
p48
F0.0072332730560599997
sS'RoomPorn'
p49
F0.0104513783702
sS'lifehacks'
p50
F0.0081612493532200008
sS'AsiansGoneWild'
p51
F0.017610550814600001
sS'ass'
p52
F0.042821782178199999
sS'Damnthatsinteresting'
p53
F0.0091105145020000007
sS'blackpeoplegifs'
p54
F0.00846965041933
sS'pornID'
p55
F0.020261359549200001
sS'Bondage'
p56
F0.011681914145
sS'facepalm'
p57
F0.00771055753262
sS'celebnsfw'
p58
F0.025989604158300001
sS'TributeMe'
p59
F0.0099282956425799998
sS'Unexpected'
p60
F0.0083638351082299996
sS'GWNerdy'
p61
F0.017408527050999999
sS'GoneWildPlus'
p62
F0.0086275469620000003
sS'watchpeopledie'
p63
F0.00898957209637
sS'AnimalsBeingBros'
p64
F0.0099698895951799999
sS'Images'
p65
F0.0075505889459400004
sS'NSFWFunny'
p66
F0.0225563909774
sS'QuotesPorn'
p67
F0.0086854777012699991
sS'boltedontits'
p68
F0.027612043846300002
sS'TinyTits'
p69
F0.0321859633438
sS'pussy'
p70
F0.025529265255299999
sS'feet'
p71
F0.0100895706785
sS'IdiotsFightingThings'
p72
F0.0081935975609800007
sS'incest'
p73
F0.0093836246550099995
sS'thick'
p74
F0.024944679139
sS'gonewildcurvy'
p75
F0.012427847803
sS'gonewildaudio'
p76
F0.0077474336625999998
sS'FiftyFifty'
p77
F0.0093843540166699997
sS'CrazyIdeas'
p78
F0.0075714194820900001
sS'Bad_Cop_No_Donut'
p79
F0.00772359581372
sS'ANormalDayInRussia'
p80
F0.0074294205051999998
sS'MorbidReality'
p81
F0.0070015968554200001
sS'gif'
p82
F0.0113436951617
sS'shittyreactiongifs'
p83
F0.0074945451095699998
sS'Pareidolia'
p84
F0.0089063794531900001
sS'asstastic'
p85
F0.029592920354000001
sS'Boobies'
p86
F0.0461306153265
sS'Stacked'
p87
F0.0286220526101
sS'treesgonewild'
p88
F0.0125950054289
sS'mildlyinfuriating'
p89
F0.0075172882193100003
sS'oddlysatisfying'
p90
F0.0081368436279500005
sS'nsfw_gifs'
p91
F0.0284575981787
sS'ginger'
p92
F0.031178358551099999
sS'Shitty_Car_Mods'
p93
F0.0071405846795599996
sS'gonewild'
p94
F0.010110490166800001
sS'showerbeer'
p95
F0.0071935452512900001
sS'rage'
p96
F0.00731043050313
sS'AmateurArchives'
p97
F0.0356999598877
sS'nsfw'
p98
F0.027517060135599999
sS'firstworldproblems'
p99
F0.0075994218844700001
sS'behindthegifs'
p100
F0.0079143389199300002
sS'standupshots'
p101
F0.0078877160422199995
sS'BustyPetite'
p102
F0.048056624860299997
sS'OnOff'
p103
F0.043538355217699998
sS'RandomActsOfBlowJob'
p104
F0.0070473436935300001
sS'wifesharing'
p105
F0.019712049473399999
sS'Tgirls'
p106
F0.010253164557
sS'PerfectTiming'
p107
F0.0120090560094
sS'shorthairedhotties'
p108
F0.014668171094500001
sS'hardbodies'
p109
F0.024334289225699999
sS'girlsinyogapants'
p110
F0.051694686685199998
sS'MURICA'
p111
F0.0079769138727900004
sS'HighQualityGifs'
p112
F0.0093377275580700005
sS'RealGirls'
p113
F0.037066920951600003
sS'GoneMild'
p114
F0.029297477333000001
sS'Hotchickswithtattoos'
p115
F0.037001997266899997
sS'Gore'
p116
F0.0078643964266599999
sS'nonononoyes'
p117
F0.0089946527851600001
sS'workgonewild'
p118
F0.017336379518899998
sS'wallpapers'
p119
F0.0075170842824600001
sS'JusticePorn'
p120
F0.0074893160886300002
sS'AnimalsBeingJerks'
p121
F0.0092762984940100001
sS'traps'
p122
F0.0077194530216099996
sS'cosplaygirls'
p123
F0.020888826580700001
sS'Cuckold'
p124
F0.0085686700458600003
sS'HumanPorn'
p125
F0.0086052595346300005
sS'curvy'
p126
F0.032737250449399999
sS'PrettyGirls'
p127
F0.037471818393799997
sS'ImGoingToHellForThis'
p128
F0.0092245970419100008
sS'EmmaWatson'
p129
F0.020101000099
sS'rule34'
p130
F0.0116606117426
s.