(dp1
S'FancyFollicles'
p2
F0.0500719959125
sS'pettyrevenge'
p3
F0.00792066027689
sS'ABraThatFits'
p4
F0.027702761564600002
sS'uglyduckling'
p5
F0.0086878370281600007
sS'randomactsofamazon'
p6
F0.018743439796099999
sS'actuallesbians'
p7
F0.0071437075842400001
sS'Pets'
p8
F0.0102309058615
sS'TalesFromRetail'
p9
F0.0101055024337
sS'BabyBumps'
p10
F0.010484692349200001
sS'TheBluePill'
p11
F0.0075059970595099997
sS'harrypotter'
p12
F0.0093873517786599997
sS'badtattoos'
p13
F0.0087055261165800008
sS'offmychest'
p14
F0.00700539283071
sS'Anxiety'
p15
F0.0098451663269299994
sS'TalesFromYourServer'
p16
F0.0102391472053
sS'childfree'
p17
F0.0097463948284400009
sS'xxketo'
p18
F0.016809013265500002
sS'rupaulsdragrace'
p19
F0.0084413889130600002
sS'wedding'
p20
F0.0134507451132
sS'makeupexchange'
p21
F0.15050245384399999
sS'PrettyGirlsUglyFaces'
p22
F0.0094492440604800002
sS'Rabbits'
p23
F0.0077467482785000003
sS'creepyPMs'
p24
F0.012059800664499999
sS'penpals'
p25
F0.0081034623884800004
sS'freebies'
p26
F0.010562408859800001
sS'RATS'
p27
F0.0070897257089699997
sS'AskWomen'
p28
F0.013131751733600001
sS'tea'
p29
F0.0093169980192200005
sS'redditgetsdrawn'
p30
F0.0117169450129
sS'TwoXChromosomes'
p31
F0.0091098143894700005
sS'fatpeoplestories'
p32
F0.0076070139246999999
sS'Baking'
p33
F0.0164485446614
sS'LongDistance'
p34
F0.0091788462896299997
sS'Feminism'
p35
F0.0073847530956300004
sS'cosplay'
p36
F0.0084430204364399995
sS'AmericanHorrorStory'
p37
F0.0092955315052099998
sS'InteriorDesign'
p38
F0.0071832492740300001
sS'ExpectationVsReality'
p39
F0.0082984608837500008
sS'disney'
p40
F0.0102084742636
sS'tattoos'
p41
F0.0080782136791099999
sS'OnceUponATime'
p42
F0.0077102803738299999
sS'LetsNotMeet'
p43
F0.0080779019586100006
sS'Random_Acts_Of_Pizza'
p44
F0.012591006424
sS'Frugal'
p45
F0.0070504779618500001
sS'LadyBoners'
p46
F0.017515667684400001
sS'keto'
p47
F0.0080793725985599998
sS'ThriftStoreHauls'
p48
F0.0112571668298
sS'braswap'
p49
F0.0167008035292
sS'recipes'
p50
F0.0098365857528199992
sS'piercing'
p51
F0.0181563020788
sS'Hair'
p52
F0.023536220700299999
sS'Stretched'
p53
F0.0070433088565900002
sS'MakeupAddicts'
p54
F0.12311015118800001
sS'weddingplanning'
p55
F0.018534685380399998
sS'xxfitness'
p56
F0.0199279202883
sS'Assistance'
p57
F0.012502454670400001
sS'confession'
p58
F0.0070271137494000002
sS'TrollXChromosomes'
p59
F0.0172276117501
sS'femalefashionadvice'
p60
F0.034525862068999998
sS'BeautyBoxes'
p61
F0.082809896167199998
sS'CrossStitch'
p62
F0.010246913580200001
sS'loseit'
p63
F0.0130761553659
sS'EatCheapAndHealthy'
p64
F0.0125201437957
sS'RandomActsOfPizza'
p65
F0.0093251779805499993
sS'AustralianMakeup'
p66
F0.019981267561699999
sS'cats'
p67
F0.0100728551931
sS'PenmanshipPorn'
p68
F0.0071522166411899998
sS'catpictures'
p69
F0.010090018795100001
sS'firstimpression'
p70
F0.0073615160349899999
sS'Cumberbitches'
p71
F0.012061254912599999
sS'raisedbynarcissists'
p72
F0.0117759272167
sS'dogs'
p73
F0.0087195413282400002
sS'happy'
p74
F0.0096344781937200002
sS'TrollYChromosome'
p75
F0.0108371559633
sS'Cooking'
p76
F0.0073289505721900001
sS'Indiemakeupandmore'
p77
F0.10777070063700001
sS'MakeupAddiction'
p78
F0.0578792164415
sS'ketorecipes'
p79
F0.0097731488086699996
sS'snackexchange'
p80
F0.0105560200669
sS'breakingmom'
p81
F0.0101424501425
sS'somethingimade'
p82
F0.0083380513665100003
sS'namenerds'
p83
F0.0085572937558499994
sS'sailormoon'
p84
F0.0089110208360599994
sS'curlyhair'
p85
F0.026657812351799998
sS'TheGirlSurvivalGuide'
p86
F0.036667583929599998
sS'ghettoglamourshots'
p87
F0.0079395085066200008
sS'blunderyears'
p88
F0.0079726651480600003
sS'Random_Acts_Of_Amazon'
p89
F0.035197148585399997
sS'PolishGauntlet'
p90
F0.027094032229499999
sS'lookatmydog'
p91
F0.0090492277992299999
sS'fitmeals'
p92
F0.0072563089575099996
sS'ChronicPain'
p93
F0.0070601524992900001
sS'C25K'
p94
F0.0077686259827800001
sS'bisexual'
p95
F0.0075237468259200004
sS'entwives'
p96
F0.010186757215600001
sS'bigboobproblems'
p97
F0.0252138176164
sS'RandomActsOfPolish'
p98
F0.063758921490899997
sS'shorthairedhotties'
p99
F0.0083560229086500001
sS'yoga'
p100
F0.0073139366661300002
sS'pitbulls'
p101
F0.0088203848895199999
sS'Parenting'
p102
F0.0072948132913399997
sS'transpassing'
p103
F0.0075869336143299998
sS'popping'
p104
F0.0090970502139200004
sS'slowcooking'
p105
F0.0093487729735499993
sS'RedditLaqueristas'
p106
F0.047997906307200001
sS'knitting'
p107
F0.011611146700800001
sS'RandomKindness'
p108
F0.0155436326337
sS'birthcontrol'
p109
F0.0136747886624
sS'sewing'
p110
F0.0180285227375
sS'budgetfood'
p111
F0.0089037284362799996
sS'Mommit'
p112
F0.0115081768625
sS'progresspics'
p113
F0.0101181761138
sS'crochet'
p114
F0.015546875
sS'dogpictures'
p115
F0.0091529958459499999
sS'beyondthebump'
p116
F0.0094108789761000004
sS'thesims'
p117
F0.0123575863524
sS'GirlGamers'
p118
F0.013318910148100001
sS'secretsanta'
p119
F0.0136817670231
sS'crafts'
p120
F0.016590027950599998
sS'AsianBeauty'
p121
F0.044842007434900001
sS'SkincareAddiction'
p122
F0.041479433114399999
s.