(dp1
S'nyjets'
p2
F0.034638922888600002
sS'losangeleskings'
p3
F0.047266686801599997
sS'CalgaryFlames'
p4
F0.0152743729964
sS'devils'
p5
F0.023702031602699999
sS'NYGiants'
p6
F0.047511580947899999
sS'nhl'
p7
F0.039653929343900003
sS'buffalobills'
p8
F0.0079070916728400005
sS'redsox'
p9
F0.0092772878249900003
sS'SanJoseSharks'
p10
F0.0204585026117
sS'IASIP'
p11
F0.0070251628560499997
sS'seinfeld'
p12
F0.0075749924250100003
sS'leafs'
p13
F0.0159216166565
sS'cowboys'
p14
F0.0071896027283599997
sS'Browns'
p15
F0.0072574142102
sS'fantasyfootball'
p16
F0.00768424247441
sS'Dodgers'
p17
F0.010344435603
sS'newjersey'
p18
F0.015656396517100001
sS'AskNYC'
p19
F0.00999111900533
sS'stlouisblues'
p20
F0.034496808366199998
sS'hawks'
p21
F0.025789962825300002
sS'Habs'
p22
F0.047579757975799997
sS'Brooklyn'
p23
F0.0100131752306
sS'Connecticut'
p24
F0.0075880084587599999
sS'Torontobluejays'
p25
F0.00777792678021
sS'hockey'
p26
F0.038505377601100003
sS'NewYorkMets'
p27
F0.036531828159299999
sS'nyc'
p28
F0.018669536780199999
sS'orioles'
p29
F0.0077170418006399996
sS'EA_NHL'
p30
F0.034635879218499997
sS'Colts'
p31
F0.0072135957941099997
sS'DetroitRedWings'
p32
F0.015419501133799999
sS'canucks'
p33
F0.014805023132800001
sS'longisland'
p34
F0.015865954922900001
sS'hockeyplayers'
p35
F0.027677329624500001
sS'NHLHUT'
p36
F0.0128511655708
sS'ColoradoAvalanche'
p37
F0.017865765330800001
sS'caps'
p38
F0.0150512735693
sS'MLS'
p39
F0.0093360995850599992
sS'baseball'
p40
F0.013641065425400001
sS'oaklandraiders'
p41
F0.0071463775258700001
sS'Flyers'
p42
F0.040517126482699999
sS'ravens'
p43
F0.0073344029337600002
sS'DenverBroncos'
p44
F0.0088809946713999995
sS'wildhockey'
p45
F0.017513134851099999
sS'BostonBruins'
p46
F0.0271811673341
sS'nfl'
p47
F0.0080598647201099993
sS'CollegeBasketball'
p48
F0.0071071840184400003
sS'penguins'
p49
F0.029350104821800001
sS'Patriots'
p50
F0.0080377647359
sS'fantasybaseball'
p51
F0.0101102941176
sS'NYKnicks'
p52
F0.033983895182199998
sS'steelers'
p53
F0.0084764420959899996
sS'eagles'
p54
F0.0097110006214999999
sS'OttawaSenators'
p55
F0.013105924596100001
s.