(dp1
S'Shitty_Car_Mods'
p2
F0.0079494752717899995
sS'uglyduckling'
p3
F0.0087195600942699993
sS'everymanshouldknow'
p4
F0.00956195890942
sS'RandomActsOfGaming'
p5
F0.0072906069854199998
sS'relationships'
p6
F0.0097591085012700002
sS'Showerthoughts'
p7
F0.0091027929418599999
sS'HistoryPorn'
p8
F0.0088013754707699995
sS'holdmybeer'
p9
F0.0081191779332300002
sS'ImaginaryMonsters'
p10
F0.0075468933176999998
sS'YouShouldKnow'
p11
F0.011935483871
sS'horror'
p12
F0.00738572393605
sS'UpliftingNews'
p13
F0.0095778045838399994
sS'Jokes'
p14
F0.0088602218512599997
sS'inthenews'
p15
F0.0103674340601
sS'3amjokes'
p16
F0.0092824279602899996
sS'Military'
p17
F0.0078624781101499994
sS'magicskyfairy'
p18
F0.0073160954099000001
sS'photoshopbattles'
p19
F0.0081974655304400002
sS'IWantToLearn'
p20
F0.0093626668905899997
sS'CrappyDesign'
p21
F0.0122751052699
sS'NewsOfTheWeird'
p22
F0.0102185637241
sS'techsupport'
p23
F0.0092349773002800006
sS'Libertarian'
p24
F0.0092540754157700005
sS'EatCheapAndHealthy'
p25
F0.0085887753590999996
sS'POLITIC'
p26
F0.0106279409379
sS'AmISexy'
p27
F0.0084250788235900008
sS'fatpeoplestories'
p28
F0.014501402399
sS'OneY'
p29
F0.0090120441337499992
sS'depression'
p30
F0.011721752498100001
sS'forwardsfromgrandma'
p31
F0.017186984979000001
sS'no_sob_story'
p32
F0.0106983404936
sS'Glitch_in_the_Matrix'
p33
F0.0098105724573399992
sS'skeptic'
p34
F0.011337098212400001
sS'socialskills'
p35
F0.010720152157
sS'DebateReligion'
p36
F0.0101434293836
sS'vexillology'
p37
F0.0081892629663299996
sS'needamod'
p38
F0.0094012483624900008
sS'LetsNotMeet'
p39
F0.012756088133
sS'legaladvice'
p40
F0.010760245256000001
sS'answers'
p41
F0.0105844995884
sS'lgbt'
p42
F0.0097456076134700004
sS'Random_Acts_Of_Pizza'
p43
F0.0071932494120899998
sS'ainbow'
p44
F0.010626849609899999
sS'WritingPrompts'
p45
F0.0087566151999600005
sS'creepy'
p46
F0.0090290499869100007
sS'Hair'
p47
F0.0083075296427800004
sS'IWantOut'
p48
F0.0072829131652700002
sS'whatsthisbug'
p49
F0.0071719991410800002
sS'QuotesPorn'
p50
F0.0094727851541299996
sS'TrueReddit'
p51
F0.011059266902999999
sS'Assistance'
p52
F0.00964844183209
sS'confession'
p53
F0.0234539019855
sS'AntiJokes'
p54
F0.010660660660700001
sS'IdiotsFightingThings'
p55
F0.00917859365277
sS'Health'
p56
F0.0082122876353700001
sS'ContagiousLaughter'
p57
F0.0086386654751299998
sS'FiftyFifty'
p58
F0.010369968964
sS'AskHistorians'
p59
F0.0087499373213699994
sS'OutOfTheLoop'
p60
F0.0165493182447
sS'ifyoulikeblank'
p61
F0.0077179176755400002
sS'firstimpression'
p62
F0.012471724643899999
sS'Pareidolia'
p63
F0.0087009532254499998
sS'tipofmytongue'
p64
F0.0108677821522
sS'LifeProTips'
p65
F0.0086316122901499998
sS'TheGirlSurvivalGuide'
p66
F0.0079805297713400006
sS'AskMen'
p67
F0.011800125720999999
sS'ghettoglamourshots'
p68
F0.0094133594397199996
sS'techsupportgore'
p69
F0.0092218032224899993
sS'science'
p70
F0.0075169397802699999
sS'firstworldproblems'
p71
F0.0136358151321
sS'findareddit'
p72
F0.0180663460353
sS'standupshots'
p73
F0.0098757023667599992
sS'history'
p74
F0.0077424228118199998
sS'AskScienceFiction'
p75
F0.011113221884500001
sS'NewsOfTheStupid'
p76
F0.0110580325548
sS'polandball'
p77
F0.0087981648712199996
sS'SRSsucks'
p78
F0.013032970826899999
sS'MURICA'
p79
F0.010725839720299999
sS'needadvice'
p80
F0.0173629380196
sS'Gore'
p81
F0.0087729840163399998
sS'Dreams'
p82
F0.0117716303708
sS'wheredidthesodago'
p83
F0.011226668503299999
sS'highdeas'
p84
F0.0071341569514500004
sS'philosophy'
p85
F0.0071413505288200002
sS'dogpictures'
p86
F0.00791073853238
sS'short'
p87
F0.0091531420659899995
sS'dating_advice'
p88
F0.0094182825484799993
sS'ImGoingToHellForThis'
p89
F0.0117996089272
sS'help'
p90
F0.0085953229053700002
sS'DoesAnybodyElse'
p91
F0.0163258496592
sS'pettyrevenge'
p92
F0.018126888217500001
sS'PurplePillDebate'
p93
F0.0082565284178199999
sS'DeepIntoYouTube'
p94
F0.0121675563892
sS'dataisbeautiful'
p95
F0.0077706882410999998
sS'islam'
p96
F0.0077778452938000002
sS'LucidDreaming'
p97
F0.0081268582755199999
sS'nostalgia'
p98
F0.011113271124899999
sS'Documentaries'
p99
F0.0078809795212499995
sS'writing'
p100
F0.0092849426260599999
sS'scifi'
p101
F0.0071406867213599998
sS'MensRights'
p102
F0.014700328287999999
sS'Frisson'
p103
F0.0097889095482900004
sS'childfree'
p104
F0.0162855481067
sS'DebateAnAtheist'
p105
F0.0077307134804299998
sS'NoStupidQuestions'
p106
F0.019785320568599999
sS'Braveryjerk'
p107
F0.0080454744206400006
sS'Liberal'
p108
F0.0073150907613100001
sS'creepyPMs'
p109
F0.015755017131700001
sS'WatchItForThePlot'
p110
F0.0076073985680200004
sS'freebies'
p111
F0.0097125373559099996
sS'PropagandaPosters'
p112
F0.0093582887700500005
sS'SubredditDrama'
p113
F0.016067965647800001
sS'minimalism'
p114
F0.0073309395571499996
sS'wallpapers'
p115
F0.0077589475833499998
sS'aspergers'
p116
F0.0084301849729899996
sS'mildlyinteresting'
p117
F0.0074140691044500004
sS'MakeNewFriendsHere'
p118
F0.0070141170203300001
sS'TrueAtheism'
p119
F0.0095185334407699995
sS'badhistory'
p120
F0.0098673462719699994
sS'Rateme'
p121
F0.0089592506808499998
sS'TwoXChromosomes'
p122
F0.0086442634905200006
sS'popping'
p123
F0.0088257712520599992
sS'psychology'
p124
F0.0079685943633899994
sS'space'
p125
F0.0073397570171800002
sS'shittyfoodporn'
p126
F0.011112101494499999
sS'LearnUselessTalents'
p127
F0.0087528434378400001
sS'memes'
p128
F0.0098178529905699995
sS'bestof'
p129
F0.010626908283400001
sS'LadyBoners'
p130
F0.00818965517241
sS'Roadcam'
p131
F0.0070558937465399997
sS'GamePhysics'
p132
F0.0078715198901200007
sS'youtubehaiku'
p133
F0.0074297188754999998
sS'PoliticalHumor'
p134
F0.0079188129468699998
sS'TalesFromThePizzaGuy'
p135
F0.0088368760449000008
sS'howtonotgiveafuck'
p136
F0.012079548244500001
sS'whatstheword'
p137
F0.0097364046544800003
sS'misc'
p138
F0.0097747556311100006
sS'patientgamers'
p139
F0.0081927283999800003
sS'conspiratard'
p140
F0.0148992112182
sS'OldSchoolCool'
p141
F0.0082322910019099992
sS'ANormalDayInRussia'
p142
F0.0098572399728099995
sS'TheFacebookDelusion'
p143
F0.0099940713136300006
sS'PenmanshipPorn'
p144
F0.0077530441400300004
sS'shittyreactiongifs'
p145
F0.0086610819253200005
sS'alternativeart'
p146
F0.0072367326567999999
sS'shittyadvice'
p147
F0.012460847065200001
sS'MeanJokes'
p148
F0.010729783037499999
sS'explainlikeimfive'
p149
F0.0075848873759100004
sS'dogs'
p150
F0.0100010792532
sS'GTA'
p151
F0.0075280591294799998
sS'TrollYChromosome'
p152
F0.010417183392
sS'mildlyinfuriating'
p153
F0.0137653848419
sS'Awwducational'
p154
F0.0095696489241199993
sS'skyrim'
p155
F0.0077024234454300001
sS'sex'
p156
F0.0085243705665700008
sS'television'
p157
F0.0073640847593100002
sS'worldpolitics'
p158
F0.010099428482
sS'TheRedPill'
p159
F0.0087891538101899994
sS'nononono'
p160
F0.0109146289872
sS'FoodPorn'
p161
F0.0073181988000800002
sS'crappymusic'
p162
F0.0090082286704200008
sS'teenagers'
p163
F0.0100678997893
sS'conspiracy'
p164
F0.011159748775899999
sS'AnythingGoesNews'
p165
F0.0098130841121500008
sS'HighQualityGifs'
p166
F0.0073479884881500002
sS'self'
p167
F0.021251700680299999
sS'Parenting'
p168
F0.0091186310211099995
sS'britishproblems'
p169
F0.0089704193438200006
sS'UnresolvedMysteries'
p170
F0.0085923340269900006
sS'nonononoyes'
p171
F0.0097255445045999998
sS'FutureWhatIf'
p172
F0.0079719667104699993
sS'RandomKindness'
p173
F0.0083322568143699999
sS'Futurology'
p174
F0.0079849877054499994
sS'progresspics'
p175
F0.0070830493622800004
sS'medical'
p176
F0.0072690323589200004
sS'TumblrInAction'
p177
F0.014476433567300001
sS'secretsanta'
p178
F0.0074052794535399997
sS'HailCorporate'
p179
F0.0109372836771
sS'Heavymind'
p180
F0.0071400238000800002
sS'talesfromcallcenters'
p181
F0.0097465886939599993
sS'fffffffuuuuuuuuuuuu'
p182
F0.0094044646969000008
sS'PoliticalDiscussion'
p183
F0.012564129410500001
sS'Foodforthought'
p184
F0.0105635635115
sS'TheoryOfReddit'
p185
F0.0102107498775
sS'TheBluePill'
p186
F0.014875394423299999
sS'harrypotter'
p187
F0.0076912733629199998
sS'shittybattlestations'
p188
F0.0082695252679899998
sS'whowouldwin'
p189
F0.0110110625161
sS'Anxiety'
p190
F0.0111905502021
sS'TalesFromYourServer'
p191
F0.0125797306875
sS'JusticePorn'
p192
F0.0109285935668
sS'geek'
p193
F0.0074005263972799998
sS'lostgeneration'
p194
F0.0092075471698099993
sS'PrettyGirlsUglyFaces'
p195
F0.0071438880069300001
sS'AbandonedPorn'
p196
F0.0086591276252000002
sS'dadjokes'
p197
F0.011614055985700001
sS'thatHappened'
p198
F0.015566588207399999
sS'whitepeoplegifs'
p199
F0.0072063577586200002
sS'cringe'
p200
F0.012499859362500001
sS'AskWomen'
p201
F0.012314801884
sS'TheSimpsons'
p202
F0.0088787941358699999
sS'Christianity'
p203
F0.0099527846335399992
sS'Justrolledintotheshop'
p204
F0.0070388287388999998
sS'college'
p205
F0.0077294685990299998
sS'changemyview'
p206
F0.015923145294000001
sS'KarmaCourt'
p207
F0.0076127819548900003
sS'firstworldanarchists'
p208
F0.0121546687791
sS'PerfectTiming'
p209
F0.0094887764912399992
sS'truegaming'
p210
F0.0078700602813099995
sS'AmericanHorrorStory'
p211
F0.0072988602549000003
sS'wikipedia'
p212
F0.0075782110240299998
sS'breakingbad'
p213
F0.0080236372014900002
sS'outside'
p214
F0.0115986935768
sS'AskFeminists'
p215
F0.0075701624815399998
sS'jobs'
p216
F0.0096139892613599995
sS'linguistics'
p217
F0.0071103134060500001
sS'casualiama'
p218
F0.017355229040599999
sS'facepalm'
p219
F0.014253939412900001
sS'NotTimAndEric'
p220
F0.0073484384568299997
sS'gamingsuggestions'
p221
F0.0082033940760200003
sS'Unexpected'
p222
F0.011531763340000001
sS'relationship_advice'
p223
F0.012437286563500001
sS'nosleep'
p224
F0.00791977586063
sS'watchpeopledie'
p225
F0.011067531358
sS'GetMotivated'
p226
F0.0078787800764700006
sS'drunk'
p227
F0.0092295219980700009
sS'reactiongifs'
p228
F0.0089035540480799993
sS'MMFB'
p229
F0.013466550825400001
sS'bisexual'
p230
F0.0071118430902800001
sS'confessions'
p231
F0.017141153674200001
sS'fatlogic'
p232
F0.014742270726399999
sS'somethingimade'
p233
F0.00817155756208
sS'MapPorn'
p234
F0.0078717306924899998
sS'shittyaskreddit'
p235
F0.0126708902968
sS'Perfectfit'
p236
F0.0089923119165300006
sS'offbeat'
p237
F0.0114232787897
sS'softwaregore'
p238
F0.0093307141854900005
sS'socialism'
p239
F0.0089956797064599994
sS'Needafriend'
p240
F0.0076815642458100001
sS'ICanDrawThat'
p241
F0.0083183602848199995
sS'Cooking'
p242
F0.0079519228572099993
sS'FanTheories'
p243
F0.0116678359118
sS'ShitRedditSays'
p244
F0.0098531810766699993
sS'southpark'
p245
F0.0087956252470699995
sS'daddit'
p246
F0.00707681771487
sS'itookapicture'
p247
F0.0076684381353199996
sS'Whatcouldgowrong'
p248
F0.0113624571962
sS'fifthworldproblems'
p249
F0.0077011305915100003
sS'talesfromtechsupport'
p250
F0.0093195840704099996
sS'Anarchism'
p251
F0.0071522309711300001
sS'notinteresting'
p252
F0.011979695431499999
sS'AnimalsBeingJerks'
p253
F0.0099462900338200006
sS'DebateAChristian'
p254
F0.0087081629562299999
sS'thesims'
p255
F0.0082064516128999999
sS'HumanPorn'
p256
F0.0096318848602300004
sS'FancyFollicles'
p257
F0.0079933190169400002
sS'awwwtf'
p258
F0.0087946943483300007
sS'circlebroke'
p259
F0.0143543777605
sS'PublicFreakout'
p260
F0.0139241577789
sS'Conservative'
p261
F0.0110748541481
sS'quotes'
p262
F0.0105958442273
sS'futurama'
p263
F0.0092139232618200003
sS'perfectloops'
p264
F0.0087698646262500003
sS'Pets'
p265
F0.0097046915932400002
sS'InternetIsBeautiful'
p266
F0.0099656967116200004
sS'TalesFromRetail'
p267
F0.016758734820399999
sS'WouldYouRather'
p268
F0.0144191069047
sS'quityourbullshit'
p269
F0.017435860940099999
sS'Advice'
p270
F0.021589675551800001
sS'ProtectAndServe'
p271
F0.0089884364979100004
sS'woahdude'
p272
F0.0083982948659199995
sS'Fallout'
p273
F0.0075056069993099999
sS'offmychest'
p274
F0.021589997152399999
sS'howto'
p275
F0.0080036851500000002
sS'cringepics'
p276
F0.011062865275499999
sS'toosoon'
p277
F0.0091603053435100005
sS'ConfusedBoners'
p278
F0.0076690509549399996
sS'Paranormal'
p279
F0.0093597106998499994
sS'4chan'
p280
F0.0098657732721300004
sS'montageparodies'
p281
F0.00738449534637
sS'gardening'
p282
F0.0074381082781299996
sS'whatisthisthing'
p283
F0.0111205046498
sS'NetflixBestOf'
p284
F0.0078294229715299996
sS'circlebroke2'
p285
F0.0072102640228999997
sS'ShouldIbuythisgame'
p286
F0.0076083510710600001
sS'tumblr'
p287
F0.0111182210846
sS'interestingasfuck'
p288
F0.0112873013823
sS'MarkMyWords'
p289
F0.017794465757899999
sS'humor'
p290
F0.0077790539835000004
sS'AMA'
p291
F0.011061153559700001
sS'ExpectationVsReality'
p292
F0.0144788799809
sS'religion'
p293
F0.0074253151441900003
sS'lifehacks'
p294
F0.010309054133399999
sS'Enhancement'
p295
F0.0092783505154600005
sS'blackpeoplegifs'
p296
F0.0072343149807899999
sS'DeadBedrooms'
p297
F0.0084632245494400005
sS'FloridaMan'
p298
F0.012344424688799999
sS'delusionalartists'
p299
F0.0145079793887
sS'OkCupid'
p300
F0.0075709057639499998
sS'Frugal'
p301
F0.0088955605593099996
sS'promos'
p302
F0.0096286876196600008
sS'shittyaskscience'
p303
F0.0119235317304
sS'lewronggeneration'
p304
F0.016588322132
sS'worldbuilding'
p305
F0.0081713780918699994
sS'netflix'
p306
F0.00717444273982
sS'sixwordstories'
p307
F0.0079455164585699994
sS'AnimalsBeingBros'
p308
F0.0086383759853100005
sS'classic4chan'
p309
F0.010000684978399999
sS'amiugly'
p310
F0.010367744793999999
sS'ShitAmericansSay'
p311
F0.0109106907171
sS'TrollXChromosomes'
p312
F0.010849033757900001
sS'tifu'
p313
F0.0098575595995000001
sS'unitedkingdom'
p314
F0.0072928061676299999
sS'Damnthatsinteresting'
p315
F0.0092106264748400002
sS'loseit'
p316
F0.00837768768134
sS'CrazyIdeas'
p317
F0.015874845140999998
sS'Bad_Cop_No_Donut'
p318
F0.0138806501364
sS'MorbidReality'
p319
F0.0155367231638
sS'gif'
p320
F0.0070454893551800003
sS'cats'
p321
F0.0094029578236299993
sS'introvert'
p322
F0.0129381477325
sS'raisedbynarcissists'
p323
F0.015983647756600002
sS'happy'
p324
F0.012231851988399999
sS'explainlikeIAmA'
p325
F0.0116826954108
sS'misleadingthumbnails'
p326
F0.0110602814292
sS'blunderyears'
p327
F0.0143597274915
sS'Random_Acts_Of_Amazon'
p328
F0.0091959586181899998
sS'rage'
p329
F0.023374415639600001
sS'comics'
p330
F0.0088632356847899996
sS'behindthegifs'
p331
F0.010378349973699999
sS'fullmoviesonyoutube'
p332
F0.010400616332800001
sS'TrueAskReddit'
p333
F0.0122474354989
sS'politics'
p334
F0.0072929792444300003
sS'bestofworldstar'
p335
F0.0076002152273299999
sS'DAE'
p336
F0.0151047317032
sS'ForeverAlone'
p337
F0.0138812985026
sS'shittyama'
p338
F0.014834383255399999
sS'AskSocialScience'
p339
F0.0072199363403499996
sS'TheWayWeWere'
p340
F0.0081068192656199994
sS'badtattoos'
p341
F0.0097423004399700003
sS'Feminism'
p342
F0.0095078299776300002
sS'nottheonion'
p343
F0.010281564319700001
sS'Frugal_Jerk'
p344
F0.0080533425701399992
sS'SuicideWatch'
p345
F0.010892333473000001
sS'socialanxiety'
p346
F0.0078348651499199999
sS'bigdickproblems'
p347
F0.0070771836438400003
sS'oddlysatisfying'
p348
F0.010575432979699999
sS'GirlGamers'
p349
F0.0086481565771500003
sS'youtube'
p350
F0.0074025820206100003
sS'atheism'
p351
F0.0083738854959299995
sS'terriblefacebookmemes'
p352
F0.0151745068285
sS'urbanexploration'
p353
F0.0073817915807700002
s.