(dp1
S'overclocking'
p2
F0.0072967338429500003
sS'Battlefield'
p3
F0.0072992700729900004
sS'gamingpc'
p4
F0.010961991599199999
sS'hardwareswap'
p5
F0.0084806157354600006
sS'watercooling'
p6
F0.0086262669829600003
sS'MechanicalKeyboards'
p7
F0.012435347199299999
sS'hardware'
p8
F0.0078551347775800001
sS'CableManagement'
p9
F0.0090666666666699997
sS'shittybattlestations'
p10
F0.0070666837980199997
sS'pcgaming'
p11
F0.0073593832136000003
sS'battlestations'
p12
F0.0092702307102500003
s.