(dp1
S'electronic_cigarette'
p2
F0.071822363525699998
sS'Justrolledintotheshop'
p3
F0.0078454202705699992
sS'DIY_eJuice'
p4
F0.15236796429499999
sS'drunkvapes'
p5
F0.089615699100599994
sS'techsupportmacgyver'
p6
F0.0070137800148500004
sS'eldertrees'
p7
F0.0073752711496699996
sS'wicked_edge'
p8
F0.0090293453724599997
sS'StonerEngineering'
p9
F0.0086146024572799993
sS'hookah'
p10
F0.0103838308919
sS'glassheads'
p11
F0.0099108027750199994
sS'mflb'
p12
F0.0077429023395200001
sS'Vaping101'
p13
F0.077215724954199996
sS'CarAV'
p14
F0.0080000000000000002
sS'VapePorn'
p15
F0.15458692346700001
sS'Shitty_Car_Mods'
p16
F0.0080393651673699995
sS'knifeclub'
p17
F0.0074805194805200002
sS'ecigclassifieds'
p18
F0.15764184069500001
sS'EDC'
p19
F0.0106631416612
sS'Coilporn'
p20
F0.20316159250599999
sS'knives'
p21
F0.00838798230898
sS'CannabisExtracts'
p22
F0.0137221269297
sS'vaporents'
p23
F0.024039326179500001
s.