(dp1
S'GTA'
p2
F0.0079947431825600004
sS'techsupportmacgyver'
p3
F0.0072878709005699998
sS'lego'
p4
F0.0086210727458599992
sS'prisonarchitect'
p5
F0.010794473229699999
sS'WaltDisneyWorld'
p6
F0.0071976967370400002
sS'softwaregore'
p7
F0.010136674259699999
sS'shittybattlestations'
p8
F0.0076396206533200003
sS'aoe2'
p9
F0.0089686098654700001
sS'Gaming4Gamers'
p10
F0.0080465341735300004
sS'GamePhysics'
p11
F0.0095294818344300002
sS'thesims'
p12
F0.0100165741875
sS'SimCity'
p13
F0.0224719101124
s.