(dp1
S'GTA'
p2
F0.0106840230873
sS'gtaglitches'
p3
F0.020701623899800001
sS'gtavcustoms'
p4
F0.018659464768000001
sS'GTAV'
p5
F0.0179229069482
sS'GrandTheftAutoV'
p6
F0.0128690778891
sS'gtaonline'
p7
F0.031784603421500003
sS'chiliadmystery'
p8
F0.0103378253646
sS'GYBB'
p9
F0.062857142857100007
s.