(dp1
S'MapPorn'
p2
F0.011011851505199999
sS'asoiaf'
p3
F0.0081215845274400008
sS'uglyduckling'
p4
F0.0105588631953
sS'BuyItForLife'
p5
F0.0082757443904099993
sS'everymanshouldknow'
p6
F0.011383285302600001
sS'RandomActsOfGaming'
p7
F0.0112201963534
sS'relationships'
p8
F0.0126527845601
sS'Showerthoughts'
p9
F0.013634706525700001
sS'HistoryPorn'
p10
F0.0150825915459
sS'picrequests'
p11
F0.0186860650148
sS'holdmybeer'
p12
F0.012923677151899999
sS'ImaginaryMonsters'
p13
F0.0083519285941999998
sS'YouShouldKnow'
p14
F0.0146150786101
sS'horror'
p15
F0.0078121087685899997
sS'UpliftingNews'
p16
F0.010677360948900001
sS'PandR'
p17
F0.00721887750735
sS'Jokes'
p18
F0.010788640344999999
sS'Military'
p19
F0.0073669253470300001
sS'Steam'
p20
F0.0084988228338599998
sS'photoshopbattles'
p21
F0.025319306373299998
sS'IWantToLearn'
p22
F0.0092445471616400005
sS'Celebs'
p23
F0.010035183112100001
sS'CrappyDesign'
p24
F0.017810399716999999
sS'techsupport'
p25
F0.0096379559407700002
sS'pcgaming'
p26
F0.0070784662265100003
sS'EatCheapAndHealthy'
p27
F0.012111696759
sS'gentlemanboners'
p28
F0.014743589743600001
sS'AmISexy'
p29
F0.0086048769961199999
sS'fatpeoplestories'
p30
F0.011680511680499999
sS'LongDistance'
p31
F0.0076481283731100001
sS'depression'
p32
F0.0113566297194
sS'forwardsfromgrandma'
p33
F0.0087118696029799998
sS'movies'
p34
F0.014045220821300001
sS'InteriorDesign'
p35
F0.0070011320979599997
sS'socialskills'
p36
F0.0074958492040200003
sS'worldnews'
p37
F0.0102061355465
sS'guns'
p38
F0.0076367389060899996
sS'disney'
p39
F0.0111629684216
sS'tattoos'
p40
F0.0239854579848
sS'LetsNotMeet'
p41
F0.0099063962558500005
sS'legaladvice'
p42
F0.0088888136396699999
sS'AnimalCrossing'
p43
F0.0073193288413300004
sS'lgbt'
p44
F0.0081255677803600008
sS'Random_Acts_Of_Pizza'
p45
F0.0083607882140900001
sS'doctorwho'
p46
F0.0156594195958
sS'WritingPrompts'
p47
F0.016289132094699999
sS'ThriftStoreHauls'
p48
F0.010018424689100001
sS'piercing'
p49
F0.0085114372437999995
sS'creepy'
p50
F0.0147656527209
sS'pics'
p51
F0.0129196155282
sS'Hair'
p52
F0.0093397537407500005
sS'howtonotgiveafuck'
p53
F0.0079606159002800006
sS'learnart'
p54
F0.015625551126899999
sS'whatsthisbug'
p55
F0.012939590736400001
sS'QuotesPorn'
p56
F0.0118751152924
sS'apple'
p57
F0.0075791676297800002
sS'TrueReddit'
p58
F0.0099305343878800002
sS'todayilearned'
p59
F0.0123682812327
sS'Assistance'
p60
F0.0096519695613200007
sS'confession'
p61
F0.0130120575803
sS'IdiotsFightingThings'
p62
F0.0098983124188700006
sS'ContagiousLaughter'
p63
F0.0133442988274
sS'graphic_design'
p64
F0.0103067350127
sS'HIMYM'
p65
F0.0102230867928
sS'FiftyFifty'
p66
F0.0150622134905
sS'AskHistorians'
p67
F0.0094490377266700006
sS'Drugs'
p68
F0.0073312148073799996
sS'OutOfTheLoop'
p69
F0.017413937346999999
sS'sports'
p70
F0.0082592412155199999
sS'ifyoulikeblank'
p71
F0.0075852340776599997
sS'firstimpression'
p72
F0.0171583828003
sS'Pareidolia'
p73
F0.014879194442100001
sS'tipofmytongue'
p74
F0.018048780487799999
sS'ladybonersgw'
p75
F0.0071629699155299998
sS'LifeProTips'
p76
F0.0142701829221
sS'TheGirlSurvivalGuide'
p77
F0.010447042835700001
sS'AskMen'
p78
F0.016080746665699999
sS'ghettoglamourshots'
p79
F0.0076657970174300004
sS'EDC'
p80
F0.0081931370969600004
sS'showerbeer'
p81
F0.0076930382752400002
sS'techsupportgore'
p82
F0.0079236602198199998
sS'science'
p83
F0.0127263676997
sS'firstworldproblems'
p84
F0.0094664573423600008
sS'findareddit'
p85
F0.010756480338599999
sS'standupshots'
p86
F0.013560767590600001
sS'Glitch_in_the_Matrix'
p87
F0.010064838175800001
sS'gadgets'
p88
F0.0073467674223299997
sS'polandball'
p89
F0.0073893983191999999
sS'asmr'
p90
F0.0081507383462099993
sS'MURICA'
p91
F0.012588203862900001
sS'travel'
p92
F0.0105866371032
sS'RealGirls'
p93
F0.0089868119718899998
sS'scifi'
p94
F0.0071848722908700001
sS'RedditLaqueristas'
p95
F0.0209243908566
sS'spaceporn'
p96
F0.0083331121785499996
sS'nyc'
p97
F0.0078772893372100004
sS'wheredidthesodago'
p98
F0.0153882524877
sS'gaming'
p99
F0.0119760479042
sS'askscience'
p100
F0.010279698831499999
sS'dogpictures'
p101
F0.0109616775127
sS'FanTheories'
p102
F0.0100604519396
sS'listentothis'
p103
F0.011609395650600001
sS'crafts'
p104
F0.0119610393731
sS'tall'
p105
F0.0120670780255
sS'ImGoingToHellForThis'
p106
F0.0151655867924
sS'photoshop'
p107
F0.0072985533809000001
sS'DoesAnybodyElse'
p108
F0.014057133283099999
sS'pettyrevenge'
p109
F0.0145282793256
sS'malehairadvice'
p110
F0.0098907892025600005
sS'electronic_cigarette'
p111
F0.0077872676379800001
sS'actuallesbians'
p112
F0.0075420044017400004
sS'DeepIntoYouTube'
p113
F0.0099366957243700003
sS'dataisbeautiful'
p114
F0.0107362134717
sS'LucidDreaming'
p115
F0.00729946242226
sS'BabyBumps'
p116
F0.0088540825663400002
sS'nostalgia'
p117
F0.0156207973848
sS'Documentaries'
p118
F0.0078689671252000007
sS'writing'
p119
F0.011377222415100001
sS'WTF'
p120
F0.0147750507908
sS'soccer'
p121
F0.0075718464980200004
sS'MensRights'
p122
F0.0085176272869600007
sS'Frisson'
p123
F0.0112403316454
sS'childfree'
p124
F0.0119460348277
sS'food'
p125
F0.0136189204972
sS'whitepeoplegifs'
p126
F0.0081360719658599995
sS'NoStupidQuestions'
p127
F0.014073465017100001
sS'makeupexchange'
p128
F0.0080399682371599997
sS'creepyPMs'
p129
F0.020394303177999999
sS'penpals'
p130
F0.0082343577813199995
sS'freebies'
p131
F0.015274546811199999
sS'AdviceAnimals'
p132
F0.0130414310701
sS'SubredditDrama'
p133
F0.0134297233421
sS'minimalism'
p134
F0.012014182154900001
sS'wallpapers'
p135
F0.014551646735600001
sS'mildlyinteresting'
p136
F0.016815699658700001
sS'Rateme'
p137
F0.015572033898299999
sS'books'
p138
F0.013552422797
sS'TwoXChromosomes'
p139
F0.013132590072200001
sS'Cinemagraphs'
p140
F0.0084286385711999992
sS'canada'
p141
F0.0086414109389100005
sS'DunderMifflin'
p142
F0.0079597141000599999
sS'space'
p143
F0.0097617814603800004
sS'shittyfoodporn'
p144
F0.016029593094899999
sS'malefashionadvice'
p145
F0.0124482429133
sS'LearnUselessTalents'
p146
F0.0120023264421
sS'RoomPorn'
p147
F0.011139549055500001
sS'bestof'
p148
F0.016706261666400001
sS'LadyBoners'
p149
F0.021406659849699999
sS'corgi'
p150
F0.0075005314141699999
sS'GamePhysics'
p151
F0.0078261343804499998
sS'youtubehaiku'
p152
F0.0114886799612
sS'recipes'
p153
F0.0085834730052299999
sS'dogecoin'
p154
F0.01062708676
sS'MakeupAddicts'
p155
F0.0070657377752799998
sS'weddingplanning'
p156
F0.0091075708444899994
sS'pokemon'
p157
F0.010438830297999999
sS'TheLastAirbender'
p158
F0.0101324534234
sS'OldSchoolCool'
p159
F0.015565850668800001
sS'lego'
p160
F0.0104340201666
sS'ANormalDayInRussia'
p161
F0.0074201557386300004
sS'onetruegod'
p162
F0.0071585557299799997
sS'PenmanshipPorn'
p163
F0.0197593380491
sS'shittyreactiongifs'
p164
F0.0073457855909600002
sS'Indiemakeupandmore'
p165
F0.0070417697169599999
sS'explainlikeimfive'
p166
F0.0121746381912
sS'dogs'
p167
F0.011823245778200001
sS'TrollYChromosome'
p168
F0.013728400296799999
sS'alternativeart'
p169
F0.0077623576061000002
sS'mildlyinfuriating'
p170
F0.020698744425199998
sS'Awwducational'
p171
F0.0139989209757
sS'skyrim'
p172
F0.0117474844392
sS'sex'
p173
F0.0138265313001
sS'television'
p174
F0.0114697416997
sS'thatHappened'
p175
F0.0182992306674
sS'nononono'
p176
F0.010375350682
sS'FoodPorn'
p177
F0.016739005553100001
sS'Aquariums'
p178
F0.0075707615605799996
sS'conspiracy'
p179
F0.0100444656185
sS'HighQualityGifs'
p180
F0.0119970523213
sS'self'
p181
F0.0133499140485
sS'IAmA'
p182
F0.012986677348899999
sS'Parenting'
p183
F0.013753145666299999
sS'animation'
p184
F0.0073737573243800002
sS'britishproblems'
p185
F0.0091932382630999995
sS'nonononoyes'
p186
F0.016438133213999999
sS'firefly'
p187
F0.0078116218950200003
sS'RandomKindness'
p188
F0.0106216053108
sS'Futurology'
p189
F0.0095081483355500002
sS'sewing'
p190
F0.0099826251777000007
sS'Games'
p191
F0.0090334175181599995
sS'progresspics'
p192
F0.0201952378493
sS'crochet'
p193
F0.0104592450108
sS'Minecraft'
p194
F0.010416026277199999
sS'TumblrInAction'
p195
F0.014870117217499999
sS'secretsanta'
p196
F0.0219934681053
sS'Shitty_Car_Mods'
p197
F0.00904831152044
sS'painting'
p198
F0.0092245705803399997
sS'IDAP'
p199
F0.0205265192788
sS'Heavymind'
p200
F0.0098191687250299992
sS'photocritique'
p201
F0.0086881472957400004
sS'adventuretime'
p202
F0.0140043405266
sS'fffffffuuuuuuuuuuuu'
p203
F0.0117103183371
sS'RandomActsofMakeup'
p204
F0.0117169450129
sS'harrypotter'
p205
F0.017949095189100001
sS'booksuggestions'
p206
F0.0075620709234500002
sS'whowouldwin'
p207
F0.0094271339041399997
sS'GrandTheftAutoV'
p208
F0.0093274970155200008
sS'Anxiety'
p209
F0.0104020435873
sS'TalesFromYourServer'
p210
F0.0077394481687100003
sS'shutupandtakemymoney'
p211
F0.010572304424400001
sS'gonewild'
p212
F0.0073423881240600002
sS'photography'
p213
F0.0130717840344
sS'JusticePorn'
p214
F0.015433549388500001
sS'trees'
p215
F0.011114282219599999
sS'geek'
p216
F0.0094305622297000003
sS'Fitness'
p217
F0.0094723497074100001
sS'beards'
p218
F0.020759944587399999
sS'PrettyGirlsUglyFaces'
p219
F0.015015780916200001
sS'AbandonedPorn'
p220
F0.014316407057
sS'motorcycles'
p221
F0.0084516411907899994
sS'futurama'
p222
F0.0091825307950700007
sS'nsfw'
p223
F0.0091122258169800009
sS'cringe'
p224
F0.016614833663200001
sS'StarWars'
p225
F0.0128090517299
sS'AskWomen'
p226
F0.020127074363599999
sS'TheSimpsons'
p227
F0.00843720952404
sS'Christianity'
p228
F0.0086097286300700002
sS'Justrolledintotheshop'
p229
F0.0083878130011100002
sS'changemyview'
p230
F0.012113930313099999
sS'roosterteeth'
p231
F0.0070002094825799997
sS'Android'
p232
F0.0094418700279900007
sS'PS4'
p233
F0.0070021339836899999
sS'firstworldanarchists'
p234
F0.017081739672199999
sS'PerfectTiming'
p235
F0.014971867378200001
sS'cosplay'
p236
F0.018036815505200001
sS'lotr'
p237
F0.0091700341933499997
sS'AmericanHorrorStory'
p238
F0.0081332845523899994
sS'breakingbad'
p239
F0.0135649997239
sS'outside'
p240
F0.0111602847797
sS'foodhacks'
p241
F0.0080220379003500004
sS'pcmasterrace'
p242
F0.0092219112184800008
sS'casualiama'
p243
F0.019558082989000001
sS'facepalm'
p244
F0.020185683597100001
sS'bigboobproblems'
p245
F0.0073566631795599999
sS'news'
p246
F0.0104595607816
sS'Unexpected'
p247
F0.0207235904364
sS'relationship_advice'
p248
F0.0083842046480300005
sS'nosleep'
p249
F0.0108621632785
sS'itookapicture'
p250
F0.0193786459254
sS'Sherlock'
p251
F0.0084326839197399993
sS'GetMotivated'
p252
F0.0127848687813
sS'drunk'
p253
F0.012044310171199999
sS'xxfitness'
p254
F0.0094449508761300007
sS'reactiongifs'
p255
F0.020916510334000001
sS'community'
p256
F0.0097255581367899999
sS'Music'
p257
F0.012501721194999999
sS'EarthPorn'
p258
F0.014226162906099999
sS'femalefashionadvice'
p259
F0.015983606557399999
sS'Guitar'
p260
F0.0070731106917200004
sS'web_design'
p261
F0.0071856796632500004
sS'fatlogic'
p262
F0.013154611243799999
sS'hiphopheads'
p263
F0.0074336847559599998
sS'MakeupAddiction'
p264
F0.030974354323000001
sS'teenagers'
p265
F0.0137144189179
sS'somethingimade'
p266
F0.018876529759000001
sS'keto'
p267
F0.0109803383317
sS'curlyhair'
p268
F0.0095681489805700005
sS'Perfectfit'
p269
F0.0091998884862000002
sS'offbeat'
p270
F0.0103438583341
sS'ICanDrawThat'
p271
F0.029706982543600002
sS'Cooking'
p272
F0.011783907295600001
sS'personalfinance'
p273
F0.0074360606038900001
sS'PhotoshopRequest'
p274
F0.0087439507259100008
sS'DIY'
p275
F0.014783526927099999
sS'technology'
p276
F0.0116861768369
sS'shorthairedhotties'
p277
F0.0096259094713799995
sS'southpark'
p278
F0.0089445438282599998
sS'funny'
p279
F0.011315965547600001
sS'pitbulls'
p280
F0.0073793755912999999
sS'daddit'
p281
F0.010495477558499999
sS'watchpeopledie'
p282
F0.0092150013788000005
sS'Whatcouldgowrong'
p283
F0.014956540363000001
sS'talesfromtechsupport'
p284
F0.0088927718925999998
sS'knitting'
p285
F0.0072086261206700001
sS'notinteresting'
p286
F0.016312901442
sS'AnimalsBeingJerks'
p287
F0.016057504361200001
sS'running'
p288
F0.0080049588240499996
sS'thesims'
p289
F0.010396975425299999
sS'HumanPorn'
p290
F0.014236374357699999
sS'ArtistLounge'
p291
F0.028518788623199998
sS'drawing'
p292
F0.031048623315800002
sS'FancyFollicles'
p293
F0.0290420872215
sS'awwwtf'
p294
F0.0103651578547
sS'PublicFreakout'
p295
F0.0095311632845099994
sS'ArtisanVideos'
p296
F0.0082129481005899993
sS'rickandmorty'
p297
F0.0083096640923899998
sS'dadjokes'
p298
F0.0155942150493
sS'woodworking'
p299
F0.0086575482333899993
sS'perfectloops'
p300
F0.011641678943900001
sS'Pets'
p301
F0.0074605285986899996
sS'InternetIsBeautiful'
p302
F0.014131739345299999
sS'BeardPorn'
p303
F0.00744468187771
sS'TalesFromRetail'
p304
F0.0141980805382
sS'WouldYouRather'
p305
F0.0070805938178699996
sS'quityourbullshit'
p306
F0.016981049498899999
sS'Advice'
p307
F0.0077517575306100001
sS'woahdude'
p308
F0.0206167084977
sS'Fallout'
p309
F0.0085143021142300001
sS'offmychest'
p310
F0.0188494569336
sS'australia'
p311
F0.0078839926791499995
sS'slowcooking'
p312
F0.010043590201099999
sS'NSFW_GIF'
p313
F0.0077976450065400001
sS'cringepics'
p314
F0.021274439675699999
sS'thewalkingdead'
p315
F0.013712997194500001
sS'gifs'
p316
F0.0144961800607
sS'Art'
p317
F0.022525006894099999
sS'Paranormal'
p318
F0.0081778896121699994
sS'WatchItForThePlot'
p319
F0.0085131133671700002
sS'ArcherFX'
p320
F0.0078461087211600007
sS'gardening'
p321
F0.0107110045488
sS'whatisthisthing'
p322
F0.019255678766600001
sS'NetflixBestOf'
p323
F0.0122731263326
sS'tumblr'
p324
F0.0142635586051
sS'interestingasfuck'
p325
F0.0199794757446
sS'gameofthrones'
p326
F0.014702307674199999
sS'4chan'
p327
F0.013056406971999999
sS'AMA'
p328
F0.0107684323683
sS'SkincareAddiction'
p329
F0.016816504889100001
sS'ExpectationVsReality'
p330
F0.0137054065064
sS'aww'
p331
F0.0174358500609
sS'lifehacks'
p332
F0.017427884615399999
sS'blackpeoplegifs'
p333
F0.0075837055244100003
sS'FloridaMan'
p334
F0.0085358371789100006
sS'delusionalartists'
p335
F0.016840758899999999
sS'OkCupid'
p336
F0.010474791972599999
sS'Frugal'
p337
F0.014192666001499999
sS'promos'
p338
F0.012799478581400001
sS'shittyaskscience'
p339
F0.012189468985499999
sS'whatsthisplant'
p340
F0.0071079386977799999
sS'lewronggeneration'
p341
F0.0085632512879199995
sS'calvinandhobbes'
p342
F0.0078134689321600007
sS'netflix'
p343
F0.0073669439711300001
sS'anime'
p344
F0.00766596469129
sS'AnimalsBeingBros'
p345
F0.0126852236532
sS'GameDeals'
p346
F0.0073248365229700001
sS'battlestations'
p347
F0.0093589568851899993
sS'amiugly'
p348
F0.0151742884554
sS'TrollXChromosomes'
p349
F0.023627854926499998
sS'tifu'
p350
F0.013446193184299999
sS'unitedkingdom'
p351
F0.00773329056859
sS'Damnthatsinteresting'
p352
F0.014858161702500001
sS'DnD'
p353
F0.0071509582668500002
sS'loseit'
p354
F0.016763005780299999
sS'CrazyIdeas'
p355
F0.015226195934599999
sS'Bad_Cop_No_Donut'
p356
F0.0072676773521600001
sS'MorbidReality'
p357
F0.016767324879100001
sS'gif'
p358
F0.0098010257511900005
sS'cats'
p359
F0.019919985502600001
sS'raisedbynarcissists'
p360
F0.0120094900166
sS'happy'
p361
F0.011841988982800001
sS'explainlikeIAmA'
p362
F0.0094157992900500004
sS'misleadingthumbnails'
p363
F0.013013443402999999
sS'batman'
p364
F0.0112371417105
sS'snackexchange'
p365
F0.0082551095133499997
sS'blunderyears'
p366
F0.020848756955600001
sS'Marvel'
p367
F0.0101241955978
sS'Random_Acts_Of_Amazon'
p368
F0.014649326248399999
sS'rage'
p369
F0.016745226492000002
sS'comics'
p370
F0.016598217480999999
sS'forhire'
p371
F0.0075149298511299999
sS'behindthegifs'
p372
F0.0161526437238
sS'fullmoviesonyoutube'
p373
F0.011976486084300001
sS'iphone'
p374
F0.0083426454605300005
sS'videos'
p375
F0.012422607101
sS'politics'
p376
F0.0101744264416
sS'bicycling'
p377
F0.0085790704324899998
sS'shittyama'
p378
F0.0072332730560599997
sS'zelda'
p379
F0.010231849352299999
sS'LosAngeles'
p380
F0.0070191535726600003
sS'badtattoos'
p381
F0.013162214594799999
sS'popping'
p382
F0.0139504194552
sS'nottheonion'
p383
F0.011544407680899999
sS'Baking'
p384
F0.010794498288
sS'SuicideWatch'
p385
F0.0084567029096799997
sS'comicbooks'
p386
F0.011590204754300001
sS'oddlysatisfying'
p387
F0.022401398101399999
sS'GirlGamers'
p388
F0.00906798152399
sS'cosplaygirls'
p389
F0.0086778825966499998
sS'SketchDaily'
p390
F0.025811941568599998
sS'atheism'
p391
F0.0130618630063
sS'Design'
p392
F0.0104524013722
sS'Filmmakers'
p393
F0.0077519379845000002
s.