(dp1
S'breastfeeding'
p2
F0.010558386300399999
sS'FancyFollicles'
p3
F0.097431235902099997
sS'awwwtf'
p4
F0.0120527845267
sS'daddit'
p5
F0.0072827318336299999
sS'Aquariums'
p6
F0.011782410805999999
sS'curlyhair'
p7
F0.034033884831300001
sS'DoesAnybodyElse'
p8
F0.0138998963604
sS'pettyrevenge'
p9
F0.017661773252099999
sS'ABraThatFits'
p10
F0.030605487228000001
sS'adventuretime'
p11
F0.012679650072899999
sS'cringepics'
p12
F0.016522652227300001
sS'fffffffuuuuuuuuuuuu'
p13
F0.010812040023199999
sS'uglyduckling'
p14
F0.0121920499773
sS'ACTrade'
p15
F0.0079347290088300007
sS'dadjokes'
p16
F0.0092054005016300004
sS'BuyItForLife'
p17
F0.0080887005805199991
sS'SampleSize'
p18
F0.0072795531544700004
sS'Supernatural'
p19
F0.010761343897
sS'Pets'
p20
F0.0184686579722
sS'SkincareAddiction'
p21
F0.059706976530600003
sS'entwives'
p22
F0.017859193752199999
sS'RandomActsofMakeup'
p23
F0.047997906307200001
sS'relationships'
p24
F0.015963006366199999
sS'TalesFromRetail'
p25
F0.020972565075200001
sS'creepy'
p26
F0.010047519683
sS'AnimalsBeingJerks'
p27
F0.017126520484399999
sS'secretsanta'
p28
F0.0204022610753
sS'buffy'
p29
F0.0092841043254300003
sS'quityourbullshit'
p30
F0.013057855911400001
sS'drawing'
p31
F0.0111759735771
sS'nostalgia'
p32
F0.019484650866899999
sS'harrypotter'
p33
F0.024747370591899999
sS'HistoryPorn'
p34
F0.0100403758888
sS'booksuggestions'
p35
F0.0091651865008900001
sS'badtattoos'
p36
F0.0188786435345
sS'transtimelines'
p37
F0.00881505339888
sS'woahdude'
p38
F0.010441142270599999
sS'WTF'
p39
F0.0092875368526800003
sS'offmychest'
p40
F0.016717988650200001
sS'australia'
p41
F0.0071692327625300003
sS'arresteddevelopment'
p42
F0.0078877803359799995
sS'childfree'
p43
F0.024492173648799999
sS'AnimalCrossing'
p44
F0.015890026237000001
sS'food'
p45
F0.0137545185918
sS'recipes'
p46
F0.0178477690289
sS'horror'
p47
F0.0083750383004799998
sS'UnresolvedMysteries'
p48
F0.0088315217391300004
sS'BDSMcommunity'
p49
F0.0080787110168299998
sS'PandR'
p50
F0.0099897645854700005
sS'geek'
p51
F0.0073939025625399998
sS'xxketo'
p52
F0.019199307092699999
sS'tipofmytongue'
p53
F0.011271359537700001
sS'rupaulsdragrace'
p54
F0.0120538436283
sS'NoStupidQuestions'
p55
F0.011498091603100001
sS'wedding'
p56
F0.017705276769300001
sS'makeupexchange'
p57
F0.036580267558500003
sS'beards'
p58
F0.012812268117700001
sS'PrettyGirlsUglyFaces'
p59
F0.0146889952153
sS'OkCupid'
p60
F0.0107575608314
sS'Rabbits'
p61
F0.0153838543728
sS'AbandonedPorn'
p62
F0.0107730306374
sS'Art'
p63
F0.0102097483874
sS'creepyPMs'
p64
F0.028239540440199998
sS'actuallesbians'
p65
F0.012949856949300001
sS'Celebs'
p66
F0.0080859128237499994
sS'vegan'
p67
F0.0090964451549099996
sS'freebies'
p68
F0.018523282737300001
sS'redditgetsdrawn'
p69
F0.0209243908566
sS'CrappyDesign'
p70
F0.012954486570500001
sS'hardbodies'
p71
F0.0072066629266800001
sS'AdviceAnimals'
p72
F0.0084920423930599995
sS'futurama'
p73
F0.0088331479046599992
sS'SubredditDrama'
p74
F0.011863167303200001
sS'minimalism'
p75
F0.00864587329222
sS'corgi'
p76
F0.014031931639299999
sS'ArcherFX'
p77
F0.0070091151403499996
sS'cringe'
p78
F0.0085984255235300004
sS'depression'
p79
F0.0096583343165799994
sS'YouShouldKnow'
p80
F0.0127140086025
sS'mildlyinteresting'
p81
F0.011288715860199999
sS'gardening'
p82
F0.0173522988845
sS'whatisthisthing'
p83
F0.0151058539893
sS'AskWomen'
p84
F0.030712719947900001
sS'NetflixBestOf'
p85
F0.0114671312325
sS'Cumberbitches'
p86
F0.011237256719199999
sS'TheSimpsons'
p87
F0.00740929182434
sS'TrollXChromosomes'
p88
F0.055045455918299999
sS'Rateme'
p89
F0.0088208085023999995
sS'sex'
p90
F0.014370944563000001
sS'tumblr'
p91
F0.0197799442024
sS'interestingasfuck'
p92
F0.012475368030600001
sS'books'
p93
F0.0089863207666400005
sS'changemyview'
p94
F0.0070859898913199996
sS'TwoXChromosomes'
p95
F0.0258822150429
sS'fatpeoplestories'
p96
F0.017061985304999999
sS'knitting'
p97
F0.026778014796000001
sS'LongDistance'
p98
F0.010696745192700001
sS'amiugly'
p99
F0.0091256204658300005
sS'Cinemagraphs'
p100
F0.0072436676324900001
sS'firstworldanarchists'
p101
F0.010750656168
sS'offbeat'
p102
F0.0112842557765
sS'gameofthrones'
p103
F0.0100172623451
sS'DunderMifflin'
p104
F0.0085311291423399993
sS'Glitch_in_the_Matrix'
p105
F0.0074228365839800001
sS'AMA'
p106
F0.0076426981248999999
sS'shittyfoodporn'
p107
F0.019913526868399999
sS'InteriorDesign'
p108
F0.0143595131775
sS'ExpectationVsReality'
p109
F0.022990448820900001
sS'breakingbad'
p110
F0.0091520188944900008
sS'firstworldproblems'
p111
F0.0126700786419
sS'LearnUselessTalents'
p112
F0.0073229379189699998
sS'AskCulinary'
p113
F0.0123942625965
sS'RoomPorn'
p114
F0.0143016833246
sS'foodhacks'
p115
F0.0132308242446
sS'lifehacks'
p116
F0.0153139356815
sS'memes'
p117
F0.00712965407975
sS'Baking'
p118
F0.0321989082224
sS'disney'
p119
F0.022211043609499999
sS'Paranormal'
p120
F0.0076060233558700001
sS'tattoos'
p121
F0.023789161357900001
sS'blackpeoplegifs'
p122
F0.0075402218227999997
sS'bestof'
p123
F0.0077055821636499997
sS'jobs'
p124
F0.0078724321218200007
sS'Indiemakeupandmore'
p125
F0.038341853745299997
sS'tonightsdinner'
p126
F0.0080989626671100004
sS'casualiama'
p127
F0.0117391370892
sS'OnceUponATime'
p128
F0.0100374369269
sS'LetsNotMeet'
p129
F0.012635508651000001
sS'legaladvice'
p130
F0.0070141517196
sS'loseit'
p131
F0.025372954970699999
sS'Random_Acts_Of_Pizza'
p132
F0.0078550965714799994
sS'PolishGauntlet'
p133
F0.028195611121999999
sS'Frugal'
p134
F0.018472215135000001
sS'slowcooking'
p135
F0.017691659646200002
sS'LadyBoners'
p136
F0.049194937912199997
sS'gentlemanboners'
p137
F0.010624841892200001
sS'doctorwho'
p138
F0.0136567078536
sS'whatsthisplant'
p139
F0.0085255987695000007
sS'howto'
p140
F0.0075702075702099997
sS'bigboobproblems'
p141
F0.028797773257699999
sS'Unexpected'
p142
F0.011009148447300001
sS'LifeProTips'
p143
F0.0115885252117
sS'ThriftStoreHauls'
p144
F0.018874999999999999
sS'Breadit'
p145
F0.0078587520301799992
sS'lgbt'
p146
F0.0120469451156
sS'vegetarian'
p147
F0.0103400009031
sS'TheBluePill'
p148
F0.0124521494258
sS'piercing'
p149
F0.026667300470600001
sS'relationship_advice'
p150
F0.0118986600278
sS'pics'
p151
F0.0074123391908500003
sS'Hair'
p152
F0.0241610738255
sS'nosleep'
p153
F0.00784392852189
sS'Stretched'
p154
F0.0077799891442000002
sS'howtonotgiveafuck'
p155
F0.0071939845275099997
sS'wheredidthesodago'
p156
F0.0117718580745
sS'AnimalsBeingBros'
p157
F0.0131270511017
sS'neopets'
p158
F0.011798958014100001
sS'MakeupAddicts'
p159
F0.045734435029700003
sS'thewalkingdead'
p160
F0.0095669154266500005
sS'Dachshund'
p161
F0.0077471509571699999
sS'whatsthisbug'
p162
F0.011664689600599999
sS'QuotesPorn'
p163
F0.0089204442017100007
sS'weddingplanning'
p164
F0.027319503430299999
sS'itookapicture'
p165
F0.0135899046423
sS'TrueReddit'
p166
F0.00729660005391
sS'drunk'
p167
F0.0113085209578
sS'xxfitness'
p168
F0.032675120986300002
sS'Assistance'
p169
F0.0096771634806100005
sS'confession'
p170
F0.015088692068
sS'reactiongifs'
p171
F0.0139523569579
sS'Paleo'
p172
F0.0096308802087299999
sS'community'
p173
F0.0074336546324099998
sS'findareddit'
p174
F0.0078897136797500007
sS'RandomKindness'
p175
F0.0103862812693
sS'TheWayWeWere'
p176
F0.0074800363893699996
sS'ADHD'
p177
F0.0077969894957199996
sS'RATS'
p178
F0.011056311310999999
sS'tifu'
p179
F0.0083696411689800007
sS'femalefashionadvice'
p180
F0.056474171691400003
sS'BeautyBoxes'
p181
F0.037768771811299999
sS'ainbow'
p182
F0.0087854361017999996
sS'CrossStitch'
p183
F0.0162733475003
sS'HIMYM'
p184
F0.010185185185200001
sS'FiftyFifty'
p185
F0.0072619519626100004
sS'CrazyIdeas'
p186
F0.0088760205050300005
sS'OldSchoolCool'
p187
F0.0106268136396
sS'OutOfTheLoop'
p188
F0.0097602142843999998
sS'EatCheapAndHealthy'
p189
F0.022529199027699998
sS'AustralianMakeup'
p190
F0.012065903105300001
sS'MorbidReality'
p191
F0.0155980561216
sS'gif'
p192
F0.0082227621005399997
sS'cats'
p193
F0.031658308037499999
sS'PenmanshipPorn'
p194
F0.026643561139400002
sS'catpictures'
p195
F0.016862981979300001
sS'firstimpression'
p196
F0.0109969429348
sS'ketorecipes'
p197
F0.017359794379099999
sS'raisedbynarcissists'
p198
F0.021256931608100001
sS'Pareidolia'
p199
F0.0118072672338
sS'dogs'
p200
F0.016927195785500001
sS'happy'
p201
F0.017896227629700001
sS'fatlogic'
p202
F0.016945795462
sS'TrollYChromosome'
p203
F0.0239119151776
sS'Cooking'
p204
F0.018966372383700001
sS'misleadingthumbnails'
p205
F0.0096841417071899995
sS'FloridaMan'
p206
F0.0074134479946600003
sS'MakeupAddiction'
p207
F0.096616048506000002
sS'batman'
p208
F0.0071389940508399998
sS'snackexchange'
p209
F0.0129850054104
sS'mildlyinfuriating'
p210
F0.017921866014000001
sS'breakingmom'
p211
F0.010938337801599999
sS'somethingimade'
p212
F0.024521178956099999
sS'namenerds'
p213
F0.0101982023508
sS'keto'
p214
F0.017829669750700002
sS'parrots'
p215
F0.0074721169166499998
sS'ladybonersgw'
p216
F0.011611127890199999
sS'Awwducational'
p217
F0.0198446586149
sS'TheGirlSurvivalGuide'
p218
F0.053607467204800002
sS'AskMen'
p219
F0.012259964416499999
sS'ghettoglamourshots'
p220
F0.014589576067200001
sS'blunderyears'
p221
F0.022152200897499998
sS'bettafish'
p222
F0.0078038553374899997
sS'Random_Acts_Of_Amazon'
p223
F0.017734115845900001
sS'rage'
p224
F0.013519456927
sS'comics'
p225
F0.010574921151900001
sS'braswap'
p226
F0.0077220077220099999
sS'popping'
p227
F0.0232462651211
sS'Perfectfit'
p228
F0.0072506998302099999
sS'PerfectTiming'
p229
F0.0097761770002600008
sS'behindthegifs'
p230
F0.0081454883968300005
sS'standupshots'
p231
F0.0119276117357
sS'introvert'
p232
F0.0071766069359000002
sS'lookatmydog'
p233
F0.011073159982400001
sS'fitmeals'
p234
F0.0122917604683
sS'ICanDrawThat'
p235
F0.0081000810008099999
sS'C25K'
p236
F0.010761589404
sS'nursing'
p237
F0.0077144291778899997
sS'pugs'
p238
F0.0094812260949199995
sS'FoodPorn'
p239
F0.020433269899899999
sS'bisexual'
p240
F0.0072001945998499996
sS'sushi'
p241
F0.0074161469745499999
sS'teenagers'
p242
F0.010048825646200001
sS'Anxiety'
p243
F0.0149772748071
sS'DIY'
p244
F0.0110895330054
sS'AmericanHorrorStory'
p245
F0.016955310645499998
sS'tea'
p246
F0.015653066461399998
sS'RandomActsOfPolish'
p247
F0.060463639250599999
sS'Dogtraining'
p248
F0.0109241760774
sS'ShitRedditSays'
p249
F0.0071349434965699999
sS'shorthairedhotties'
p250
F0.0116142885028
sS'Damnthatsinteresting'
p251
F0.010474024419399999
sS'shutupandtakemymoney'
p252
F0.0095016482451000008
sS'TalesFromYourServer'
p253
F0.015189346649999999
sS'asmr'
p254
F0.0078729376326399994
sS'MURICA'
p255
F0.0082079343365300001
sS'eatsandwiches'
p256
F0.0076851534583200001
sS'travel'
p257
F0.0078256008943500006
sS'pitbulls'
p258
F0.0130234326727
sS'Parenting'
p259
F0.015951432925300001
sS'transpassing'
p260
F0.010387060100299999
sS'Feminism'
p261
F0.0096691018478699993
sS'britishproblems'
p262
F0.0093429470904799992
sS'BeardPorn'
p263
F0.0094984802431599992
sS'nottheonion'
p264
F0.0070044906567900004
sS'nyc'
p265
F0.0082813967386700001
sS'nonononoyes'
p266
F0.0077636568617400004
sS'yoga'
p267
F0.010997396534700001
sS'Whatcouldgowrong'
p268
F0.0081548994810500004
sS'Sherlock'
p269
F0.0102430428078
sS'firefly'
p270
F0.0083513146327800006
sS'canada'
p271
F0.00843152657764
sS'mylittlepony'
p272
F0.0071124256188199999
sS'notinteresting'
p273
F0.011048220311300001
sS'facepalm'
p274
F0.018862584726000001
sS'forwardsfromgrandma'
p275
F0.0112863652296
sS'aww'
p276
F0.0131527326612
sS'UpliftingNews'
p277
F0.0088355559208500006
sS'birthcontrol'
p278
F0.013404825737299999
sS'sewing'
p279
F0.028285067219199999
sS'budgetfood'
p280
F0.012419949543999999
sS'Mommit'
p281
F0.0157876034316
sS'tattoo'
p282
F0.0090810383970000002
sS'running'
p283
F0.0086952731710500004
sS'BabyBumps'
p284
F0.0209077776933
sS'trees'
p285
F0.0076583135578499996
sS'progresspics'
p286
F0.026298571096900002
sS'crochet'
p287
F0.032842124180099998
sS'dogpictures'
p288
F0.019533051096099999
sS'cosplay'
p289
F0.016027597997300001
sS'delusionalartists'
p290
F0.0140715364497
sS'beyondthebump'
p291
F0.013106416275400001
sS'thesims'
p292
F0.023501089074899999
sS'oddlysatisfying'
p293
F0.0155709078709
sS'MapPorn'
p294
F0.0076514653277899997
sS'AsianBeauty'
p295
F0.024998650180900001
sS'GirlGamers'
p296
F0.023940313191800001
sS'cosplaygirls'
p297
F0.00797587397326
sS'HumanPorn'
p298
F0.013036047851800001
sS'GetMotivated'
p299
F0.00842921814581
sS'atheism'
p300
F0.0071975173238900004
sS'PrettyGirls'
p301
F0.0074990626171699999
sS'TumblrInAction'
p302
F0.0120418428259
sS'thatHappened'
p303
F0.014017721168500001
sS'crafts'
p304
F0.033586079517800002
sS'stopsmoking'
p305
F0.00700366662547
sS'tall'
p306
F0.012399757396100001
sS'ImGoingToHellForThis'
p307
F0.00737040573961
sS'self'
p308
F0.0128239924006
sS'sailormoon'
p309
F0.013696275071599999
s.