(dp1
S'inthenews'
p2
F0.0114079285103
sS'AndroidGaming'
p3
F0.0072479102740500003
sS'KitchenConfidential'
p4
F0.0081527726771899994
sS'BuyItForLife'
p5
F0.0132828760643
sS'SampleSize'
p6
F0.010659560293099999
sS'everymanshouldknow'
p7
F0.016614008307000001
sS'askphilosophy'
p8
F0.0094195519348299998
sS'AskMen'
p9
F0.0076536091798099998
sS'syriancivilwar'
p10
F0.0085452900372000005
sS'duolingo'
p11
F0.0078672270718799994
sS'HistoryPorn'
p12
F0.017995026828900001
sS'holdmybeer'
p13
F0.013636912184699999
sS'ImaginaryMonsters'
p14
F0.0112604431529
sS'seinfeld'
p15
F0.0076497695852500002
sS'dwarffortress'
p16
F0.0085211654755400004
sS'YouShouldKnow'
p17
F0.020617729642999998
sS'UpliftingNews'
p18
F0.0096507707748900006
sS'PandR'
p19
F0.0081035069799100003
sS'3amjokes'
p20
F0.0089786756453400004
sS'Military'
p21
F0.0083550090643999993
sS'magicskyfairy'
p22
F0.0086814975583300001
sS'photoshopbattles'
p23
F0.0087561440734899992
sS'IWantToLearn'
p24
F0.018055687541599998
sS'CrappyDesign'
p25
F0.015791638108300001
sS'NewsOfTheWeird'
p26
F0.010655634950500001
sS'Cyberpunk'
p27
F0.013050093633
sS'Libertarian'
p28
F0.0092169216921699996
sS'Anarcho_Capitalism'
p29
F0.0087719298245599996
sS'pcgaming'
p30
F0.0072924238516200003
sS'EatCheapAndHealthy'
p31
F0.0115409889929
sS'tea'
p32
F0.0090856229103100008
sS'blackpeoplegifs'
p33
F0.0114109483423
sS'polandball'
p34
F0.014173874613300001
sS'SelfDrivingCars'
p35
F0.0084639933398100008
sS'fatpeoplestories'
p36
F0.0074794555726800001
sS'OneY'
p37
F0.011994813053799999
sS'forwardsfromgrandma'
p38
F0.0146422273286
sS'no_sob_story'
p39
F0.0127361036158
sS'findareddit'
p40
F0.015715225495199998
sS'skeptic'
p41
F0.0179557347928
sS'boardgames'
p42
F0.0071828710863700001
sS'socialskills'
p43
F0.0096261364188800005
sS'DebateReligion'
p44
F0.0087549391802899997
sS'Anticonsumption'
p45
F0.0103067782224
sS'GuessTheMovie'
p46
F0.0073860911270999998
sS'vexillology'
p47
F0.0216661803327
sS'Economics'
p48
F0.0135305634109
sS'ExposurePorn'
p49
F0.0098710039259700001
sS'malelivingspace'
p50
F0.0093529461780499992
sS'answers'
p51
F0.024899767883499999
sS'netsec'
p52
F0.0086397715101699992
sS'lgbt'
p53
F0.0094437525944400004
sS'gentlemanboners'
p54
F0.0087696057651500004
sS'doctorwho'
p55
F0.0075923935896800004
sS'TopGear'
p56
F0.0092119163321400001
sS'ThriftStoreHauls'
p57
F0.010389250588699999
sS'Breadit'
p58
F0.0086095566078300007
sS'WarshipPorn'
p59
F0.0103258145363
sS'vegetarian'
p60
F0.0072457934143800003
sS'IWantOut'
p61
F0.0095245181933199998
sS'whatsthisbug'
p62
F0.0091045571214099993
sS'QuotesPorn'
p63
F0.015942658557799999
sS'hiking'
p64
F0.0070185033269499998
sS'AmIFreeToGo'
p65
F0.0074187213615499997
sS'AntiJokes'
p66
F0.0086479449507200004
sS'KingOfTheHill'
p67
F0.0072511535926199997
sS'IdiotsFightingThings'
p68
F0.0158596152686
sS'Health'
p69
F0.0073355418835800001
sS'Firearms'
p70
F0.0086759418477399992
sS'gamernews'
p71
F0.011211346925999999
sS'ContagiousLaughter'
p72
F0.0127009554322
sS'graphic_design'
p73
F0.0080093647957599993
sS'environment'
p74
F0.014834205933700001
sS'FiftyFifty'
p75
F0.0084289578026900003
sS'eldertrees'
p76
F0.0082449941107199994
sS'AskHistorians'
p77
F0.0190703218117
sS'OutOfTheLoop'
p78
F0.017569941884
sS'ifyoulikeblank'
p79
F0.0141355140187
sS'misleadingthumbnails'
p80
F0.0144878015445
sS'WebGames'
p81
F0.014774745680600001
sS'musictheory'
p82
F0.0081247047709
sS'Pareidolia'
p83
F0.0147796080474
sS'tipofmytongue'
p84
F0.0091961178234900003
sS'ftlgame'
p85
F0.0088226571767499994
sS'LifeProTips'
p86
F0.0085867740852600006
sS'Shitty_Car_Mods'
p87
F0.0085230189970899994
sS'NeutralPolitics'
p88
F0.0152284263959
sS'ghettoglamourshots'
p89
F0.0078468005604899992
sS'EDC'
p90
F0.0087411830888399992
sS'techsupportgore'
p91
F0.0118827567996
sS'science'
p92
F0.0087956968393699993
sS'firstworldproblems'
p93
F0.0142356745105
sS'Glitch_in_the_Matrix'
p94
F0.0072825759855600003
sS'standupshots'
p95
F0.015358041380299999
sS'Meditation'
p96
F0.0093133568577499996
sS'history'
p97
F0.0131712003236
sS'TalesFromThePizzaGuy'
p98
F0.0072108162243399998
sS'AskScienceFiction'
p99
F0.013513513513500001
sS'NewsOfTheStupid'
p100
F0.012754222681799999
sS'awesome'
p101
F0.0144613871126
sS'DecidingToBeBetter'
p102
F0.010706482155899999
sS'gadgets'
p103
F0.0070558367266199996
sS'learnprogramming'
p104
F0.00730471079308
sS'Infographics'
p105
F0.0172612197929
sS'TalesFromYourServer'
p106
F0.0072790294627400002
sS'counting'
p107
F0.0086014390869199996
sS'CampingandHiking'
p108
F0.0087391447729999999
sS'SRSsucks'
p109
F0.00884760008848
sS'HouseOfCards'
p110
F0.0086196854979599998
sS'asmr'
p111
F0.0086548864046199995
sS'techsupportmacgyver'
p112
F0.012395363812
sS'MURICA'
p113
F0.0093269009878200002
sS'travel'
p114
F0.0090581363511900003
sS'scifi'
p115
F0.0147239671619
sS'spaceporn'
p116
F0.016674413200100002
sS'nyc'
p117
F0.00812334871249
sS'Pizza'
p118
F0.0084745762711900003
sS'wheredidthesodago'
p119
F0.0144108612386
sS'BasicIncome'
p120
F0.012567998499299999
sS'askscience'
p121
F0.010361603882199999
sS'philosophy'
p122
F0.0087750892243199999
sS'budgetfood'
p123
F0.0086167384728200007
sS'Images'
p124
F0.0100257542311
sS'wallpapers'
p125
F0.0111455892597
sS'law'
p126
F0.0080992153885100001
sS'MachinePorn'
p127
F0.0154149489156
sS'futurebeats'
p128
F0.0075154065834999997
sS'eFreebies'
p129
F0.00746268656716
sS'FanTheories'
p130
F0.013370405201
sS'listentothis'
p131
F0.0091089194194400001
sS'tall'
p132
F0.0072872473171900001
sS'cableporn'
p133
F0.0079403272377299994
sS'DoesAnybodyElse'
p134
F0.0086430641300200006
sS'pettyrevenge'
p135
F0.0097619284789299994
sS'CityPorn'
p136
F0.015415391856899999
sS'DeepIntoYouTube'
p137
F0.0140294894366
sS'dataisbeautiful'
p138
F0.014532520325200001
sS'MLPLounge'
p139
F0.0075059382422800001
sS'spotify'
p140
F0.0071895424836600002
sS'badlinguistics'
p141
F0.0117361392149
sS'nostalgia'
p142
F0.0103537227464
sS'Documentaries'
p143
F0.0105691563363
sS'writing'
p144
F0.0095737622041800006
sS'AndroidQuestions'
p145
F0.0070992900709899998
sS'wallpaper'
p146
F0.0097311956608400006
sS'TheRedLion'
p147
F0.0074518062530399996
sS'MensRights'
p148
F0.0087412587412599996
sS'MilitaryPorn'
p149
F0.0120836628878
sS'Frisson'
p150
F0.017852555869499999
sS'GunsAreCool'
p151
F0.0091144062032399997
sS'NoStupidQuestions'
p152
F0.014720099797300001
sS'IndieGaming'
p153
F0.0075356175674099997
sS'grammar'
p154
F0.0086287313432800005
sS'creepyPMs'
p155
F0.0084731792555500004
sS'WatchItForThePlot'
p156
F0.0086290645179700007
sS'freebies'
p157
F0.0125756503969
sS'PropagandaPosters'
p158
F0.026756478622899999
sS'mashups'
p159
F0.0078559449201199994
sS'shittyadviceanimals'
p160
F0.0071428571428599997
sS'SubredditDrama'
p161
F0.016567725914700002
sS'minimalism'
p162
F0.012491152100600001
sS'economy'
p163
F0.0087270538669900009
sS'gamemusic'
p164
F0.0082574031890699992
sS'TrueAtheism'
p165
F0.0140795904119
sS'badhistory'
p166
F0.023517219387799999
sS'energy'
p167
F0.010696790962700001
sS'Anarchism'
p168
F0.0114376489277
sS'Cinemagraphs'
p169
F0.0165246129762
sS'canada'
p170
F0.00738139300135
sS'psychology'
p171
F0.015099853872399999
sS'space'
p172
F0.0110782865583
sS'shittyfoodporn'
p173
F0.010843334727600001
sS'LearnUselessTalents'
p174
F0.020954130547099999
sS'RoomPorn'
p175
F0.0134737045444
sS'Astronomy'
p176
F0.0131562992603
sS'math'
p177
F0.0087291834399800001
sS'LetsTalkMusic'
p178
F0.0113592606854
sS'bestof'
p179
F0.0123830489818
sS'Roadcam'
p180
F0.0108336859924
sS'GamePhysics'
p181
F0.0137315270936
sS'youtubehaiku'
p182
F0.0138315137209
sS'PoliticalHumor'
p183
F0.0142056436026
sS'recipes'
p184
F0.0102496714849
sS'privacy'
p185
F0.0085270021735499996
sS'programming'
p186
F0.0083240178856599997
sS'howtonotgiveafuck'
p187
F0.0090271937202100003
sS'whatstheword'
p188
F0.015928671608899998
sS'classicalmusic'
p189
F0.010301353013500001
sS'misc'
p190
F0.0183556825676
sS'patientgamers'
p191
F0.013937808191599999
sS'Buddhism'
p192
F0.0086383601757000009
sS'OldSchoolCool'
p193
F0.0076960918283699997
sS'lego'
p194
F0.0082312630459600005
sS'ANormalDayInRussia'
p195
F0.0158274342193
sS'TheFacebookDelusion'
p196
F0.0082304526748999997
sS'Autos'
p197
F0.0070188232076900002
sS'PenmanshipPorn'
p198
F0.0108311108692
sS'shittyreactiongifs'
p199
F0.0124890829694
sS'alternativeart'
p200
F0.011183299605899999
sS'shittyadvice'
p201
F0.0076473974179799998
sS'ObscureMedia'
p202
F0.015158636897800001
sS'CombatFootage'
p203
F0.010524383528099999
sS'TrollYChromosome'
p204
F0.0110478359909
sS'collapse'
p205
F0.0103626943005
sS'mildlyinfuriating'
p206
F0.0118840314056
sS'madmen'
p207
F0.0082682590721199992
sS'Psychonaut'
p208
F0.0071640918173400004
sS'POLITIC'
p209
F0.0076789188082300001
sS'worldpolitics'
p210
F0.013815415555499999
sS'typography'
p211
F0.0094136327549100007
sS'nononono'
p212
F0.016478792510499999
sS'KerbalSpaceProgram'
p213
F0.0086084412870900007
sS'gallifrey'
p214
F0.0099071593245699998
sS'FoodPorn'
p215
F0.0089642131801900005
sS'conspiracy'
p216
F0.0090554169829700007
sS'AnythingGoesNews'
p217
F0.012736490664
sS'DaystromInstitute'
p218
F0.0083980684442600002
sS'HighQualityGifs'
p219
F0.0137006374093
sS'self'
p220
F0.015620000581800001
sS'britishproblems'
p221
F0.0092173678168699993
sS'lockpicking'
p222
F0.0074947782282799996
sS'conspiratard'
p223
F0.0182661155178
sS'FutureWhatIf'
p224
F0.0146068697934
sS'firefly'
p225
F0.010120925341699999
sS'MovieSuggestions'
p226
F0.011173184357499999
sS'badphilosophy'
p227
F0.0114077974176
sS'Futurology'
p228
F0.010973070982499999
sS'germany'
p229
F0.0070164496764600001
sS'EnoughLibertarianSpam'
p230
F0.0142531356899
sS'Gaming4Gamers'
p231
F0.0096402003947199996
sS'windows'
p232
F0.0076421510201200001
sS'TumblrInAction'
p233
F0.0093649098884700001
sS'HailCorporate'
p234
F0.0135260799729
sS'Heavymind'
p235
F0.0125170504694
sS'Awwducational'
p236
F0.016978609625700001
sS'adventuretime'
p237
F0.0076712138567799999
sS'PanicHistory'
p238
F0.0127928704902
sS'fffffffuuuuuuuuuuuu'
p239
F0.00743379278303
sS'PoliticalDiscussion'
p240
F0.016159407083399999
sS'spacex'
p241
F0.00801397308127
sS'Foodforthought'
p242
F0.032501843204700002
sS'languagelearning'
p243
F0.010857272110399999
sS'TheoryOfReddit'
p244
F0.025662599915899999
sS'TheBluePill'
p245
F0.012166012166000001
sS'printSF'
p246
F0.0092555732484100005
sS'French'
p247
F0.00742549079443
sS'harrypotter'
p248
F0.0074279603456700004
sS'wicked_edge'
p249
F0.00776589179181
sS'booksuggestions'
p250
F0.0100773504739
sS'shittybattlestations'
p251
F0.0074463007159900002
sS'whowouldwin'
p252
F0.0094108582592700007
sS'ProgrammerHumor'
p253
F0.011530555973299999
sS'beatles'
p254
F0.0081135902636900008
sS'arresteddevelopment'
p255
F0.010861588140299999
sS'shutupandtakemymoney'
p256
F0.015731939163499999
sS'CrusaderKings'
p257
F0.0072390144780300003
sS'JusticePorn'
p258
F0.0090586021879999999
sS'geek'
p259
F0.0161323189784
sS'lostgeneration'
p260
F0.0113764573148
sS'spicy'
p261
F0.0070921985815599999
sS'Conservative'
p262
F0.0075132753361199997
sS'AbandonedPorn'
p263
F0.014362720760300001
sS'progressive'
p264
F0.013555463576199999
sS'dadjokes'
p265
F0.011468470749999999
sS'progun'
p266
F0.0075511274252799999
sS'WeAreTheMusicMakers'
p267
F0.0072248051643999996
sS'thatHappened'
p268
F0.0100740003731
sS'futurama'
p269
F0.010478589420700001
sS'architecture'
p270
F0.0077001184633600003
sS'whitepeoplegifs'
p271
F0.0119731015253
sS'cringe'
p272
F0.0079829266885900006
sS'StarWars'
p273
F0.0076376134276500002
sS'TheSimpsons'
p274
F0.010468294038599999
sS'Christianity'
p275
F0.0073613986657500002
sS'Justrolledintotheshop'
p276
F0.0092880107718899992
sS'AskScienceDiscussion'
p277
F0.0107307651036
sS'changemyview'
p278
F0.015882481563200001
sS'KarmaCourt'
p279
F0.0100934579439
sS'againstmensrights'
p280
F0.0084745762711900003
sS'firstworldanarchists'
p281
F0.012701100762099999
sS'PerfectTiming'
p282
F0.016377194638500001
sS'truegaming'
p283
F0.0144449155109
sS'lotr'
p284
F0.0091833387996100007
sS'wikipedia'
p285
F0.028042580235099999
sS'breakingbad'
p286
F0.0089595797461
sS'outside'
p287
F0.0153164616617
sS'AskCulinary'
p288
F0.0119750186214
sS'foodhacks'
p289
F0.013136029120800001
sS'europe'
p290
F0.0143340691685
sS'StandUpComedy'
p291
F0.011485826002
sS'linguistics'
p292
F0.0158649359464
sS'tonightsdinner'
p293
F0.00800776510556
sS'casualiama'
p294
F0.0104205968487
sS'facepalm'
p295
F0.009504159085
sS'NotTimAndEric'
p296
F0.0135531135531
sS'gamingsuggestions'
p297
F0.0078475336322900002
sS'Unexpected'
p298
F0.012969786293299999
sS'fitmeals'
p299
F0.0085524738230400004
sS'itookapicture'
p300
F0.011560921717200001
sS'Sherlock'
p301
F0.0097820490818600007
sS'ukpolitics'
p302
F0.0080441277867199998
sS'GunPorn'
p303
F0.0084564714260299996
sS'GetMotivated'
p304
F0.0070397232018099996
sS'drunk'
p305
F0.0083372873313899993
sS'reactiongifs'
p306
F0.0089995656033400005
sS'community'
p307
F0.010070526488400001
sS'startrek'
p308
F0.0098338419803300006
sS'rpg'
p309
F0.0082398912674099996
sS'linux'
p310
F0.0082397003745299999
sS'ainbow'
p311
F0.013804933834300001
sS'chrome'
p312
F0.0078496490301200005
sS'Homebrewing'
p313
F0.0071369425495799999
sS'beer'
p314
F0.00956658156203
sS'California'
p315
F0.0089728011963700009
sS'ireland'
p316
F0.0071209465381200003
sS'fatlogic'
p317
F0.0079596194913600007
sS'androidapps'
p318
F0.0073676506465000001
sS'somethingimade'
p319
F0.0129990237887
sS'MapPorn'
p320
F0.017270526760700001
sS'aviation'
p321
F0.0087745243024699993
sS'Perfectfit'
p322
F0.0109595917343
sS'offbeat'
p323
F0.023426016658499998
sS'Musicthemetime'
p324
F0.0076164099013300004
sS'softwaregore'
p325
F0.010992785984200001
sS'socialism'
p326
F0.015835034133300001
sS'Ask_Politics'
p327
F0.0153363541304
sS'Cooking'
p328
F0.010347934065399999
sS'IASIP'
p329
F0.0081982036289099999
sS'hardware'
p330
F0.0083897158322099995
sS'ShitRedditSays'
p331
F0.0092599858746000002
sS'southpark'
p332
F0.0076995034899600004
sS'astrophotography'
p333
F0.0074939172749399997
sS'Jazz'
p334
F0.0087621338373000002
sS'daddit'
p335
F0.0079125595118400005
sS'Design'
p336
F0.011998588401399999
sS'Whatcouldgowrong'
p337
F0.0132891291024
sS'fifthworldproblems'
p338
F0.010854816825
sS'talesfromtechsupport'
p339
F0.010223218369800001
sS'literature'
p340
F0.012446985063599999
sS'notinteresting'
p341
F0.010890905723300001
sS'AnimalsBeingJerks'
p342
F0.0131339591065
sS'Physics'
p343
F0.013330026660100001
sS'TrueFilm'
p344
F0.0140201890723
sS'HumanPorn'
p345
F0.018513689700099999
sS'Fantasy'
p346
F0.0088473926692999999
sS'AskEngineers'
p347
F0.0086950705638399999
sS'awwwtf'
p348
F0.013358268768399999
sS'Piracy'
p349
F0.0073605737472900003
sS'circlebroke'
p350
F0.021046018533100001
sS'PublicFreakout'
p351
F0.0096986327293400003
sS'ArtisanVideos'
p352
F0.014517556801399999
sS'rickandmorty'
p353
F0.0087585339561600008
sS'quotes'
p354
F0.014026541239699999
sS'woodworking'
p355
F0.0076353020435700001
sS'perfectloops'
p356
F0.0153093324013
sS'InternetIsBeautiful'
p357
F0.0122347720234
sS'TalesFromRetail'
p358
F0.00788969178587
sS'TrueReddit'
p359
F0.025333880744799999
sS'WouldYouRather'
p360
F0.0083050207625500003
sS'quityourbullshit'
p361
F0.0134592127336
sS'ProtectAndServe'
p362
F0.00799644602399
sS'woahdude'
p363
F0.0108363579393
sS'confession'
p364
F0.0082557358164499998
sS'slowcooking'
p365
F0.0097666561081199994
sS'UnresolvedMysteries'
p366
F0.0085331166192599995
sS'howto'
p367
F0.017631381124900002
sS'cringepics'
p368
F0.0071109983441100004
sS'toosoon'
p369
F0.0122209963507
sS'Liberal'
p370
F0.010054412112599999
sS'bodyweightfitness'
p371
F0.0082279860505699992
sS'4chan'
p372
F0.0080216293515699994
sS'compsci'
p373
F0.0086583184257600001
sS'Enhancement'
p374
F0.013154288846300001
sS'zombies'
p375
F0.0074984741477000004
sS'ArcherFX'
p376
F0.010525802836100001
sS'getdisciplined'
p377
F0.0089595375722499992
sS'google'
p378
F0.0089700247915299996
sS'gardening'
p379
F0.0091445911588600003
sS'whatisthisthing'
p380
F0.0153821318205
sS'glitch_art'
p381
F0.0124641408646
sS'NetflixBestOf'
p382
F0.013998028446700001
sS'circlebroke2'
p383
F0.0099765258215999998
sS'ShouldIbuythisgame'
p384
F0.00749178981938
sS'tumblr'
p385
F0.0095759843221099993
sS'interestingasfuck'
p386
F0.014744673655699999
sS'MarkMyWords'
p387
F0.011704312115000001
sS'Coffee'
p388
F0.0082204155374900004
sS'gameofthrones'
p389
F0.0074557833197700001
sS'humor'
p390
F0.021109955332599999
sS'AMA'
p391
F0.0075181293473399998
sS'ExpectationVsReality'
p392
F0.0144302185754
sS'nonononoyes'
p393
F0.015508684863500001
sS'religion'
p394
F0.0073439412484700003
sS'lifehacks'
p395
F0.012565251536000001
sS'SCP'
p396
F0.0083415651410399996
sS'biology'
p397
F0.0095171230205199995
sS'business'
p398
F0.0089911556387400008
sS'FloridaMan'
p399
F0.015127528584000001
sS'delusionalartists'
p400
F0.015114073903800001
sS'Frugal'
p401
F0.010090657119799999
sS'promos'
p402
F0.0073637915569600004
sS'shittyaskscience'
p403
F0.010429802437999999
sS'whatsthisplant'
p404
F0.0071588022477099998
sS'lewronggeneration'
p405
F0.0133373488792
sS'worldbuilding'
p406
F0.0125558216297
sS'calvinandhobbes'
p407
F0.0130768581794
sS'netflix'
p408
F0.0092184779268700001
sS'sixwordstories'
p409
F0.01029644716
sS'AnimalsBeingBros'
p410
F0.014522952579400001
sS'classic4chan'
p411
F0.0104123281966
sS'Games'
p412
F0.0082090141289799991
sS'paradoxplaza'
p413
F0.0085991144195599993
sS'ShitAmericansSay'
p414
F0.011282051282099999
sS'Scotland'
p415
F0.0083875632682599999
sS'marijuanaenthusiasts'
p416
F0.0121770797769
sS'TrollXChromosomes'
p417
F0.0080647871232200005
sS'unitedkingdom'
p418
F0.0096318073638499997
sS'Damnthatsinteresting'
p419
F0.0154218710171
sS'CrazyIdeas'
p420
F0.020060619316900001
sS'TinyHouses'
p421
F0.0082382762991099999
sS'Bad_Cop_No_Donut'
p422
F0.010667251975399999
sS'MorbidReality'
p423
F0.011278467285199999
sS'gif'
p424
F0.0105126387905
sS'Ubuntu'
p425
F0.00718553815899
sS'happy'
p426
F0.0145744836678
sS'explainlikeIAmA'
p427
F0.0194379391101
sS'batman'
p428
F0.0071362883943400001
sS'occupywallstreet'
p429
F0.013395092639
sS'snackexchange'
p430
F0.0070951156812300003
sS'blunderyears'
p431
F0.0101697993281
sS'webcomics'
p432
F0.012768427161899999
sS'rage'
p433
F0.011584550805500001
sS'comics'
p434
F0.0161139654367
sS'behindthegifs'
p435
F0.016950837600000001
sS'BritishTV'
p436
F0.0106190418728
sS'civ'
p437
F0.0098059037606099998
sS'fullmoviesonyoutube'
p438
F0.015283420390800001
sS'TrueAskReddit'
p439
F0.0263592670472
sS'engineering'
p440
F0.0081402629931099993
sS'politics'
p441
F0.0078279777724100004
sS'bestofworldstar'
p442
F0.0070852675299300002
sS'AskUK'
p443
F0.0076112412177999998
sS'eatsandwiches'
p444
F0.0102713908783
sS'bicycling'
p445
F0.0083816727570099996
sS'Survival'
p446
F0.0074808303721699996
sS'AskSocialScience'
p447
F0.018183605268299999
sS'ImaginaryLandscapes'
p448
F0.0137340764331
sS'TheWayWeWere'
p449
F0.019542324827899998
sS'badtattoos'
p450
F0.0078681153990300002
sS'Feminism'
p451
F0.00873297809355
sS'nottheonion'
p452
F0.0109362180816
sS'Frugal_Jerk'
p453
F0.0098456030431899998
sS'raspberry_pi'
p454
F0.0072627693773099997
sS'comicbooks'
p455
F0.0077879874495699998
sS'cordcutters'
p456
F0.0103402268179
sS'oddlysatisfying'
p457
F0.0125662674259
sS'GirlGamers'
p458
F0.0071976007997300003
sS'entertainment'
p459
F0.0134201585504
sS'terriblefacebookmemes'
p460
F0.0085560553938400005
sS'urbanexploration'
p461
F0.011623214141600001
s.