(dp1
S'AskWomen'
p2
F0.0076290605202900003
sS'xxfitness'
p3
F0.0076448974754099999
sS'confession'
p4
F0.0075367329299899999
sS'PurplePillDebate'
p5
F0.076848059293899998
sS'FeMRADebates'
p6
F0.0155507559395
sS'OneY'
p7
F0.0146419251957
sS'Feminism'
p8
F0.0096808892075999995
sS'SRSsucks'
p9
F0.0139576767222
sS'asktrp'
p10
F0.0841337808124
sS'TheBluePill'
p11
F0.0326690936961
sS'seduction'
p12
F0.0088808664259899996
sS'raisedbynarcissists'
p13
F0.0075950373787199996
sS'askseddit'
p14
F0.0071111111111100004
sS'AskFeminists'
p15
F0.0098723404255300004
sS'MensRights'
p16
F0.015015422160499999
sS'fatlogic'
p17
F0.0079501631563300007
sS'DeadBedrooms'
p18
F0.015341457000099999
sS'BDSMcommunity'
p19
F0.0074775672981100003
sS'WhiteRights'
p20
F0.0087385166928100003
sS'lostgeneration'
p21
F0.0079279279279299997
sS'TheGirlSurvivalGuide'
p22
F0.0072236180904500001
sS'AskMen'
p23
F0.0073023207216399997
sS'short'
p24
F0.0080505325736899992
sS'TheRedPill'
p25
F0.055540566583200002
sS'howtonotgiveafuck'
p26
F0.0087775913256699992
sS'Anarcho_Capitalism'
p27
F0.0073138964031700003
s.