(dp1
S'DebateReligion'
p2
F0.0098462219271999996
sS'Sidehugs'
p3
F0.049519959575499997
sS'Judaism'
p4
F0.00933222729158
sS'Catholicism'
p5
F0.0127940569542
sS'DebateAChristian'
p6
F0.020212606677600001
sS'Christianity'
p7
F0.022190126050400001
sS'OrthodoxChristianity'
p8
F0.027749229188100001
sS'religion'
p9
F0.011365863217700001
sS'TrueChristian'
p10
F0.091196626251999993
s.