(dp1
S'climateskeptics'
p2
F0.020803647762900002
sS'MensRights'
p3
F0.0081629876534799993
sS'PoliticalDiscussion'
p4
F0.024191197901500001
sS'NewsOfTheStupid'
p5
F0.0085371860121500002
sS'TrueReddit'
p6
F0.0075212722852499997
sS'Catholicism'
p7
F0.0134608572441
sS'energy'
p8
F0.0084045004744500006
sS'AmIFreeToGo'
p9
F0.0087611435597899998
sS'ShitPoliticsSays'
p10
F0.0389321468298
sS'inthenews'
p11
F0.016067329762799998
sS'Christianity'
p12
F0.0096720851143500004
sS'POLITIC'
p13
F0.0219467008693
sS'conspiratard'
p14
F0.0098662858626500007
sS'conspiracy'
p15
F0.0079068620944700001
sS'Firearms'
p16
F0.010965128914399999
sS'politics'
p17
F0.0077212493938999998
sS'AnythingGoesNews'
p18
F0.0184535892231
sS'Veterans'
p19
F0.0077536075813100002
sS'SRSsucks'
p20
F0.0073391630231100001
sS'forwardsfromgrandma'
p21
F0.0074092368485999998
sS'Israel'
p22
F0.011675005956599999
sS'NeutralPolitics'
p23
F0.019779841761300002
sS'syriancivilwar'
p24
F0.0079419416678099992
sS'ShitRConservativeSays'
p25
F0.025007104291000001
sS'privacy'
p26
F0.0070762302991299996
sS'skeptic'
p27
F0.0082698585418899996
sS'Bad_Cop_No_Donut'
p28
F0.0108776635375
sS'Economics'
p29
F0.0132147769699
sS'ProtectAndServe'
p30
F0.0074184941758300002
sS'environment'
p31
F0.0087520259319300003
sS'religion'
p32
F0.0078963992419500001
sS'Shitstatistssay'
p33
F0.017834121186100001
sS'California'
p34
F0.0091925465838500007
sS'Conservative'
p35
F0.066760464298300001
sS'islam'
p36
F0.0073103325309799997
sS'CCW'
p37
F0.0076611086074800001
sS'texas'
p38
F0.0113726265823
sS'economy'
p39
F0.0127537026879
sS'BasicIncome'
p40
F0.0088154954060099995
sS'PanicHistory'
p41
F0.0080645161290299992
sS'Judaism'
p42
F0.0071133167907400001
sS'collapse'
p43
F0.011526479750799999
sS'PoliticalHumor'
p44
F0.018219677251400002
sS'occupywallstreet'
p45
F0.011751538892000001
sS'FloridaMan'
p46
F0.0070151306740000004
sS'Frat'
p47
F0.0075221904618599997
sS'DebateAChristian'
p48
F0.0085352077318899995
sS'TrueChristian'
p49
F0.0122734138973
sS'MURICA'
p50
F0.0084064416803099999
sS'EnoughLibertarianSpam'
p51
F0.0098977770566299993
sS'anonymous'
p52
F0.0079051383399199992
sS'conservatives'
p53
F0.069957601453700002
sS'Military'
p54
F0.0079616433535700006
sS'law'
p55
F0.011115954664299999
sS'DebateReligion'
p56
F0.0086744639376199993
sS'GunsAreCool'
p57
F0.0121535181237
sS'Liberal'
p58
F0.0338266384778
sS'TheoryOfReddit'
p59
F0.0076846449409400004
sS'progressive'
p60
F0.026365077078199999
sS'worldpolitics'
p61
F0.0130344623284
sS'Anarcho_Capitalism'
p62
F0.014569674263700001
sS'progun'
p63
F0.0264910463223
sS'gunpolitics'
p64
F0.021873009131500001
sS'socialism'
p65
F0.0098729395604400007
sS'Ask_Politics'
p66
F0.014715719063500001
sS'FutureWhatIf'
p67
F0.0085941300470199992
sS'Libertarian'
p68
F0.027178095508099999
sS'lostgeneration'
p69
F0.010749999999999999
sS'russia'
p70
F0.0078347578347600002
sS'WhiteRights'
p71
F0.011325301204799999
s.