(dp1
S'design_critiques'
p2
F0.0088703837798699992
sS'GradSchool'
p3
F0.0086258776329000003
sS'EatCheapAndHealthy'
p4
F0.0090060178460299994
sS'InteriorDesign'
p5
F0.0072120977122900002
sS'EngineeringStudents'
p6
F0.012933735969499999
sS'smallbusiness'
p7
F0.0083371577176100005
sS'DecidingToBeBetter'
p8
F0.0081034867296099992
sS'engineering'
p9
F0.0119293078056
sS'MechanicAdvice'
p10
F0.0070637533672600001
sS'everymanshouldknow'
p11
F0.0076498843622099999
sS'YouShouldKnow'
p12
F0.0085804887147900005
sS'startups'
p13
F0.0088813133578499997
sS'financialindependence'
p14
F0.0092780026990599996
sS'frugalmalefashion'
p15
F0.0072269640520799998
sS'findareddit'
p16
F0.0075684499517700001
sS'investing'
p17
F0.00797033648681
sS'freelance'
p18
F0.0083396512509500004
sS'excel'
p19
F0.0089501693275300005
sS'socialskills'
p20
F0.0091290402171200005
sS'getdisciplined'
p21
F0.0095428840716300003
sS'jobs'
p22
F0.048780487804899998
sS'business'
p23
F0.0073390414766999999
sS'learnprogramming'
p24
F0.0086256613424899996
sS'marketing'
p25
F0.0093231734648100001
sS'cscareerquestions'
p26
F0.0183582480986
sS'howto'
p27
F0.0077444336882899999
sS'Frugal'
p28
F0.00901031405725
sS'lostgeneration'
p29
F0.0098665118978500006
sS'BuyItForLife'
p30
F0.0083076102282700001
sS'IWantToLearn'
p31
F0.0097101310628499998
sS'personalfinance'
p32
F0.0078048944241200001
sS'forhire'
p33
F0.015749138719000001
sS'Entrepreneur'
p34
F0.0100763453157
sS'minimalism'
p35
F0.0074297947361799998
sS'college'
p36
F0.0088002346729199998
sS'AskEngineers'
p37
F0.010264130286
sS'IWantOut'
p38
F0.0092931139549100004
sS'RealEstate'
p39
F0.0070337477797499997
sS'malegrooming'
p40
F0.0077863197319100004
s.