(dp1
S'gamemusic'
p2
F0.0088010058292400002
sS'gamemaker'
p3
F0.0082661290322600008
sS'pcgaming'
p4
F0.0075392260054299998
sS'badhistory'
p5
F0.0076656324146700001
sS'starbound'
p6
F0.014474915070699999
sS'AskScienceFiction'
p7
F0.00716075904046
sS'linux'
p8
F0.0085958938076499992
sS'speedrun'
p9
F0.0084102229117300007
sS'patientgamers'
p10
F0.0130816360325
sS'ShouldIbuythisgame'
p11
F0.0116265880218
sS'spelunky'
p12
F0.019502228826200001
sS'incremental_games'
p13
F0.010579064588
sS'haskell'
p14
F0.0073966875703499997
sS'rpg'
p15
F0.0149882037285
sS'Pathfinder_RPG'
p16
F0.0086407444333700002
sS'gamernews'
p17
F0.0115557088651
sS'worldbuilding'
p18
F0.0130953251884
sS'Unity3D'
p19
F0.011009908917999999
sS'JRPG'
p20
F0.0101578889257
sS'DnD'
p21
F0.00837520938023
sS'netsec'
p22
F0.0072712418300700001
sS'Xcom'
p23
F0.0129530972527
sS'mountandblade'
p24
F0.010404744563500001
sS'Fantasy'
p25
F0.0070215473735000004
sS'Python'
p26
F0.0081828442437900002
sS'boardgames'
p27
F0.0111000845371
sS'unixporn'
p28
F0.0095215424898800003
sS'ImaginaryLandscapes'
p29
F0.0082932692307699993
sS'truegaming'
p30
F0.0156014736505
sS'archlinux'
p31
F0.0086693813214200003
sS'gamedev'
p32
F0.018872105476999999
sS'scifi'
p33
F0.0083169567658600008
sS'gamedesign'
p34
F0.0191455696203
sS'ImaginaryMonsters'
p35
F0.0092942829352600006
sS'emacs'
p36
F0.0077234987449300001
sS'dwarffortress'
p37
F0.0486077186126
sS'letsplay'
p38
F0.0079240762922700003
sS'SCP'
p39
F0.0098387537578599991
sS'fifthworldproblems'
p40
F0.00753608379103
sS'iosgaming'
p41
F0.0094424912104500002
sS'BasicIncome'
p42
F0.0070501342882700003
sS'PixelArt'
p43
F0.016756828077600001
sS'AndroidGaming'
p44
F0.0144739938809
sS'rpg_gamers'
p45
F0.022642514650999999
sS'CrusaderKings'
p46
F0.010198951375400001
sS'WebGames'
p47
F0.0132630984856
sS'Terraria'
p48
F0.0088051852757700007
sS'ftlgame'
p49
F0.022156828803899999
sS'vim'
p50
F0.0104011887073
sS'GameDealsMeta'
p51
F0.0105481583953
sS'linux_gaming'
p52
F0.015289488476699999
sS'Games'
p53
F0.0087875292383600007
sS'emulation'
p54
F0.0107945274256
sS'Gaming4Gamers'
p55
F0.0118743952854
sS'stalker'
p56
F0.0080299785867200008
sS'IndieGaming'
p57
F0.032421137773
sS'GamePhysics'
p58
F0.0090127278981800008
sS'bindingofisaac'
p59
F0.012349276893400001
sS'SRSGaming'
p60
F0.010594021944800001
sS'printSF'
p61
F0.0085821346549000005
sS'ProgrammerHumor'
p62
F0.0095018399516699995
sS'gamingsuggestions'
p63
F0.015464813205899999
sS'Morrowind'
p64
F0.0110339190846
sS'webcomics'
p65
F0.0072000929044199998
sS'pathofexile'
p66
F0.0071730594986399998
sS'darksouls'
p67
F0.0082296398709600007
sS'Cynicalbrit'
p68
F0.0082408874801899994
sS'prisonarchitect'
p69
F0.0081855388813099998
sS'programming'
p70
F0.0088008117454599997
sS'Shadowrun'
p71
F0.00720980533526
sS'skeptic'
p72
F0.0078944634881099995
sS'dontstarve'
p73
F0.0076099881093900004
sS'MonsterHunter'
p74
F0.0075341251551100004
sS'Cyberpunk'
p75
F0.0090406504064999994
sS'GameDeals'
p76
F0.0091944454954799998
sS'tabletopgamedesign'
p77
F0.011621572544
sS'retrogaming'
p78
F0.0077166873363599996
sS'paradoxplaza'
p79
F0.0105263157895
s.