(dp1
S'FancyFollicles'
p2
F0.010158862876300001
sS'buffy'
p3
F0.0075764934434199996
sS'gaybears'
p4
F0.0135844748858
sS'TrollXChromosomes'
p5
F0.0084710981235499999
sS'gaybrosgonemild'
p6
F0.0147758825863
sS'RandomActsofMakeup'
p7
F0.0084413889130600002
sS'femalefashionadvice'
p8
F0.00737091052424
sS'gaybros'
p9
F0.0278241917908
sS'AmericanHorrorStory'
p10
F0.030755982038499999
sS'Indiemakeupandmore'
p11
F0.0075675675675700004
sS'RedditLaqueristas'
p12
F0.0120538436283
sS'ladybonersgw'
p13
F0.0093444909344500005
sS'gaymers'
p14
F0.032112809574599999
sS'gay'
p15
F0.016231063758899999
sS'MakeupAddiction'
p16
F0.0121111408413
sS'lgbt'
p17
F0.017192674849
sS'LadyBoners'
p18
F0.0104487709539
sS'TheGirlSurvivalGuide'
p19
F0.0078200775945700008
sS'ainbow'
p20
F0.018692964380299999
sS'thesims'
p21
F0.0084633985491300006
sS'makeupexchange'
p22
F0.0079561527581300008
sS'survivor'
p23
F0.0099542425945300002
sS'askgaybros'
p24
F0.01904296875
sS'GaybrosGoneWild'
p25
F0.0146245059289
sS'MakeupAddicts'
p26
F0.010068892421800001
sS'gaymersgonewild'
p27
F0.010864978903
sS'SkincareAddiction'
p28
F0.00761482352313
sS'sailormoon'
p29
F0.010922992900099999
s.