(dp1
S'linguistics'
p2
F0.017981108455700001
sS'grammar'
p3
F0.0073476702509000002
sS'russia'
p4
F0.064955474070199998
sS'badlinguistics'
p5
F0.013602357742
sS'ChineseLanguage'
p6
F0.0083402835696400005
sS'ANormalDayInRussia'
p7
F0.017710944026699999
sS'French'
p8
F0.011773362766699999
sS'duolingo'
p9
F0.0139512508018
sS'translator'
p10
F0.012500000000000001
sS'conlangs'
p11
F0.013694878115600001
sS'PropagandaPosters'
p12
F0.0087596800812500004
sS'Spanish'
p13
F0.0099474474474500005
sS'languagelearning'
p14
F0.033047979295200001
sS'vexillology'
p15
F0.0070648683365400001
s.