(dp1
S'sanfrancisco'
p2
F0.0104662226451
sS'SanJoseSharks'
p3
F0.0081967213114800003
sS'bayarea'
p4
F0.011780336581
sS'49ers'
p5
F0.012736684375399999
sS'California'
p6
F0.039928619228199999
sS'Disneyland'
p7
F0.0072082062655899996
sS'SFGiants'
p8
F0.017586712261799999
s.