(dp1
S'kpop'
p2
F0.0080131497842599996
sS'FancyFollicles'
p3
F0.0111216398185
sS'weddingplanning'
p4
F0.0080904877857199999
sS'ABraThatFits'
p5
F0.0084176877996799994
sS'Baking'
p6
F0.0078900483583599999
sS'TheGirlSurvivalGuide'
p7
F0.010152284264
sS'buffy'
p8
F0.0088688346040100008
sS'rupaulsdragrace'
p9
F0.010922992900099999
sS'FinalFantasy'
p10
F0.0083075097250599993
sS'japan'
p11
F0.0077209237032400003
sS'femalefashionadvice'
p12
F0.0088932346230899996
sS'BeautyBoxes'
p13
F0.0112471055243
sS'RandomActsofMakeup'
p14
F0.0089110208360599994
sS'JRPG'
p15
F0.0086749851455700001
sS'CrossStitch'
p16
F0.0077519379845000002
sS'cosplay'
p17
F0.011242460796099999
sS'AmericanHorrorStory'
p18
F0.0077531521654000003
sS'knitting'
p19
F0.0074334898278599999
sS'harrypotter'
p20
F0.0080587448271599998
sS'powerrangers'
p21
F0.0075236457437700003
sS'catpictures'
p22
F0.0072880705792100001
sS'Indiemakeupandmore'
p23
F0.011284170375099999
sS'RedditLaqueristas'
p24
F0.013696275071599999
sS'FullmetalAlchemist'
p25
F0.0071872571872599999
sS'xxfitness'
p26
F0.00750670241287
sS'birthcontrol'
p27
F0.0070934256055399996
sS'disney'
p28
F0.013665132336
sS'bigboobproblems'
p29
F0.0095140515222499993
sS'RandomActsOfPolish'
p30
F0.0087638376383799999
sS'MakeupAddiction'
p31
F0.0082463217845299992
sS'AnimeFigures'
p32
F0.0079647872563400005
sS'OnceUponATime'
p33
F0.0153275250081
sS'sewing'
p34
F0.0111011437542
sS'mylittlepony'
p35
F0.0086741016109000008
sS'LadyBoners'
p36
F0.0086411088691999999
sS'crochet'
p37
F0.00860520094563
sS'thesims'
p38
F0.0092825237297599998
sS'KillLaKill'
p39
F0.0074163158949699997
sS'makeupexchange'
p40
F0.00710455764075
sS'GirlGamers'
p41
F0.0145101811768
sS'AnimalCrossing'
p42
F0.011469725260100001
sS'secretsanta'
p43
F0.0076463651234499998
sS'crafts'
p44
F0.0083446098331100005
sS'MakeupAddicts'
p45
F0.0094970572498699994
sS'AsianBeauty'
p46
F0.013850837138499999
sS'evangelion'
p47
F0.0097904237417799998
s.