(dp1
S'FancyFollicles'
p2
F0.00807741194801
sS'HomeworkHelp'
p3
F0.011971010741600001
sS'help'
p4
F0.0082209799408099991
sS'DoesAnybodyElse'
p5
F0.0089130853729000002
sS'pettyrevenge'
p6
F0.0090380285213900007
sS'ABraThatFits'
p7
F0.0093047109678399999
sS'quotes'
p8
F0.0072322268026300002
sS'BuyItForLife'
p9
F0.00724739656628
sS'perfectloops'
p10
F0.0080009847365799993
sS'everymanshouldknow'
p11
F0.0079003041121199994
sS'dataisbeautiful'
p12
F0.012019807288100001
sS'InternetIsBeautiful'
p13
F0.0088420235090299996
sS'Foodforthought'
p14
F0.0096861471861500008
sS'TalesFromRetail'
p15
F0.0082094467444500004
sS'languagelearning'
p16
F0.0093921555658400008
sS'TheoryOfReddit'
p17
F0.014599178249799999
sS'badlinguistics'
p18
F0.00960604425256
sS'WouldYouRather'
p19
F0.00848750082886
sS'quityourbullshit'
p20
F0.0098693759071099996
sS'LearnUselessTalents'
p21
F0.010289124395499999
sS'duolingo'
p22
F0.0071903649110200002
sS'ProgrammerHumor'
p23
F0.0079147222984699995
sS'circlebroke'
p24
F0.0075963103635400004
sS'MensRights'
p25
F0.0070445367995999996
sS'nononono'
p26
F0.0081488582883000003
sS'offmychest'
p27
F0.0071641175636799996
sS'Frisson'
p28
F0.0091199270405799993
sS'YouShouldKnow'
p29
F0.011244472520499999
sS'childfree'
p30
F0.0084247831628700004
sS'howto'
p31
F0.0073998315485499996
sS'softwaregore'
p32
F0.0096324836988700008
sS'patientgamers'
p33
F0.0071860124496499998
sS'geek'
p34
F0.0070362270609500002
sS'NoStupidQuestions'
p35
F0.014663362247
sS'3amjokes'
p36
F0.0070319869651000004
sS'IWantToLearn'
p37
F0.0088840736728099997
sS'grammar'
p38
F0.0092236740968499997
sS'creepyPMs'
p39
F0.0087059262483699992
sS'dadjokes'
p40
F0.0091053718308900002
sS'techsupportgore'
p41
F0.0084748742834999998
sS'freebies'
p42
F0.0107959743824
sS'PropagandaPosters'
p43
F0.0096010073188000002
sS'CrappyDesign'
p44
F0.0125972775305
sS'thatHappened'
p45
F0.0079708267740100005
sS'Enhancement'
p46
F0.011170129667199999
sS'minimalism'
p47
F0.0073518090839100004
sS'DeepIntoYouTube'
p48
F0.0081506883355700003
sS'TrueAtheism'
p49
F0.0093692750588900003
sS'whatisthisthing'
p50
F0.0093048834139900002
sS'AskWomen'
p51
F0.0096650473024800006
sS'polandball'
p52
F0.0094165874524699995
sS'tumblr'
p53
F0.0074363188167599998
sS'interestingasfuck'
p54
F0.00877250195669
sS'MarkMyWords'
p55
F0.0080936800413300009
sS'changemyview'
p56
F0.012464632561
sS'OneY'
p57
F0.0074533045976999997
sS'Feminism'
p58
F0.00886108939275
sS'notinteresting'
p59
F0.0107515693823
sS'firstworldanarchists'
p60
F0.0091544690910900003
sS'PerfectTiming'
p61
F0.0081030990043500003
sS'no_sob_story'
p62
F0.0076219512195099997
sS'femalefashionadvice'
p63
F0.0096770432552199994
sS'psychology'
p64
F0.015063588097300001
sS'findareddit'
p65
F0.014427412083
sS'skeptic'
p66
F0.0087059235278700003
sS'wikipedia'
p67
F0.00893344244408
sS'ExpectationVsReality'
p68
F0.0083431915820899993
sS'socialskills'
p69
F0.0079312034932900004
sS'firstworldproblems'
p70
F0.0087922067200500009
sS'outside'
p71
F0.013163592275
sS'facepalm'
p72
F0.0078592578592599997
sS'lifehacks'
p73
F0.0072970172615200004
sS'vexillology'
p74
F0.0118029858364
sS'math'
p75
F0.0078161822466599994
sS'SubredditDrama'
p76
F0.0099592323014200002
sS'europe'
p77
F0.0079378295864600008
sS'AskAcademia'
p78
F0.0084285446712900006
sS'linguistics'
p79
F0.0131145138838
sS'casualiama'
p80
F0.0118968820763
sS'FloridaMan'
p81
F0.0078346829319599996
sS'delusionalartists'
p82
F0.0089950372208399999
sS'answers'
p83
F0.012950971322800001
sS'lgbt'
p84
F0.0097621078570799998
sS'promos'
p85
F0.0080235771899099997
sS'CrazyIdeas'
p86
F0.0122351974649
sS'shittyaskscience'
p87
F0.0083791895947999996
sS'ainbow'
p88
F0.011630380824099999
sS'lewronggeneration'
p89
F0.0075745558375599998
sS'worldbuilding'
p90
F0.0087041733917499996
sS'bigboobproblems'
p91
F0.0074600035951799997
sS'Unexpected'
p92
F0.0081811564388999999
sS'RedditDayOf'
p93
F0.010659560293099999
sS'Frugal'
p94
F0.0076176313795899998
sS'vegetarian'
p95
F0.0075752262046699997
sS'TheBluePill'
p96
F0.0095577842094599994
sS'howtonotgiveafuck'
p97
F0.0070518999543399997
sS'wheredidthesodago'
p98
F0.0100999399654
sS'bestof'
p99
F0.00749746101918
sS'whatstheword'
p100
F0.0117240215924
sS'OutOfTheLoop'
p101
F0.0131414537464
sS'QuotesPorn'
p102
F0.0074638780234700004
sS'TrueReddit'
p103
F0.0091325240838999993
sS'Assistance'
p104
F0.0072744067894499999
sS'confession'
p105
F0.0074282090769099999
sS'AntiJokes'
p106
F0.0077759263667400002
sS'IdiotsFightingThings'
p107
F0.0075431034482799997
sS'conspiratard'
p108
F0.0077780008028900003
sS'RandomKindness'
p109
F0.00773615635179
sS'TrollXChromosomes'
p110
F0.0086264533698599995
sS'harrypotter'
p111
F0.0078796364934199999
sS'GamePhysics'
p112
F0.0070372202979800003
sS'badhistory'
p113
F0.0078194663557199992
sS'Damnthatsinteresting'
p114
F0.0085761278195500001
sS'statistics'
p115
F0.0094206311822899996
sS'AskHistorians'
p116
F0.0086107775251
sS'ANormalDayInRussia'
p117
F0.0074979336403399998
sS'EatCheapAndHealthy'
p118
F0.0096069536045100008
sS'MorbidReality'
p119
F0.0072642008229699996
sS'PenmanshipPorn'
p120
F0.0084423599111299995
sS'ifyoulikeblank'
p121
F0.0083963056255200001
sS'misleadingthumbnails'
p122
F0.0126129403917
sS'shittyadvice'
p123
F0.0076423112634799997
sS'Pareidolia'
p124
F0.0092008564319200001
sS'asktransgender'
p125
F0.0072899347742700002
sS'happy'
p126
F0.0076340774955099997
sS'TrollYChromosome'
p127
F0.0078125
sS'explainlikeIAmA'
p128
F0.0118054142072
sS'introvert'
p129
F0.0085056358481400002
sS'WebGames'
p130
F0.0095191432771100006
sS'snackexchange'
p131
F0.0070026800380399998
sS'mildlyinfuriating'
p132
F0.0096819630810300004
sS'oddlysatisfying'
p133
F0.0091646712260299995
sS'Awwducational'
p134
F0.0117368109069
sS'TheGirlSurvivalGuide'
p135
F0.011390602752699999
sS'AskMen'
p136
F0.0076750135669399998
sS'blunderyears'
p137
F0.0075238254472499997
sS'rage'
p138
F0.0078177501008000003
sS'comics'
p139
F0.0082849837742199998
sS'Perfectfit'
p140
F0.0078819871285000006
sS'offbeat'
p141
F0.0086352328939500005
sS'behindthegifs'
p142
F0.0096841343108000008
sS'standupshots'
p143
F0.0079185125754400003
sS'recipes'
p144
F0.0071206690561500001
sS'fullmoviesonyoutube'
p145
F0.0070084189183199997
sS'AskScienceFiction'
p146
F0.0076571933441300002
sS'bisexual'
p147
F0.0079415501905999997
sS'TrueAskReddit'
p148
F0.0127895595432
sS'FanTheories'
p149
F0.0072600771383199997
sS'PoliticalDiscussion'
p150
F0.0071548593419699996
sS'tipofmytongue'
p151
F0.0094063775791700006
sS'Infographics'
p152
F0.012265453659300001
sS'BasicIncome'
p153
F0.0070854231351000002
sS'counting'
p154
F0.0091947417570600008
sS'shutupandtakemymoney'
p155
F0.0072862904974600002
sS'asmr'
p156
F0.0076633756464500003
sS'AskUK'
p157
F0.0077775939103100003
sS'self'
p158
F0.0104701970376
sS'shittyama'
p159
F0.0087961977725800004
sS'AskSocialScience'
p160
F0.012015246934000001
sS'TheWayWeWere'
p161
F0.0076058480520599997
sS'Cinemagraphs'
p162
F0.0077392469117400003
sS'britishproblems'
p163
F0.0073620410624200003
sS'RedditLaqueristas'
p164
F0.0072795531544700004
sS'nottheonion'
p165
F0.0074200723747599997
sS'nonononoyes'
p166
F0.0077220077220099999
sS'Whatcouldgowrong'
p167
F0.0075384169324400003
sS'Sherlock'
p168
F0.0070731581392900001
sS'talesfromtechsupport'
p169
F0.0082809385063600006
sS'MapPorn'
p170
F0.0106957788556
sS'AnimalsBeingBros'
p171
F0.0071938402742699999
sS'forwardsfromgrandma'
p172
F0.0092982711027199995
sS'AnimalsBeingJerks'
p173
F0.0075649637017400004
sS'askscience'
p174
F0.0078605150991900002
sS'budgetfood'
p175
F0.0079968639749099998
sS'actuallesbians'
p176
F0.00762503999147
sS'GradSchool'
p177
F0.0096614368290700008
sS'truegaming'
p178
F0.0079258731290100005
sS'GirlGamers'
p179
F0.0083798882681599997
sS'TumblrInAction'
p180
F0.0080701842462000007
sS'secretsanta'
p181
F0.0080843125061399995
sS'tall'
p182
F0.0073142857142899998
sS'needadvice'
p183
F0.00710258078508
s.