(dp1
S'gardening'
p2
F0.0076430416475000004
sS'TrueReddit'
p3
F0.0079857257871500005
sS'mexico'
p4
F0.0079768945124500008
sS'NetflixBestOf'
p5
F0.0080400485436900003
sS'Cooking'
p6
F0.0088960056934400001
sS'offbeat'
p7
F0.0087650480183999995
sS'BuyItForLife'
p8
F0.0080926376735300006
sS'LosAngeles'
p9
F0.016246227223600002
sS'everymanshouldknow'
p10
F0.0078132266765900005
sS'navy'
p11
F0.0114041339986
sS'politics'
p12
F0.0076968480698900001
sS'USMC'
p13
F0.0074751491053700004
sS'shutupandtakemymoney'
p14
F0.0072232420783799999
sS'environment'
p15
F0.0073213433073399999
sS'MURICA'
p16
F0.0076303697146000004
sS'frugalmalefashion'
p17
F0.00833862550736
sS'bicycling'
p18
F0.0077449065029299999
sS'investing'
p19
F0.0081202278511699998
sS'Bad_Cop_No_Donut'
p20
F0.0086268332020599994
sS'travel'
p21
F0.0083658321801499992
sS'FoodPorn'
p22
F0.0077686940889399999
sS'Homebrewing'
p23
F0.0078821110349600008
sS'nostalgia'
p24
F0.0072924747866600003
sS'ProtectAndServe'
p25
F0.0074114740598399996
sS'HistoryPorn'
p26
F0.0077165417131899996
sS'pettyrevenge'
p27
F0.0072578749412300003
sS'beer'
p28
F0.012445842647000001
sS'EatCheapAndHealthy'
p29
F0.0083864118895999994
sS'California'
p30
F0.031225824600899999
sS'Disneyland'
p31
F0.012693821804500001
sS'RoomPorn'
p32
F0.0076626799108
sS'slowcooking'
p33
F0.0082430832639099998
sS'lifehacks'
p34
F0.0075184794086599997
sS'nonononoyes'
p35
F0.0071607698582999996
sS'dogs'
p36
F0.0091875709713999994
sS'Whatcouldgowrong'
p37
F0.0072088308177499999
sS'nononono'
p38
F0.0079355536852200002
sS'JusticePorn'
p39
F0.0087953655697800004
sS'bestof'
p40
F0.0076156257017599999
sS'YouShouldKnow'
p41
F0.0083723161808799997
sS'childfree'
p42
F0.0072506139632800004
sS'AnimalsBeingJerks'
p43
F0.0072090955284600002
sS'photography'
p44
F0.0075065888554200003
sS'Economics'
p45
F0.0073425795446099996
sS'beerporn'
p46
F0.0077500894241099997
sS'cordcutters'
p47
F0.0082036433828000001
sS'Frugal'
p48
F0.0102752845884
sS'baseball'
p49
F0.0085370359566700003
sS'oaklandraiders'
p50
F0.0074401302022799997
sS'Military'
p51
F0.0089404994347999991
sS'CampingandHiking'
p52
F0.0072526177417199999
sS'bayarea'
p53
F0.0072711976443700001
sS'DenverBroncos'
p54
F0.0081485361736800006
sS'surfing'
p55
F0.018905053060699999
sS'sanfrancisco'
p56
F0.00911870124394
sS'motorcycles'
p57
F0.0077079434080000002
sS'Justrolledintotheshop'
p58
F0.0074697240420900004
sS'Chargers'
p59
F0.058080997820999999
sS'nfl'
p60
F0.0082452156051600004
sS'freebies'
p61
F0.0079934691656199999
sS'lakers'
p62
F0.0077139790716399996
sS'PerfectTiming'
p63
F0.0078155994604500005
sS'itookapicture'
p64
F0.0071684587813600001
sS'Libertarian'
p65
F0.0073262386711700003
sS'orangecounty'
p66
F0.012804745713699999
sS'RealEstate'
p67
F0.0078502415458900007
s.