(dp1
S'sanfrancisco'
p2
F0.027354435326300001
sS'warriors'
p3
F0.013899984023
sS'SanJoseSharks'
p4
F0.0416073968706
sS'bayarea'
p5
F0.087949858471499998
sS'49ers'
p6
F0.015002143163299999
sS'California'
p7
F0.0273956356736
sS'oaklandraiders'
p8
F0.0079205069124399993
sS'berkeley'
p9
F0.0070004565515100004
sS'oakland'
p10
F0.0118320610687
sS'SFGiants'
p11
F0.0177378964942
s.