(dp1
S'Heavymind'
p2
F0.010745555850400001
sS'HipHopImages'
p3
F0.00739926739927
sS'DoesAnybodyElse'
p4
F0.0089665941137500003
sS'pettyrevenge'
p5
F0.0071964383728699999
sS'malehairadvice'
p6
F0.0075575079117700004
sS'PublicFreakout'
p7
F0.0080353386621799996
sS'electronic_cigarette'
p8
F0.0077740662010300004
sS'OFWGKTA'
p9
F0.0071358487200099997
sS'shrooms'
p10
F0.022108323133399999
sS'GTAV'
p11
F0.0070247392992699997
sS'everymanshouldknow'
p12
F0.0070560943390100004
sS'breakingbad'
p13
F0.0075039280489799997
sS'StonerPhilosophy'
p14
F0.0186024551464
sS'LucidDreaming'
p15
F0.0098263027295299992
sS'quityourbullshit'
p16
F0.0081790939538200005
sS'nostalgia'
p17
F0.0072613438327000001
sS'StonerEngineering'
p18
F0.065363507430499998
sS'woahdude'
p19
F0.0113952834768
sS'hiphopheads'
p20
F0.0085313685333099996
sS'Frisson'
p21
F0.0070887180326099997
sS'YouShouldKnow'
p22
F0.0077088429323300001
sS'outside'
p23
F0.00859873940811
sS'ploompax'
p24
F0.015376884422099999
sS'JusticePorn'
p25
F0.0070876288659799998
sS'trees'
p26
F0.026167107393099999
sS'NoStupidQuestions'
p27
F0.0084332511043500001
sS'cringepics'
p28
F0.0070680885972100004
sS'Marijuana'
p29
F0.024573378839600001
sS'4chan'
p30
F0.0081218715050400004
sS'trap'
p31
F0.0071733459805499999
sS'cringe'
p32
F0.0071172784243499999
sS'whatisthisthing'
p33
F0.0072116422679999997
sS'freebies'
p34
F0.0077395533780700004
sS'see'
p35
F0.048033799155000001
sS'DMT'
p36
F0.0088663080294900005
sS'entwives'
p37
F0.0154069767442
sS'firstworldanarchists'
p38
F0.0081607495068999995
sS'forwardsfromgrandma'
p39
F0.0073666542334900002
sS'LSD'
p40
F0.0210907892569
sS'shroomers'
p41
F0.0074723846653699999
sS'shittyfoodporn'
p42
F0.0074593730574499997
sS'DarkNetMarkets'
p43
F0.0109909342294
sS'socialskills'
p44
F0.0078434752628900005
sS'LearnUselessTalents'
p45
F0.0079537595099300005
sS'glassheads'
p46
F0.017141901496800001
sS'lifehacks'
p47
F0.0077440347071600002
sS'casualiama'
p48
F0.0078252084724600001
sS'facepalm'
p49
F0.0072797411647600001
sS'FiftyFifty'
p50
F0.010070419067299999
sS'shittyaskscience'
p51
F0.0071836614607599996
sS'pinkfloyd'
p52
F0.0076196523533600003
sS'lewronggeneration'
p53
F0.0073903002309500003
sS'Unexpected'
p54
F0.0078626920732200005
sS'leaves'
p55
F0.0142460289194
sS'DrugNerds'
p56
F0.0092471511302099994
sS'watchpeopledie'
p57
F0.0078959591268000003
sS'MDMA'
p58
F0.0094727851541299996
sS'drunk'
p59
F0.0092913042122700004
sS'marijuanaenthusiasts'
p60
F0.0073497243853399997
sS'longboarding'
p61
F0.0115502100038
sS'CrazyIdeas'
p62
F0.0091575091575099993
sS'eldertrees'
p63
F0.042624589461700002
sS'Drugs'
p64
F0.024637872252299998
sS'Bad_Cop_No_Donut'
p65
F0.0071089116688299999
sS'OutOfTheLoop'
p66
F0.0082273273843400004
sS'MorbidReality'
p67
F0.0077761200777599999
sS'misleadingthumbnails'
p68
F0.0090131730991399994
sS'trailerparkboys'
p69
F0.0082523963689499994
sS'GrandTheftAutoV'
p70
F0.0070997279543500002
sS'mflb'
p71
F0.048402777777799999
sS'opiates'
p72
F0.00869764248112
sS'treesgonewild'
p73
F0.012699905926600001
sS'mildlyinfuriating'
p74
F0.0079773998067900007
sS'oddlysatisfying'
p75
F0.0081541127306099994
sS'Cigarettes'
p76
F0.0090631464880299994
sS'Psychonaut'
p77
F0.016545883174699998
sS'blunderyears'
p78
F0.0090481213990099996
sS'rage'
p79
F0.0079524176671399993
sS'thatHappened'
p80
F0.0083657358312699999
sS'interestingasfuck'
p81
F0.0077393403057099998
sS'findareddit'
p82
F0.0073807490545300001
sS'COents'
p83
F0.0083068403240699994
sS'skateboarding'
p84
F0.0085230024213100008
sS'teenagers'
p85
F0.0112171438138
sS'bestofworldstar'
p86
F0.0071241346864699996
sS'southpark'
p87
F0.0072020520915499998
sS'MURICA'
p88
F0.0071607822776000004
sS'hookah'
p89
F0.0072511057936300001
sS'howtonotgiveafuck'
p90
F0.0076250061097800003
sS'nonononoyes'
p91
F0.0079796424868800002
sS'Whatcouldgowrong'
p92
F0.0073373637162200004
sS'notinteresting'
p93
F0.0077498483725300001
sS'highdeas'
p94
F0.025868178596700001
sS'microgrowery'
p95
F0.031556039172999997
sS'CannabisExtracts'
p96
F0.0237326323695
sS'askdrugs'
p97
F0.0137052408069
sS'streetwear'
p98
F0.0070813295988999998
sS'ImGoingToHellForThis'
p99
F0.0083453160066099992
sS'vaporents'
p100
F0.052645377798799999
s.