(dp1
S'linguistics'
p2
F0.0084781687155599996
sS'biology'
p3
F0.0164840492582
sS'AskAcademia'
p4
F0.019261130407300001
sS'Nootropics'
p5
F0.0135348104199
sS'psychology'
p6
F0.0079773973741100006
sS'Supplements'
p7
F0.0070530512112799999
sS'DrugNerds'
p8
F0.017768301350400001
sS'AskSocialScience'
p9
F0.0097124600639000008
sS'AskScienceDiscussion'
p10
F0.0084021439953600001
sS'MachineLearning'
p11
F0.0075100133511300004
sS'GradSchool'
p12
F0.0146135110883
sS'askphilosophy'
p13
F0.0084419747809399998
sS'medicine'
p14
F0.00899251949706
sS'statistics'
p15
F0.010096229689200001
sS'Foodforthought'
p16
F0.0071604071604100001
sS'chemistry'
p17
F0.0122166989637
sS'medicalschool'
p18
F0.0070574843483199997
s.