(dp1
S'beertrade'
p2
F0.0086380072318200003
sS'Whiskyporn'
p3
F0.191128506197
sS'cocktails'
p4
F0.0117409649606
sS'whiskey'
p5
F0.0282174810736
sS'bourbon'
p6
F0.073560767590599999
sS'Scotch'
p7
F0.045141330333299999
s.