(dp1
S'awwwtf'
p2
F0.011408339889899999
sS'Heavymind'
p3
F0.0087535014005600004
sS'pettyrevenge'
p4
F0.0089135148157100004
sS'circlebroke'
p5
F0.010009330732000001
sS'adventuretime'
p6
F0.0087750975010799995
sS'PanicHistory'
p7
F0.0093283582089600005
sS'LucidDreaming'
p8
F0.0077547558463599998
sS'rickandmorty'
p9
F0.00916391119509
sS'dadjokes'
p10
F0.0076144036009000004
sS'teslore'
p11
F0.013341885824199999
sS'perfectloops'
p12
F0.0113721946076
sS'fifthworldproblems'
p13
F0.0187381404175
sS'InternetIsBeautiful'
p14
F0.0073293204004599996
sS'MLPLounge'
p15
F0.0140769969073
sS'TalesFromRetail'
p16
F0.0093316136863699998
sS'TheoryOfReddit'
p17
F0.0099160055996300005
sS'TheBluePill'
p18
F0.0083682008368199997
sS'WouldYouRather'
p19
F0.0072297075254700001
sS'furry'
p20
F0.0105712346038
sS'LearnUselessTalents'
p21
F0.0096188747731399994
sS'startrek'
p22
F0.0077591558038499998
sS'Tulpas'
p23
F0.0072090628218300003
sS'Bioshock'
p24
F0.0101219415
sS'holdmybeer'
p25
F0.0077347604314699997
sS'Fallout'
p26
F0.012811785870599999
sS'ImaginaryMonsters'
p27
F0.022400977497199999
sS'dwarffortress'
p28
F0.0162376533972
sS'Frisson'
p29
F0.010132128431599999
sS'BasicIncome'
p30
F0.0073727933541000001
sS'skyrimmods'
p31
F0.0083344185440799995
sS'horror'
p32
F0.0093038351273899995
sS'patientgamers'
p33
F0.0093220338983099997
sS'gmod'
p34
F0.010116492949099999
sS'NoStupidQuestions'
p35
F0.0089205493518200001
sS'3amjokes'
p36
F0.0074464428915099997
sS'toosoon'
p37
F0.0082844643023400003
sS'magicskyfairy'
p38
F0.0077876668785799999
sS'IndieGaming'
p39
F0.0080548738279500008
sS'photoshopbattles'
p40
F0.0073216205549699997
sS'AbandonedPorn'
p41
F0.0079144071522799994
sS'creepyPMs'
p42
F0.0081009023789999999
sS'masseffect'
p43
F0.010233780865599999
sS'ConfusedBoners'
p44
F0.0081012658227800002
sS'techsupportgore'
p45
F0.0090595340810999993
sS'Paranormal'
p46
F0.0073888375775200002
sS'PropagandaPosters'
p47
F0.0115695710044
sS'CrappyDesign'
p48
F0.010283787580799999
sS'thatHappened'
p49
F0.0094729480577299997
sS'oblivion'
p50
F0.0097424262645099992
sS'futurama'
p51
F0.0075982996811899996
sS'montageparodies'
p52
F0.0096794273264900008
sS'zombies'
p53
F0.0097499758663999996
sS'DeepIntoYouTube'
p54
F0.0142756845308
sS'ArcherFX'
p55
F0.0072303984411099999
sS'talesfromtechsupport'
p56
F0.010509524256399999
sS'gamemusic'
p57
F0.0071881606765300003
sS'TrueAtheism'
p58
F0.0085200963141299994
sS'whatisthisthing'
p59
F0.0079823449312100003
sS'glitch_art'
p60
F0.011061946902699999
sS'HPMOR'
p61
F0.0103519668737
sS'DoctorWhumour'
p62
F0.0092644581695700001
sS'stalker'
p63
F0.0084153699587199999
sS'ShouldIbuythisgame'
p64
F0.00711647109952
sS'MST3K'
p65
F0.0071386079714500002
sS'tumblr'
p66
F0.0081316010842100005
sS'interestingasfuck'
p67
F0.0085591523015599996
sS'MarkMyWords'
p68
F0.0103818202792
sS'changemyview'
p69
F0.0077580300648899996
sS'fatpeoplestories'
p70
F0.0098686403947499998
sS'KarmaCourt'
p71
F0.0087769784172699993
sS'firstworldanarchists'
p72
F0.0095587236931400001
sS'forwardsfromgrandma'
p73
F0.0115332428765
sS'no_sob_story'
p74
F0.010115783059100001
sS'mountandblade'
p75
F0.0078397212543599992
sS'Glitch_in_the_Matrix'
p76
F0.0118385302109
sS'skeptic'
p77
F0.0083241400060199994
sS'PixelArt'
p78
F0.0091214594335100006
sS'softwaregore'
p79
F0.012037914691899999
sS'outside'
p80
F0.0176669652633
sS'DaystromInstitute'
p81
F0.011528405039199999
sS'tf2'
p82
F0.011989749221999999
sS'vexillology'
p83
F0.0112007519386
sS'spaceengineers'
p84
F0.0096933233057599991
sS'Enhancement'
p85
F0.00745817375529
sS'starbound'
p86
F0.012016718913300001
sS'Warhammer'
p87
F0.0072668550666099996
sS'bestof'
p88
F0.0073625922887599997
sS'Cyberpunk'
p89
F0.013943600325099999
sS'CookieClicker'
p90
F0.0096695226438200006
sS'needamod'
p91
F0.0078359811077700001
sS'FloridaMan'
p92
F0.0125491665106
sS'delusionalartists'
p93
F0.011970927746899999
sS'NotTimAndEric'
p94
F0.0087094220110799994
sS'Cynicalbrit'
p95
F0.0072413527463200001
sS'JonTron'
p96
F0.0124948791479
sS'shittyaskscience'
p97
F0.0100829886735
sS'doctorwho'
p98
F0.0092677070828299998
sS'lewronggeneration'
p99
F0.0115760551327
sS'Morrowind'
p100
F0.010824934677100001
sS'custommagic'
p101
F0.0081739666872299999
sS'youtubehaiku'
p102
F0.0085215331116999995
sS'RedditDayOf'
p103
F0.0083415651410399996
sS'Borderlands'
p104
F0.0093702559807400006
sS'WarshipPorn'
p105
F0.0070627802690600002
sS'4chan'
p106
F0.0092167985778500005
sS'creepy'
p107
F0.0074512191586200002
sS'RWBY'
p108
F0.00895392006988
sS'badhistory'
p109
F0.0130251013543
sS'watchpeopledie'
p110
F0.0075364411751400002
sS'sixwordstories'
p111
F0.010447568683099999
sS'quityourbullshit'
p112
F0.0129452473031
sS'classic4chan'
p113
F0.013408026448700001
sS'GunPorn'
p114
F0.0071843322507600003
sS'evangelion'
p115
F0.0078461149076199995
sS'OutOfTheLoop'
p116
F0.012007530535399999
sS'paradoxplaza'
p117
F0.0081356867071199993
sS'HalfLife'
p118
F0.015909090909100001
sS'yiff'
p119
F0.0071169411108000001
sS'misc'
p120
F0.00714990138067
sS'AntiJokes'
p121
F0.0091059602648999993
sS'findareddit'
p122
F0.0070804814727400004
sS'incremental_games'
p123
F0.0080420661923900003
sS'IdiotsFightingThings'
p124
F0.0100032061558
sS'conspiratard'
p125
F0.017821076392999999
sS'rpg'
p126
F0.013336316849400001
sS'Warhammer40k'
p127
F0.00764295150028
sS'AskScienceFiction'
p128
F0.024714385637699999
sS'ContagiousLaughter'
p129
F0.0074011162339199998
sS'ainbow'
p130
F0.0098161699089800002
sS'homestuck'
p131
F0.0179894179894
sS'TheLastAirbender'
p132
F0.0070689454714599996
sS'Damnthatsinteresting'
p133
F0.0077327559542199999
sS'DnD'
p134
F0.0101997310682
sS'FiftyFifty'
p135
F0.0078610405748599996
sS'CrazyIdeas'
p136
F0.011704345037700001
sS'ANormalDayInRussia'
p137
F0.0103786414716
sS'Whatcouldgowrong'
p138
F0.00794331104635
sS'onetruegod'
p139
F0.0072032270457200002
sS'TheFacebookDelusion'
p140
F0.0079754601226999997
sS'GamePhysics'
p141
F0.016536578912599999
sS'MorbidReality'
p142
F0.0085136835870999999
sS'mylittleandysonic1'
p143
F0.0073068893528200002
sS'SubredditDrama'
p144
F0.0125320702585
sS'Portal'
p145
F0.0118303868138
sS'shittyreactiongifs'
p146
F0.0103946102021
sS'misleadingthumbnails'
p147
F0.012071249815999999
sS'shittyadvice'
p148
F0.0078576589595399995
sS'whowouldwin'
p149
F0.020385927688700001
sS'Pareidolia'
p150
F0.010529986053
sS'fatlogic'
p151
F0.0071430612303200001
sS'TrollYChromosome'
p152
F0.0071946795646900003
sS'explainlikeIAmA'
p153
F0.0228263657348
sS'alternativeart'
p154
F0.0104667949952
sS'GODZILLA'
p155
F0.0094880617245299993
sS'Unexpected'
p156
F0.0098891418884100007
sS'shortscarystories'
p157
F0.013032449925700001
sS'Terraria'
p158
F0.0106351724543
sS'gamegrumps'
p159
F0.010038637922900001
sS'WebGames'
p160
F0.0106579758654
sS'mildlyinfuriating'
p161
F0.0070798101745199998
sS'ftlgame'
p162
F0.0148430529646
sS'roguelikes'
p163
F0.0098387537578599991
sS'WritingPrompts'
p164
F0.0094843938610100001
sS'rule34'
p165
F0.0087084436599000007
sS'Awwducational'
p166
F0.0091487384747300001
sS'skyrim'
p167
F0.010293137908100001
sS'shittyaskreddit'
p168
F0.00740210124164
sS'worldbuilding'
p169
F0.017553675082200002
sS'KillLaKill'
p170
F0.0089269931058899993
sS'webcomics'
p171
F0.0096930533117900002
sS'darksouls'
p172
F0.0077519379845000002
sS'rage'
p173
F0.0102607232969
sS'comics'
p174
F0.0103787858679
sS'Perfectfit'
p175
F0.0073333944449499996
sS'nononono'
p176
F0.0101586348396
sS'behindthegifs'
p177
F0.014725919714900001
sS'standupshots'
p178
F0.0073772083090700002
sS'civ'
p179
F0.00767535329962
sS'KerbalSpaceProgram'
p180
F0.011058315334799999
sS'fullmoviesonyoutube'
p181
F0.0086687620399499999
sS'gallifrey'
p182
F0.0132072941807
sS'ShingekiNoKyojin'
p183
F0.0106551802312
sS'gamernews'
p184
F0.0079881004848000002
sS'NewsOfTheStupid'
p185
F0.0075708132097600002
sS'awesome'
p186
F0.0074325062848399999
sS'TrueAskReddit'
p187
F0.0072103829514499999
sS'FanTheories'
p188
F0.0186188510492
sS'oddlysatisfying'
p189
F0.0080452272233099992
sS'Metroid'
p190
F0.0091922005570999991
sS'Pathfinder_RPG'
p191
F0.00832286432161
sS'polandball'
p192
F0.012859847248500001
sS'SRSsucks'
p193
F0.0118492373629
sS'asmr'
p194
F0.0076319232446600003
sS'techsupportmacgyver'
p195
F0.0080765516635900002
sS'Xcom'
p196
F0.010592808552
sS'HighQualityGifs'
p197
F0.0091081894503400006
sS'Warframe'
p198
F0.0073407122784900003
sS'pokemonzetaomicron'
p199
F0.0081383519837199998
sS'ImaginaryLandscapes'
p200
F0.0116848430892
sS'calvinandhobbes'
p201
F0.0076638965835599997
sS'scifi'
p202
F0.0101235415237
sS'UnresolvedMysteries'
p203
F0.0100874843778
sS'spaceporn'
p204
F0.0078643401327100002
sS'dontstarve'
p205
F0.0072447859495100003
sS'nonononoyes'
p206
F0.0087466666666700006
sS'katawashoujo'
p207
F0.0096463022507999995
sS'FutureWhatIf'
p208
F0.0125990388362
sS'wheredidthesodago'
p209
F0.0133112138089
sS'firefly'
p210
F0.00876263161614
sS'awwnime'
p211
F0.0085211951245799996
sS'paydaytheheist'
p212
F0.0081217230389599993
sS'mylittlepony'
p213
F0.0138489828755
sS'notinteresting'
p214
F0.0085865003272899993
sS'badphilosophy'
p215
F0.0078045960398899997
sS'AnimalsBeingJerks'
p216
F0.00745650372825
sS'Thetruthishere'
p217
F0.0087857330186200001
sS'Games'
p218
F0.0073662188069300001
sS'EnoughLibertarianSpam'
p219
F0.0081426909654899998
sS'Gaming4Gamers'
p220
F0.0095947063689000005
sS'bindingofisaac'
p221
F0.0088877872596599995
sS'Minecraft'
p222
F0.0092111657037999995
sS'truegaming'
p223
F0.0104462253266
sS'dresdenfiles'
p224
F0.0094798872662099996
sS'feedthebeast'
p225
F0.010069113441399999
sS'TF2fashionadvice'
p226
F0.00771687067589
sS'terriblefacebookmemes'
p227
F0.0096679687500000003
sS'TumblrInAction'
p228
F0.011981060506999999
sS'minecraftsuggestions'
p229
F0.0075966850828699996
sS'HailCorporate'
p230
F0.0083302480562799999
sS'urbanexploration'
p231
F0.0073982737361300002
sS'GifSound'
p232
F0.0098245087745600004
s.