(dp1
S'shield'
p2
F0.0097158302286499999
sS'QuotesPorn'
p3
F0.0071370124556799997
sS'rickandmorty'
p4
F0.0074513526340799999
sS'dadjokes'
p5
F0.0082239323977700007
sS'dbz'
p6
F0.0084527995672200006
sS'perfectloops'
p7
F0.0080388290611299994
sS'quityourbullshit'
p8
F0.0078605465727199994
sS'nostalgia'
p9
F0.00847769996314
sS'startrek'
p10
F0.0074919728861900002
sS'harrypotter'
p11
F0.010913682691400001
sS'Bioshock'
p12
F0.0079594790159199999
sS'holdmybeer'
p13
F0.0073133826496300002
sS'PerfectTiming'
p14
F0.0077931102948500001
sS'Frisson'
p15
F0.0074431426602299998
sS'arresteddevelopment'
p16
F0.021086053895600001
sS'PandR'
p17
F0.026393405429899999
sS'Stargate'
p18
F0.0082886396879600002
sS'toosoon'
p19
F0.0073467081096399997
sS'thewalkingdead'
p20
F0.0070462079084200003
sS'lost'
p21
F0.011160971119500001
sS'WatchItForThePlot'
p22
F0.010462826194
sS'futurama'
p23
F0.016412914372100001
sS'arrow'
p24
F0.0095794127649900009
sS'Supernatural'
p25
F0.0104529616725
sS'ArcherFX'
p26
F0.017316017316
sS'StarWars'
p27
F0.0077001766948800003
sS'NetflixBestOf'
p28
F0.0086446971455099997
sS'gentlemanboners'
p29
F0.0080991599857700002
sS'TheSimpsons'
p30
F0.0127933868031
sS'DCcomics'
p31
F0.0085495283018899998
sS'MarkMyWords'
p32
F0.0074783827997199999
sS'xmen'
p33
F0.0082484856295899998
sS'Cinemagraphs'
p34
F0.0084876543209899992
sS'firstworldanarchists'
p35
F0.00737033914439
sS'nononono'
p36
F0.0071837636893400001
sS'DunderMifflin'
p37
F0.022694286845200001
sS'lotr'
p38
F0.0092549203373899994
sS'breakingbad'
p39
F0.0121740186405
sS'LearnUselessTalents'
p40
F0.0085917981841399996
sS'blackpeoplegifs'
p41
F0.0076297049847399998
sS'StandUpComedy'
p42
F0.0074761304269499998
sS'OnceUponATime'
p43
F0.0083143355236700005
sS'whitepeoplegifs'
p44
F0.0090843023255799994
sS'doctorwho'
p45
F0.0091767426176599994
sS'TopGear'
p46
F0.00792061585013
sS'calvinandhobbes'
p47
F0.0103131445715
sS'netflix'
p48
F0.0097289024923500004
sS'Sherlock'
p49
F0.012580167735600001
sS'AnimalsBeingBros'
p50
F0.0080179384385399999
sS'Dexter'
p51
F0.0134983127109
sS'drunk'
p52
F0.0070265880442099997
sS'community'
p53
F0.022130013831300002
sS'KingOfTheHill'
p54
F0.0104405398523
sS'IdiotsFightingThings'
p55
F0.0073548387096800004
sS'seinfeld'
p56
F0.0131592689295
sS'TheLastAirbender'
p57
F0.0070915368106699997
sS'Damnthatsinteresting'
p58
F0.0070635273211899999
sS'HIMYM'
p59
F0.0254779481355
sS'FiftyFifty'
p60
F0.0070164982526500002
sS'OutOfTheLoop'
p61
F0.0076129328135699998
sS'gif'
p62
F0.00716777672058
sS'shittyreactiongifs'
p63
F0.0075853350189599997
sS'trailerparkboys'
p64
F0.0073677160080399999
sS'Spiderman'
p65
F0.010502540937299999
sS'batman'
p66
F0.011098221191000001
sS'marvelstudios'
p67
F0.0077350737249200002
sS'madmen'
p68
F0.0071711802919099997
sS'IASIP'
p69
F0.0188741286334
sS'blunderyears'
p70
F0.0074294205051999998
sS'Marvel'
p71
F0.00867401090656
sS'thatHappened'
p72
F0.0070818226151900003
sS'firstworldproblems'
p73
F0.0070744705937800002
sS'behindthegifs'
p74
F0.0082861338367899995
sS'standupshots'
p75
F0.0099792587954399999
sS'gallifrey'
p76
F0.0094365057967099996
sS'AskScienceFiction'
p77
F0.0076252094044200001
sS'awesome'
p78
F0.0073219436432199999
sS'buffy'
p79
F0.0126083530339
sS'FanTheories'
p80
F0.010555221831299999
sS'southpark'
p81
F0.0115220429904
sS'superman'
p82
F0.0073656845753900003
sS'HouseOfCards'
p83
F0.010554089709799999
sS'deadpool'
p84
F0.0081151832460699992
sS'HighQualityGifs'
p85
F0.0104216770883
sS'zelda'
p86
F0.0073478385108400003
sS'Whatcouldgowrong'
p87
F0.0071655822752199998
sS'wheredidthesodago'
p88
F0.0074620972836400004
sS'firefly'
p89
F0.014567635450299999
sS'AnimalsBeingJerks'
p90
F0.0072663966998399998
sS'DoctorWhumour'
p91
F0.0087242562929099998
sS'terriblefacebookmemes'
p92
F0.0070081926759499999
sS'poppunkers'
p93
F0.0079672921689899999
s.