(dp1
S'awwwtf'
p2
F0.011428967236999999
sS'Heavymind'
p3
F0.019433719433700002
sS'Psychonaut'
p4
F0.0219455852156
sS'Justrolledintotheshop'
p5
F0.0093731841034800003
sS'DoesAnybodyElse'
p6
F0.0123112931539
sS'pettyrevenge'
p7
F0.0099087196733099996
sS'CityPorn'
p8
F0.0084691516076599999
sS'electronic_cigarette'
p9
F0.0074154295082999996
sS'fffffffuuuuuuuuuuuu'
p10
F0.0132613908873
sS'OFWGKTA'
p11
F0.0081362827358299993
sS'rickandmorty'
p12
F0.010903365479200001
sS'shrooms'
p13
F0.018822499452799998
sS'dadjokes'
p14
F0.0110570687419
sS'dbz'
p15
F0.0082773699828200004
sS'perfectloops'
p16
F0.014810155535200001
sS'everymanshouldknow'
p17
F0.0096656631278700007
sS'breakingbad'
p18
F0.0122395414859
sS'StonerPhilosophy'
p19
F0.023542097223500001
sS'TalesFromRetail'
p20
F0.0074711858229700003
sS'NSFWFunny'
p21
F0.0102839402367
sS'eldertrees'
p22
F0.040933671024699997
sS'TopGear'
p23
F0.0071338336925000001
sS'WouldYouRather'
p24
F0.0077198954470899996
sS'MDMA'
p25
F0.010247271107199999
sS'JoeRogan'
p26
F0.0090206981773199996
sS'LearnUselessTalents'
p27
F0.010826676932
sS'Showerthoughts'
p28
F0.0072812490541700001
sS'harrypotter'
p29
F0.0090627235869299994
sS'HistoryPorn'
p30
F0.010143137691599999
sS'StonerEngineering'
p31
F0.058987266804899997
sS'badtattoos'
p32
F0.0105460937026
sS'GrandTheftAutoV'
p33
F0.0100262697023
sS'Fallout'
p34
F0.0085104516242200008
sS'4chan'
p35
F0.012316925210199999
sS'seinfeld'
p36
F0.0077596639851899999
sS'DeepIntoYouTube'
p37
F0.0122475691847
sS'PublicFreakout'
p38
F0.0112382677425
sS'MetalMemes'
p39
F0.0084811102544299997
sS'MensRights'
p40
F0.00788495901523
sS'nononono'
p41
F0.013692963223400001
sS'offmychest'
p42
F0.0077672609318200003
sS'Frisson'
p43
F0.0096342173521799992
sS'arresteddevelopment'
p44
F0.0104631115867
sS'childfree'
p45
F0.0078104039350099996
sS'photoshopbattles'
p46
F0.010174343632299999
sS'cringepics'
p47
F0.0113837790995
sS'ploompax'
p48
F0.0136324907697
sS'foodhacks'
p49
F0.0078611408087500001
sS'howto'
p50
F0.0077329624478399998
sS'AbandonedPorn'
p51
F0.010092674876200001
sS'PandR'
p52
F0.0121273370389
sS'geek'
p53
F0.0083977362624000004
sS'spaceporn'
p54
F0.0125580258979
sS'NoStupidQuestions'
p55
F0.0097701473993299995
sS'3amjokes'
p56
F0.0072207712398199998
sS'toosoon'
p57
F0.0131746137899
sS'beards'
p58
F0.012125682254
sS'PrettyGirlsUglyFaces'
p59
F0.0077492562097800002
sS'Braveryjerk'
p60
F0.0076392925350800001
sS'gifs'
p61
F0.0073537788379500002
sS'IWantToLearn'
p62
F0.0071092951991799996
sS'Art'
p63
F0.00758406719107
sS'creepyPMs'
p64
F0.0097055485874699993
sS'WatchItForThePlot'
p65
F0.010260877982699999
sS'Celebs'
p66
F0.0118982411296
sS'techsupportgore'
p67
F0.0097795402607900005
sS'woahdude'
p68
F0.020851686181300001
sS'mflb'
p69
F0.034730459997400001
sS'Marijuana'
p70
F0.026474652702000001
sS'comics'
p71
F0.0102016494256
sS'futurama'
p72
F0.014334262809300001
sS'trap'
p73
F0.0094675235253600006
sS'zombies'
p74
F0.0089438110193199999
sS'Libertarian'
p75
F0.0078359291864199994
sS'nsfw'
p76
F0.0088909221099499995
sS'ArcherFX'
p77
F0.011738873406
sS'cringe'
p78
F0.0102249032704
sS'YouShouldKnow'
p79
F0.0109425759019
sS'StarWars'
p80
F0.0085140783295199994
sS'mildlyinteresting'
p81
F0.0087593497162300003
sS'whatisthisthing'
p82
F0.010824455568400001
sS'glitch_art'
p83
F0.0099054479964000002
sS'NetflixBestOf'
p84
F0.0097304811182299996
sS'gentlemanboners'
p85
F0.011883468502699999
sS'TheSimpsons'
p86
F0.0105339629495
sS'freebies'
p87
F0.0088393944666800006
sS'tumblr'
p88
F0.013227927363799999
sS'interestingasfuck'
p89
F0.013803828518300001
sS'StandUpComedy'
p90
F0.0085117358782600006
sS'dubstep'
p91
F0.0079117079981399999
sS'fatpeoplestories'
p92
F0.0071590710668800002
sS'CrappyDesign'
p93
F0.011655362974099999
sS'skateboarding'
p94
F0.0108013772935
sS'tifu'
p95
F0.0070529127786199998
sS'Cinemagraphs'
p96
F0.0096830985915499993
sS'firstworldanarchists'
p97
F0.017183899593099999
sS'offbeat'
p98
F0.010033076074999999
sS'LSD'
p99
F0.020739165115699999
sS'humor'
p100
F0.0073867948393600003
sS'psychology'
p101
F0.0072955548014900003
sS'Glitch_in_the_Matrix'
p102
F0.010019735843299999
sS'lotr'
p103
F0.0074332171893099997
sS'shittyfoodporn'
p104
F0.0136364966494
sS'WTF'
p105
F0.0071574215943100003
sS'ExpectationVsReality'
p106
F0.0127428933864
sS'DarkNetMarkets'
p107
F0.0089304044344100005
sS'socialskills'
p108
F0.0070523045923899996
sS'firstworldproblems'
p109
F0.013031873135499999
sS'outside'
p110
F0.0127581271724
sS'carporn'
p111
F0.0104500738712
sS'RoomPorn'
p112
F0.0084982295355100004
sS'glassheads'
p113
F0.025048169556800001
sS'lifehacks'
p114
F0.0136340139571
sS'memes'
p115
F0.0139209688495
sS'ass'
p116
F0.00722591759583
sS'tattoos'
p117
F0.0101959565749
sS'blackpeoplegifs'
p118
F0.0174335346492
sS'bestof'
p119
F0.0073075865320400002
sS'Cyberpunk'
p120
F0.00805105547374
sS'LucidDreaming'
p121
F0.0095889750879400003
sS'casualiama'
p122
F0.0082577363289500008
sS'FloridaMan'
p123
F0.011127523387499999
sS'Metal'
p124
F0.0071389698114399996
sS'FiftyFifty'
p125
F0.0155156009856
sS'whitepeoplegifs'
p126
F0.016392371995800001
sS'drawing'
p127
F0.0084003483071199998
sS'minimalism'
p128
F0.0086434222092000006
sS'adventuretime'
p129
F0.013703366125
sS'LadyBoners'
p130
F0.0080146231720999994
sS'shittyaskscience'
p131
F0.0097379002955300005
sS'GamePhysics'
p132
F0.0094349297507899995
sS'pinkfloyd'
p133
F0.0086461888509700002
sS'lewronggeneration'
p134
F0.0098815719997000003
sS'youtubehaiku'
p135
F0.0089693465190399998
sS'PoliticalHumor'
p136
F0.0083798882681599997
sS'ThriftStoreHauls'
p137
F0.0081507896077399992
sS'calvinandhobbes'
p138
F0.0093439363817099993
sS'netflix'
p139
F0.0073810465269499997
sS'leaves'
p140
F0.0141432085269
sS'TalesFromThePizzaGuy'
p141
F0.0072815533980600004
sS'creepy'
p142
F0.0080411528747599999
sS'DrugNerds'
p143
F0.0073282712343299998
sS'howtonotgiveafuck'
p144
F0.0095152005328499999
sS'wheredidthesodago'
p145
F0.014521206377100001
sS'AnimalsBeingBros'
p146
F0.0132899091243
sS'quityourbullshit'
p147
F0.011920851093299999
sS'classic4chan'
p148
F0.012063282795
sS'battlestations'
p149
F0.0072825931743500001
sS'thewalkingdead'
p150
F0.00736428906931
sS'OutOfTheLoop'
p151
F0.010713390694199999
sS'vinyl'
p152
F0.0071880391029299998
sS'QuotesPorn'
p153
F0.0128268564686
sS'bigdickproblems'
p154
F0.0070023924841000002
sS'TrueReddit'
p155
F0.0070104274597099997
sS'drunk'
p156
F0.017715502607899999
sS'hiphopheads'
p157
F0.0097448746055100004
sS'reactiongifs'
p158
F0.014657079646
sS'community'
p159
F0.0092273914075500004
sS'KingOfTheHill'
p160
F0.0078080520536799999
sS'NotTimAndEric'
p161
F0.00958806818182
sS'IdiotsFightingThings'
p162
F0.012869688099299999
sS'conspiratard'
p163
F0.00751455945895
sS'confession'
p164
F0.0078639621601199992
sS'marijuanaenthusiasts'
p165
F0.0134660421546
sS'EarthPorn'
p166
F0.0077770762784800003
sS'TrollXChromosomes'
p167
F0.010872867398999999
sS'holdmybeer'
p168
F0.0153620806688
sS'ContagiousLaughter'
p169
F0.010381959534499999
sS'nostalgia'
p170
F0.016356259783399999
sS'Damnthatsinteresting'
p171
F0.014057125766399999
sS'longboarding'
p172
F0.0119777158774
sS'CrazyIdeas'
p173
F0.014624763090199999
sS'OldSchoolCool'
p174
F0.0082966063180999992
sS'lego'
p175
F0.0070929419985999997
sS'Drugs'
p176
F0.024971580850200001
sS'Bad_Cop_No_Donut'
p177
F0.012733446519499999
sS'ANormalDayInRussia'
p178
F0.0099161781624900001
sS'onetruegod'
p179
F0.0110633066994
sS'MorbidReality'
p180
F0.0110534323816
sS'gif'
p181
F0.013255593760900001
sS'cats'
p182
F0.010504049754099999
sS'PenmanshipPorn'
p183
F0.0095886603668700002
sS'shittyreactiongifs'
p184
F0.012713602187299999
sS'alternativeart'
p185
F0.0079258143774300002
sS'shittyadvice'
p186
F0.0071581961345699996
sS'MeanJokes'
p187
F0.0070544090056300001
sS'aves'
p188
F0.0097631906938100005
sS'Pareidolia'
p189
F0.015111446921000001
sS'COents'
p190
F0.0088940448569200005
sS'GTA'
p191
F0.0075583305948100001
sS'happy'
p192
F0.0083854966339900004
sS'fatlogic'
p193
F0.0089504283965700007
sS'TrollYChromosome'
p194
F0.0140674852557
sS'explainlikeIAmA'
p195
F0.0074248236604400001
sS'firstimpression'
p196
F0.0080436824800400007
sS'Unexpected'
p197
F0.0150194176272
sS'batman'
p198
F0.0093673725179799997
sS'opiates'
p199
F0.0081840300818400002
sS'trailerparkboys'
p200
F0.017904550225399999
sS'mildlyinfuriating'
p201
F0.015005844535399999
sS'CannabisExtracts'
p202
F0.0243955094991
sS'somethingimade'
p203
F0.010039188058600001
sS'nsfw_gifs'
p204
F0.0071214538662100002
sS'HipHopImages'
p205
F0.011485343855700001
sS'Awwducational'
p206
F0.011521369397000001
sS'Shitty_Car_Mods'
p207
F0.0122948281202
sS'IASIP'
p208
F0.0150620801954
sS'ghettoglamourshots'
p209
F0.0103836169599
sS'blunderyears'
p210
F0.014335204874
sS'showerbeer'
p211
F0.0117458993606
sS'rage'
p212
F0.013178311515200001
sS'worldpolitics'
p213
F0.0078607952377299992
sS'popping'
p214
F0.0083392060136199993
sS'Perfectfit'
p215
F0.0114980506179
sS'EDM'
p216
F0.0080670673837400005
sS'PerfectTiming'
p217
F0.0167974044109
sS'behindthegifs'
p218
F0.011187497331200001
sS'standupshots'
p219
F0.016150695050699999
sS'MarkMyWords'
p220
F0.0070850981902200001
sS'findareddit'
p221
F0.0078299776286399995
sS'askdrugs'
p222
F0.0099108928896200002
sS'skyrim'
p223
F0.0080831587929599998
sS'DMT'
p224
F0.0078895463510799992
sS'Meditation'
p225
F0.0076533099346799997
sS'LifeProTips'
p226
F0.0076831142223
sS'fullmoviesonyoutube'
p227
F0.0095472358875999998
sS'watchpeopledie'
p228
F0.0100458698207
sS'FoodPorn'
p229
F0.011168927303999999
sS'awesome'
p230
F0.012416785099899999
sS'entwives'
p231
F0.0173489994492
sS'teenagers'
p232
F0.0092146839380000001
sS'Images'
p233
F0.010529311326100001
sS'FanTheories'
p234
F0.0091885269530099997
sS'conspiracy'
p235
F0.0115458407565
sS'politics'
p236
F0.00705797367471
sS'electronicmusic'
p237
F0.0079836162310400003
sS'bestofworldstar'
p238
F0.0121412803532
sS'southpark'
p239
F0.014553487314399999
sS'shutupandtakemymoney'
p240
F0.010933903321300001
sS'tattoo'
p241
F0.0076647930505899997
sS'techsupportmacgyver'
p242
F0.0075240706497500002
sS'misleadingthumbnails'
p243
F0.014828128510399999
sS'eatsandwiches'
p244
F0.0083887763957200007
sS'HighQualityGifs'
p245
F0.0110235287145
sS'self'
p246
F0.0084346906398700006
sS'RealGirls'
p247
F0.0081977850839200003
sS'zelda'
p248
F0.0074002351476600003
sS'TheWayWeWere'
p249
F0.0073512694202299998
sS'JusticePorn'
p250
F0.010799251536999999
sS'thatHappened'
p251
F0.0130452586627
sS'Gore'
p252
F0.0080547024395900002
sS'saplings'
p253
F0.048033799155000001
sS'nottheonion'
p254
F0.0077419460773000002
sS'itookapicture'
p255
F0.0098323944154800006
sS'nonononoyes'
p256
F0.0146821455178
sS'Whatcouldgowrong'
p257
F0.0149445028325
sS'wallpapers'
p258
F0.0103457194586
sS'NSFW_GIF'
p259
F0.0087677784143299995
sS'MapPorn'
p260
F0.0088174553290799994
sS'notinteresting'
p261
F0.012712005045
sS'facepalm'
p262
F0.0139464172135
sS'forwardsfromgrandma'
p263
F0.011108076117600001
sS'AnimalsBeingJerks'
p264
F0.014000848536300001
sS'highdeas'
p265
F0.027665317139000001
sS'treesgonewild'
p266
F0.0189134202396
sS'wallpaper'
p267
F0.0075493243671900002
sS'girlsinyogapants'
p268
F0.0074797160243399996
sS'GTAV'
p269
F0.0074868129998299998
sS'microgrowery'
p270
F0.024555021436899999
sS'MURICA'
p271
F0.012212921227699999
sS'introvert'
p272
F0.00783372291364
sS'trees'
p273
F0.029269010804699999
sS'progresspics'
p274
F0.0077048629446500004
sS'dogpictures'
p275
F0.0086713446289000008
sS'DunderMifflin'
p276
F0.0098674223256799993
sS'delusionalartists'
p277
F0.0104983067247
sS'oddlysatisfying'
p278
F0.0153100972123
sS'urbanexploration'
p279
F0.0072236783225700001
sS'cosplaygirls'
p280
F0.0097965335342900008
sS'ConfusedBoners'
p281
F0.0077667160912200002
sS'HumanPorn'
p282
F0.0131161640596
sS'GetMotivated'
p283
F0.0075473143820399997
sS'atheism'
p284
F0.0085507350118099994
sS'terriblefacebookmemes'
p285
F0.0098525561526800007
sS'PrettyGirls'
p286
F0.0093796754517200005
sS'TumblrInAction'
p287
F0.0082324335666099993
sS'Graffiti'
p288
F0.0096973488699500007
sS'tall'
p289
F0.0075770621663499996
sS'HailCorporate'
p290
F0.0081516336404000005
sS'ImGoingToHellForThis'
p291
F0.014335715914099999
sS'vaporents'
p292
F0.037685668406299999
sS'EmmaWatson'
p293
F0.0077853468650099997
s.