(dp1
S'Piracy'
p2
F0.0070987248586800002
sS'PanicHistory'
p3
F0.0090090090090099995
sS'inthenews'
p4
F0.00913181577554
sS'BuyItForLife'
p5
F0.0091306748205699992
sS'perfectloops'
p6
F0.0074398249453
sS'dataisbeautiful'
p7
F0.0080198989975099992
sS'spacex'
p8
F0.023490438187000001
sS'Foodforthought'
p9
F0.0129269188395
sS'financialindependence'
p10
F0.0090354887872799994
sS'TheoryOfReddit'
p11
F0.016596258298099999
sS'arduino'
p12
F0.0075215897483500004
sS'ProtectAndServe'
p13
F0.0071186215155300001
sS'environment'
p14
F0.013564431047500001
sS'gamedesign'
p15
F0.0071332176595299999
sS'scifi'
p16
F0.01054023284
sS'nononono'
p17
F0.00761211318881
sS'robotics'
p18
F0.028022731726400001
sS'YouShouldKnow'
p19
F0.0075093149899699996
sS'shutupandtakemymoney'
p20
F0.0093473360092400006
sS'howto'
p21
F0.0078065337293200003
sS'geek'
p22
F0.010023275020600001
sS'DebateAnAtheist'
p23
F0.0077576112412199999
sS'Stargate'
p24
F0.0071384233395399999
sS'lostgeneration'
p25
F0.017343318880599999
sS'homestead'
p26
F0.0087467953551499996
sS'GunsAreCool'
p27
F0.00754975978037
sS'Liberal'
p28
F0.0082116788321199997
sS'progressive'
p29
F0.0129967134748
sS'PoliticalDiscussion'
p30
F0.0118801652893
sS'PropagandaPosters'
p31
F0.0092545638945200001
sS'radiocontrol'
p32
F0.0070588235294099999
sS'compsci'
p33
F0.0114082321803
sS'Enhancement'
p34
F0.010635635635600001
sS'Cyberpunk'
p35
F0.0111032531825
sS'Libertarian'
p36
F0.0083840541738899998
sS'Anarcho_Capitalism'
p37
F0.0086863270777499998
sS'google'
p38
F0.011541072640899999
sS'TrueAtheism'
p39
F0.0092411089330699994
sS'HPMOR'
p40
F0.0081946222791300007
sS'energy'
p41
F0.018808327351
sS'crypto'
p42
F0.0089118198874300007
sS'POLITIC'
p43
F0.0075254537405899996
sS'AskScienceDiscussion'
p44
F0.00866141732283
sS'changemyview'
p45
F0.0086409395973199993
sS'OneY'
p46
F0.0072957969865199996
sS'Cinemagraphs'
p47
F0.0090739879013500002
sS'PerfectTiming'
p48
F0.0070686748953299999
sS'humor'
p49
F0.00982202200724
sS'psychology'
p50
F0.0096833289714699997
sS'space'
p51
F0.0089255953483199993
sS'skeptic'
p52
F0.012694170703199999
sS'wikipedia'
p53
F0.01120505246
sS'Anticonsumption'
p54
F0.011026615969599999
sS'RoomPorn'
p55
F0.0096629213483100003
sS'electronics'
p56
F0.010138740661700001
sS'Astronomy'
p57
F0.0082443871917600008
sS'Economics'
p58
F0.0162850127775
sS'business'
p59
F0.0095677994061400002
sS'FloridaMan'
p60
F0.0087477954144600002
sS'AskTechnology'
p61
F0.0082313681868699997
sS'answers'
p62
F0.0097859327217099997
sS'BasicIncome'
p63
F0.0424648359009
sS'Roadcam'
p64
F0.0100678733032
sS'PoliticalHumor'
p65
F0.0076778017241400003
sS'RedditDayOf'
p66
F0.0084639933398100008
sS'privacy'
p67
F0.011173184357499999
sS'programming'
p68
F0.0097361875810500001
sS'IWantOut'
p69
F0.0070617425326800001
sS'firefox'
p70
F0.0073076371973099996
sS'TrueReddit'
p71
F0.0126055813715
sS'AmIFreeToGo'
p72
F0.00957636747281
sS'misc'
p73
F0.0077381911978100003
sS'patientgamers'
p74
F0.0077624228168200003
sS'IdiotsFightingThings'
p75
F0.0071355759429199998
sS'conspiratard'
p76
F0.0075491689292099999
sS'linux'
p77
F0.0079146593255299998
sS'Multicopter'
p78
F0.0097733134247299999
sS'3Dprinting'
p79
F0.013111171810999999
sS'CrazyIdeas'
p80
F0.0083373034778499999
sS'AskHistorians'
p81
F0.00754068768743
sS'TinyHouses'
p82
F0.0109520846297
sS'chrome'
p83
F0.0084861490440899991
sS'Bad_Cop_No_Donut'
p84
F0.0084164902731600003
sS'ANormalDayInRussia'
p85
F0.0077666694208000002
sS'California'
p86
F0.0079015544041499998
sS'WebGames'
p87
F0.00716770317276
sS'ArtisanVideos'
p88
F0.0078197199118499993
sS'collapse'
p89
F0.013511286867699999
sS'occupywallstreet'
p90
F0.0135647316976
sS'teslamotors'
p91
F0.031888798037600002
sS'cordcutters'
p92
F0.0121869782972
sS'NeutralPolitics'
p93
F0.020833333333300001
sS'ProgrammerHumor'
p94
F0.0082241673030599999
sS'MachineLearning'
p95
F0.011254612546099999
sS'techsupportgore'
p96
F0.0075747958190500002
sS'worldpolitics'
p97
F0.010063082006599999
sS'Chromecast'
p98
F0.0072411296162200002
sS'offbeat'
p99
F0.0090595340810999993
sS'socialism'
p100
F0.0095473833097600002
sS'AskScienceFiction'
p101
F0.0081756147804799995
sS'urbanplanning'
p102
F0.0154650402962
sS'TrueAskReddit'
p103
F0.0120653619609
sS'hardware'
p104
F0.0087384406549599995
sS'engineering'
p105
F0.0090110385221900003
sS'Infographics'
p106
F0.0075626907257500004
sS'AnythingGoesNews'
p107
F0.0101483216237
sS'DaystromInstitute'
p108
F0.0094946401225100008
sS'techsupportmacgyver'
p109
F0.0091801202912300001
sS'Nootropics'
p110
F0.0072801397786800004
sS'AskSocialScience'
p111
F0.010316368638199999
sS'ImaginaryLandscapes'
p112
F0.0092879256965899999
sS'bikecommuting'
p113
F0.0077495350279000001
sS'spaceporn'
p114
F0.0091263759230899993
sS'nonononoyes'
p115
F0.0083482636374000007
sS'Ask_Politics'
p116
F0.0072132301196299996
sS'FutureWhatIf'
p117
F0.0108359133127
sS'economy'
p118
F0.0129459148446
sS'talesfromtechsupport'
p119
F0.0071701252936600002
sS'raspberry_pi'
p120
F0.0077541850858800004
sS'kickstarter'
p121
F0.0072844518748499997
sS'askscience'
p122
F0.0072788784376000004
sS'Futurology'
p123
F0.015772604588400001
sS'netsec'
p124
F0.010181818181800001
sS'linux_gaming'
p125
F0.0070885423379299997
sS'EnoughLibertarianSpam'
p126
F0.0097870879120900006
sS'law'
p127
F0.0071009918845799996
sS'Physics'
p128
F0.0094661113214699992
sS'truegaming'
p129
F0.0070029399134500002
sS'MachinePorn'
p130
F0.0115557718039
sS'oculus'
p131
F0.010261710531199999
sS'investing'
p132
F0.0086763750334400008
sS'HailCorporate'
p133
F0.0075213291423400002
sS'AskEngineers'
p134
F0.012077497274200001
sS'cableporn'
p135
F0.00780673066779
s.