(dp1
S'YouShouldKnow'
p2
F0.010301752109000001
sS'AskMen'
p3
F0.0071949828962399997
sS'QuotesPorn'
p4
F0.010966384673899999
sS'Heavymind'
p5
F0.0073303784521
sS'NoStupidQuestions'
p6
F0.0078120038107300002
sS'TrueReddit'
p7
F0.0081074540174199995
sS'EatCheapAndHealthy'
p8
F0.0099605815284200001
sS'malehairadvice'
p9
F0.0074244895663400003
sS'askphilosophy'
p10
F0.0073549441569100002
sS'zen'
p11
F0.0124487197623
sS'DecidingToBeBetter'
p12
F0.0501967713437
sS'TrueAskReddit'
p13
F0.0090980392156899993
sS'self'
p14
F0.0085735402808599995
sS'quotes'
p15
F0.0140338251169
sS'Buddhism'
p16
F0.016687558759
sS'Frisson'
p17
F0.0082406538925400008
sS'Health'
p18
F0.0101469123506
sS'everymanshouldknow'
p19
F0.0118134564356
sS'ADHD'
p20
F0.0073568050446699996
sS'productivity'
p21
F0.045363022622299999
sS'OneY'
p22
F0.0070555032925699998
sS'Foodforthought'
p23
F0.0123347460307
sS'writing'
p24
F0.0074708926261300001
sS'solotravel'
p25
F0.0089301348275300004
sS'startups'
p26
F0.0076461700471599997
sS'financialindependence'
p27
F0.0102947646282
sS'LucidDreaming'
p28
F0.0080390638956700008
sS'ForeverAlone'
p29
F0.0079243524006100009
sS'NoFap'
p30
F0.0083360634851299999
sS'languagelearning'
p31
F0.0086413826212200003
sS'psychology'
p32
F0.016965405325700001
sS'findareddit'
p33
F0.0095597872176399999
sS'Advice'
p34
F0.00728188687886
sS'seduction'
p35
F0.018393263855300001
sS'Anticonsumption'
p36
F0.0101945003353
sS'MMFB'
p37
F0.00794232649071
sS'socialskills'
p38
F0.037841771493900001
sS'booksuggestions'
p39
F0.0072097644053399999
sS'LearnUselessTalents'
p40
F0.0074148772096300003
sS'Psychonaut'
p41
F0.011147307339899999
sS'depression'
p42
F0.0072216198522900002
sS'introvert'
p43
F0.0147158897584
sS'lifehacks'
p44
F0.0080103056563999991
sS'needadvice'
p45
F0.0093837179812299998
sS'loseit'
p46
F0.00747448612908
sS'askseddit'
p47
F0.0122588210212
sS'happy'
p48
F0.0110775427996
sS'getdisciplined'
p49
F0.045580110497200003
sS'nutrition'
p50
F0.0120077252498
sS'Anxiety'
p51
F0.010503732177199999
sS'jobs'
p52
F0.0080518622512199996
sS'collapse'
p53
F0.0079537237888599992
sS'smallbusiness'
p54
F0.0075372897492899998
sS'Paleo'
p55
F0.0096792927663399992
sS'marketing'
p56
F0.0079513564078600007
sS'howto'
p57
F0.0096016050444300005
sS'malelivingspace'
p58
F0.0086560364464700005
sS'socialanxiety'
p59
F0.0127071261563
sS'budgetfood'
p60
F0.0078040106687700004
sS'malegrooming'
p61
F0.012577962578
sS'Frugal'
p62
F0.0087796056469499999
sS'Supplements'
p63
F0.0088311051146800004
sS'INTP'
p64
F0.00700306983883
sS'lostgeneration'
p65
F0.0072845002023499998
sS'yoga'
p66
F0.0097939022313100008
sS'intj'
p67
F0.0087136571477900004
sS'bodyweightfitness'
p68
F0.0120054882232
sS'pornfree'
p69
F0.010844485463799999
sS'BuyItForLife'
p70
F0.0077985566850299996
sS'IWantToLearn'
p71
F0.022000891928100001
sS'fitmeals'
p72
F0.0092236740968499997
sS'dating_advice'
p73
F0.0089144107191700007
sS'leaves'
p74
F0.0076371425910400003
sS'TheRedPill'
p75
F0.0081133783689699996
sS'IWantOut'
p76
F0.0079747335175700002
sS'Entrepreneur'
p77
F0.0116896584232
sS'leangains'
p78
F0.0071041541240199997
sS'howtonotgiveafuck'
p79
F0.028593647185500001
sS'minimalism'
p80
F0.0126604082336
sS'Meditation'
p81
F0.027465744969800001
sS'gainit'
p82
F0.0094055227300099999
sS'GetMotivated'
p83
F0.0130841880226
sS'Nootropics'
p84
F0.0145861874446
sS'changemyview'
p85
F0.0078738579900600007
s.