(dp1
S'worldbuilding'
p2
F0.0088120104438599994
sS'literature'
p3
F0.0077215024211500002
sS'Fantasy'
p4
F0.010832195167900001
sS'freelance'
p5
F0.0078360458107300003
sS'printSF'
p6
F0.0076380728554599998
sS'writing'
p7
F0.031293838351100001
sS'fantasywriters'
p8
F0.0440070765148
sS'Screenwriting'
p9
F0.0101268911664
sS'kindle'
p10
F0.0092719780219799996
s.