(dp1
S'breastfeeding'
p2
F0.018704203625099999
sS'FancyFollicles'
p3
F0.029918209212199998
sS'awwwtf'
p4
F0.0079371442315400009
sS'Awwducational'
p5
F0.011466617347900001
sS'pettyrevenge'
p6
F0.0093899712551899998
sS'ABraThatFits'
p7
F0.028143618689200001
sS'actuallesbians'
p8
F0.0076251519504900002
sS'BuyItForLife'
p9
F0.0111713665944
sS'woodworking'
p10
F0.0095515099285399998
sS'Pets'
p11
F0.0122483549417
sS'entwives'
p12
F0.0100412808212
sS'RandomActsofMakeup'
p13
F0.0180285227375
sS'braswap'
p14
F0.0090897286066700007
sS'TalesFromRetail'
p15
F0.010681611342599999
sS'BabyBumps'
p16
F0.017628294812200001
sS'TheWayWeWere'
p17
F0.0083266183185600005
sS'nostalgia'
p18
F0.0076798159550700001
sS'harrypotter'
p19
F0.0110219878842
sS'booksuggestions'
p20
F0.0087916581476200004
sS'offmychest'
p21
F0.0072911116021000004
sS'Anxiety'
p22
F0.0088161725509499998
sS'YouShouldKnow'
p23
F0.0078613131209699996
sS'childfree'
p24
F0.0124900430142
sS'recipes'
p25
F0.0151680923016
sS'howto'
p26
F0.0097940733299800003
sS'vegan'
p27
F0.00745383703202
sS'xxketo'
p28
F0.0142706559637
sS'wedding'
p29
F0.015327650047400001
sS'Rabbits'
p30
F0.010053676407899999
sS'clothdiaps'
p31
F0.0167802831673
sS'homestead'
p32
F0.012827663134399999
sS'IWantToLearn'
p33
F0.0077971841026599998
sS'makeupexchange'
p34
F0.0119651921682
sS'creepyPMs'
p35
F0.010075006356500001
sS'freebies'
p36
F0.0101165274083
sS'minimalism'
p37
F0.0083402506027900006
sS'corgi'
p38
F0.0075521022438499999
sS'polyamory'
p39
F0.0075572699362399997
sS'getdisciplined'
p40
F0.00718336483932
sS'Paleo'
p41
F0.0090373505691200007
sS'gardening'
p42
F0.022225743829499999
sS'BackYardChickens'
p43
F0.010770121598100001
sS'AskWomen'
p44
F0.011625653943000001
sS'tea'
p45
F0.014603943737799999
sS'redditgetsdrawn'
p46
F0.0099826251777000007
sS'TwoXChromosomes'
p47
F0.0108033240997
sS'fatpeoplestories'
p48
F0.0088566827697299996
sS'Baking'
p49
F0.028202581926499999
sS'Feminism'
p50
F0.0072025548685199997
sS'cosplay'
p51
F0.019597282068300002
sS'camping'
p52
F0.0087788731380900008
sS'shittyfoodporn'
p53
F0.0080685050080399993
sS'InteriorDesign'
p54
F0.016547468798199998
sS'ExpectationVsReality'
p55
F0.0109990237553
sS'RandomKindness'
p56
F0.0091031932294999996
sS'Anticonsumption'
p57
F0.0075100486566500001
sS'AskCulinary'
p58
F0.0126208378088
sS'RoomPorn'
p59
F0.00758677085226
sS'foodhacks'
p60
F0.010833453704999999
sS'lifehacks'
p61
F0.0090528155600899992
sS'disney'
p62
F0.0132473020042
sS'tattoos'
p63
F0.0079041819574900002
sS'OnceUponATime'
p64
F0.0072933549432699996
sS'delusionalartists'
p65
F0.0081800684345599995
sS'Frugal'
p66
F0.0149177101458
sS'LadyBoners'
p67
F0.015511261862099999
sS'doctorwho'
p68
F0.0087621475226999992
sS'whatsthisplant'
p69
F0.011190594234700001
sS'keto'
p70
F0.0090661369597899999
sS'ThriftStoreHauls'
p71
F0.018983663718000001
sS'Breadit'
p72
F0.0138182516073
sS'lgbt'
p73
F0.0085482610394699999
sS'vegetarian'
p74
F0.0083143256566799995
sS'piercing'
p75
F0.0092917935503999995
sS'Hair'
p76
F0.0150612661675
sS'AnimalsBeingBros'
p77
F0.0071186836270299998
sS'MakeupAddicts'
p78
F0.016152450090699998
sS'whatsthisbug'
p79
F0.0073620192967200002
sS'weddingplanning'
p80
F0.019354439772399999
sS'ChronicPain'
p81
F0.0071513706793799999
sS'xxfitness'
p82
F0.0224763799105
sS'Assistance'
p83
F0.0089559415760100004
sS'SkincareAddiction'
p84
F0.020783961210499999
sS'TrollXChromosomes'
p85
F0.015618257261400001
sS'RATS'
p86
F0.0099140111279699995
sS'femalefashionadvice'
p87
F0.031239817530100002
sS'BeautyBoxes'
p88
F0.0124416796267
sS'whatisthisthing'
p89
F0.0094647082459000005
sS'CrossStitch'
p90
F0.030924479166699999
sS'loseit'
p91
F0.013518342067699999
sS'TinyHouses'
p92
F0.012398390672500001
sS'EatCheapAndHealthy'
p93
F0.0172950399874
sS'cats'
p94
F0.012310178920500001
sS'PenmanshipPorn'
p95
F0.0114113192099
sS'catpictures'
p96
F0.0105180120957
sS'Indiemakeupandmore'
p97
F0.0199633326543
sS'Cumberbitches'
p98
F0.00745327370714
sS'raisedbynarcissists'
p99
F0.012898703119499999
sS'Pareidolia'
p100
F0.0070824080187300003
sS'dogs'
p101
F0.011652622789
sS'happy'
p102
F0.011495798319299999
sS'fatlogic'
p103
F0.0074883246551100003
sS'TrollYChromosome'
p104
F0.010021856175700001
sS'MakeupAddiction'
p105
F0.021170130869900002
sS'ketorecipes'
p106
F0.0124321141137
sS'snackexchange'
p107
F0.0077967345441200004
sS'DumpsterDiving'
p108
F0.0082517328638999996
sS'somethingimade'
p109
F0.029695656456199999
sS'HomeImprovement'
p110
F0.0089480048367600006
sS'namenerds'
p111
F0.0092255125284700003
sS'parrots'
p112
F0.0077155666770899996
sS'sailormoon'
p113
F0.0111011437542
sS'curlyhair'
p114
F0.018200117420100002
sS'TheGirlSurvivalGuide'
p115
F0.026690057013999999
sS'blunderyears'
p116
F0.0080409356725099999
sS'Random_Acts_Of_Amazon'
p117
F0.0124071125265
sS'fitmeals'
p118
F0.0109801625064
sS'findareddit'
p119
F0.0077472784345199996
sS'lookatmydog'
p120
F0.0086476349239400004
sS'TryingForABaby'
p121
F0.0085333940152500006
sS'C25K'
p122
F0.0081755234837700003
sS'FoodPorn'
p123
F0.0076228504015600001
sS'bisexual'
p124
F0.0070310538210399997
sS'Cooking'
p125
F0.014737692837999999
sS'bigboobproblems'
p126
F0.025272161741800001
sS'DIY'
p127
F0.0099278510625699992
sS'RandomActsOfPolish'
p128
F0.013769580596300001
sS'Dogtraining'
p129
F0.011673151751
sS'shorthairedhotties'
p130
F0.0074358760130299999
sS'TalesFromYourServer'
p131
F0.0102158828065
sS'breakingmom'
p132
F0.018709354677299998
sS'yoga'
p133
F0.010284463895
sS'self'
p134
F0.0075618059043499998
sS'pitbulls'
p135
F0.0078934779142100005
sS'Parenting'
p136
F0.0173170959604
sS'badtattoos'
p137
F0.0088879702356300001
sS'popping'
p138
F0.0093167701863399992
sS'slowcooking'
p139
F0.0155430056475
sS'RedditLaqueristas'
p140
F0.028285067219199999
sS'firefly'
p141
F0.0080949482653699997
sS'knitting'
p142
F0.050448008433100003
sS'quilting'
p143
F0.074053832490799998
sS'AnimalsBeingJerks'
p144
F0.00724914154903
sS'birthcontrol'
p145
F0.0091625825697799999
sS'budgetfood'
p146
F0.013798836242700001
sS'Mommit'
p147
F0.021441441441399998
sS'Teachers'
p148
F0.0079875591998299997
sS'progresspics'
p149
F0.0092454593679699992
sS'crochet'
p150
F0.044350426727
sS'dogpictures'
p151
F0.010393802453200001
sS'beyondthebump'
p152
F0.017831488210899998
sS'thesims'
p153
F0.0103759901819
sS'GirlGamers'
p154
F0.013865572343500001
sS'HumanPorn'
p155
F0.0076093469143200003
sS'secretsanta'
p156
F0.015054560150900001
sS'crafts'
p157
F0.062610750147699998
sS'AsianBeauty'
p158
F0.0122705408854
sS'glutenfree'
p159
F0.0088423620286599992
sS'drawing'
p160
F0.0081648966541100002
s.