(dp1
S'buildapc'
p2
F0.0115890984035
sS'pcgaming'
p3
F0.0174233952136
sS'softwareswap'
p4
F0.030190810946499998
sS'darksouls'
p5
F0.0071743452329499999
sS'indiegameswap'
p6
F0.124539877301
sS'gamingpc'
p7
F0.0086759209823800004
sS'patientgamers'
p8
F0.016765285996099999
sS'ShouldIbuythisgame'
p9
F0.0306426113643
sS'AndroidGaming'
p10
F0.0092644581695700001
sS'hardware'
p11
F0.0072212593876399998
sS'buildapcsales'
p12
F0.018610197665600001
sS'wiiu'
p13
F0.0071271929824599997
sS'counterstrike'
p14
F0.0070856438693800003
sS'gamernews'
p15
F0.0080003678330000001
sS'vita'
p16
F0.0079948469233099995
sS'starbound'
p17
F0.010783638058899999
sS'tf2'
p18
F0.0108576256865
sS'GlobalOffensive'
p19
F0.013423012806300001
sS'giftcardexchange'
p20
F0.020362992474500002
sS'truegaming'
p21
F0.0098094170403599992
sS'IndieGaming'
p22
F0.010181519000399999
sS'GameTrade'
p23
F0.032813196611699999
sS'MechanicalKeyboards'
p24
F0.0110194533366
sS'montageparodies'
p25
F0.0094318499860100002
sS'RandomKindness'
p26
F0.0086397297648400009
sS'Bioshock'
p27
F0.0075411052046000003
sS'FreeKarma'
p28
F0.0093464611872099996
sS'Rainmeter'
p29
F0.0086769230769199995
sS'pcmasterrace'
p30
F0.012753055542399999
sS'gamingsuggestions'
p31
F0.011430375749899999
sS'GlobalOffensiveTrade'
p32
F0.038190785313799998
sS'arma'
p33
F0.0093145014002200006
sS'buildapcforme'
p34
F0.0106225197419
sS'bindingofisaac'
p35
F0.0113675725037
sS'GameSale'
p36
F0.024325481798700001
sS'GiftofGames'
p37
F0.039139633286299998
sS'3DS'
p38
F0.0092516495644199993
sS'skyrimmods'
p39
F0.0084955939000599997
sS'GameDeals'
p40
F0.041311570128599998
sS'titanfall'
p41
F0.0108396985051
sS'Terraria'
p42
F0.0084253341080799994
sS'ftlgame'
p43
F0.0076173826173800002
sS'Dota2Trade'
p44
F0.029233278955999999
sS'GameDealsMeta'
p45
F0.0327952076353
sS'Games'
p46
F0.011845948297300001
sS'tf2trade'
p47
F0.049206591394599999
sS'Gaming4Gamers'
p48
F0.0081507896077399992
sS'playrust'
p49
F0.011115973741799999
sS'dogemarket'
p50
F0.010216298188199999
sS'Twitch'
p51
F0.0077201341097599997
sS'Steam'
p52
F0.0305885166828
sS'RandomActsOfGaming'
p53
F0.036968317871499998
sS'gameswap'
p54
F0.016143840856899998
sS'paydaytheheist'
p55
F0.0150257709444
sS'Battlefield'
p56
F0.0071862291794300001
sS'beermoney'
p57
F0.0093718103368299992
sS'dayz'
p58
F0.0083530243968499996
sS'hardwareswap'
p59
F0.0196068124474
sS'Cynicalbrit'
p60
F0.0088771430507599992
sS'prisonarchitect'
p61
F0.0075218375930099996
sS'headphones'
p62
F0.0079794916233399994
sS'Borderlands'
p63
F0.0088518958911299999
sS'eFreebies'
p64
F0.0077321707658099996
sS'SteamGameSwap'
p65
F0.30968099152400003
sS'DotA2'
p66
F0.0074356806009499999
sS'techsupport'
p67
F0.00926017419291
sS'civ'
p68
F0.00773226441498
sS'Borderlands2'
p69
F0.00770843960778
sS'battlestations'
p70
F0.0077830676878500003
sS'dota2loungebets'
p71
F0.0077433628318600003
s.