(dp1
S'asianamerican'
p2
F0.0074365704287
sS'ChineseLanguage'
p3
F0.040471785383899998
sS'HongKong'
p4
F0.0249776984835
sS'TEFL'
p5
F0.019176800748399999
sS'China'
p6
F0.086429512516499996
sS'Thailand'
p7
F0.0071111111111100004
sS'taiwan'
p8
F0.019638648860999999
s.