(dp1
S'fountainpens'
p2
F0.01237253569
sS'wicked_edge'
p3
F0.090520458709399995
sS'BuyItForLife'
p4
F0.00732140536325
sS'knives'
p5
F0.0070978706388099997
sS'malegrooming'
p6
F0.0116765172265
sS'knifeclub'
p7
F0.0076958596275199997
sS'Scotch'
p8
F0.0071547817791600002
sS'PipeTobacco'
p9
F0.0092296100960599994
sS'cigars'
p10
F0.0078924914675800005
s.