(dp1
S'ShingekiNoKyojin'
p2
F0.0074906367041200003
sS'RandomActsOfGaming'
p3
F0.0074961026899699997
sS'adventuretime'
p4
F0.0073254364089800003
sS'nintendo'
p5
F0.017893944846100001
sS'zelda'
p6
F0.0139974297524
sS'gamecollecting'
p7
F0.00752405008868
sS'dbz'
p8
F0.0079892093795400007
sS'friendsafari'
p9
F0.0258263903917
sS'wiiu'
p10
F0.0102931666307
sS'Naruto'
p11
F0.0086829762961099996
sS'smashbros'
p12
F0.0170488191145
sS'pokemon'
p13
F0.047637809705300002
sS'TheLastAirbender'
p14
F0.0089493504844900002
sS'SSBPM'
p15
F0.0072287763127499996
sS'CasualPokemonTrades'
p16
F0.104096933994
sS'KingdomHearts'
p17
F0.00737013677273
sS'pokemonzetaomicron'
p18
F0.017826984424800001
sS'ACTrade'
p19
F0.016424873777700001
sS'KillLaKill'
p20
F0.0086206896551700007
sS'FreeKarma'
p21
F0.0092109718929899997
sS'MonsterHunter'
p22
F0.0104429018982
sS'GiveMeTheVirus'
p23
F0.012324929972
sS'Vivillon'
p24
F0.034096540787000001
sS'pkmntcgtrades'
p25
F0.0095068330362399998
sS'3DS'
p26
F0.0215355149137
sS'gamegrumps'
p27
F0.0107476489518
sS'acturnips'
p28
F0.0075271814887100004
sS'stunfisk'
p29
F0.052853617766500001
sS'AnimalCrossing'
p30
F0.021144643031500002
sS'bindingofisaac'
p31
F0.0072004167049700002
sS'JonTron'
p32
F0.0073435955373500001
sS'Terraria'
p33
F0.0086940263625299996
sS'skyrim'
p34
F0.0076849183477399998
sS'pokemontrades'
p35
F0.095330201713200002
sS'Minecraft'
p36
F0.0083896767809999995
sS'gameswap'
p37
F0.0071039035591300001
sS'Pokemongiveaway'
p38
F0.093946449359699993
sS'Borderlands'
p39
F0.0073651496445099997
sS'AdoptMyVillager'
p40
F0.013700452247899999
sS'pkmntcg'
p41
F0.012286173329599999
sS'fireemblem'
p42
F0.012073334327
sS'yugioh'
p43
F0.0091206990715499998
sS'SVExchange'
p44
F0.085912746770700002
s.