(dp1
S'climateskeptics'
p2
F0.017543859649100001
sS'circlebroke2'
p3
F0.024166099387300001
sS'NewsOfTheStupid'
p4
F0.0079591836734700001
sS'Economics'
p5
F0.0098798814414199996
sS'Catholicism'
p6
F0.0075095576187900002
sS'AmIFreeToGo'
p7
F0.0094179694857799996
sS'inthenews'
p8
F0.0080476900148999993
sS'Conservative'
p9
F0.033079257011799999
sS'POLITIC'
p10
F0.0096446700507599997
sS'conspiratard'
p11
F0.011700028192799999
sS'Firearms'
p12
F0.010180109631900001
sS'FeMRADebates'
p13
F0.0075733669927400002
sS'AnythingGoesNews'
p14
F0.0088847322889899997
sS'badhistory'
p15
F0.0164417734437
sS'forwardsfromgrandma'
p16
F0.0078026008669600001
sS'Israel'
p17
F0.0073255010366300001
sS'syriancivilwar'
p18
F0.0078572597806499996
sS'TheoryOfReddit'
p19
F0.0111837577426
sS'badlinguistics'
p20
F0.0080645161290299992
sS'Bad_Cop_No_Donut'
p21
F0.0076303741514499998
sS'metacanada'
p22
F0.0132669983416
sS'AskSocialScience'
p23
F0.0091828793774300001
sS'FutureWhatIf'
p24
F0.0072289156626499998
sS'Shitstatistssay'
p25
F0.078778625954200002
sS'California'
p26
F0.00771807193826
sS'ShitAmericansSay'
p27
F0.0133792823839
sS'TrueChristian'
p28
F0.0084910237748700001
sS'SRSsucks'
p29
F0.019825072886300001
sS'texas'
p30
F0.0077060531606000003
sS'economy'
p31
F0.0122830003275
sS'PanicHistory'
p32
F0.023563589412499999
sS'BasicIncome'
p33
F0.00713038416764
sS'collapse'
p34
F0.00704359413668
sS'badphilosophy'
p35
F0.011824324324300001
sS'occupywallstreet'
p36
F0.0083632019115900003
sS'FloridaMan'
p37
F0.00764847030594
sS'circlebroke'
p38
F0.020232506147999998
sS'no_sob_story'
p39
F0.00713110257817
sS'gunpolitics'
p40
F0.022096317280499999
sS'EnoughLibertarianSpam'
p41
F0.021571021571
sS'lostgeneration'
p42
F0.0129526052399
sS'conservatives'
p43
F0.036954585930500002
sS'PoliticalHumor'
p44
F0.011922959339699999
sS'magicskyfairy'
p45
F0.0203438395415
sS'NeutralPolitics'
p46
F0.025390625
sS'GunsAreCool'
p47
F0.0128644939966
sS'Sidehugs'
p48
F0.0086705202312100001
sS'Republican'
p49
F0.0389321468298
sS'Liberal'
p50
F0.030490499337200001
sS'ShitRConservativeSays'
p51
F0.0498034076016
sS'progressive'
p52
F0.014219633373299999
sS'worldpolitics'
p53
F0.0078797683035
sS'progun'
p54
F0.024669288523400001
sS'PoliticalDiscussion'
p55
F0.0197572006665
sS'PropagandaPosters'
p56
F0.0096700796359500008
sS'socialism'
p57
F0.0110111068556
sS'Ask_Politics'
p58
F0.017147636971999999
sS'SubredditDrama'
p59
F0.0089825962198199997
sS'Libertarian'
p60
F0.018466987098400001
sS'Anarcho_Capitalism'
p61
F0.021884716575000001
sS'WhiteRights'
p62
F0.0077441077441100003
s.