(dp1
S'awwwtf'
p2
F0.010276172125900001
sS'PanicHistory'
p3
F0.00943126607602
sS'dadjokes'
p4
F0.0072108451110500004
sS'Hiphopcirclejerk'
p5
F0.0106411279596
sS'perfectloops'
p6
F0.0094434766663599994
sS'ShitRConservativeSays'
p7
F0.0094959824689599993
sS'badlinguistics'
p8
F0.0086032388663999995
sS'quityourbullshit'
p9
F0.0106172395177
sS'shittybattlestations'
p10
F0.011495904584000001
sS'FreeKarma'
p11
F0.0070851460534500001
sS'nononono'
p12
F0.0073708680614600003
sS'moviescirclejerk'
p13
F0.0091613812544000008
sS'NoStupidQuestions'
p14
F0.0072534184771299998
sS'3amjokes'
p15
F0.0119047619048
sS'toosoon'
p16
F0.0123947051745
sS'magicskyfairy'
p17
F0.0304781923279
sS'Braveryjerk'
p18
F0.030546009927499999
sS'GunsAreCool'
p19
F0.0100905562743
sS'ConfusedBoners'
p20
F0.0089704110322700002
sS'PropagandaPosters'
p21
F0.0089249492900600001
sS'CrappyDesign'
p22
F0.0086315789473699993
sS'montageparodies'
p23
F0.00714549297192
sS'whitepeoplegifs'
p24
F0.0118078642669
sS'fifthworldproblems'
p25
F0.0126353790614
sS'badhistory'
p26
F0.0095269026740300005
sS'circlebroke2'
p27
F0.018742442563500002
sS'POLITIC'
p28
F0.0082855321861100006
sS'MarkMyWords'
p29
F0.014075495841300001
sS'KarmaCourt'
p30
F0.0101187857457
sS'againstmensrights'
p31
F0.0071581961345699996
sS'firstworldanarchists'
p32
F0.0093506795214300005
sS'forwardsfromgrandma'
p33
F0.016956950377900001
sS'no_sob_story'
p34
F0.016629135631400001
sS'shittyfoodporn'
p35
F0.010283148671200001
sS'ExpectationVsReality'
p36
F0.010546947918600001
sS'outside'
p37
F0.0079382826475799997
sS'memes'
p38
F0.0112777955102
sS'vexillology'
p39
F0.00710377267927
sS'blackpeoplegifs'
p40
F0.010734582193200001
sS'glitch_art'
p41
F0.0087047876331999997
sS'FloridaMan'
p42
F0.0095844307872400003
sS'delusionalartists'
p43
F0.0109309137672
sS'NotTimAndEric'
p44
F0.014049911574
sS'shittyaskscience'
p45
F0.010028901734099999
sS'GamePhysics'
p46
F0.00935380777925
sS'lewronggeneration'
p47
F0.017259759378600002
sS'PoliticalHumor'
p48
F0.0086692674468999992
sS'TheoryOfReddit'
p49
F0.0090585571012600005
sS'RedditDayOf'
p50
F0.0071428571428599997
sS'TheBluePill'
p51
F0.0079539508110900003
sS'DeepIntoYouTube'
p52
F0.013176662364999999
sS'wheredidthesodago'
p53
F0.00960285043886
sS'AnimalsBeingBros'
p54
F0.0073021986840000001
sS'Images'
p55
F0.0089177138224600001
sS'whatstheword'
p56
F0.0071428571428599997
sS'ANormalDayInRussia'
p57
F0.010103626943
sS'androidcirclejerk'
p58
F0.0070647219690100002
sS'ShitAmericansSay'
p59
F0.0096063288754900007
sS'misc'
p60
F0.010365425158099999
sS'AntiJokes'
p61
F0.0129852189529
sS'IdiotsFightingThings'
p62
F0.0089299228091399997
sS'conspiratard'
p63
F0.012801982242399999
sS'Damnthatsinteresting'
p64
F0.0071135701230100002
sS'CrazyIdeas'
p65
F0.0070522349362200001
sS'OutOfTheLoop'
p66
F0.0073751662435000004
sS'onetruegod'
p67
F0.00938321030902
sS'TheFacebookDelusion'
p68
F0.0101080515859
sS'shittyreactiongifs'
p69
F0.025904761904800001
sS'misleadingthumbnails'
p70
F0.014777001612000001
sS'shittyadvice'
p71
F0.021147330295600002
sS'MeanJokes'
p72
F0.010128495842799999
sS'Pareidolia'
p73
F0.0107166778299
sS'explainlikeIAmA'
p74
F0.0097323600973199999
sS'mildlyinfuriating'
p75
F0.0071607475435100003
sS'Awwducational'
p76
F0.0074048562080200001
sS'shittyaskreddit'
p77
F0.027483782860999999
sS'ghettoglamourshots'
p78
F0.0074781886165399998
sS'blunderyears'
p79
F0.0094283713161999998
sS'rage'
p80
F0.0076291229051700001
sS'thatHappened'
p81
F0.0096239728474500005
sS'Perfectfit'
p82
F0.0081166921538599994
sS'firstworldproblems'
p83
F0.0071292775665399996
sS'behindthegifs'
p84
F0.0091721262656299998
sS'softwaregore'
p85
F0.0115139637433
sS'NewsOfTheStupid'
p86
F0.010678871090800001
sS'crappymusic'
p87
F0.012101210120999999
sS'awesome'
p88
F0.0093541202672599993
sS'PerfectTiming'
p89
F0.00720992622401
sS'SRSsucks'
p90
F0.0089960417416300002
sS'HighQualityGifs'
p91
F0.0087959343236900002
sS'shittyama'
p92
F0.0220503347957
sS'circlebroke'
p93
F0.014867900310199999
sS'gats'
p94
F0.0072487644151599997
sS'badtattoos'
p95
F0.00719716168272
sS'Frugal_Jerk'
p96
F0.015288266715799999
sS'sixwordstories'
p97
F0.0095078299776300002
sS'notinteresting'
p98
F0.0123914154318
sS'badphilosophy'
p99
F0.0079681274900400001
sS'classic4chan'
p100
F0.0156784156548
sS'EnoughLibertarianSpam'
p101
F0.0074892342258000002
sS'terriblefacebookmemes'
p102
F0.032459913961699997
sS'PrettyGirls'
p103
F0.0070842654735300001
sS'Shitstatistssay'
p104
F0.00776397515528
sS'HailCorporate'
p105
F0.0098903717826500006
s.