(dp1
S'NoStupidQuestions'
p2
F0.0121935358002
sS'pettyrevenge'
p3
F0.0081687986651799993
sS'circlebroke'
p4
F0.034162875746999999
sS'CityPorn'
p5
F0.011745180645999999
sS'PanicHistory'
p6
F0.025836972343499999
sS'ShitPoliticsSays'
p7
F0.0133792823839
sS'inthenews'
p8
F0.0099562363238499992
sS'Conservative'
p9
F0.013324285978699999
sS'PurplePillDebate'
p10
F0.0084046692606999998
sS'belgium'
p11
F0.0080566745381300004
sS'PoliticalDiscussion'
p12
F0.0192282102462
sS'teslore'
p13
F0.0071694105151400003
sS'london'
p14
F0.010574112085599999
sS'everymanshouldknow'
p15
F0.0093412907291400005
sS'dataisbeautiful'
p16
F0.0115524959005
sS'askphilosophy'
p17
F0.0078808265257100003
sS'Foodforthought'
p18
F0.0136273864384
sS'islam'
p19
F0.0071354124909800004
sS'TalesFromRetail'
p20
F0.0072237059646400002
sS'languagelearning'
p21
F0.0107825793952
sS'syriancivilwar'
p22
F0.0124442357361
sS'ShitRConservativeSays'
p23
F0.027426160337600002
sS'badlinguistics'
p24
F0.0212908633697
sS'MachinePorn'
p25
F0.00720739011268
sS'quityourbullshit'
p26
F0.0173913043478
sS'LearnUselessTalents'
p27
F0.0080640196983699994
sS'ProtectAndServe'
p28
F0.0098914354644100005
sS'duolingo'
p29
F0.0087619047619000006
sS'HistoryPorn'
p30
F0.014842716531
sS'whowouldwin'
p31
F0.0078283477614900007
sS'ProgrammerHumor'
p32
F0.0074610842726799999
sS'collapse'
p33
F0.0089750260145700003
sS'4chan'
p34
F0.0084817930987500009
sS'soccer'
p35
F0.0073662974500099997
sS'PublicFreakout'
p36
F0.0113134797829
sS'TheRedLion'
p37
F0.020793549756
sS'MensRights'
p38
F0.011554449936200001
sS'nononono'
p39
F0.0120696679568
sS'MilitaryPorn'
p40
F0.0132602380283
sS'australia'
p41
F0.00835352815396
sS'YouShouldKnow'
p42
F0.0075929936131100004
sS'childfree'
p43
F0.0076325332412399997
sS'misc'
p44
F0.0113270691209
sS'whitepeoplegifs'
p45
F0.0093250854030100007
sS'de'
p46
F0.014405144694500001
sS'UpliftingNews'
p47
F0.0078337330135899996
sS'softwaregore'
p48
F0.0095460744204200008
sS'unitedkingdom'
p49
F0.024662152172000001
sS'spaceporn'
p50
F0.0088401253918499994
sS'DebateAnAtheist'
p51
F0.0087917310205499997
sS'WhiteRights'
p52
F0.00793797304781
sS'lostgeneration'
p53
F0.0147617497015
sS'cringepics'
p54
F0.00728711643208
sS'toosoon'
p55
F0.0096947590708399995
sS'Military'
p56
F0.0071648754477999996
sS'magicskyfairy'
p57
F0.0132795427803
sS'Braveryjerk'
p58
F0.0109120301765
sS'GunsAreCool'
p59
F0.039612523784799999
sS'AbandonedPorn'
p60
F0.0084547780620800005
sS'Liberal'
p61
F0.017841849843
sS'creepyPMs'
p62
F0.0092346003527800005
sS'progressive'
p63
F0.018581491377199999
sS'IdiotsFightingThings'
p64
F0.0124606505771
sS'WatchItForThePlot'
p65
F0.0078183172003000005
sS'progun'
p66
F0.012597258243799999
sS'PropagandaPosters'
p67
F0.0295953508394
sS'CrappyDesign'
p68
F0.012498934749899999
sS'NewsOfTheWeird'
p69
F0.0095584888484300003
sS'shittyadviceanimals'
p70
F0.0096063288754900007
sS'Frisson'
p71
F0.0096476510067100008
sS'montageparodies'
p72
F0.0072736393278199996
sS'Cyberpunk'
p73
F0.0095219958103200004
sS'Libertarian'
p74
F0.012781983489899999
sS'perfectloops'
p75
F0.00752803810109
sS'fifthworldproblems'
p76
F0.0076698319941600002
sS'cringe'
p77
F0.0092271932192999999
sS'Firearms'
p78
F0.0082434447075300007
sS'TrueAtheism'
p79
F0.0102780755407
sS'whatisthisthing'
p80
F0.0075886524822700004
sS'totalwar'
p81
F0.010595567867
sS'energy'
p82
F0.0075257612597
sS'circlebroke2'
p83
F0.0227867015316
sS'polandball'
p84
F0.027219528506900001
sS'POLITIC'
p85
F0.0109073474769
sS'French'
p86
F0.0077096429842199998
sS'MarkMyWords'
p87
F0.0141690682037
sS'changemyview'
p88
F0.0139551964745
sS'fatpeoplestories'
p89
F0.0088849998317199995
sS'OneY'
p90
F0.010541021082
sS'Feminism'
p91
F0.0102496280377
sS'firstworldanarchists'
p92
F0.0089774469016900005
sS'offbeat'
p93
F0.0107027846183
sS'no_sob_story'
p94
F0.0145019717593
sS'humor'
p95
F0.0077161511574199999
sS'mountandblade'
p96
F0.0096970908727400003
sS'findareddit'
p97
F0.0075843149911200003
sS'skeptic'
p98
F0.0148679825686
sS'shittyfoodporn'
p99
F0.0077238229565499998
sS'wikipedia'
p100
F0.0116666666667
sS'ExpectationVsReality'
p101
F0.0099960952752800002
sS'DebateReligion'
p102
F0.0082486758704500007
sS'firstworldproblems'
p103
F0.0102566548993
sS'outside'
p104
F0.010843373494000001
sS'China'
p105
F0.0079020150138299997
sS'facepalm'
p106
F0.0094581117021299999
sS'Anarchy101'
p107
F0.0071761055081499998
sS'vexillology'
p108
F0.027655408712699999
sS'Finland'
p109
F0.011451612903200001
sS'AskFeminists'
p110
F0.0071616486407500004
sS'europe'
p111
F0.035364134690700003
sS'TheWayWeWere'
p112
F0.0095582235691799994
sS'blackpeoplegifs'
p113
F0.0072251849303299996
sS'bestof'
p114
F0.01115184057
sS'linguistics'
p115
F0.014595736508500001
sS'casualiama'
p116
F0.0089242998564799999
sS'FloridaMan'
p117
F0.0122191815694
sS'delusionalartists'
p118
F0.015238571071699999
sS'answers'
p119
F0.0092003373456999993
sS'NotTimAndEric'
p120
F0.0086031977923900008
sS'eu4'
p121
F0.0104204356321
sS'shittyaskscience'
p122
F0.0086565945283799996
sS'ainbow'
p123
F0.0112122047606
sS'lewronggeneration'
p124
F0.021589703372199998
sS'worldbuilding'
p125
F0.0092868283000099999
sS'SRSGaming'
p126
F0.011650485436899999
sS'youtubehaiku'
p127
F0.0076893353941299997
sS'PoliticalHumor'
p128
F0.014627065654299999
sS'TheoryOfReddit'
p129
F0.0189278300159
sS'RedditDayOf'
p130
F0.011282051282099999
sS'WarshipPorn'
p131
F0.0119047619048
sS'Anarcho_Capitalism'
p132
F0.0151179941003
sS'TheBluePill'
p133
F0.0203425193428
sS'Roadcam'
p134
F0.010745466756200001
sS'DeepIntoYouTube'
p135
F0.0088899425117100004
sS'watchpeopledie'
p136
F0.0089838199569099997
sS'wheredidthesodago'
p137
F0.010406698564599999
sS'AnimalsBeingBros'
p138
F0.0090865285330800002
sS'ukpolitics'
p139
F0.031969084841000001
sS'classic4chan'
p140
F0.011127876273099999
sS'GunPorn'
p141
F0.00710587757588
sS'ANormalDayInRussia'
p142
F0.015449128227800001
sS'AskUK'
p143
F0.040363975735000002
sS'QuotesPorn'
p144
F0.0093221895664999995
sS'ireland'
p145
F0.0094535941494699998
sS'TrueReddit'
p146
F0.014031620553399999
sS'Enhancement'
p147
F0.0086458333333299994
sS'AmIFreeToGo'
p148
F0.0079855744461600001
sS'Scotland'
p149
F0.0233431276526
sS'patientgamers'
p150
F0.0072008168090699999
sS'techsupportmacgyver'
p151
F0.0077589317935799996
sS'rant'
p152
F0.0109106907171
sS'conspiratard'
p153
F0.030130442770500001
sS'Documentaries'
p154
F0.0090097783850699997
sS'confession'
p155
F0.0078347339873399997
sS'ContagiousLaughter'
p156
F0.0090419272929999992
sS'GamePhysics'
p157
F0.0082373426198799997
sS'badhistory'
p158
F0.040790312300799998
sS'Damnthatsinteresting'
p159
F0.0096054580546700002
sS'environment'
p160
F0.0083100455949400003
sS'FiftyFifty'
p161
F0.0071597745896100004
sS'CrazyIdeas'
p162
F0.0113971183422
sS'AskHistorians'
p163
F0.015280231025899999
sS'privacy'
p164
F0.0078501844320400006
sS'Bad_Cop_No_Donut'
p165
F0.0127916783807
sS'OutOfTheLoop'
p166
F0.013359883303600001
sS'TheFacebookDelusion'
p167
F0.012168566670899999
sS'france'
p168
F0.0106612104243
sS'MorbidReality'
p169
F0.011397077161
sS'SubredditDrama'
p170
F0.026285070241100002
sS'shittyreactiongifs'
p171
F0.0084158415841600002
sS'misleadingthumbnails'
p172
F0.0096175520324599997
sS'Whatcouldgowrong'
p173
F0.010754242432999999
sS'Pareidolia'
p174
F0.0087513340448199996
sS'manchester'
p175
F0.0083266613290600006
sS'holdmybeer'
p176
F0.0098909029163299998
sS'CombatFootage'
p177
F0.013280568784
sS'fatlogic'
p178
F0.011201481953200001
sS'TrollYChromosome'
p179
F0.0085143139190500001
sS'explainlikeIAmA'
p180
F0.010406729685199999
sS'DaystromInstitute'
p181
F0.0096059113300499994
sS'Unexpected'
p182
F0.0082899653055800004
sS'occupywallstreet'
p183
F0.0098157656297200007
sS'mildlyinfuriating'
p184
F0.0081791323277900004
sS'oddlysatisfying'
p185
F0.0071184095543300003
sS'TopGear'
p186
F0.0092052088010800004
sS'CrusaderKings'
p187
F0.0132492113565
sS'Awwducational'
p188
F0.0084733382030700004
sS'shittyaskreddit'
p189
F0.0076894456157800004
sS'NeutralPolitics'
p190
F0.0141003948111
sS'rugbyunion'
p191
F0.0081293302540399997
sS'ghettoglamourshots'
p192
F0.0070853462157799999
sS'blunderyears'
p193
F0.0083700227393700005
sS'againstmensrights'
p194
F0.017366136034700001
sS'rage'
p195
F0.0157242655113
sS'worldpolitics'
p196
F0.0162366444268
sS'standupshots'
p197
F0.0089749645725099997
sS'PerfectTiming'
p198
F0.00887218045113
sS'behindthegifs'
p199
F0.0086302747921899996
sS'BritishTV'
p200
F0.019312362838299998
sS'socialism'
p201
F0.023011073588299999
sS'Ask_Politics'
p202
F0.014530860780499999
sS'civ'
p203
F0.0081598493566300001
sS'russia'
p204
F0.0136146331324
sS'history'
p205
F0.0103731187291
sS'fullmoviesonyoutube'
p206
F0.0092244266941500005
sS'gallifrey'
p207
F0.0076252723311500004
sS'AskScienceFiction'
p208
F0.0101796056865
sS'NewsOfTheStupid'
p209
F0.010644104803500001
sS'Economics'
p210
F0.0120214536712
sS'Anticonsumption'
p211
F0.0084474220798100002
sS'badphilosophy'
p212
F0.021159153633899998
sS'FeMRADebates'
p213
F0.0090925298627199998
sS'TrueAskReddit'
p214
F0.0149018958523
sS'FanTheories'
p215
F0.0076730752651099996
sS'crappymusic'
p216
F0.0076638477801300002
sS'conspiracy'
p217
F0.0099849668714399997
sS'Infographics'
p218
F0.0112112552209
sS'AnythingGoesNews'
p219
F0.0113331345064
sS'ShitRedditSays'
p220
F0.018134945328500001
sS'SRSsucks'
p221
F0.0217218543046
sS'Israel'
p222
F0.0100434872644
sS'MURICA'
p223
F0.0145764248396
sS'HighQualityGifs'
p224
F0.0086024995942199992
sS'bestofworldstar'
p225
F0.0072616968471400003
sS'self'
p226
F0.0090339677186200007
sS'shittyama'
p227
F0.0080022075055199999
sS'AskSocialScience'
p228
F0.013818099445000001
sS'comics'
p229
F0.0072573974759200001
sS'JusticePorn'
p230
F0.0093116488015700001
sS'TumblrInAction'
p231
F0.0136544811166
sS'scifi'
p232
F0.0079257951752999996
sS'britishproblems'
p233
F0.023463887890799999
sS'UnresolvedMysteries'
p234
F0.0084326306141199996
sS'nottheonion'
p235
F0.0092710478420199999
sS'nonononoyes'
p236
F0.010334521623299999
sS'Frugal_Jerk'
p237
F0.010881104034
sS'tolkienfans'
p238
F0.0075888696578400002
sS'FutureWhatIf'
p239
F0.014368984682099999
sS'economy'
p240
F0.0071037614999400001
sS'BasicIncome'
p241
F0.0127292340885
sS'Anarchism'
p242
F0.0142383809439
sS'MapPorn'
p243
F0.019522132995799999
sS'notinteresting'
p244
F0.0089271791673200002
sS'forwardsfromgrandma'
p245
F0.0218566529094
sS'AnimalsBeingJerks'
p246
F0.0085831998168899998
sS'Futurology'
p247
F0.0071722708554899997
sS'football'
p248
F0.010854982314899999
sS'DebateAChristian'
p249
F0.0070399653417100002
sS'gunpolitics'
p250
F0.0103109928488
sS'germany'
p251
F0.0197589934432
sS'EnoughLibertarianSpam'
p252
F0.053320202588599999
sS'interestingasfuck'
p253
F0.0089525514771699993
sS'Gaming4Gamers'
p254
F0.0070279424216799996
sS'law'
p255
F0.0071660615325799997
sS'startrek'
p256
F0.0071438199218199997
sS'truegaming'
p257
F0.0093096398804799994
sS'short'
p258
F0.0070851322926999997
sS'HumanPorn'
p259
F0.012896330602099999
sS'IWantOut'
p260
F0.0149415692821
sS'terriblefacebookmemes'
p261
F0.0116032690949
sS'Shitstatistssay'
p262
F0.018675721562000001
sS'thatHappened'
p263
F0.0129505950852
sS'techsupportgore'
p264
F0.0082513487781699993
sS'HailCorporate'
p265
F0.016621829362000001
sS'paradoxplaza'
p266
F0.0173480270174
s.