(dp1
S'WebGames'
p2
F0.0080484281488600005
sS'awwwtf'
p3
F0.0105832019815
sS'RandomActsOfGaming'
p4
F0.0127395168009
sS'help'
p5
F0.0073363431151199998
sS'DoesAnybodyElse'
p6
F0.0139647990754
sS'pettyrevenge'
p7
F0.0119266340734
sS'CityPorn'
p8
F0.0070807518092400002
sS'skyrim'
p9
F0.0088020100820199992
sS'LucidDreaming'
p10
F0.0079869766495399997
sS'fffffffuuuuuuuuuuuu'
p11
F0.0102462037447
sS'uglyduckling'
p12
F0.0092638137399600005
sS'rickandmorty'
p13
F0.0075120068962699999
sS'dadjokes'
p14
F0.016270888302600001
sS'SampleSize'
p15
F0.0087961977725800004
sS'perfectloops'
p16
F0.013547324098399999
sS'everymanshouldknow'
p17
F0.0086014445173999993
sS'dataisbeautiful'
p18
F0.0070949775395700004
sS'InternetIsBeautiful'
p19
F0.011370758349000001
sS'breakingbad'
p20
F0.0097512602264299992
sS'TalesFromRetail'
p21
F0.0096532333645699998
sS'AskMen'
p22
F0.00784469709525
sS'TheoryOfReddit'
p23
F0.0098106125234600008
sS'TheBluePill'
p24
F0.0090102027295599994
sS'WouldYouRather'
p25
F0.0180667282078
sS'quityourbullshit'
p26
F0.019101572429799998
sS'Advice'
p27
F0.0099451999188100004
sS'LearnUselessTalents'
p28
F0.0130009177118
sS'MMFB'
p29
F0.00796596361003
sS'HistoryPorn'
p30
F0.0091484869810000008
sS'shittybattlestations'
p31
F0.0175523349436
sS'whowouldwin'
p32
F0.0139135892876
sS'GrandTheftAutoV'
p33
F0.0089459877581199998
sS'Fallout'
p34
F0.0098187141087699992
sS'ImaginaryMonsters'
p35
F0.0072375438061900001
sS'DeepIntoYouTube'
p36
F0.0206965174129
sS'PublicFreakout'
p37
F0.0099586135540600008
sS'MetalMemes'
p38
F0.0070838252656399998
sS'Gore'
p39
F0.0071862222772899999
sS'MensRights'
p40
F0.0086505190311399992
sS'nononono'
p41
F0.012128562765299999
sS'offmychest'
p42
F0.0102837702003
sS'Anxiety'
p43
F0.0074688796680500002
sS'YouShouldKnow'
p44
F0.0106967984934
sS'childfree'
p45
F0.0076182838813199996
sS'linguistics'
p46
F0.0070195544731800003
sS'misc'
p47
F0.0079928952042599994
sS'whitepeoplegifs'
p48
F0.0100126032769
sS'JusticePorn'
p49
F0.0087345114767400003
sS'UpliftingNews'
p50
F0.0076334016193499998
sS'AbandonedPorn'
p51
F0.0098058571898699994
sS'patientgamers'
p52
F0.0093050701284599999
sS'Jokes'
p53
F0.0094380861548200006
sS'tipofmytongue'
p54
F0.011699371623899999
sS'gmod'
p55
F0.0071126687970300001
sS'NoStupidQuestions'
p56
F0.0211473234036
sS'3amjokes'
p57
F0.015951128457500002
sS'toosoon'
p58
F0.013013302487
sS'magicskyfairy'
p59
F0.0124415142493
sS'beards'
p60
F0.0072274521712699996
sS'Steam'
p61
F0.0087910937847499992
sS'PrettyGirlsUglyFaces'
p62
F0.0081844120738799996
sS'Braveryjerk'
p63
F0.0177695511337
sS'photoshopbattles'
p64
F0.0127248160149
sS'IWantToLearn'
p65
F0.0094890510948900005
sS'creepyPMs'
p66
F0.013430521091800001
sS'IdiotsFightingThings'
p67
F0.013057205544
sS'WatchItForThePlot'
p68
F0.0081736909323100009
sS'techsupportgore'
p69
F0.011405380820800001
sS'woahdude'
p70
F0.010453170139699999
sS'redditgetsdrawn'
p71
F0.0072332730560599997
sS'CrappyDesign'
p72
F0.016836416545399999
sS'NewsOfTheWeird'
p73
F0.0082472178060399998
sS'shittyadviceanimals'
p74
F0.0220503347957
sS'Frisson'
p75
F0.010479463631800001
sS'futurama'
p76
F0.0106805422429
sS'montageparodies'
p77
F0.0169873808028
sS'techsupport'
p78
F0.0074012108494400002
sS'minimalism'
p79
F0.0076330051141100001
sS'GTAV'
p80
F0.00719231628323
sS'ArcherFX'
p81
F0.00817246101515
sS'cringe'
p82
F0.012231135651300001
sS'Whatisthis'
p83
F0.00707121725954
sS'mildlyinteresting'
p84
F0.00813313087668
sS'pcgaming'
p85
F0.0078763061913999996
sS'whatisthisthing'
p86
F0.0107399614238
sS'glitch_art'
p87
F0.0095878062771399993
sS'TheSimpsons'
p88
F0.0089922742432600004
sS'ShouldIbuythisgame'
p89
F0.0083569339337900006
sS'freebies'
p90
F0.0097527372924400002
sS'tumblr'
p91
F0.011689691817200001
sS'interestingasfuck'
p92
F0.0128694460756
sS'MarkMyWords'
p93
F0.020689065572399998
sS'changemyview'
p94
F0.0102562154565
sS'fatpeoplestories'
p95
F0.0080718029034399993
sS'KarmaCourt'
p96
F0.011614055985700001
sS'tifu'
p97
F0.0088963114030199998
sS'Cinemagraphs'
p98
F0.0073873610298399997
sS'notinteresting'
p99
F0.0361930294906
sS'firstworldanarchists'
p100
F0.0224468597198
sS'offbeat'
p101
F0.00889381411076
sS'no_sob_story'
p102
F0.0129847186644
sS'DunderMifflin'
p103
F0.0078187757725100004
sS'truegaming'
p104
F0.0070183382386200003
sS'Glitch_in_the_Matrix'
p105
F0.011936125598200001
sS'skeptic'
p106
F0.0076586906667800003
sS'shittyfoodporn'
p107
F0.018484175964499999
sS'Showerthoughts'
p108
F0.0097919216646300006
sS'ExpectationVsReality'
p109
F0.0143889334898
sS'socialskills'
p110
F0.0093639575971700001
sS'firstworldproblems'
p111
F0.013100078025500001
sS'outside'
p112
F0.023166190352500001
sS'GuessTheMovie'
p113
F0.0088162218482000006
sS'facepalm'
p114
F0.013348901792499999
sS'SuicideWatch'
p115
F0.00728377319049
sS'lifehacks'
p116
F0.0094963839001099993
sS'pcmasterrace'
p117
F0.00779190207156
sS'tf2'
p118
F0.0092391535743199995
sS'vexillology'
p119
F0.0118860449028
sS'CatsStandingUp'
p120
F0.0120730738681
sS'Enhancement'
p121
F0.0091911764705899998
sS'europe'
p122
F0.0079984554706699993
sS'blackpeoplegifs'
p123
F0.0094283248124300001
sS'bestof'
p124
F0.00916445267023
sS'needamod'
p125
F0.015923052053
sS'casualiama'
p126
F0.0270841404572
sS'LetsNotMeet'
p127
F0.0084904728995999993
sS'Metal'
p128
F0.0072415625830499998
sS'delusionalartists'
p129
F0.0152161620316
sS'answers'
p130
F0.0090876045074499995
sS'promos'
p131
F0.0099564843893
sS'JonTron'
p132
F0.0082568099390400006
sS'NotTimAndEric'
p133
F0.012593817580500001
sS'shittyaskscience'
p134
F0.0312062870368
sS'GamePhysics'
p135
F0.012887723896900001
sS'gamingsuggestions'
p136
F0.0075061472757899997
sS'worldbuilding'
p137
F0.0071002556092000001
sS'WritingPrompts'
p138
F0.0086817957030599999
sS'PoliticalHumor'
p139
F0.0076091309571500003
sS'ThriftStoreHauls'
p140
F0.0071885949015300004
sS'calvinandhobbes'
p141
F0.00765050765051
sS'netflix'
p142
F0.0074433656957899998
sS'4chan'
p143
F0.0134822085351
sS'creepy'
p144
F0.0076731140836400003
sS'cripplingalcoholism'
p145
F0.0071137399088799999
sS'dogecoin'
p146
F0.0071287602416099998
sS'sixwordstories'
p147
F0.011015237745499999
sS'AnimalsBeingBros'
p148
F0.0093416370106800001
sS'classic4chan'
p149
F0.016737000214599999
sS'whatstheword'
p150
F0.0089123617758700008
sS'battlestations'
p151
F0.0077713712710000002
sS'OutOfTheLoop'
p152
F0.0205143708566
sS'androidcirclejerk'
p153
F0.0074416733708799997
sS'amiugly'
p154
F0.0092918075364399992
sS'QuotesPorn'
p155
F0.0084326378716500002
sS'ShitAmericansSay'
p156
F0.0080022075055199999
sS'itookapicture'
p157
F0.0078894746409699998
sS'drunk'
p158
F0.011179926949299999
sS'confession'
p159
F0.0117760443333
sS'reactiongifs'
p160
F0.0097702960752000002
sS'AntiJokes'
p161
F0.021484992101100001
sS'KingOfTheHill'
p162
F0.0081526608134700005
sS'PropagandaPosters'
p163
F0.0089616810877599998
sS'rant'
p164
F0.014834383255399999
sS'conspiratard'
p165
F0.015699999999999999
sS'marijuanaenthusiasts'
p166
F0.0076174743024999998
sS'introvert'
p167
F0.0080288494250499998
sS'holdmybeer'
p168
F0.0113429958854
sS'ContagiousLaughter'
p169
F0.010469332516200001
sS'nostalgia'
p170
F0.0106743979178
sS'badhistory'
p171
F0.0091284062478900006
sS'Damnthatsinteresting'
p172
F0.012349526666400001
sS'FiftyFifty'
p173
F0.016035131744000002
sS'CrazyIdeas'
p174
F0.020330219166800001
sS'lego'
p175
F0.0070202240651799997
sS'Bad_Cop_No_Donut'
p176
F0.0087585375652900008
sS'ANormalDayInRussia'
p177
F0.012764960768200001
sS'Whatcouldgowrong'
p178
F0.0137072964994
sS'onetruegod'
p179
F0.012370370370399999
sS'TheFacebookDelusion'
p180
F0.0089428014875200003
sS'MorbidReality'
p181
F0.010808454001000001
sS'gif'
p182
F0.0088295579965299992
sS'SubredditDrama'
p183
F0.0134670114023
sS'wheredidthesodago'
p184
F0.0174311926606
sS'PenmanshipPorn'
p185
F0.0093325515489100005
sS'ifyoulikeblank'
p186
F0.0116000832293
sS'firstimpression'
p187
F0.011228158708100001
sS'shittyadvice'
p188
F0.044583667225199998
sS'MeanJokes'
p189
F0.013367439557700001
sS'FreeKarma'
p190
F0.0120401831881
sS'fifthworldproblems'
p191
F0.017198167833399999
sS'confessions'
p192
F0.0096205649195699999
sS'Pareidolia'
p193
F0.0143504965272
sS'happy'
p194
F0.0096927462781100007
sS'fatlogic'
p195
F0.0097482789426700002
sS'TrollYChromosome'
p196
F0.0091047812817900003
sS'explainlikeIAmA'
p197
F0.018768920282500001
sS'misleadingthumbnails'
p198
F0.019756655824600001
sS'FloridaMan'
p199
F0.0153362993981
sS'Unexpected'
p200
F0.015968349301700002
sS'shortscarystories'
p201
F0.0078514371543700005
sS'Denmark'
p202
F0.0134515438704
sS'gamegrumps'
p203
F0.0078620421897199998
sS'trailerparkboys'
p204
F0.0074827699376399997
sS'mildlyinfuriating'
p205
F0.0163166349357
sS'ftlgame'
p206
F0.0072533538737999999
sS'somethingimade'
p207
F0.0070211095200700003
sS'youtubehaiku'
p208
F0.0127397260274
sS'Rateme'
p209
F0.0081453795592199996
sS'Awwducational'
p210
F0.010042622759400001
sS'Shitty_Car_Mods'
p211
F0.0113479724315
sS'shittyaskreddit'
p212
F0.058780643397400002
sS'polandball'
p213
F0.0137189250052
sS'IASIP'
p214
F0.0082547169811300006
sS'ghettoglamourshots'
p215
F0.0092505487613700008
sS'blunderyears'
p216
F0.0161600133623
sS'showerbeer'
p217
F0.0083408476104600004
sS'rage'
p218
F0.015334875053299999
sS'comics'
p219
F0.0093485389848800005
sS'AMA'
p220
F0.011735051113299999
sS'Perfectfit'
p221
F0.0133018665522
sS'PerfectTiming'
p222
F0.0120832976262
sS'behindthegifs'
p223
F0.016549422799399999
sS'standupshots'
p224
F0.0095670560504700006
sS'civ'
p225
F0.0085644371941299997
sS'findareddit'
p226
F0.0191314329443
sS'KerbalSpaceProgram'
p227
F0.0072341768821999998
sS'lewronggeneration'
p228
F0.023963575365399999
sS'AmISexy'
p229
F0.0076449352304100004
sS'ICanDrawThat'
p230
F0.0111333932646
sS'fullmoviesonyoutube'
p231
F0.010951942874699999
sS'TalesFromThePizzaGuy'
p232
F0.0075512405609499999
sS'AskScienceFiction'
p233
F0.0111046171829
sS'NewsOfTheStupid'
p234
F0.0109451813375
sS'GTA'
p235
F0.0093165493208199994
sS'spaceporn'
p236
F0.0075110608087299996
sS'crappymusic'
p237
F0.014137176213100001
sS'awesome'
p238
F0.00755851755527
sS'teenagers'
p239
F0.012241723310000001
sS'TrueAskReddit'
p240
F0.0076765609007200001
sS'FanTheories'
p241
F0.012739813802699999
sS'oddlysatisfying'
p242
F0.0140174830601
sS'conspiracy'
p243
F0.0088144096435899995
sS'Infographics'
p244
F0.0077808654227899997
sS'TalesFromYourServer'
p245
F0.0071528156634499997
sS'counting'
p246
F0.015286171347300001
sS'ShitRedditSays'
p247
F0.0086381427992999991
sS'southpark'
p248
F0.0098999932881400007
sS'watchpeopledie'
p249
F0.010098609955999999
sS'ForeverAlone'
p250
F0.0083365971017699998
sS'MURICA'
p251
F0.012964430357500001
sS'eatsandwiches'
p252
F0.0070776973891200001
sS'HighQualityGifs'
p253
F0.010985521971000001
sS'memes'
p254
F0.0084123380958699995
sS'softwaregore'
p255
F0.017924043194000001
sS'self'
p256
F0.0125054728546
sS'circlebroke'
p257
F0.0130262539448
sS'TheWayWeWere'
p258
F0.0072932206199200003
sS'badtattoos'
p259
F0.0088317423209299997
sS'depression'
p260
F0.0075001933039500002
sS'britishproblems'
p261
F0.0092160080797900005
sS'LifeProTips'
p262
F0.00710129595345
sS'nottheonion'
p263
F0.0095132945385699996
sS'howtonotgiveafuck'
p264
F0.0096535773543200004
sS'nonononoyes'
p265
F0.012775655635100001
sS'Frugal_Jerk'
p266
F0.014795871769099999
sS'FutureWhatIf'
p267
F0.00798971439067
sS'wallpapers'
p268
F0.0091364836403499995
sS'talesfromtechsupport'
p269
F0.0088989705112499998
sS'MapPorn'
p270
F0.0101125039
sS'GiftofGames'
p271
F0.0096092701194100006
sS'forwardsfromgrandma'
p272
F0.020287609548200001
sS'AnimalsBeingJerks'
p273
F0.0099878526116899992
sS'highdeas'
p274
F0.0088592565531099999
sS'techsupportmacgyver'
p275
F0.0109624931054
sS'shittyreactiongifs'
p276
F0.017708333333299998
sS'Minecraft'
p277
F0.0086631596526399995
sS'thesims'
p278
F0.0072079711681200002
sS'DAE'
p279
F0.013591217982199999
sS'urbanexploration'
p280
F0.0073737164909400002
sS'ConfusedBoners'
p281
F0.010073823438900001
sS'youtube'
p282
F0.0091231937300999995
sS'HumanPorn'
p283
F0.0098654197080299995
sS'NSFWFunny'
p284
F0.0073033317103700004
sS'terriblefacebookmemes'
p285
F0.0243218669495
sS'TumblrInAction'
p286
F0.0125579816721
sS'thatHappened'
p287
F0.019419813024100001
sS'cringepics'
p288
F0.0113289904434
sS'tall'
p289
F0.0071467342138600001
sS'HailCorporate'
p290
F0.011281166918200001
sS'ImGoingToHellForThis'
p291
F0.013288358744899999
sS'needadvice'
p292
F0.0077162147679799998
sS'GifSound'
p293
F0.0087267438337100007
s.