(dp1
S'awwwtf'
p2
F0.0128973522494
sS'RandomActsOfGaming'
p3
F0.0078374254404199994
sS'MapPorn'
p4
F0.0089459568683599999
sS'Justrolledintotheshop'
p5
F0.010707476952800001
sS'DoesAnybodyElse'
p6
F0.018083094972600001
sS'pettyrevenge'
p7
F0.0149819777464
sS'CityPorn'
p8
F0.00722815839095
sS'PanicHistory'
p9
F0.0070351758794000002
sS'LucidDreaming'
p10
F0.0077753337766599999
sS'fffffffuuuuuuuuuuuu'
p11
F0.0117205813408
sS'uglyduckling'
p12
F0.0071003963011900002
sS'rickandmorty'
p13
F0.0072562358276600002
sS'quotes'
p14
F0.0084727507718800003
sS'BuyItForLife'
p15
F0.0083125811090499994
sS'SampleSize'
p16
F0.0076423112634799997
sS'perfectloops'
p17
F0.013143348483
sS'everymanshouldknow'
p18
F0.0124367413092
sS'dataisbeautiful'
p19
F0.0082933400690399992
sS'InternetIsBeautiful'
p20
F0.0090521355285100007
sS'Foodforthought'
p21
F0.0095704070111299992
sS'breakingbad'
p22
F0.0083328734617300008
sS'carporn'
p23
F0.0071049960527799997
sS'TalesFromRetail'
p24
F0.011413376006
sS'AskMen'
p25
F0.0094961605371900008
sS'patientgamers'
p26
F0.0088927398759599992
sS'TheoryOfReddit'
p27
F0.010254200775500001
sS'TopGear'
p28
F0.0072853358267100004
sS'WouldYouRather'
p29
F0.015302066772700001
sS'quityourbullshit'
p30
F0.018474656560899999
sS'Advice'
p31
F0.0097439660795800003
sS'drunk'
p32
F0.014259223735499999
sS'LearnUselessTalents'
p33
F0.015002055076
sS'ProtectAndServe'
p34
F0.0073584622315699998
sS'collapse'
p35
F0.0072352355973599996
sS'HistoryPorn'
p36
F0.0100919907802
sS'StonerEngineering'
p37
F0.0070853267122899998
sS'shittybattlestations'
p38
F0.0148274185707
sS'whowouldwin'
p39
F0.0128920682336
sS'GrandTheftAutoV'
p40
F0.0082887820656799994
sS'Fallout'
p41
F0.0094107557942700003
sS'FreeKarma'
p42
F0.0077128448531600001
sS'oddlysatisfying'
p43
F0.0131347302289
sS'DeepIntoYouTube'
p44
F0.0162374856801
sS'PublicFreakout'
p45
F0.0117606214469
sS'Gore'
p46
F0.0089994375351499997
sS'MensRights'
p47
F0.0097487703590300005
sS'AlienBlue'
p48
F0.0096796620140100001
sS'offmychest'
p49
F0.010716176261699999
sS'Frisson'
p50
F0.0090589967161099991
sS'arresteddevelopment'
p51
F0.0074216250799699996
sS'childfree'
p52
F0.0089252510226899995
sS'popping'
p53
F0.0071102708478899997
sS'AskScienceFiction'
p54
F0.012703551108499999
sS'misc'
p55
F0.0114311431143
sS'whitepeoplegifs'
p56
F0.012880396319899999
sS'JusticePorn'
p57
F0.010886702185500001
sS'UpliftingNews'
p58
F0.0072357485088499996
sS'AbandonedPorn'
p59
F0.0101093528032
sS'Roadcam'
p60
F0.0084064062613200003
sS'geek'
p61
F0.0118345072657
sS'Jokes'
p62
F0.0101921985886
sS'beards'
p63
F0.00709889708123
sS'tipofmytongue'
p64
F0.0100865347517
sS'NoStupidQuestions'
p65
F0.017514374170699998
sS'3amjokes'
p66
F0.0147146890239
sS'toosoon'
p67
F0.021009329317599999
sS'Military'
p68
F0.0072736576629300002
sS'magicskyfairy'
p69
F0.011504139339900001
sS'Conservative'
p70
F0.0086057643344500008
sS'PrettyGirlsUglyFaces'
p71
F0.0087892104864399998
sS'Braveryjerk'
p72
F0.0134078212291
sS'photoshopbattles'
p73
F0.011587470309599999
sS'IWantToLearn'
p74
F0.0112369262685
sS'Frugal_Jerk'
p75
F0.022118959107799999
sS'creepyPMs'
p76
F0.013698630137
sS'progressive'
p77
F0.0073623833575900003
sS'IdiotsFightingThings'
p78
F0.016859396952300001
sS'WatchItForThePlot'
p79
F0.0094140645094900003
sS'techsupportgore'
p80
F0.013301428672
sS'woahdude'
p81
F0.0107832397645
sS'nononono'
p82
F0.0159028354231
sS'guns'
p83
F0.0071713504549299999
sS'NewsOfTheWeird'
p84
F0.0095583056645499997
sS'shittyadviceanimals'
p85
F0.021147330295600002
sS'futurama'
p86
F0.0096241979834999995
sS'dadjokes'
p87
F0.015884868644399999
sS'montageparodies'
p88
F0.010817581416499999
sS'zombies'
p89
F0.0100806451613
sS'Libertarian'
p90
F0.0097260550582200008
sS'GTAV'
p91
F0.0073644977322700001
sS'ArcherFX'
p92
F0.0096029875961400005
sS'cringe'
p93
F0.011421779488299999
sS'depression'
p94
F0.0073214666176000002
sS'SubredditDrama'
p95
F0.014194848072200001
sS'YouShouldKnow'
p96
F0.014482497156600001
sS'talesfromtechsupport'
p97
F0.0106003197617
sS'mildlyinteresting'
p98
F0.0079364220444900005
sS'pcgaming'
p99
F0.0079414931801899992
sS'whatisthisthing'
p100
F0.0127025361043
sS'glitch_art'
p101
F0.0082596844800499995
sS'AskWomen'
p102
F0.0072589272069700003
sS'NetflixBestOf'
p103
F0.0097856724990699993
sS'gentlemanboners'
p104
F0.0080042286490999998
sS'TheSimpsons'
p105
F0.0091638029782399998
sS'ShouldIbuythisgame'
p106
F0.0078835657974500005
sS'freebies'
p107
F0.010896898574999999
sS'tumblr'
p108
F0.010084860410799999
sS'see'
p109
F0.0071581961345699996
sS'StandUpComedy'
p110
F0.0081978699551599997
sS'changemyview'
p111
F0.0108169872405
sS'fatpeoplestories'
p112
F0.0117993205533
sS'OneY'
p113
F0.00818141396176
sS'KarmaCourt'
p114
F0.0087078370533499993
sS'amiugly'
p115
F0.0078900768834199997
sS'tifu'
p116
F0.0091557331818999995
sS'Cinemagraphs'
p117
F0.0085646780862400004
sS'firstworldanarchists'
p118
F0.0214472448539
sS'offbeat'
p119
F0.016076708868
sS'no_sob_story'
p120
F0.012032085561500001
sS'humor'
p121
F0.0145715528491
sS'psychology'
p122
F0.0074831173571800001
sS'space'
p123
F0.0074879718099899999
sS'skeptic'
p124
F0.0120529280755
sS'shittyfoodporn'
p125
F0.018641120297800001
sS'Showerthoughts'
p126
F0.0091634437824499992
sS'wikipedia'
p127
F0.012148771548799999
sS'ExpectationVsReality'
p128
F0.013418649437800001
sS'socialskills'
p129
F0.0102181349682
sS'DebateReligion'
p130
F0.0071207846298500001
sS'firstworldproblems'
p131
F0.022526648900700001
sS'outside'
p132
F0.021369006254300001
sS'RoomPorn'
p133
F0.0073716542343100003
sS'foodhacks'
p134
F0.0079132273688499993
sS'lifehacks'
p135
F0.0119060767379
sS'memes'
p136
F0.0081371889710799995
sS'Astronomy'
p137
F0.0077130528586800001
sS'SCP'
p138
F0.0078576589595399995
sS'CatsStandingUp'
p139
F0.0076597781855899999
sS'Enhancement'
p140
F0.0081809060739399999
sS'TheWayWeWere'
p141
F0.00778372949448
sS'blackpeoplegifs'
p142
F0.0115296956697
sS'bestof'
p143
F0.0092853655863600008
sS'ProgrammerHumor'
p144
F0.0086984242644999998
sS'techsupport'
p145
F0.0072843450479199998
sS'needamod'
p146
F0.0078485314345799993
sS'casualiama'
p147
F0.013899291101300001
sS'LetsNotMeet'
p148
F0.0072381141242399997
sS'Metal'
p149
F0.0078737530444100007
sS'delusionalartists'
p150
F0.014256198347099999
sS'answers'
p151
F0.016529433452099999
sS'Frugal'
p152
F0.0086504220060000005
sS'promos'
p153
F0.0072020368260399996
sS'NotTimAndEric'
p154
F0.0121662291093
sS'shittyaskscience'
p155
F0.040425093922100003
sS'GamePhysics'
p156
F0.0148078828581
sS'lewronggeneration'
p157
F0.0169322709163
sS'howto'
p158
F0.0108500179835
sS'WritingPrompts'
p159
F0.00750319504184
sS'PoliticalHumor'
p160
F0.0103736121242
sS'ThriftStoreHauls'
p161
F0.0087104830358800001
sS'RedditDayOf'
p162
F0.0076473974179799998
sS'netflix'
p163
F0.0083728718950600006
sS'minimalism'
p164
F0.0081684307409100008
sS'TheBluePill'
p165
F0.0092128980572800008
sS'punk'
p166
F0.0070818579462599996
sS'creepy'
p167
F0.0078610740650299996
sS'cripplingalcoholism'
p168
F0.0096216041397200001
sS'4chan'
p169
F0.013020118005099999
sS'howtonotgiveafuck'
p170
F0.011242783348500001
sS'sixwordstories'
p171
F0.011130692885600001
sS'AnimalsBeingBros'
p172
F0.011608344549099999
sS'confession'
p173
F0.0126425309258
sS'classic4chan'
p174
F0.016360360360399999
sS'whatstheword'
p175
F0.0075694559973399998
sS'OutOfTheLoop'
p176
F0.017063962895
sS'androidcirclejerk'
p177
F0.0076297049847399998
sS'Whatcouldgowrong'
p178
F0.015977742448300001
sS'whatsthisbug'
p179
F0.0084000176842499996
sS'QuotesPorn'
p180
F0.010560293297200001
sS'TrueReddit'
p181
F0.0101175454153
sS'StarWars'
p182
F0.0081873605425400002
sS'AmIFreeToGo'
p183
F0.0077338129496399999
sS'reactiongifs'
p184
F0.0099773537273499992
sS'AntiJokes'
p185
F0.024536445012800001
sS'findareddit'
p186
F0.015422025980699999
sS'PropagandaPosters'
p187
F0.00872613946241
sS'rant'
p188
F0.012460847065200001
sS'conspiratard'
p189
F0.018657657203399999
sS'marijuanaenthusiasts'
p190
F0.00853907555226
sS'introvert'
p191
F0.0076764907470900003
sS'holdmybeer'
p192
F0.0147525676937
sS'TrueAtheism'
p193
F0.0087869807102400003
sS'ContagiousLaughter'
p194
F0.0095448247549599994
sS'nostalgia'
p195
F0.0105471978839
sS'badhistory'
p196
F0.010300136425599999
sS'Damnthatsinteresting'
p197
F0.012047721494199999
sS'AndroidQuestions'
p198
F0.00705796639497
sS'FiftyFifty'
p199
F0.0156717731995
sS'CrazyIdeas'
p200
F0.0220247409288
sS'OldSchoolCool'
p201
F0.0070164179902700002
sS'AskHistorians'
p202
F0.0077890342615700003
sS'lego'
p203
F0.0071963470319600003
sS'Drugs'
p204
F0.0071578473991899998
sS'Bad_Cop_No_Donut'
p205
F0.012271180949299999
sS'ANormalDayInRussia'
p206
F0.013387591413099999
sS'seduction'
p207
F0.0076154806491900004
sS'onetruegod'
p208
F0.012247946228499999
sS'TheFacebookDelusion'
p209
F0.0107507615123
sS'urbanexploration'
p210
F0.0075715476521299998
sS'MorbidReality'
p211
F0.011558031911200001
sS'gif'
p212
F0.0104315594387
sS'beer'
p213
F0.0070043415340100001
sS'wheredidthesodago'
p214
F0.019089522052299999
sS'PenmanshipPorn'
p215
F0.0078492935635800006
sS'ifyoulikeblank'
p216
F0.0113511534237
sS'firstimpression'
p217
F0.0093209054593900009
sS'WebGames'
p218
F0.0086009572032999995
sS'MeanJokes'
p219
F0.0145072536268
sS'fifthworldproblems'
p220
F0.0158605664488
sS'explainlikeimfive'
p221
F0.0070703803012300004
sS'Pareidolia'
p222
F0.0150893218477
sS'GTA'
p223
F0.00765817348984
sS'happy'
p224
F0.011958050901600001
sS'fatlogic'
p225
F0.012017643485399999
sS'TrollYChromosome'
p226
F0.0074051376334199996
sS'explainlikeIAmA'
p227
F0.0180155773789
sS'misleadingthumbnails'
p228
F0.016562896693500001
sS'FloridaMan'
p229
F0.019291754756899999
sS'Unexpected'
p230
F0.016385350318500001
sS'batman'
p231
F0.0077250566504200001
sS'mildlyinfuriating'
p232
F0.0156177884973
sS'cordcutters'
p233
F0.0075210851230299997
sS'somethingimade'
p234
F0.0091196724362599992
sS'raisedbynarcissists'
p235
F0.0074343132595599999
sS'youtubehaiku'
p236
F0.0102191282878
sS'Awwducational'
p237
F0.010168694527700001
sS'Shitty_Car_Mods'
p238
F0.0146536698728
sS'Cyberpunk'
p239
F0.0076818561872900003
sS'shittyaskreddit'
p240
F0.0536679183075
sS'polandball'
p241
F0.0088461538461499997
sS'IASIP'
p242
F0.0084137856642000006
sS'ghettoglamourshots'
p243
F0.011172741679900001
sS'blunderyears'
p244
F0.014704034183699999
sS'webcomics'
p245
F0.0092472420506200005
sS'highdeas'
p246
F0.0075569071974899999
sS'confessions'
p247
F0.0090782122904999995
sS'calvinandhobbes'
p248
F0.0076401902839799999
sS'showerbeer'
p249
F0.0091005612012700007
sS'rage'
p250
F0.014186788974300001
sS'worldpolitics'
p251
F0.010481927710800001
sS'science'
p252
F0.0072717645998600002
sS'AMA'
p253
F0.0113744874459
sS'interestingasfuck'
p254
F0.0132574828764
sS'Perfectfit'
p255
F0.011004819103800001
sS'PerfectTiming'
p256
F0.013757115749500001
sS'behindthegifs'
p257
F0.0145648633979
sS'standupshots'
p258
F0.0116465583374
sS'MarkMyWords'
p259
F0.0149330587024
sS'xbox360'
p260
F0.0071581961345699996
sS'skyrim'
p261
F0.0095369358237099994
sS'cats'
p262
F0.0070587367994200002
sS'LifeProTips'
p263
F0.0084678942242099996
sS'Glitch_in_the_Matrix'
p264
F0.0104239805563
sS'ICanDrawThat'
p265
F0.0072197153766099999
sS'fullmoviesonyoutube'
p266
F0.0090961022981900005
sS'TalesFromThePizzaGuy'
p267
F0.00838293234974
sS'gamernews'
p268
F0.0081162702906799992
sS'NewsOfTheStupid'
p269
F0.015535260333300001
sS'Economics'
p270
F0.0070543222669500003
sS'FoodPorn'
p271
F0.0070414689038899997
sS'spaceporn'
p272
F0.0082854331728
sS'crappymusic'
p273
F0.0096321438400100001
sS'awesome'
p274
F0.010612916495300001
sS'Cooking'
p275
F0.0073929870912400001
sS'teenagers'
p276
F0.00767310870518
sS'TrueAskReddit'
p277
F0.0097494834710700005
sS'FanTheories'
p278
F0.0132929369438
sS'gadgets'
p279
F0.0073322683706099996
sS'PoliticalDiscussion'
p280
F0.0074892241379299999
sS'conspiracy'
p281
F0.010949224284200001
sS'needadvice'
p282
F0.0089054404145099998
sS'Infographics'
p283
F0.0079320567262200006
sS'AnythingGoesNews'
p284
F0.0088355008438399992
sS'counting'
p285
F0.0081838884144599996
sS'bestofworldstar'
p286
F0.0085109376099
sS'southpark'
p287
F0.0096315754024399996
sS'SRSsucks'
p288
F0.0090958704748000004
sS'TalesFromYourServer'
p289
F0.0076326555535200001
sS'watchpeopledie'
p290
F0.010827594442900001
sS'ForeverAlone'
p291
F0.0099819535303399994
sS'MURICA'
p292
F0.014317277949600001
sS'HighQualityGifs'
p293
F0.0077776361086300001
sS'softwaregore'
p294
F0.015441448097499999
sS'Survival'
p295
F0.0071112515802800001
sS'shittyama'
p296
F0.044583667225199998
sS'circlebroke'
p297
F0.01230394808
sS'comics'
p298
F0.011683392365199999
sS'FutureWhatIf'
p299
F0.0088224368499300009
sS'badtattoos'
p300
F0.0102849656076
sS'scifi'
p301
F0.0079077123453299997
sS'britishproblems'
p302
F0.0083227848101299993
sS'nottheonion'
p303
F0.0109670655195
sS'itookapicture'
p304
F0.0081796603980299996
sS'nonononoyes'
p305
F0.013148565904000001
sS'Pizza'
p306
F0.0080011430204300002
sS'Autos'
p307
F0.0075776605542999999
sS'wallpapers'
p308
F0.0090170520489199994
sS'firefly'
p309
F0.0071432719670100004
sS'notinteresting'
p310
F0.024365482233500001
sS'facepalm'
p311
F0.0151378398493
sS'forwardsfromgrandma'
p312
F0.018663426488500001
sS'AnimalsBeingJerks'
p313
F0.013321099670400001
sS'askscience'
p314
F0.0071450087354699996
sS'CrappyDesign'
p315
F0.016965495673899999
sS'techsupportmacgyver'
p316
F0.013513513513500001
sS'Images'
p317
F0.0082509535300099995
sS'shittyreactiongifs'
p318
F0.017553071787599999
sS'bigdickproblems'
p319
F0.0083790083790100008
sS'Gaming4Gamers'
p320
F0.0083184789067099994
sS'Physics'
p321
F0.0070376072135500001
sS'startrek'
p322
F0.0076168899652399999
sS'truegaming'
p323
F0.0090461696014599996
sS'DAE'
p324
F0.0103481539946
sS'MachinePorn'
p325
F0.0080327371930900004
sS'ConfusedBoners'
p326
F0.0085192069392800007
sS'entertainment'
p327
F0.0095523601443000001
sS'HumanPorn'
p328
F0.0097555377022799997
sS'NSFWFunny'
p329
F0.0092007304396700008
sS'atheism'
p330
F0.0070352417136100003
sS'terriblefacebookmemes'
p331
F0.018693009118500001
sS'TumblrInAction'
p332
F0.012091700639200001
sS'thatHappened'
p333
F0.018031042306699999
sS'cringepics'
p334
F0.0113106898925
sS'tall'
p335
F0.0073208439432500003
sS'HailCorporate'
p336
F0.0117399811581
sS'ImGoingToHellForThis'
p337
F0.016868754528200001
sS'self'
p338
F0.013796515143199999
sS'shutupandtakemymoney'
p339
F0.0123162322737
sS'GifSound'
p340
F0.0079258626996699996
s.