(dp1
S'Braveryjerk'
p2
F0.0073729142413699999
sS'darksouls'
p3
F0.034153546852999997
sS'demonssouls'
p4
F0.042737689687200001
sS'TwoBestFriendsPlay'
p5
F0.0070197830248899997
sS'DarkSouls2'
p6
F0.021119549449600001
sS'Berserk'
p7
F0.0102476515798
s.