(dp1
S'climateskeptics'
p2
F0.018691588785000001
sS'circlebroke'
p3
F0.012698730126999999
sS'CCW'
p4
F0.0120781855062
sS'PanicHistory'
p5
F0.015826637448299999
sS'ShitPoliticsSays'
p6
F0.078778625954200002
sS'Bitcoin'
p7
F0.0090851131654400008
sS'inthenews'
p8
F0.0090968161143599995
sS'Conservative'
p9
F0.025709584533099999
sS'PoliticalDiscussion'
p10
F0.030959291508499999
sS'askphilosophy'
p11
F0.0087219054008700007
sS'Foodforthought'
p12
F0.0092733463739799998
sS'ShitRConservativeSays'
p13
F0.016726403823199999
sS'badlinguistics'
p14
F0.0087221979938900008
sS'quityourbullshit'
p15
F0.0071929901041900002
sS'JoeRogan'
p16
F0.0070852194449899999
sS'ProtectAndServe'
p17
F0.0101824914044
sS'environment'
p18
F0.0074872469968700001
sS'texas'
p19
F0.0073359461360700002
sS'MensRights'
p20
F0.012380493844099999
sS'BasicIncome'
p21
F0.018644721614999998
sS'DebateAnAtheist'
p22
F0.0074573354366800002
sS'WhiteRights'
p23
F0.012420785804799999
sS'lostgeneration'
p24
F0.024165259191900001
sS'magicskyfairy'
p25
F0.011529933481199999
sS'homestead'
p26
F0.0070786019761099996
sS'GunsAreCool'
p27
F0.0188340807175
sS'litecoin'
p28
F0.0070245334451700002
sS'Liberal'
p29
F0.029251453488400001
sS'progressive'
p30
F0.0191429833603
sS'progun'
p31
F0.0430673896204
sS'crypto'
p32
F0.0079419105967800004
sS'PropagandaPosters'
p33
F0.013258286429
sS'vexillology'
p34
F0.0080601340336900005
sS'shittyadviceanimals'
p35
F0.00776397515528
sS'SubredditDrama'
p36
F0.010961644450799999
sS'Cyberpunk'
p37
F0.0074668527564500002
sS'Libertarian'
p38
F0.051582159428199999
sS'Anarcho_Capitalism'
p39
F0.124249205041
sS'TrueAtheism'
p40
F0.0073356401384099996
sS'badhistory'
p41
F0.014455868879199999
sS'circlebroke2'
p42
F0.0116044399596
sS'CryptoCurrency'
p43
F0.0072332730560599997
sS'POLITIC'
p44
F0.0163360560093
sS'MarkMyWords'
p45
F0.0088163029339500005
sS'changemyview'
p46
F0.0118318368717
sS'OneY'
p47
F0.0085456805469200006
sS'Feminism'
p48
F0.0072104129600099997
sS'forwardsfromgrandma'
p49
F0.010346124905900001
sS'philosophy'
p50
F0.0098326284206300008
sS'skeptic'
p51
F0.0104189636163
sS'wikipedia'
p52
F0.0072036018009000004
sS'DebateReligion'
p53
F0.0073471008737099998
sS'Anticonsumption'
p54
F0.010366530914500001
sS'socialism'
p55
F0.027646901946800001
sS'Republican'
p56
F0.017834121186100001
sS'Anarchy101'
p57
F0.0191413727099
sS'guns'
p58
F0.0080957409362899992
sS'Economics'
p59
F0.023453944071400001
sS'FloridaMan'
p60
F0.0084509009638200003
sS'delusionalartists'
p61
F0.0083174256885699994
sS'conservatives'
p62
F0.016793893129800001
sS'newhampshire'
p63
F0.0109512561735
sS'PoliticalHumor'
p64
F0.014915434811600001
sS'TheoryOfReddit'
p65
F0.0099853157121899995
sS'TheBluePill'
p66
F0.0090382159347699997
sS'ar15'
p67
F0.0086540419466499992
sS'gunpolitics'
p68
F0.0297140303843
sS'GunPorn'
p69
F0.0075071496663499998
sS'QuotesPorn'
p70
F0.0072673704885799998
sS'ShitAmericansSay'
p71
F0.018675721562000001
sS'TrueReddit'
p72
F0.0088441442589500003
sS'AmIFreeToGo'
p73
F0.024319536157199999
sS'conspiratard'
p74
F0.013130113486400001
sS'Firearms'
p75
F0.020240032546799999
sS'privacy'
p76
F0.0117802488165
sS'Bad_Cop_No_Donut'
p77
F0.018809728472499999
sS'TheFacebookDelusion'
p78
F0.0078296273097399997
sS'California'
p79
F0.00763261671543
sS'ak47'
p80
F0.0083912730759999991
sS'CombatFootage'
p81
F0.0078315478389400003
sS'collapse'
p82
F0.018785425101200001
sS'occupywallstreet'
p83
F0.0145744267392
sS'NeutralPolitics'
p84
F0.015788540003499999
sS'rage'
p85
F0.0076077979929399997
sS'worldpolitics'
p86
F0.0121568432066
sS'TheRedPill'
p87
F0.0082526821216900009
sS'metacanada'
p88
F0.0108568075117
sS'Ask_Politics'
p89
F0.0131283468647
sS'Civcraft'
p90
F0.0098922451863599995
sS'TrueAskReddit'
p91
F0.0085030835357900007
sS'conspiracy'
p92
F0.0095708375436099995
sS'AnythingGoesNews'
p93
F0.011607992388199999
sS'ShitRedditSays'
p94
F0.0073633245914900003
sS'SRSsucks'
p95
F0.026955950032900002
sS'Israel'
p96
F0.0081488688883499995
sS'AskSocialScience'
p97
F0.010394168466500001
sS'gats'
p98
F0.0084560829241699994
sS'911truth'
p99
F0.00750144258511
sS'Frugal_Jerk'
p100
F0.0072036673215499997
sS'FutureWhatIf'
p101
F0.0088866532528499992
sS'economy'
p102
F0.024098103522000001
sS'Anarchism'
p103
F0.0287979966611
sS'badphilosophy'
p104
F0.020231781575299999
sS'ukpolitics'
p105
F0.00744514106583
sS'DebateAChristian'
p106
F0.0074607666580899998
sS'EnoughLibertarianSpam'
p107
F0.064345059218699999
sS'law'
p108
F0.0081093090424399997
sS'BitcoinMarkets'
p109
F0.0093075852470399997
sS'Silverbugs'
p110
F0.0101186322401
sS'preppers'
p111
F0.0118052139695
sS'TumblrInAction'
p112
F0.0086465713942600001
sS'HailCorporate'
p113
F0.0101961653552
s.