(dp1
S'awwwtf'
p2
F0.0092091521883599994
sS'DoesAnybodyElse'
p3
F0.010730276362499999
sS'pettyrevenge'
p4
F0.00911750697421
sS'cringepics'
p5
F0.00742391494046
sS'uglyduckling'
p6
F0.0070130698119200002
sS'dadjokes'
p7
F0.0119007772695
sS'futurama'
p8
F0.0090405518394600006
sS'perfectloops'
p9
F0.012420990739399999
sS'fifthworldproblems'
p10
F0.015800841195900001
sS'InternetIsBeautiful'
p11
F0.0073212346827999999
sS'TalesFromRetail'
p12
F0.0072810068306399999
sS'TheoryOfReddit'
p13
F0.0087394957983200003
sS'WouldYouRather'
p14
F0.014894130907299999
sS'quityourbullshit'
p15
F0.014149616111300001
sS'LearnUselessTalents'
p16
F0.010199845816300001
sS'shittybattlestations'
p17
F0.014381789963800001
sS'whowouldwin'
p18
F0.010886994683100001
sS'holdmybeer'
p19
F0.0084972981891699995
sS'FreeKarma'
p20
F0.0100381076308
sS'AlienBlue'
p21
F0.0072933549432699996
sS'offmychest'
p22
F0.00714419001413
sS'confession'
p23
F0.0085576576281200002
sS'YouShouldKnow'
p24
F0.0080825497750400006
sS'shutupandtakemymoney'
p25
F0.00727787818102
sS'whitepeoplegifs'
p26
F0.0089658774373299992
sS'softwaregore'
p27
F0.013143382352899999
sS'Jokes'
p28
F0.0076205049732200004
sS'NoStupidQuestions'
p29
F0.015558608351199999
sS'3amjokes'
p30
F0.0154427285857
sS'toosoon'
p31
F0.0129587675578
sS'magicskyfairy'
p32
F0.0130283290411
sS'PrettyGirlsUglyFaces'
p33
F0.0072263953598899998
sS'Braveryjerk'
p34
F0.016816143497800001
sS'photoshopbattles'
p35
F0.00814760587821
sS'creepyPMs'
p36
F0.0095408870994999999
sS'IdiotsFightingThings'
p37
F0.0090265153889600002
sS'ConfusedBoners'
p38
F0.0080242685194199994
sS'techsupportgore'
p39
F0.0081580575316999998
sS'nononono'
p40
F0.0095387943750600002
sS'vexillology'
p41
F0.0075245116667900002
sS'NewsOfTheWeird'
p42
F0.0079944865609899995
sS'shittyadviceanimals'
p43
F0.027483782860999999
sS'montageparodies'
p44
F0.0097006651884700007
sS'DeepIntoYouTube'
p45
F0.014341441028
sS'ArcherFX'
p46
F0.0075104591965300003
sS'cringe'
p47
F0.0073608930751799997
sS'whatisthisthing'
p48
F0.0078006752823400003
sS'TheSimpsons'
p49
F0.00726785885053
sS'circlebroke2'
p50
F0.0078856579595900003
sS'tumblr'
p51
F0.0086980532928300006
sS'POLITIC'
p52
F0.0078696519618700004
sS'interestingasfuck'
p53
F0.00940198599922
sS'MarkMyWords'
p54
F0.016863971409399998
sS'changemyview'
p55
F0.0072205776462100002
sS'KarmaCourt'
p56
F0.0096061479346800007
sS'firstworldanarchists'
p57
F0.0149855284157
sS'PerfectTiming'
p58
F0.0090781105878899992
sS'no_sob_story'
p59
F0.0132613543011
sS'humor'
p60
F0.0078406576035400001
sS'Glitch_in_the_Matrix'
p61
F0.0092165898617500002
sS'AMA'
p62
F0.0077495913301399997
sS'shittyfoodporn'
p63
F0.015093839992100001
sS'ExpectationVsReality'
p64
F0.010182088443
sS'socialskills'
p65
F0.0071949685534600004
sS'firstworldproblems'
p66
F0.012191164882
sS'outside'
p67
F0.0160257976254
sS'GuessTheMovie'
p68
F0.0083746898263
sS'facepalm'
p69
F0.010003290556099999
sS'lifehacks'
p70
F0.0082364227718400001
sS'memes'
p71
F0.0081340892284900001
sS'SCP'
p72
F0.00740210124164
sS'CatsStandingUp'
p73
F0.0087558542048500002
sS'SubredditDrama'
p74
F0.0090648016097799999
sS'blackpeoplegifs'
p75
F0.0075757575757600002
sS'glitch_art'
p76
F0.0072202166065000002
sS'needamod'
p77
F0.0101691397738
sS'casualiama'
p78
F0.0127206029967
sS'FloridaMan'
p79
F0.0128408951938
sS'delusionalartists'
p80
F0.010635119794500001
sS'answers'
p81
F0.0096420745069399991
sS'NotTimAndEric'
p82
F0.0089437162683100001
sS'shittyaskscience'
p83
F0.028387554198100001
sS'GamePhysics'
p84
F0.0097673820845599994
sS'lewronggeneration'
p85
F0.016039921582600002
sS'youtubehaiku'
p86
F0.0078021936602500003
sS'PoliticalHumor'
p87
F0.0079635949943099998
sS'4chan'
p88
F0.00913530400262
sS'cripplingalcoholism'
p89
F0.0072194719471899999
sS'watchpeopledie'
p90
F0.00751010976314
sS'wheredidthesodago'
p91
F0.013882389642799999
sS'AnimalsBeingBros'
p92
F0.0088915234143399999
sS'classic4chan'
p93
F0.013446126447
sS'whatstheword'
p94
F0.0082662372517399996
sS'NSFWFunny'
p95
F0.0087468606564500007
sS'androidcirclejerk'
p96
F0.0072910824453199996
sS'ShitAmericansSay'
p97
F0.0076894456157800004
sS'drunk'
p98
F0.0090807876974500004
sS'ANormalDayInRussia'
p99
F0.0102689486553
sS'misc'
p100
F0.0093635178380900002
sS'AntiJokes'
p101
F0.022582278481000001
sS'findareddit'
p102
F0.015369168983600001
sS'PropagandaPosters'
p103
F0.0076862435947999998
sS'rant'
p104
F0.0126708902968
sS'conspiratard'
p105
F0.0124529394729
sS'ContagiousLaughter'
p106
F0.0083273852010499992
sS'nostalgia'
p107
F0.0085120254998600001
sS'badhistory'
p108
F0.0075839653304399998
sS'Damnthatsinteresting'
p109
F0.0096376084776100008
sS'FiftyFifty'
p110
F0.0108996214663
sS'CrazyIdeas'
p111
F0.016249283119899999
sS'OutOfTheLoop'
p112
F0.0144546949214
sS'Whatcouldgowrong'
p113
F0.0094077642391599998
sS'onetruegod'
p114
F0.0104467866803
sS'TheFacebookDelusion'
p115
F0.0075320701423999999
sS'MorbidReality'
p116
F0.0074063210383499998
sS'Portal'
p117
F0.0074692999113799997
sS'ifyoulikeblank'
p118
F0.0076423849093199998
sS'firstimpression'
p119
F0.0090220964905599992
sS'shittyadvice'
p120
F0.0536679183075
sS'MeanJokes'
p121
F0.015042441173299999
sS'confessions'
p122
F0.0099184916036499995
sS'Pareidolia'
p123
F0.0109702916326
sS'shittyreactiongifs'
p124
F0.016307403936300001
sS'fatlogic'
p125
F0.0072156196943999997
sS'TrollYChromosome'
p126
F0.0075245882213500004
sS'explainlikeIAmA'
p127
F0.017271299892600001
sS'misleadingthumbnails'
p128
F0.016220892509600002
sS'mildlyinfuriating'
p129
F0.0108189029848
sS'oddlysatisfying'
p130
F0.00988634313549
sS'Unexpected'
p131
F0.011035555335000001
sS'Awwducational'
p132
F0.0076628352490400002
sS'Shitty_Car_Mods'
p133
F0.0092081678557600008
sS'IASIP'
p134
F0.0083312294874999995
sS'ghettoglamourshots'
p135
F0.0083358441297599999
sS'blunderyears'
p136
F0.011193152424399999
sS'rage'
p137
F0.0103446632026
sS'thatHappened'
p138
F0.013240977340400001
sS'Perfectfit'
p139
F0.0098895224518900007
sS'offbeat'
p140
F0.0076797335225000001
sS'behindthegifs'
p141
F0.0111327724195
sS'standupshots'
p142
F0.0072022372907300002
sS'ICanDrawThat'
p143
F0.0074352619434200004
sS'fullmoviesonyoutube'
p144
F0.0072647658854599999
sS'AskScienceFiction'
p145
F0.0092331944600800003
sS'NewsOfTheStupid'
p146
F0.011919698870799999
sS'GTA'
p147
F0.0085242408098000003
sS'crappymusic'
p148
F0.012341153470199999
sS'awesome'
p149
F0.0079047217537899991
sS'teenagers'
p150
F0.0074011269496400004
sS'TrueAskReddit'
p151
F0.0082734935997499995
sS'FanTheories'
p152
F0.0101286038497
sS'tipofmytongue'
p153
F0.0081557447294699995
sS'polandball'
p154
F0.0079342134849499993
sS'counting'
p155
F0.010952128599200001
sS'southpark'
p156
F0.0077264325323500001
sS'DAE'
p157
F0.0111455819832
sS'techsupportmacgyver'
p158
F0.0085258760337599999
sS'MURICA'
p159
F0.0085472081455400008
sS'HighQualityGifs'
p160
F0.0073897313524700003
sS'self'
p161
F0.0087688219663400006
sS'shittyama'
p162
F0.058780643397400002
sS'circlebroke'
p163
F0.010473363021600001
sS'badtattoos'
p164
F0.0096987041895199994
sS'nottheonion'
p165
F0.0071908892789599999
sS'howtonotgiveafuck'
p166
F0.0078892005610099996
sS'nonononoyes'
p167
F0.0087112297586799999
sS'Frugal_Jerk'
p168
F0.018707692307699999
sS'FutureWhatIf'
p169
F0.0095474271543700001
sS'sixwordstories'
p170
F0.0121257114576
sS'notinteresting'
p171
F0.021397783251199998
sS'forwardsfromgrandma'
p172
F0.015139708338
sS'AnimalsBeingJerks'
p173
F0.0083727161091099993
sS'highdeas'
p174
F0.0095893779198400007
sS'CrappyDesign'
p175
F0.0132298760746
sS'terriblefacebookmemes'
p176
F0.019172071728299999
sS'TumblrInAction'
p177
F0.0085259346734299999
sS'HailCorporate'
p178
F0.0097924714760599992
sS'ImGoingToHellForThis'
p179
F0.010077377344899999
s.