(dp1
S'FancyFollicles'
p2
F0.0084867320105200001
sS'awwwtf'
p3
F0.00721604849185
sS'NoStupidQuestions'
p4
F0.0105614550059
sS'DoesAnybodyElse'
p5
F0.0070672213292999999
sS'pettyrevenge'
p6
F0.0089610667645300002
sS'circlebroke'
p7
F0.068289338361299995
sS'PublicFreakout'
p8
F0.012914972899700001
sS'PanicHistory'
p9
F0.017549423829199998
sS'inthenews'
p10
F0.0070089897912499997
sS'Conservative'
p11
F0.012649436976
sS'PurplePillDebate'
p12
F0.017895351098999999
sS'dadjokes'
p13
F0.0085540656582299996
sS'Hiphopcirclejerk'
p14
F0.0089759281925699992
sS'perfectloops'
p15
F0.0076592234725700002
sS'everymanshouldknow'
p16
F0.0097690366824100001
sS'dataisbeautiful'
p17
F0.0115025964599
sS'InternetIsBeautiful'
p18
F0.0082258945844999997
sS'ShitAmericansSay'
p19
F0.018134945328500001
sS'Foodforthought'
p20
F0.013277574490300001
sS'islam'
p21
F0.0087163232963499999
sS'TalesFromRetail'
p22
F0.0092155228304200004
sS'AskMen'
p23
F0.0081566247842700008
sS'ShitRConservativeSays'
p24
F0.0124599908551
sS'badlinguistics'
p25
F0.022107291349799999
sS'quityourbullshit'
p26
F0.020403058672199999
sS'Anticonsumption'
p27
F0.0074792243767300001
sS'ProtectAndServe'
p28
F0.0091024143302200003
sS'writing'
p29
F0.0074396078888999996
sS'environment'
p30
F0.00745716400068
sS'transpassing'
p31
F0.0088000657948799996
sS'whowouldwin'
p32
F0.0095914011674299998
sS'woahdude'
p33
F0.0078101787002799999
sS'Fallout'
p34
F0.0070639980451799997
sS'4chan'
p35
F0.010914675990999999
sS'MensRights'
p36
F0.0196680109884
sS'nononono'
p37
F0.0099470899470899994
sS'offmychest'
p38
F0.00999884776402
sS'Frisson'
p39
F0.0078753076291999992
sS'YouShouldKnow'
p40
F0.0089891535832800004
sS'childfree'
p41
F0.0116222317125
sS'popping'
p42
F0.0070987406753800003
sS'linguistics'
p43
F0.0112570356473
sS'whitepeoplegifs'
p44
F0.0073598919648899998
sS'UnresolvedMysteries'
p45
F0.0074606801989499996
sS'UpliftingNews'
p46
F0.0097811911317199993
sS'softwaregore'
p47
F0.0083614390106800003
sS'vegan'
p48
F0.0086559647466200006
sS'lostgeneration'
p49
F0.012604403948399999
sS'cringepics'
p50
F0.011972532438
sS'magicskyfairy'
p51
F0.0122296341217
sS'Braveryjerk'
p52
F0.0081593261975800007
sS'GunsAreCool'
p53
F0.015336177127799999
sS'AbandonedPorn'
p54
F0.0074959612277900002
sS'Liberal'
p55
F0.010727272727299999
sS'creepyPMs'
p56
F0.027414658323499999
sS'progressive'
p57
F0.014012947635800001
sS'IdiotsFightingThings'
p58
F0.0071550785503200001
sS'books'
p59
F0.0070459057786900004
sS'PoliticalDiscussion'
p60
F0.0128003357465
sS'PropagandaPosters'
p61
F0.015052797124200001
sS'CrappyDesign'
p62
F0.0118986824635
sS'comics'
p63
F0.0110704682542
sS'montageparodies'
p64
F0.0079823606575699993
sS'Libertarian'
p65
F0.011299061715300001
sS'DeepIntoYouTube'
p66
F0.0104848018469
sS'ArcherFX'
p67
F0.0072576464489400002
sS'cringe'
p68
F0.012949575479100001
sS'europe'
p69
F0.011109897909000001
sS'TrueAtheism'
p70
F0.0088232328325100005
sS'badhistory'
p71
F0.045855379188700002
sS'AskWomen'
p72
F0.010754188172899999
sS'NetflixBestOf'
p73
F0.0083109008702899993
sS'TheSimpsons'
p74
F0.0074337160320499997
sS'askphilosophy'
p75
F0.0102603475954
sS'literature'
p76
F0.0087784555869699996
sS'Christianity'
p77
F0.0087705181847400008
sS'tumblr'
p78
F0.011579917457999999
sS'interestingasfuck'
p79
F0.0096136785224599994
sS'MarkMyWords'
p80
F0.0101559961001
sS'changemyview'
p81
F0.019135486075499999
sS'TwoXChromosomes'
p82
F0.013335572467800001
sS'fatpeoplestories'
p83
F0.0091214309059000007
sS'OneY'
p84
F0.0113463166808
sS'Feminism'
p85
F0.0309101316543
sS'firstworldanarchists'
p86
F0.0104380518934
sS'offbeat'
p87
F0.011378002528400001
sS'no_sob_story'
p88
F0.012956219832299999
sS'femalefashionadvice'
p89
F0.0079640673360000004
sS'humor'
p90
F0.0081100879028900008
sS'psychology'
p91
F0.0088740009402900003
sS'Glitch_in_the_Matrix'
p92
F0.0071961203525099998
sS'skeptic'
p93
F0.0138551391909
sS'shittyfoodporn'
p94
F0.0100724982173
sS'wikipedia'
p95
F0.0089059351231900001
sS'ExpectationVsReality'
p96
F0.00858369098712
sS'DebateReligion'
p97
F0.0091867762178900001
sS'firstworldproblems'
p98
F0.00764826012093
sS'outside'
p99
F0.010006699045400001
sS'facepalm'
p100
F0.0121047199024
sS'worldnews'
p101
F0.0071640690331799999
sS'tipofmytongue'
p102
F0.0070304516656399998
sS'Anarchy101'
p103
F0.0092348284960399995
sS'vexillology'
p104
F0.0104185706452
sS'math'
p105
F0.0072920245867200001
sS'AskFeminists'
p106
F0.0178721811547
sS'LetsTalkMusic'
p107
F0.0090222085132600008
sS'blackpeoplegifs'
p108
F0.0093235596707799996
sS'bestof'
p109
F0.0155250413536
sS'needamod'
p110
F0.0070927453550199996
sS'casualiama'
p111
F0.0106011924194
sS'LetsNotMeet'
p112
F0.0084827453248499992
sS'delusionalartists'
p113
F0.0124537361208
sS'OkCupid'
p114
F0.0088010817996400006
sS'lgbt'
p115
F0.019432748808599999
sS'promos'
p116
F0.0080268025406600007
sS'LadyBoners'
p117
F0.0070412415577000001
sS'shittyaskscience'
p118
F0.0097431355181599993
sS'news'
p119
F0.0080476446646999995
sS'ainbow'
p120
F0.019311845505200001
sS'lewronggeneration'
p121
F0.0318250019743
sS'worldbuilding'
p122
F0.0076302112130900001
sS'youtubehaiku'
p123
F0.0098072143480899994
sS'PoliticalHumor'
p124
F0.0087184630815500003
sS'TheoryOfReddit'
p125
F0.016319129646400001
sS'RedditDayOf'
p126
F0.0092599858746000002
sS'Anarcho_Capitalism'
p127
F0.010986788891900001
sS'vegetarian'
p128
F0.0072758827848599999
sS'TheBluePill'
p129
F0.072797980487099997
sS'watchpeopledie'
p130
F0.00876852642198
sS'wheredidthesodago'
p131
F0.0116242971957
sS'AnimalsBeingBros'
p132
F0.0093103821587100007
sS'ukpolitics'
p133
F0.0098177618069799997
sS'classic4chan'
p134
F0.0087093677136200007
sS'Games'
p135
F0.0083572572719700002
sS'ANormalDayInRussia'
p136
F0.0073042296585700004
sS'paradoxplaza'
p137
F0.0084885900121300008
sS'QuotesPorn'
p138
F0.010035786525600001
sS'circlebroke2'
p139
F0.0313896457766
sS'TrueReddit'
p140
F0.017050587172499999
sS'confession'
p141
F0.0124146124146
sS'reactiongifs'
p142
F0.0084509119059200007
sS'community'
p143
F0.0078219376661000008
sS'NotTimAndEric'
p144
F0.0097194881889800001
sS'rant'
p145
F0.0098531810766699993
sS'conspiratard'
p146
F0.030915576694399999
sS'badphilosophy'
p147
F0.026315789473699999
sS'Documentaries'
p148
F0.0082434878413500008
sS'TrollXChromosomes'
p149
F0.018108160874700002
sS'AskScienceFiction'
p150
F0.0091159434051800003
sS'ContagiousLaughter'
p151
F0.0080524903071899998
sS'harrypotter'
p152
F0.0075902349742999996
sS'GamePhysics'
p153
F0.0080465854949699992
sS'unitedkingdom'
p154
F0.0096686526601899997
sS'Damnthatsinteresting'
p155
F0.0076486928726399997
sS'HistoryPorn'
p156
F0.010712526678700001
sS'FiftyFifty'
p157
F0.0083903351213000001
sS'CrazyIdeas'
p158
F0.010673705956599999
sS'OldSchoolCool'
p159
F0.0079244359822599995
sS'AskHistorians'
p160
F0.014485804416399999
sS'Bad_Cop_No_Donut'
p161
F0.012296864497299999
sS'OutOfTheLoop'
p162
F0.017623492306999999
sS'MorbidReality'
p163
F0.0149015676267
sS'SubredditDrama'
p164
F0.0366550391251
sS'shittyreactiongifs'
p165
F0.00717788359036
sS'misleadingthumbnails'
p166
F0.0079250303696400005
sS'raisedbynarcissists'
p167
F0.0101737883185
sS'Pareidolia'
p168
F0.0072640567816299999
sS'asktransgender'
p169
F0.012100737100700001
sS'holdmybeer'
p170
F0.0076909123889000001
sS'fatlogic'
p171
F0.011381057554899999
sS'TrollYChromosome'
p172
F0.0170059520832
sS'explainlikeIAmA'
p173
F0.010076217542999999
sS'hiphopheads'
p174
F0.0079489136888499998
sS'FloridaMan'
p175
F0.0122124974557
sS'occupywallstreet'
p176
F0.0085034013605399996
sS'mildlyinfuriating'
p177
F0.010053127476599999
sS'oddlysatisfying'
p178
F0.0092748591753000001
sS'Unexpected'
p179
F0.0105705592673
sS'Awwducational'
p180
F0.0093028532531599997
sS'TheGirlSurvivalGuide'
p181
F0.0070258938183499998
sS'NeutralPolitics'
p182
F0.0070263940185599999
sS'SRSGaming'
p183
F0.081941661099999993
sS'blunderyears'
p184
F0.012560662289500001
sS'television'
p185
F0.0081925949423799996
sS'againstmensrights'
p186
F0.081132075471699996
sS'rage'
p187
F0.018128368446799999
sS'worldpolitics'
p188
F0.0123757513849
sS'science'
p189
F0.0093149883562600004
sS'TheRedPill'
p190
F0.0106595811191
sS'PerfectTiming'
p191
F0.0071840280678299997
sS'behindthegifs'
p192
F0.010084623141999999
sS'standupshots'
p193
F0.0125461506906
sS'socialism'
p194
F0.026859005311400001
sS'civ'
p195
F0.0086076069429999996
sS'history'
p196
F0.0085591336832600007
sS'fullmoviesonyoutube'
p197
F0.0070064510616499997
sS'gallifrey'
p198
F0.0076159828372200002
sS'gamernews'
p199
F0.0072895653768600003
sS'Economics'
p200
F0.0096772934795300008
sS'bisexual'
p201
F0.0089487140923400002
sS'FeMRADebates'
p202
F0.0146192679849
sS'TrueAskReddit'
p203
F0.010511911426299999
sS'FanTheories'
p204
F0.0096302855877800006
sS'blackladies'
p205
F0.019806065607599999
sS'conspiracy'
p206
F0.011464394569100001
sS'polandball'
p207
F0.012574762946799999
sS'politics'
p208
F0.010038688294
sS'technology'
p209
F0.0071693023190499998
sS'SRSsucks'
p210
F0.032198306280900001
sS'TalesFromYourServer'
p211
F0.0072412575061799999
sS'asmr'
p212
F0.0072733884898600002
sS'ForeverAlone'
p213
F0.0089363557105500008
sS'MURICA'
p214
F0.0083241204396199992
sS'HighQualityGifs'
p215
F0.0076115646676099998
sS'self'
p216
F0.011792325543699999
sS'shittyama'
p217
F0.0086381427992999991
sS'AskSocialScience'
p218
F0.012125479151999999
sS'TheWayWeWere'
p219
F0.0070063694267500001
sS'JusticePorn'
p220
F0.010715874320999999
sS'TumblrInAction'
p221
F0.018780641106200001
sS'scifi'
p222
F0.0077309389742800001
sS'britishproblems'
p223
F0.0077278793333500004
sS'RedditLaqueristas'
p224
F0.0071349434965699999
sS'nottheonion'
p225
F0.012101821075399999
sS'nyc'
p226
F0.0075177203407999996
sS'nonononoyes'
p227
F0.0086877144385999992
sS'Frugal_Jerk'
p228
F0.0075533946865800001
sS'CrusaderKings'
p229
F0.0079803224924799993
sS'Whatcouldgowrong'
p230
F0.0087537553092299995
sS'fifthworldproblems'
p231
F0.0077239112571900002
sS'BasicIncome'
p232
F0.0098912715191799994
sS'canada'
p233
F0.0071221945137199998
sS'Anarchism'
p234
F0.020934728981899998
sS'MapPorn'
p235
F0.011548690298399999
sS'notinteresting'
p236
F0.0088495575221199992
sS'forwardsfromgrandma'
p237
F0.027686442697200001
sS'AnimalsBeingJerks'
p238
F0.0091877010846100008
sS'askscience'
p239
F0.0079853462311999992
sS'Futurology'
p240
F0.00791040911445
sS'philosophy'
p241
F0.0105021034472
sS'gameofthrones'
p242
F0.0077190762417000004
sS'actuallesbians'
p243
F0.0108180506903
sS'EnoughLibertarianSpam'
p244
F0.0378075253256
sS'Gaming4Gamers'
p245
F0.0071029934043599996
sS'badtattoos'
p246
F0.0076695794304399998
sS'startrek'
p247
F0.0072098878461899999
sS'truegaming'
p248
F0.011353124211600001
sS'short'
p249
F0.0076241817481699998
sS'GirlGamers'
p250
F0.024791473586699999
sS'TrueFilm'
p251
F0.0092739798622200002
sS'HumanPorn'
p252
F0.011502556123600001
sS'asoiaf'
p253
F0.0084379969493400004
sS'atheism'
p254
F0.0083692669541399999
sS'terriblefacebookmemes'
p255
F0.0116228703436
sS'Shitstatistssay'
p256
F0.0073633245914900003
sS'thatHappened'
p257
F0.019047051579999998
sS'HailCorporate'
p258
F0.0155454862321
sS'ImGoingToHellForThis'
p259
F0.0088381290609000004
sS'SkincareAddiction'
p260
F0.0071793276831799997
s.