(dp1
S'uglyduckling'
p2
F0.0123727623728
sS'BuyItForLife'
p3
F0.00749695100079
sS'everymanshouldknow'
p4
F0.014361197669699999
sS'aviation'
p5
F0.0078685489470000005
sS'RandomActsOfGaming'
p6
F0.0087015201022900002
sS'AskMen'
p7
F0.0078000512574799997
sS'Showerthoughts'
p8
F0.0099751277489499995
sS'HistoryPorn'
p9
F0.016697037759
sS'swoleacceptance'
p10
F0.0073587592973599998
sS'holdmybeer'
p11
F0.0259695022835
sS'ImaginaryMonsters'
p12
F0.0182428010471
sS'seinfeld'
p13
F0.0104811421969
sS'dwarffortress'
p14
F0.0072454637096800003
sS'YouShouldKnow'
p15
F0.015694548074199999
sS'UpliftingNews'
p16
F0.0096877023459700003
sS'PandR'
p17
F0.015246015246
sS'Jokes'
p18
F0.010644482309300001
sS'Scrubs'
p19
F0.0075853350189599997
sS'3amjokes'
p20
F0.0175342963569
sS'Military'
p21
F0.0082090111702500003
sS'magicskyfairy'
p22
F0.0153221125943
sS'Steam'
p23
F0.0094279745061200005
sS'photoshopbattles'
p24
F0.018728339109599999
sS'IWantToLearn'
p25
F0.0082032635686400002
sS'Astronomy'
p26
F0.0081109805895799997
sS'Celebs'
p27
F0.0176971035199
sS'CrappyDesign'
p28
F0.027948230124099999
sS'NewsOfTheWeird'
p29
F0.0075244544770500001
sS'Cyberpunk'
p30
F0.013001142359800001
sS'Libertarian'
p31
F0.00900962861073
sS'spiders'
p32
F0.0073895457374000004
sS'pcgaming'
p33
F0.0097395191825199994
sS'EatCheapAndHealthy'
p34
F0.0073004038521299998
sS'gentlemanboners'
p35
F0.019649467988700001
sS'redditgetsdrawn'
p36
F0.0073457855909600002
sS'DCcomics'
p37
F0.0084689216239800004
sS'fatpeoplestories'
p38
F0.0114458949452
sS'forwardsfromgrandma'
p39
F0.025047974952
sS'no_sob_story'
p40
F0.0244276271674
sS'findareddit'
p41
F0.0141380460153
sS'skeptic'
p42
F0.0091891165000699999
sS'socialskills'
p43
F0.0083120204603599999
sS'GuessTheMovie'
p44
F0.010867704946099999
sS'vexillology'
p45
F0.0140360169492
sS'disney'
p46
F0.0082975841047599995
sS'tattoos'
p47
F0.0099576698246300003
sS'needamod'
p48
F0.0071727435744199999
sS'malelivingspace'
p49
F0.0073360843649700001
sS'answers'
p50
F0.012237093690200001
sS'lgbt'
p51
F0.00766729752026
sS'baseball'
p52
F0.0079111983319
sS'doctorwho'
p53
F0.0088989784335999998
sS'TopGear'
p54
F0.013109216664000001
sS'ThriftStoreHauls'
p55
F0.0102942110949
sS'creepy'
p56
F0.0104598942641
sS'howtonotgiveafuck'
p57
F0.0085671002455199995
sS'vinyl'
p58
F0.0073685428802900002
sS'HalfLife'
p59
F0.0080466148723600008
sS'QuotesPorn'
p60
F0.0213381854272
sS'TrueReddit'
p61
F0.0092934231159499999
sS'confession'
p62
F0.0092871640322300004
sS'AntiJokes'
p63
F0.016725204883799999
sS'KingOfTheHill'
p64
F0.0095375722543399998
sS'IdiotsFightingThings'
p65
F0.029308390022699998
sS'gamernews'
p66
F0.0096069443089800005
sS'ContagiousLaughter'
p67
F0.024298259791999999
sS'HIMYM'
p68
F0.0095053147996699994
sS'FiftyFifty'
p69
F0.021450065584700001
sS'AskHistorians'
p70
F0.0079223300970899992
sS'OutOfTheLoop'
p71
F0.020504489473300001
sS'sports'
p72
F0.0070415021871299997
sS'ifyoulikeblank'
p73
F0.01159326074
sS'firstimpression'
p74
F0.0112009544008
sS'WebGames'
p75
F0.0112195832726
sS'battlefield_4'
p76
F0.0071004945720199997
sS'Pareidolia'
p77
F0.0296770262035
sS'tipofmytongue'
p78
F0.0107133415886
sS'ftlgame'
p79
F0.0079048712924799994
sS'LifeProTips'
p80
F0.0083508001463899993
sS'Shitty_Car_Mods'
p81
F0.0175235576128
sS'FanTheories'
p82
F0.0163979122848
sS'ghettoglamourshots'
p83
F0.0142497904443
sS'EDC'
p84
F0.0088916205695599992
sS'showerbeer'
p85
F0.011842842282100001
sS'techsupportgore'
p86
F0.016180879112900001
sS'science'
p87
F0.0072419933855299998
sS'firstworldproblems'
p88
F0.0171973437766
sS'Glitch_in_the_Matrix'
p89
F0.0089450438866199994
sS'standupshots'
p90
F0.027135714803300001
sS'TalesFromThePizzaGuy'
p91
F0.0076227619216499998
sS'AskScienceFiction'
p92
F0.0120518533522
sS'NewsOfTheStupid'
p93
F0.0099750623441399993
sS'awesome'
p94
F0.015375207477899999
sS'Infographics'
p95
F0.0098280098280099995
sS'polandball'
p96
F0.015982012639800001
sS'counting'
p97
F0.0094924882278199993
sS'SRSsucks'
p98
F0.0086040216550699999
sS'HouseOfCards'
p99
F0.0087177821095900006
sS'hardbodies'
p100
F0.0117695360613
sS'techsupportmacgyver'
p101
F0.012613006707500001
sS'MURICA'
p102
F0.0210773362219
sS'RealGirls'
p103
F0.0099643002395000003
sS'scifi'
p104
F0.0087119052144699997
sS'spaceporn'
p105
F0.0176368751353
sS'nyc'
p106
F0.00734632683658
sS'Pizza'
p107
F0.011279043537100001
sS'wheredidthesodago'
p108
F0.036648440963499999
sS'asmr'
p109
F0.0087888738651700007
sS'wallpaper'
p110
F0.0135674381484
sS'Images'
p111
F0.014191419141900001
sS'dogpictures'
p112
F0.0109629439672
sS'MachinePorn'
p113
F0.010714000159900001
sS'oculus'
p114
F0.0070218917802600004
sS'eFreebies'
p115
F0.0072132943754600002
sS'listentothis'
p116
F0.0077402619137299997
sS'tall'
p117
F0.011578650098800001
sS'ImGoingToHellForThis'
p118
F0.017176915329500001
sS'cableporn'
p119
F0.0085755813953499998
sS'DoesAnybodyElse'
p120
F0.011178513771300001
sS'pettyrevenge'
p121
F0.014098014769299999
sS'malehairadvice'
p122
F0.0086645509042400006
sS'CityPorn'
p123
F0.0131492797905
sS'DeepIntoYouTube'
p124
F0.030214475812799998
sS'dataisbeautiful'
p125
F0.012702883398100001
sS'MLPLounge'
p126
F0.0079519499196300004
sS'battlefield3'
p127
F0.0077832888210599997
sS'beards'
p128
F0.0143411823647
sS'nostalgia'
p129
F0.018043781704299999
sS'startrek'
p130
F0.0078187650360899991
sS'StonerEngineering'
p131
F0.0078894218631699996
sS'Bioshock'
p132
F0.0082235742461700002
sS'Gore'
p133
F0.0082698443706500004
sS'MensRights'
p134
F0.010974803054899999
sS'MilitaryPorn'
p135
F0.013826420123299999
sS'Frisson'
p136
F0.0151434486838
sS'electronicmusic'
p137
F0.0077643212720099998
sS'childfree'
p138
F0.0078046006066699999
sS'food'
p139
F0.00811312191976
sS'NoStupidQuestions'
p140
F0.017067307692299999
sS'halo'
p141
F0.0075855924653199999
sS'Braveryjerk'
p142
F0.020870780906699998
sS'creepyPMs'
p143
F0.0153096950793
sS'WatchItForThePlot'
p144
F0.0216606498195
sS'freebies'
p145
F0.010712952594299999
sS'PropagandaPosters'
p146
F0.015204098496100001
sS'mashups'
p147
F0.010157923974299999
sS'shittyadviceanimals'
p148
F0.025904761904800001
sS'SubredditDrama'
p149
F0.017716386236200001
sS'minimalism'
p150
F0.0121642969984
sS'wallpapers'
p151
F0.0185667453047
sS'mildlyinteresting'
p152
F0.0113822318173
sS'TrueAtheism'
p153
F0.0073640077402700004
sS'badhistory'
p154
F0.011726011725999999
sS'Rateme'
p155
F0.0084438131313100007
sS'dubstep'
p156
F0.0070695553021699999
sS'Cinemagraphs'
p157
F0.022979460140100001
sS'canada'
p158
F0.0076989229698199999
sS'DunderMifflin'
p159
F0.015818509344699999
sS'psychology'
p160
F0.0083719160271499993
sS'space'
p161
F0.0098912987481300004
sS'shittyfoodporn'
p162
F0.023518373729500001
sS'malefashionadvice'
p163
F0.0083526534760400006
sS'LearnUselessTalents'
p164
F0.019759679572800001
sS'RoomPorn'
p165
F0.015669840112999999
sS'randomsexiness'
p166
F0.0074945451095699998
sS'memes'
p167
F0.0144414554722
sS'TheLastAirbender'
p168
F0.0092502649240599998
sS'CatsStandingUp'
p169
F0.011066993326
sS'ass'
p170
F0.0090698164944100004
sS'bestof'
p171
F0.012077270396099999
sS'Metal'
p172
F0.0076731575896099996
sS'LadyBoners'
p173
F0.0110305228166
sS'corgi'
p174
F0.0089408032302300006
sS'Roadcam'
p175
F0.0089061429550100005
sS'GamePhysics'
p176
F0.034213895030800003
sS'youtubehaiku'
p177
F0.032075404078399997
sS'PoliticalHumor'
p178
F0.014435470012000001
sS'headphones'
p179
F0.0071299230421000004
sS'dogecoin'
p180
F0.0074021300746299999
sS'whatstheword'
p181
F0.0088090204369299999
sS'misc'
p182
F0.0131238624389
sS'patientgamers'
p183
F0.012501769118299999
sS'rant'
p184
F0.0086610819253200005
sS'conspiratard'
p185
F0.019354165579799999
sS'pokemon'
p186
F0.0086537339425699997
sS'tf2'
p187
F0.010115450430000001
sS'OldSchoolCool'
p188
F0.0123443421765
sS'lego'
p189
F0.0118438862987
sS'ANormalDayInRussia'
p190
F0.023858214042299999
sS'onetruegod'
p191
F0.022685809470900001
sS'TheFacebookDelusion'
p192
F0.0100808368997
sS'Autos'
p193
F0.0097933474265499993
sS'PenmanshipPorn'
p194
F0.015734355044699999
sS'alternativeart'
p195
F0.013887585624499999
sS'shittyadvice'
p196
F0.017553071787599999
sS'MeanJokes'
p197
F0.0120492524186
sS'ObscureMedia'
p198
F0.0083096878800199992
sS'CombatFootage'
p199
F0.0090569455451100008
sS'GTA'
p200
F0.0082657048391899992
sS'TrollYChromosome'
p201
F0.028150784662700001
sS'mildlyinfuriating'
p202
F0.0253316334274
sS'nsfw_gifs'
p203
F0.0084146751935399999
sS'Awwducational'
p204
F0.0211332880183
sS'skyrim'
p205
F0.0135321911864
sS'television'
p206
F0.0076900078568799997
sS'worldpolitics'
p207
F0.010184307096
sS'Justrolledintotheshop'
p208
F0.0124830321258
sS'nononono'
p209
F0.027189233427300001
sS'knives'
p210
F0.0081141388870100001
sS'KerbalSpaceProgram'
p211
F0.0088745461879800001
sS'ShingekiNoKyojin'
p212
F0.00714832780189
sS'FoodPorn'
p213
F0.013703619394500001
sS'crappymusic'
p214
F0.0105499658103
sS'teenagers'
p215
F0.013793576722499999
sS'conspiracy'
p216
F0.011596409539200001
sS'HighQualityGifs'
p217
F0.041102481270199998
sS'self'
p218
F0.0108826073611
sS'DaftPunk'
p219
F0.0097232023837500008
sS'britishproblems'
p220
F0.00980614259361
sS'nonononoyes'
p221
F0.0283680834002
sS'FutureWhatIf'
p222
F0.0088005537427100003
sS'firefly'
p223
F0.012749681258
sS'Futurology'
p224
F0.0093976538816399995
sS'Games'
p225
F0.0094340360621099992
sS'progresspics'
p226
F0.011536325541499999
sS'Gaming4Gamers'
p227
F0.0109312301093
sS'Minecraft'
p228
F0.0089566690873900002
sS'TumblrInAction'
p229
F0.017187739072799999
sS'Fishing'
p230
F0.0070770327376399999
sS'HailCorporate'
p231
F0.0133333333333
sS'Heavymind'
p232
F0.015454147834999999
sS'adventuretime'
p233
F0.0127845650577
sS'PanicHistory'
p234
F0.0078388808490100007
sS'LucidDreaming'
p235
F0.0078340038111399998
sS'fffffffuuuuuuuuuuuu'
p236
F0.013465645019500001
sS'Hiphopcirclejerk'
p237
F0.0072412987619700003
sS'dbz'
p238
F0.0087840961627400002
sS'bodybuilding'
p239
F0.0070783580855400003
sS'Foodforthought'
p240
F0.00767604850373
sS'TheoryOfReddit'
p241
F0.011613021214300001
sS'TheBluePill'
p242
F0.010414482421199999
sS'harrypotter'
p243
F0.010364286512499999
sS'shittybattlestations'
p244
F0.0114236999147
sS'whowouldwin'
p245
F0.0139574604361
sS'GrandTheftAutoV'
p246
F0.013172665001899999
sS'MetalMemes'
p247
F0.0104044150909
sS'arresteddevelopment'
p248
F0.017332074453700001
sS'shutupandtakemymoney'
p249
F0.013358352321
sS'webcomics'
p250
F0.010637385262100001
sS'JusticePorn'
p251
F0.014365918097800001
sS'trees'
p252
F0.0071128325887499996
sS'smashbros'
p253
F0.0083468941136900007
sS'geek'
p254
F0.012974375608200001
sS'Conservative'
p255
F0.0076842105263200001
sS'PrettyGirlsUglyFaces'
p256
F0.0142685370741
sS'AbandonedPorn'
p257
F0.0156520558177
sS'motorcycles'
p258
F0.00707912083254
sS'dadjokes'
p259
F0.0206081316689
sS'guns'
p260
F0.0074854386603599998
sS'thatHappened'
p261
F0.0259564522081
sS'futurama'
p262
F0.0204871060172
sS'whitepeoplegifs'
p263
F0.038888888888899999
sS'cringe'
p264
F0.0151201254478
sS'spotted'
p265
F0.0079863699286599997
sS'StarWars'
p266
F0.0131280475825
sS'TheSimpsons'
p267
F0.0160808435852
sS'see'
p268
F0.012713602187299999
sS'StandUpComedy'
p269
F0.0084478072430800005
sS'changemyview'
p270
F0.0101366325567
sS'roosterteeth'
p271
F0.0081437063028599998
sS'skateboarding'
p272
F0.0070687787007900002
sS'Android'
p273
F0.0070187817400299999
sS'KarmaCourt'
p274
F0.0095411663807900005
sS'firstworldanarchists'
p275
F0.030056209014299999
sS'PerfectTiming'
p276
F0.0278490124623
sS'cosplay'
p277
F0.010089869281000001
sS'truegaming'
p278
F0.011213107134599999
sS'lotr'
p279
F0.012286899093799999
sS'wikipedia'
p280
F0.0099206349206300004
sS'breakingbad'
p281
F0.017409056111599999
sS'outside'
p282
F0.021498167515899998
sS'foodhacks'
p283
F0.010959100350999999
sS'pcmasterrace'
p284
F0.010030987634599999
sS'europe'
p285
F0.0091683592868400006
sS'glitch_art'
p286
F0.015122208545800001
sS'PixelArt'
p287
F0.0082983682983699993
sS'casualiama'
p288
F0.0127762917077
sS'facepalm'
p289
F0.021887935061000001
sS'celebnsfw'
p290
F0.011172810597399999
sS'NotTimAndEric'
p291
F0.026499491697699998
sS'Unexpected'
p292
F0.031297448204899998
sS'RedditDayOf'
p293
F0.0124890829694
sS'watchpeopledie'
p294
F0.0131913150348
sS'Sherlock'
p295
F0.0095293867120999996
sS'GunPorn'
p296
F0.0087789305666399996
sS'GetMotivated'
p297
F0.010275320857700001
sS'drunk'
p298
F0.017125081859899999
sS'reactiongifs'
p299
F0.032810679704399999
sS'community'
p300
F0.0146654445463
sS'EarthPorn'
p301
F0.0082363491042400008
sS'chrome'
p302
F0.0074196207749400002
sS'Rainmeter'
p303
F0.0077720207253899999
sS'fatlogic'
p304
F0.0172078448322
sS'hiphopheads'
p305
F0.0071805338677700002
sS'somethingimade'
p306
F0.0121786848946
sS'MapPorn'
p307
F0.015894411682099999
sS'shittyaskreddit'
p308
F0.016307403936300001
sS'Perfectfit'
p309
F0.0228313989004
sS'offbeat'
p310
F0.014962010520200001
sS'softwaregore'
p311
F0.016629108710899999
sS'socialism'
p312
F0.0072931994114299997
sS'OnOff'
p313
F0.0085662126105900006
sS'ICanDrawThat'
p314
F0.0085943190094700007
sS'YMS'
p315
F0.0077342047930299999
sS'IASIP'
p316
F0.018752824220500001
sS'gamecollecting'
p317
F0.0078110917502900003
sS'ShitRedditSays'
p318
F0.00717788359036
sS'shorthairedhotties'
p319
F0.010456431535299999
sS'southpark'
p320
F0.0178794611859
sS'deadpool'
p321
F0.0086639755833400004
sS'daddit'
p322
F0.0074594661241599997
sS'itookapicture'
p323
F0.014646635792
sS'Whatcouldgowrong'
p324
F0.027569469062700001
sS'fifthworldproblems'
p325
F0.015421553236699999
sS'talesfromtechsupport'
p326
F0.0086266161045000008
sS'notinteresting'
p327
F0.032416432026600002
sS'AnimalsBeingJerks'
p328
F0.028791193282099999
sS'catpictures'
p329
F0.0077002941685400004
sS'HumanPorn'
p330
F0.021904417089100001
sS'TimAndEric'
p331
F0.0090098207045699995
sS'drawing'
p332
F0.0083390061266200004
sS'EmmaWatson'
p333
F0.0145091084959
sS'GifSound'
p334
F0.017567480925799999
sS'awwwtf'
p335
F0.018867924528299999
sS'whatsthisbug'
p336
F0.0099867755027600001
sS'PublicFreakout'
p337
F0.014283155726699999
sS'ArtisanVideos'
p338
F0.0086681567900599998
sS'rickandmorty'
p339
F0.0153780435711
sS'quotes'
p340
F0.0091231244816400003
sS'woodworking'
p341
F0.0079974293976899993
sS'perfectloops'
p342
F0.0311930190154
sS'InternetIsBeautiful'
p343
F0.0142904720094
sS'carporn'
p344
F0.0152309904029
sS'TalesFromRetail'
p345
F0.0091091186570000007
sS'WouldYouRather'
p346
F0.0138255219135
sS'quityourbullshit'
p347
F0.028725449542000001
sS'woahdude'
p348
F0.0191513363415
sS'Fallout'
p349
F0.014013530305100001
sS'offmychest'
p350
F0.0074629771438200002
sS'australia'
p351
F0.0075392836357900004
sS'slowcooking'
p352
F0.0070956933083699998
sS'NSFW_GIF'
p353
F0.011560845173800001
sS'howto'
p354
F0.0092817541892500008
sS'cringepics'
p355
F0.0159527227805
sS'toosoon'
p356
F0.024058172816599999
sS'thewalkingdead'
p357
F0.010146816089
sS'gifs'
p358
F0.0091069227116299997
sS'Art'
p359
F0.00837212309284
sS'ConfusedBoners'
p360
F0.0144439885105
sS'4chan'
p361
F0.021914841360199999
sS'montageparodies'
p362
F0.018203599813000002
sS'ArcherFX'
p363
F0.017819222601800001
sS'whatisthisthing'
p364
F0.0148171359506
sS'MechanicalKeyboards'
p365
F0.0077430455979400001
sS'NetflixBestOf'
p366
F0.014105560689200001
sS'circlebroke2'
p367
F0.0101072353014
sS'ShouldIbuythisgame'
p368
F0.0085227272727300008
sS'tumblr'
p369
F0.029540575354199999
sS'interestingasfuck'
p370
F0.0240981963928
sS'MarkMyWords'
p371
F0.0183327252827
sS'gameofthrones'
p372
F0.010608450084399999
sS'humor'
p373
F0.0121464319856
sS'mountandblade'
p374
F0.0078622533217999994
sS'ExpectationVsReality'
p375
F0.023675604970599999
sS'lifehacks'
p376
F0.017488112140300001
sS'SCP'
p377
F0.0103946102021
sS'Enhancement'
p378
F0.0121602872766
sS'blackpeoplegifs'
p379
F0.038356361542900001
sS'ProgrammerHumor'
p380
F0.0123910482921
sS'FloridaMan'
p381
F0.019487628640200001
sS'delusionalartists'
p382
F0.022084567735000001
sS'Frugal'
p383
F0.0079325801388599997
sS'promos'
p384
F0.0076845499353699999
sS'JonTron'
p385
F0.014526246285899999
sS'shittyaskscience'
p386
F0.020999127175599999
sS'lewronggeneration'
p387
F0.029394717231100001
sS'worldbuilding'
p388
F0.0095260776375300001
sS'calvinandhobbes'
p389
F0.014162796010100001
sS'netflix'
p390
F0.0085416766639500007
sS'masseffect'
p391
F0.0100899227424
sS'sixwordstories'
p392
F0.013058963197500001
sS'AnimalsBeingBros'
p393
F0.026401275766300001
sS'classic4chan'
p394
F0.029409512139100001
sS'GameDeals'
p395
F0.0083235094487899997
sS'battlestations'
p396
F0.0096785858628800001
sS'NSFWFunny'
p397
F0.0123329148512
sS'ShitAmericansSay'
p398
F0.0084158415841600002
sS'gamemusic'
p399
F0.0077689579462900003
sS'marijuanaenthusiasts'
p400
F0.00899742930591
sS'TrollXChromosomes'
p401
F0.017711895355399999
sS'tifu'
p402
F0.0081421765821100001
sS'unitedkingdom'
p403
F0.0070604721353900004
sS'Damnthatsinteresting'
p404
F0.028557441253299998
sS'CrazyIdeas'
p405
F0.0253344203883
sS'Bad_Cop_No_Donut'
p406
F0.0105901407866
sS'MorbidReality'
p407
F0.013822509605499999
sS'gif'
p408
F0.027900228781899999
sS'cats'
p409
F0.0122829389041
sS'happy'
p410
F0.0149933065596
sS'explainlikeIAmA'
p411
F0.0190766612297
sS'misleadingthumbnails'
p412
F0.033520982599799999
sS'batman'
p413
F0.015503327198100001
sS'gamegrumps'
p414
F0.011016441456399999
sS'trailerparkboys'
p415
F0.011310019428300001
sS'rule34'
p416
F0.0089806451612899994
sS'HipHopImages'
p417
F0.014016787547900001
sS'xbox360'
p418
F0.0072558989887399998
sS'blunderyears'
p419
F0.0251490231911
sS'Marvel'
p420
F0.0108462055071
sS'Random_Acts_Of_Amazon'
p421
F0.0074690427832
sS'rage'
p422
F0.021440882454299998
sS'comics'
p423
F0.021479593124499999
sS'nsfw'
p424
F0.0107471216765
sS'behindthegifs'
p425
F0.0401853975535
sS'civ'
p426
F0.00944203908906
sS'BustyPetite'
p427
F0.010652884716799999
sS'fullmoviesonyoutube'
p428
F0.0145105531295
sS'TrueAskReddit'
p429
F0.0090272163837199996
sS'bestofworldstar'
p430
F0.0107153414129
sS'girlsinyogapants'
p431
F0.0084385142444999995
sS'eatsandwiches'
p432
F0.0116024886497
sS'bicycling'
p433
F0.0072134387351800002
sS'shittyama'
p434
F0.017708333333299998
sS'circlebroke'
p435
F0.0153224090232
sS'zelda'
p436
F0.011031460089900001
sS'ImaginaryLandscapes'
p437
F0.014650075015399999
sS'TheWayWeWere'
p438
F0.0118253756557
sS'badtattoos'
p439
F0.0134569172674
sS'popping'
p440
F0.011711291212299999
sS'nottheonion'
p441
F0.012493296688599999
sS'Frugal_Jerk'
p442
F0.017321129810099999
sS'animegifs'
p443
F0.0073341094295700003
sS'GTAV'
p444
F0.0076364141250500001
sS'bigdickproblems'
p445
F0.0082128777923800005
sS'comicbooks'
p446
F0.0099135946260699992
sS'oddlysatisfying'
p447
F0.0261859716746
sS'cosplaygirls'
p448
F0.0157964548414
sS'entertainment'
p449
F0.0073949756123100003
sS'youtube'
p450
F0.0084103749358
sS'atheism'
p451
F0.0082199901201999992
sS'terriblefacebookmemes'
p452
F0.0286521388216
sS'PrettyGirls'
p453
F0.016123789090399999
sS'urbanexploration'
p454
F0.0097002406826600003
s.