(dp1
S'Shitty_Car_Mods'
p2
F0.020523732711000001
sS'uglyduckling'
p3
F0.0070996833925000002
sS'AndroidGaming'
p4
F0.0092510322479500001
sS'BuyItForLife'
p5
F0.0102719258927
sS'everymanshouldknow'
p6
F0.0086883701455
sS'shittyaskreddit'
p7
F0.014381789963800001
sS'unixporn'
p8
F0.0193236714976
sS'HistoryPorn'
p9
F0.0084860463617399996
sS'archlinux'
p10
F0.0096333126165300004
sS'holdmybeer'
p11
F0.015753370024700002
sS'YouShouldKnow'
p12
F0.0095605809891500006
sS'skyrimmods'
p13
F0.0094040131775999999
sS'3amjokes'
p14
F0.0081365350267899993
sS'magicskyfairy'
p15
F0.0083736752584100006
sS'Steam'
p16
F0.015153353555799999
sS'photoshopbattles'
p17
F0.0104415194488
sS'IWantToLearn'
p18
F0.0078034279344099998
sS'litecoin'
p19
F0.0071090047393400002
sS'techsupportgore'
p20
F0.051049303696799997
sS'CrappyDesign'
p21
F0.020423786739599999
sS'SteamGameSwap'
p22
F0.00796037502211
sS'techsupport'
p23
F0.0139118719522
sS'starcitizen'
p24
F0.0086725590273500006
sS'pcgaming'
p25
F0.022832670831000001
sS'stalker'
p26
F0.0073097506852900004
sS'fatpeoplestories'
p27
F0.0074470116478900002
sS'razer'
p28
F0.0070666837980199997
sS'forwardsfromgrandma'
p29
F0.0145935409093
sS'no_sob_story'
p30
F0.013330534271
sS'findareddit'
p31
F0.0081838884144599996
sS'Warthunder'
p32
F0.00719733591148
sS'gamedev'
p33
F0.00720010868089
sS'Nexus7'
p34
F0.0073785777994000001
sS'vexillology'
p35
F0.0097609279954700007
sS'needamod'
p36
F0.0084388185654000001
sS'titanfall'
p37
F0.0072940236922700002
sS'malelivingspace'
p38
F0.0098976960825099998
sS'answers'
p39
F0.0073983574289000001
sS'TopGear'
p40
F0.0106276150628
sS'ThriftStoreHauls'
p41
F0.010197838058299999
sS'Cynicalbrit'
p42
F0.0089099109008899998
sS'WarshipPorn'
p43
F0.0083796160966600006
sS'HalfLife'
p44
F0.0141960703631
sS'firefox'
p45
F0.010878087024700001
sS'AntiJokes'
p46
F0.0077955039884000004
sS'KingOfTheHill'
p47
F0.0075789923142599996
sS'IdiotsFightingThings'
p48
F0.0182023674975
sS'ContagiousLaughter'
p49
F0.0125640881176
sS'FiftyFifty'
p50
F0.010582701855199999
sS'OutOfTheLoop'
p51
F0.0137637191041
sS'misleadingthumbnails'
p52
F0.018186716960800001
sS'battlefield_4'
p53
F0.0084606986899599997
sS'Pareidolia'
p54
F0.015172855313700001
sS'arma'
p55
F0.0081672886009999997
sS'ftlgame'
p56
F0.00747731397459
sS'thinkpad'
p57
F0.00911350455675
sS'ghettoglamourshots'
p58
F0.0096768303816000007
sS'EDC'
p59
F0.011625412895200001
sS'hardwareswap'
p60
F0.019331429931
sS'showerbeer'
p61
F0.0071162023778499998
sS'trackers'
p62
F0.0081095221485900006
sS'firstworldproblems'
p63
F0.0135698447894
sS'Glitch_in_the_Matrix'
p64
F0.0081806864662999999
sS'standupshots'
p65
F0.0070427728613599999
sS'computers'
p66
F0.012732435650799999
sS'gamernews'
p67
F0.012408608794200001
sS'NewsOfTheStupid'
p68
F0.0084360084360100007
sS'audiophile'
p69
F0.0141336690318
sS'awesome'
p70
F0.0098282442748099993
sS'gadgets'
p71
F0.0084146862571099993
sS'learnprogramming'
p72
F0.0080768660771600009
sS'Infographics'
p73
F0.0071283095723000001
sS'polandball'
p74
F0.0103221380235
sS'counting'
p75
F0.0076792498585400003
sS'Pizza'
p76
F0.0071422774125500001
sS'asmr'
p77
F0.0073074190601799998
sS'netsec'
p78
F0.0093241727425700006
sS'MURICA'
p79
F0.0108616116345
sS'gats'
p80
F0.00721330781687
sS'CableManagement'
p81
F0.029474685048699999
sS'Gore'
p82
F0.0072524407252399998
sS'spaceporn'
p83
F0.00971646116257
sS'howtonotgiveafuck'
p84
F0.0078900904877500008
sS'wallpapers'
p85
F0.015802422407299999
sS'awwnime'
p86
F0.0071428571428599997
sS'GiftofGames'
p87
F0.0112678339818
sS'wallpaper'
p88
F0.0125293657009
sS'techsupportmacgyver'
p89
F0.067458669103600002
sS'MachinePorn'
p90
F0.0144281217209
sS'oculus'
p91
F0.0098501070663800008
sS'eFreebies'
p92
F0.0094978276245299992
sS'ImGoingToHellForThis'
p93
F0.0091913806508900006
sS'DataHoarder'
p94
F0.0142376391406
sS'cableporn'
p95
F0.025235585369700001
sS'softwareswap'
p96
F0.0133896606043
sS'DoesAnybodyElse'
p97
F0.0082059493132499994
sS'pettyrevenge'
p98
F0.011472275334599999
sS'CityPorn'
p99
F0.0082250086276300007
sS'DeepIntoYouTube'
p100
F0.019793881891099999
sS'dataisbeautiful'
p101
F0.0074388947927700004
sS'battlefield3'
p102
F0.012313836425699999
sS'arduino'
p103
F0.00769943680046
sS'cyanogenmod'
p104
F0.0085200378668299995
sS'nostalgia'
p105
F0.0116364655988
sS'startrek'
p106
F0.0084965678888299992
sS'AndroidQuestions'
p107
F0.010443476539300001
sS'StonerEngineering'
p108
F0.0075588850644499996
sS'Bioshock'
p109
F0.0078966259870800002
sS'MilitaryPorn'
p110
F0.0097491225789699994
sS'Frisson'
p111
F0.0093920230417599993
sS'electronicmusic'
p112
F0.0070256707199400003
sS'gmod'
p113
F0.0097728138088599998
sS'NoStupidQuestions'
p114
F0.0090112255881899996
sS'Braveryjerk'
p115
F0.010453345070399999
sS'creepyPMs'
p116
F0.0090906118177999998
sS'WatchItForThePlot'
p117
F0.0096338028168999994
sS'freebies'
p118
F0.010988584297599999
sS'PropagandaPosters'
p119
F0.0122412241224
sS'shittyadviceanimals'
p120
F0.011495904584000001
sS'SubredditDrama'
p121
F0.011347926267299999
sS'minimalism'
p122
F0.011435623200299999
sS'badhistory'
p123
F0.0088495575221199992
sS'Cinemagraphs'
p124
F0.0125306917281
sS'space'
p125
F0.0074289799975600004
sS'shittyfoodporn'
p126
F0.018514351836999999
sS'LearnUselessTalents'
p127
F0.011257981404699999
sS'RoomPorn'
p128
F0.010217659918300001
sS'electronics'
p129
F0.0095811228125700001
sS'bestof'
p130
F0.0078724222370600005
sS'Cyberpunk'
p131
F0.018714873399399999
sS'cars'
p132
F0.0073350584664500004
sS'emulation'
p133
F0.0138234999499
sS'Roadcam'
p134
F0.0126855152972
sS'GamePhysics'
p135
F0.023361056751499999
sS'Morrowind'
p136
F0.0075379551969399997
sS'youtubehaiku'
p137
F0.0119577105359
sS'dayz'
p138
F0.0080817203631300006
sS'simracing'
p139
F0.010284620904099999
sS'headphones'
p140
F0.0147122800079
sS'programming'
p141
F0.0075990555742899996
sS'dogecoin'
p142
F0.0084211557056999998
sS'gamingpc'
p143
F0.030628608082099999
sS'misc'
p144
F0.0095278424730000002
sS'patientgamers'
p145
F0.017893635049599999
sS'rant'
p146
F0.0082695252679899998
sS'conspiratard'
p147
F0.014143186054200001
sS'cade'
p148
F0.0072197427146199998
sS'tf2'
p149
F0.0092080216034399996
sS'lego'
p150
F0.0100730097997
sS'ANormalDayInRussia'
p151
F0.018753701388400001
sS'onetruegod'
p152
F0.0106582537517
sS'Autos'
p153
F0.0093871288022399999
sS'PenmanshipPorn'
p154
F0.010348525469200001
sS'SuggestALaptop'
p155
F0.010726115989299999
sS'shittyadvice'
p156
F0.0148274185707
sS'shittyreactiongifs'
p157
F0.0114236999147
sS'CombatFootage'
p158
F0.0095627593672899993
sS'GTA'
p159
F0.011687780956299999
sS'mildlyinfuriating'
p160
F0.014737066926999999
sS'DumpsterDiving'
p161
F0.0074563011856699996
sS'Awwducational'
p162
F0.0086633663366300004
sS'skyrim'
p163
F0.0096695425687800002
sS'dogemarket'
p164
F0.0072527088430600004
sS'Battlefield'
p165
F0.011314965160100001
sS'thatHappened'
p166
F0.012145748987899999
sS'nononono'
p167
F0.016651728855099999
sS'knives'
p168
F0.0076285963382700002
sS'hacking'
p169
F0.0114321784261
sS'KerbalSpaceProgram'
p170
F0.0110599844772
sS'FoodPorn'
p171
F0.0072022417266899997
sS'crappymusic'
p172
F0.011083342388399999
sS'teenagers'
p173
F0.0074449438592199997
sS'sysadmin'
p174
F0.0101611595378
sS'homelab'
p175
F0.0166432725085
sS'HighQualityGifs'
p176
F0.012633694637899999
sS'self'
p177
F0.0085124677558
sS'britishproblems'
p178
F0.0074821297347900002
sS'nonononoyes'
p179
F0.0144299652043
sS'paydaytheheist'
p180
F0.0080246023737399995
sS'Futurology'
p181
F0.0072265703123999998
sS'Games'
p182
F0.0093840439709500009
sS'mylittlepony'
p183
F0.0072594319626999998
sS'Gaming4Gamers'
p184
F0.011854171326299999
sS'Minecraft'
p185
F0.00915244136052
sS'windows'
p186
F0.0174402445803
sS'TumblrInAction'
p187
F0.0094747233867999991
sS'HailCorporate'
p188
F0.0138934832947
sS'microsoft'
p189
F0.0085717236393699995
sS'TalesFromThePizzaGuy'
p190
F0.010270957644499999
sS'RandomActsOfGaming'
p191
F0.0128451913822
sS'PanicHistory'
p192
F0.0078512396694199998
sS'fffffffuuuuuuuuuuuu'
p193
F0.0101007504883
sS'counterstrike'
p194
F0.0119760479042
sS'blender'
p195
F0.0086313193588199999
sS'TheoryOfReddit'
p196
F0.0083501006036200004
sS'wicked_edge'
p197
F0.0078636294454899995
sS'GrandTheftAutoV'
p198
F0.0084296555750100009
sS'buildapcsales'
p199
F0.021994481671300001
sS'shutupandtakemymoney'
p200
F0.0112611560207
sS'JusticePorn'
p201
F0.0096974075411900007
sS'geek'
p202
F0.014789915966400001
sS'overclocking'
p203
F0.020327564177000001
sS'AbandonedPorn'
p204
F0.013193908344400001
sS'SkyrimPorn'
p205
F0.0072693629394699998
sS'whitepeoplegifs'
p206
F0.0127690330871
sS'cringe'
p207
F0.010421470072900001
sS'hometheater'
p208
F0.0076341948310099999
sS'spotted'
p209
F0.0076536713704899997
sS'TheSimpsons'
p210
F0.0070676211754999996
sS'Justrolledintotheshop'
p211
F0.016427668809400001
sS'torrents'
p212
F0.012196162046899999
sS'PS3'
p213
F0.0071644568504300003
sS'Android'
p214
F0.0093392087040700001
sS'KarmaCourt'
p215
F0.0074564040889999999
sS'hackintosh'
p216
F0.011985181956899999
sS'firstworldanarchists'
p217
F0.017180407473900001
sS'PerfectTiming'
p218
F0.0129134150873
sS'truegaming'
p219
F0.011986814504
sS'wikipedia'
p220
F0.0073961113229100003
sS'breakingbad'
p221
F0.0072268956147200003
sS'outside'
p222
F0.017443216267899998
sS'pcmasterrace'
p223
F0.015055386808999999
sS'spaceengineers'
p224
F0.00711397334132
sS'glitch_art'
p225
F0.016349037438300001
sS'PixelArt'
p226
F0.0089811087023799994
sS'casualiama'
p227
F0.0092693468593200001
sS'facepalm'
p228
F0.010148751234200001
sS'NotTimAndEric'
p229
F0.012780011487699999
sS'gamingsuggestions'
p230
F0.0093183652505700008
sS'Unexpected'
p231
F0.012005017022000001
sS'RedditDayOf'
p232
F0.0074463007159900002
sS'watchpeopledie'
p233
F0.0095449122209000006
sS'GunPorn'
p234
F0.0075566750629700004
sS'buildapc'
p235
F0.014421907489500001
sS'drunk'
p236
F0.0086340119599500002
sS'reactiongifs'
p237
F0.0078184538090300005
sS'linux'
p238
F0.013944657141999999
sS'3Dprinting'
p239
F0.0075503355704700003
sS'chrome'
p240
F0.0093347162542600001
sS'Portal'
p241
F0.0072927185010699998
sS'snes'
p242
F0.0071367048111199999
sS'Rainmeter'
p243
F0.016472450007200001
sS'fatlogic'
p244
F0.0081500041300700005
sS'androidthemes'
p245
F0.0089413749472799994
sS'androidapps'
p246
F0.0078053481088899996
sS'somethingimade'
p247
F0.0074092741935500002
sS'MapPorn'
p248
F0.0074769539457499997
sS'IndieGaming'
p249
F0.0080598399628899996
sS'buildapcforme'
p250
F0.015844914579099999
sS'Perfectfit'
p251
F0.019978535457800001
sS'offbeat'
p252
F0.0091352921795900006
sS'softwaregore'
p253
F0.040162376921700001
sS'ObscureMedia'
p254
F0.0078045469969499999
sS'FanTheories'
p255
F0.0075602203723800004
sS'hardware'
p256
F0.025545718726800001
sS'gamecollecting'
p257
F0.014312423441399999
sS'technology'
p258
F0.0071886652808700003
sS'southpark'
p259
F0.0073380116125799999
sS'itookapicture'
p260
F0.0072703238598800001
sS'windows8'
p261
F0.010886028019699999
sS'Whatcouldgowrong'
p262
F0.016139767054900001
sS'fifthworldproblems'
p263
F0.0106588163638
sS'talesfromtechsupport'
p264
F0.0201074232199
sS'notinteresting'
p265
F0.0152508656892
sS'AnimalsBeingJerks'
p266
F0.0119484632549
sS'linux_gaming'
p267
F0.0143483823798
sS'playrust'
p268
F0.0073945193562399997
sS'24hoursupport'
p269
F0.0089938841587699995
sS'HumanPorn'
p270
F0.0087580123119900006
sS'audio'
p271
F0.0082887018617699999
sS'retrogaming'
p272
F0.0073016213894600002
sS'GifSound'
p273
F0.0100796839883
sS'awwwtf'
p274
F0.0111969447097
sS'Piracy'
p275
F0.0125809435708
sS'PublicFreakout'
p276
F0.011039902699200001
sS'dadjokes'
p277
F0.0104882588774
sS'futurama'
p278
F0.0086831398233599994
sS'perfectloops'
p279
F0.016628873771700001
sS'InternetIsBeautiful'
p280
F0.0089172364214800005
sS'carporn'
p281
F0.0103902380089
sS'TalesFromRetail'
p282
F0.0093654480987900007
sS'WouldYouRather'
p283
F0.00761665310952
sS'quityourbullshit'
p284
F0.0162607921329
sS'woahdude'
p285
F0.0086387661381200007
sS'Fallout'
p286
F0.0103317913917
sS'howto'
p287
F0.0075088045717300001
sS'HomeNetworking'
p288
F0.00730363984674
sS'cringepics'
p289
F0.0086308749023800008
sS'toosoon'
p290
F0.0125342408898
sS'ConfusedBoners'
p291
F0.010532892975099999
sS'4chan'
p292
F0.0114900133007
sS'montageparodies'
p293
F0.017792630057800001
sS'ArcherFX'
p294
F0.0083033357331400003
sS'google'
p295
F0.0090864549463299995
sS'blunderyears'
p296
F0.0150081124932
sS'whatisthisthing'
p297
F0.0111846610363
sS'watercooling'
p298
F0.013490279063599999
sS'ShouldIbuythisgame'
p299
F0.0111246571167
sS'tumblr'
p300
F0.0070685340475
sS'interestingasfuck'
p301
F0.0108152520205
sS'MarkMyWords'
p302
F0.0105798981934
sS'humor'
p303
F0.0082040306759399995
sS'ExpectationVsReality'
p304
F0.0145108657918
sS'lifehacks'
p305
F0.011280005502399999
sS'Enhancement'
p306
F0.0096863058739899994
sS'blackpeoplegifs'
p307
F0.010109392682
sS'FloridaMan'
p308
F0.0163574359864
sS'delusionalartists'
p309
F0.016147308781899999
sS'Frugal'
p310
F0.00767498242644
sS'promos'
p311
F0.0087305366754699999
sS'JonTron'
p312
F0.0083340801147100008
sS'shittyaskscience'
p313
F0.0141390867197
sS'lewronggeneration'
p314
F0.0166424852778
sS'netflix'
p315
F0.0073622106802499997
sS'wheredidthesodago'
p316
F0.019661119287500001
sS'AnimalsBeingBros'
p317
F0.011014851485099999
sS'classic4chan'
p318
F0.016808789767099999
sS'GameDeals'
p319
F0.011814114854399999
sS'battlestations'
p320
F0.045677733231200002
sS'androidcirclejerk'
p321
F0.015849430411099999
sS'software'
p322
F0.0088923255364399996
sS'linuxquestions'
p323
F0.011897795982099999
sS'marijuanaenthusiasts'
p324
F0.0071428571428599997
sS'SimCity'
p325
F0.0073246314207899999
sS'Damnthatsinteresting'
p326
F0.010155041999200001
sS'CrazyIdeas'
p327
F0.0126753630322
sS'networking'
p328
F0.0075128748864000004
sS'MechanicalKeyboards'
p329
F0.0310119328524
sS'TinyHouses'
p330
F0.0081300813008099992
sS'rct'
p331
F0.0076396206533200003
sS'Bad_Cop_No_Donut'
p332
F0.0082673245898800003
sS'linux4noobs'
p333
F0.014385869070400001
sS'MorbidReality'
p334
F0.0093203326641799998
sS'gif'
p335
F0.010523255814
sS'introvert'
p336
F0.0070487993803299998
sS'Ubuntu'
p337
F0.0141822796148
sS'cablefail'
p338
F0.0298071303331
sS'explainlikeIAmA'
p339
F0.010384294701700001
sS'lockpicking'
p340
F0.0077325719723999996
sS'xbox360'
p341
F0.0073471370453599997
sS'web_design'
p342
F0.0073461210254899996
sS'ProgrammerHumor'
p343
F0.015696403735299999
sS'rage'
p344
F0.013471550979399999
sS'comics'
p345
F0.00735782535384
sS'behindthegifs'
p346
F0.0144863700876
sS'fullmoviesonyoutube'
p347
F0.00959118750297
sS'bestofworldstar'
p348
F0.0070125109570499996
sS'ForeverAlone'
p349
F0.0076468759714000004
sS'eatsandwiches'
p350
F0.0084403669724800005
sS'shittyama'
p351
F0.0175523349436
sS'circlebroke'
p352
F0.0096607333029100004
sS'zelda'
p353
F0.0070005385029599998
sS'ImaginaryLandscapes'
p354
F0.0071270345757499997
sS'TheWayWeWere'
p355
F0.0080920347080000003
sS'badtattoos'
p356
F0.0092681132769400001
sS'popping'
p357
F0.0076892483096900003
sS'nottheonion'
p358
F0.00775617676007
sS'Frugal_Jerk'
p359
F0.017288543604299999
sS'raspberry_pi'
p360
F0.0164370602495
sS'cordcutters'
p361
F0.0096384409234099994
sS'oddlysatisfying'
p362
F0.013189704209299999
sS'youtube'
p363
F0.0085957915004799997
sS'terriblefacebookmemes'
p364
F0.0140344797713
sS'urbanexploration'
p365
F0.0122539331172
s.