(dp1
S'climateskeptics'
p2
F0.013519603425
sS'PoliticalDiscussion'
p3
F0.016620055932899998
sS'circlebroke2'
p4
F0.023454157782499999
sS'NewsOfTheStupid'
p5
F0.0088087248322099992
sS'circlebroke'
p6
F0.020297085837399999
sS'PanicHistory'
p7
F0.046799724707499997
sS'inthenews'
p8
F0.0071341833636899997
sS'Conservative'
p9
F0.030702734928099999
sS'PurplePillDebate'
p10
F0.0096203848153899995
sS'POLITIC'
p11
F0.0102093787853
sS'Hiphopcirclejerk'
p12
F0.0073059360730599997
sS'ShitPoliticsSays'
p13
F0.0498034076016
sS'FeMRADebates'
p14
F0.0082263902599500009
sS'AnythingGoesNews'
p15
F0.011111111111100001
sS'Foodforthought'
p16
F0.0074767826223800004
sS'ShitRedditSays'
p17
F0.0124599908551
sS'ainbow'
p18
F0.0100925147183
sS'againstmensrights'
p19
F0.023874862788099999
sS'badhistory'
p20
F0.036971830985899998
sS'forwardsfromgrandma'
p21
F0.020153877578800002
sS'TheoryOfReddit'
p22
F0.0105485232068
sS'badlinguistics'
p23
F0.0195392242636
sS'skeptic'
p24
F0.0122417750574
sS'quityourbullshit'
p25
F0.0078429573911799992
sS'metacanada'
p26
F0.010917030567699999
sS'AskSocialScience'
p27
F0.0082500396636500002
sS'TheFacebookDelusion'
p28
F0.0108592112783
sS'DebateReligion'
p29
F0.0088396553653399997
sS'Shitstatistssay'
p30
F0.016726403823199999
sS'ShitAmericansSay'
p31
F0.027426160337600002
sS'TrueChristian'
p32
F0.0085127691537300008
sS'conspiratard'
p33
F0.030274498442799998
sS'SRSsucks'
p34
F0.013465346534700001
sS'FutureWhatIf'
p35
F0.0086687306501499993
sS'Anarchism'
p36
F0.0072689511941800003
sS'BasicIncome'
p37
F0.0102632753235
sS'badphilosophy'
p38
F0.027560050568899999
sS'occupywallstreet'
p39
F0.0086291913214999998
sS'FloridaMan'
p40
F0.0088690115221300003
sS'Republican'
p41
F0.025007104291000001
sS'DebateAnAtheist'
p42
F0.0070037581141099998
sS'EnoughLibertarianSpam'
p43
F0.069304766069099993
sS'lostgeneration'
p44
F0.0124437781109
sS'conservatives'
p45
F0.041173686701400002
sS'PoliticalHumor'
p46
F0.016442217350499999
sS'magicskyfairy'
p47
F0.018095520617
sS'NeutralPolitics'
p48
F0.015915119363399999
sS'SRSGaming'
p49
F0.0093367675466799992
sS'lewronggeneration'
p50
F0.010336451496199999
sS'Braveryjerk'
p51
F0.0073891625615799999
sS'GunsAreCool'
p52
F0.037059538274599998
sS'Sidehugs'
p53
F0.0082093381221099992
sS'Frugal_Jerk'
p54
F0.00823127885967
sS'Liberal'
p55
F0.043488265071299999
sS'progressive'
p56
F0.029145192820299998
sS'progun'
p57
F0.00737144911902
sS'blackladies'
p58
F0.0073193046660600001
sS'PropagandaPosters'
p59
F0.013963636363600001
sS'NewsOfTheWeird'
p60
F0.0074478649453800002
sS'shittyadviceanimals'
p61
F0.0094959824689599993
sS'socialism'
p62
F0.0151839595094
sS'Ask_Politics'
p63
F0.010888129803600001
sS'SubredditDrama'
p64
F0.0128712249639
sS'Libertarian'
p65
F0.0097923846347800006
sS'TheBluePill'
p66
F0.021797451374899999
sS'HailCorporate'
p67
F0.0085891120373900003
sS'Anarcho_Capitalism'
p68
F0.013365442504500001
sS'WhiteRights'
p69
F0.0095170955234399994
s.