(dp1
S'awwwtf'
p2
F0.0096760005864199999
sS'DoesAnybodyElse'
p3
F0.0078637270740300001
sS'pettyrevenge'
p4
F0.011843809758800001
sS'3amjokes'
p5
F0.0107792314655
sS'dadjokes'
p6
F0.0113284243494
sS'DeepIntoYouTube'
p7
F0.0073522298539199999
sS'TalesFromRetail'
p8
F0.0107356605575
sS'WouldYouRather'
p9
F0.0086455331412100007
sS'quityourbullshit'
p10
F0.0122368890474
sS'LearnUselessTalents'
p11
F0.0075897538323300004
sS'harrypotter'
p12
F0.0076007573708399999
sS'whowouldwin'
p13
F0.0090895005939200003
sS'ImaginaryMonsters'
p14
F0.0112855007474
sS'offmychest'
p15
F0.00866333461489
sS'Frisson'
p16
F0.0093494135870800001
sS'horror'
p17
F0.017222375309999999
sS'Jokes'
p18
F0.0075031881135299997
sS'NoStupidQuestions'
p19
F0.0105007376551
sS'cringepics'
p20
F0.0083177594693500008
sS'creepyPMs'
p21
F0.012245273754000001
sS'Paranormal'
p22
F0.012904270827699999
sS'CrappyDesign'
p23
F0.00756066411239
sS'comics'
p24
F0.0080539517733200002
sS'SubredditDrama'
p25
F0.00713143529325
sS'zombies'
p26
F0.0072202166065000002
sS'Supernatural'
p27
F0.0074388294602200002
sS'cringe'
p28
F0.0072820708459099999
sS'tumblr'
p29
F0.0104830255625
sS'interestingasfuck'
p30
F0.0075070226986500002
sS'MarkMyWords'
p31
F0.0078992841273800001
sS'fatpeoplestories'
p32
F0.010016444909600001
sS'popping'
p33
F0.0072329077097100002
sS'firstworldanarchists'
p34
F0.00783128051349
sS'forwardsfromgrandma'
p35
F0.0101095993953
sS'findareddit'
p36
F0.0079816854349699998
sS'AmericanHorrorStory'
p37
F0.0089387383283999998
sS'ExpectationVsReality'
p38
F0.0090437718557799997
sS'outside'
p39
F0.0080003368562899992
sS'SCP'
p40
F0.013032449925700001
sS'LetsNotMeet'
p41
F0.025717111770500001
sS'casualiama'
p42
F0.00856612082015
sS'facepalm'
p43
F0.0091955461028399993
sS'delusionalartists'
p44
F0.0106817151207
sS'shittyaskscience'
p45
F0.0081926759451199996
sS'lewronggeneration'
p46
F0.0096498054474699994
sS'Unexpected'
p47
F0.0110623298557
sS'4chan'
p48
F0.0072536268134099999
sS'creepy'
p49
F0.0119764416348
sS'nosleep'
p50
F0.027674543958700001
sS'watchpeopledie'
p51
F0.0079650163985599993
sS'wheredidthesodago'
p52
F0.0090713939477899998
sS'classic4chan'
p53
F0.0084704575435700005
sS'confession'
p54
F0.0091677580664399991
sS'AntiJokes'
p55
F0.010685391543299999
sS'conspiratard'
p56
F0.0074247753028500001
sS'Damnthatsinteresting'
p57
F0.00731660601417
sS'FiftyFifty'
p58
F0.0099012351790899993
sS'CrazyIdeas'
p59
F0.0113721641748
sS'OutOfTheLoop'
p60
F0.0102149167516
sS'MorbidReality'
p61
F0.0117695360613
sS'misleadingthumbnails'
p62
F0.010077337707999999
sS'raisedbynarcissists'
p63
F0.0085779386141300006
sS'Pareidolia'
p64
F0.00829922054618
sS'fatlogic'
p65
F0.0082767236667399997
sS'tipofmytongue'
p66
F0.00894995415543
sS'mildlyinfuriating'
p67
F0.0083146034404199994
sS'Thetruthishere'
p68
F0.01231103467
sS'MeanJokes'
p69
F0.0075218052332600002
sS'WritingPrompts'
p70
F0.0111345747744
sS'Awwducational'
p71
F0.0089961035984400008
sS'blunderyears'
p72
F0.0089658560550200002
sS'rage'
p73
F0.0113277953001
sS'thatHappened'
p74
F0.012576996969599999
sS'sixwordstories'
p75
F0.0134240200465
sS'nononono'
p76
F0.00723219603505
sS'behindthegifs'
p77
F0.0095864993815199997
sS'standupshots'
p78
F0.0073579739904199998
sS'Glitch_in_the_Matrix'
p79
F0.016200998618899998
sS'AskScienceFiction'
p80
F0.0077000334784100002
sS'FanTheories'
p81
F0.0149749794608
sS'explainlikeIAmA'
p82
F0.0096034494022299993
sS'shittyama'
p83
F0.0078514371543700005
sS'Gore'
p84
F0.0071732522796400001
sS'UnresolvedMysteries'
p85
F0.0079656862745099994
sS'nonononoyes'
p86
F0.0073031931710400002
sS'Whatcouldgowrong'
p87
F0.0077466985546400004
sS'fifthworldproblems'
p88
F0.0074222333416699999
sS'notinteresting'
p89
F0.010347174948899999
sS'oddlysatisfying'
p90
F0.0082196452933199996
sS'terriblefacebookmemes'
p91
F0.0087533736961099996
sS'TumblrInAction'
p92
F0.0091605720989400008
sS'ImGoingToHellForThis'
p93
F0.0075420875420899999
s.