(dp1
S'FancyFollicles'
p2
F0.0094547053649999997
sS'awwwtf'
p3
F0.0070306397014100004
sS'NoStupidQuestions'
p4
F0.0092421441774499999
sS'DoesAnybodyElse'
p5
F0.0073831214335800003
sS'pettyrevenge'
p6
F0.0094572774903599992
sS'malehairadvice'
p7
F0.0093283582089600005
sS'PublicFreakout'
p8
F0.0097864768683300005
sS'uglyduckling'
p9
F0.0111283143023
sS'PurplePillDebate'
p10
F0.014764764764800001
sS'dadjokes'
p11
F0.0071477073728600004
sS'whitepeoplegifs'
p12
F0.0076195059351899996
sS'everymanshouldknow'
p13
F0.00866769187753
sS'bodybuilding'
p14
F0.0076191783642800001
sS'TalesFromRetail'
p15
F0.0073295870999300003
sS'TheoryOfReddit'
p16
F0.0081867798665899993
sS'TheBluePill'
p17
F0.015882665856100001
sS'quityourbullshit'
p18
F0.0117388114453
sS'HistoryPorn'
p19
F0.0072168048455699997
sS'swoleacceptance'
p20
F0.0086632591180800002
sS'holdmybeer'
p21
F0.0075304189290999997
sS'MensRights'
p22
F0.011566085253199999
sS'nononono'
p23
F0.0092457877692799992
sS'offmychest'
p24
F0.0087119265087700001
sS'Frisson'
p25
F0.0072064168442199997
sS'childfree'
p26
F0.0114916111239
sS'JusticePorn'
p27
F0.0079242821655099993
sS'lostgeneration'
p28
F0.0083570575810500008
sS'cringepics'
p29
F0.0078530014211500004
sS'toosoon'
p30
F0.0080477889322199993
sS'beards'
p31
F0.0072715572715599999
sS'PrettyGirlsUglyFaces'
p32
F0.0098672720922099999
sS'RedPillWomen'
p33
F0.0080505325736899992
sS'creepyPMs'
p34
F0.0119884385469
sS'IdiotsFightingThings'
p35
F0.0072583500531100001
sS'WatchItForThePlot'
p36
F0.0075539771125799999
sS'asianamerican'
p37
F0.0082431102362199998
sS'CrappyDesign'
p38
F0.0072420688537000004
sS'4chan'
p39
F0.0075301037060100003
sS'SubredditDrama'
p40
F0.0152020835343
sS'cringe'
p41
F0.0081828539861200002
sS'badhistory'
p42
F0.0072486119679199996
sS'AskWomen'
p43
F0.0118128777374
sS'Rateme'
p44
F0.0093485800997200001
sS'offbeat'
p45
F0.0076674254223099998
sS'MarkMyWords'
p46
F0.0079015803160599994
sS'AmISexy'
p47
F0.0102095013278
sS'fatpeoplestories'
p48
F0.011455999999999999
sS'OneY'
p49
F0.0116058240135
sS'Feminism'
p50
F0.0082241630276600006
sS'firstworldanarchists'
p51
F0.0076961336090700001
sS'firstworldproblems'
p52
F0.00742049469965
sS'no_sob_story'
p53
F0.0074462506554799999
sS'SkincareAddiction'
p54
F0.0078687981446199998
sS'ExpectationVsReality'
p55
F0.0090065124012699994
sS'socialskills'
p56
F0.012005207077799999
sS'outside'
p57
F0.0078247985924600003
sS'facepalm'
p58
F0.0076755271875299999
sS'blackpeoplegifs'
p59
F0.0085424856365299996
sS'bestof'
p60
F0.0082028639134700005
sS'casualiama'
p61
F0.0092231794945100004
sS'FloridaMan'
p62
F0.0100218868794
sS'delusionalartists'
p63
F0.0117653713445
sS'OkCupid'
p64
F0.011018080330100001
sS'LadyBoners'
p65
F0.0079296537646199993
sS'lewronggeneration'
p66
F0.0105835848174
sS'Unexpected'
p67
F0.0079722028284299994
sS'Hair'
p68
F0.0072610294117599998
sS'watchpeopledie'
p69
F0.0093920765027299992
sS'wheredidthesodago'
p70
F0.0083367602527199998
sS'AnimalsBeingBros'
p71
F0.0087936586574199997
sS'classic4chan'
p72
F0.0080789946139999992
sS'OutOfTheLoop'
p73
F0.0096299261631499992
sS'amiugly'
p74
F0.0122028340555
sS'QuotesPorn'
p75
F0.0075534502624499998
sS'ShitAmericansSay'
p76
F0.0070851322926999997
sS'bigdickproblems'
p77
F0.012499112279
sS'TrueReddit'
p78
F0.0073879998111700002
sS'confession'
p79
F0.010090720993200001
sS'intj'
p80
F0.0072877059569100002
sS'rant'
p81
F0.0091531420659899995
sS'conspiratard'
p82
F0.0086918493412800005
sS'TrollXChromosomes'
p83
F0.0103516542514
sS'ContagiousLaughter'
p84
F0.0078155749226899995
sS'femalefashionadvice'
p85
F0.0074892419728599998
sS'Damnthatsinteresting'
p86
F0.0070548945940299996
sS'CrazyIdeas'
p87
F0.0081280863724200007
sS'Bad_Cop_No_Donut'
p88
F0.00776000346816
sS'ANormalDayInRussia'
p89
F0.0071125611745500002
sS'seduction'
p90
F0.0092546686498099998
sS'MorbidReality'
p91
F0.0106609808102
sS'firstimpression'
p92
F0.0089005981201899995
sS'raisedbynarcissists'
p93
F0.0077217290899899999
sS'confessions'
p94
F0.0083310937919900008
sS'Pareidolia'
p95
F0.0075844486934399996
sS'happy'
p96
F0.0078762709437199992
sS'fatlogic'
p97
F0.013694452914900001
sS'TrollYChromosome'
p98
F0.011990542670600001
sS'explainlikeIAmA'
p99
F0.0078919411139800003
sS'misleadingthumbnails'
p100
F0.0098518866027699995
sS'mildlyinfuriating'
p101
F0.0074573702159899998
sS'oddlysatisfying'
p102
F0.0070377705474599997
sS'introvert'
p103
F0.0101380332216
sS'Awwducational'
p104
F0.0082952318745899995
sS'AskMen'
p105
F0.012314768659100001
sS'ghettoglamourshots'
p106
F0.0087020243656700004
sS'blunderyears'
p107
F0.0129360858199
sS'rage'
p108
F0.010863990301700001
sS'thatHappened'
p109
F0.0099026241954099994
sS'TheRedPill'
p110
F0.0134221380756
sS'PerfectTiming'
p111
F0.00745473908413
sS'behindthegifs'
p112
F0.0078460038986399999
sS'standupshots'
p113
F0.0090306821125899998
sS'changemyview'
p114
F0.0101946428923
sS'FeMRADebates'
p115
F0.0071833126122399999
sS'teenagers'
p116
F0.0075036476064800003
sS'bigboobproblems'
p117
F0.00969850305714
sS'polandball'
p118
F0.0071920047324000001
sS'ShitRedditSays'
p119
F0.0076241817481699998
sS'SRSsucks'
p120
F0.0095063195419699993
sS'asktrp'
p121
F0.0079237966787499992
sS'ForeverAlone'
p122
F0.022137887413000001
sS'MURICA'
p123
F0.0072994365747399998
sS'bestofworldstar'
p124
F0.0071199999999999996
sS'self'
p125
F0.0084373654756799994
sS'circlebroke'
p126
F0.0098503359804500007
sS'popping'
p127
F0.00708121265767
sS'howtonotgiveafuck'
p128
F0.0095306699174399993
sS'nonononoyes'
p129
F0.0080812196529800005
sS'Whatcouldgowrong'
p130
F0.0089330024813899997
sS'MapPorn'
p131
F0.0070258498248300001
sS'notinteresting'
p132
F0.0081717908314700004
sS'forwardsfromgrandma'
p133
F0.010520778537600001
sS'AnimalsBeingJerks'
p134
F0.0078994614003600003
sS'socialanxiety'
p135
F0.00807487612406
sS'progresspics'
p136
F0.0080419942076999998
sS'GirlGamers'
p137
F0.0092793682132299993
sS'dating_advice'
p138
F0.0079196645789099997
sS'HumanPorn'
p139
F0.0098132925508200002
sS'TumblrInAction'
p140
F0.0099729178164799995
sS'tall'
p141
F0.051969478242899998
sS'HailCorporate'
p142
F0.0085060698653900008
sS'ImGoingToHellForThis'
p143
F0.0070149170964300001
sS'gainit'
p144
F0.0083432657926099992
s.