(dp1
S'IDAP'
p2
F0.0077330976579799999
sS'FancyFollicles'
p3
F0.0279982363316
sS'awwwtf'
p4
F0.011842327863300001
sS'Heavymind'
p5
F0.0084791077839699996
sS'curlyhair'
p6
F0.0098090733928899998
sS'redheads'
p7
F0.017584405144699999
sS'DoesAnybodyElse'
p8
F0.0071173494693000001
sS'GWCouples'
p9
F0.0109303295786
sS'malehairadvice'
p10
F0.0070459290187900002
sS'CityPorn'
p11
F0.0081369723681999993
sS'Shitty_Car_Mods'
p12
F0.0089318693126499999
sS'fffffffuuuuuuuuuuuu'
p13
F0.0081439442139800006
sS'uglyduckling'
p14
F0.0137872819358
sS'milf'
p15
F0.0169864559819
sS'actuallesbians'
p16
F0.012174112782799999
sS'futurama'
p17
F0.0084522180965399991
sS'perfectloops'
p18
F0.0082760461856799996
sS'everymanshouldknow'
p19
F0.0076904507362800002
sS'tattoo'
p20
F0.0077631341397399996
sS'carporn'
p21
F0.0095786963434000005
sS'BeardPorn'
p22
F0.010520607375300001
sS'BDSMGW'
p23
F0.0086279209107200001
sS'Amateur'
p24
F0.016226083429100001
sS'quityourbullshit'
p25
F0.0094633627242300001
sS'cumsluts'
p26
F0.012150747238499999
sS'nostalgia'
p27
F0.0124232224034
sS'holdmybeer'
p28
F0.0092385985515799993
sS'harrypotter'
p29
F0.0081071855265400002
sS'HistoryPorn'
p30
F0.0093342162035200005
sS'pettyrevenge'
p31
F0.0089849599583299994
sS'badtattoos'
p32
F0.011460285426
sS'offmychest'
p33
F0.0076265855959699999
sS'woahdude'
p34
F0.0078142538898600001
sS'ImaginaryMonsters'
p35
F0.0082594855028800002
sS'AsianHotties'
p36
F0.0085209981740699998
sS'adventuretime'
p37
F0.0087545987191700002
sS'Gore'
p38
F0.0070292772810999996
sS'MensRights'
p39
F0.0087087179172700008
sS'nononono'
p40
F0.0091853219478400007
sS'MilitaryPorn'
p41
F0.0090582806357900007
sS'bigboobproblems'
p42
F0.0071957028478799997
sS'YouShouldKnow'
p43
F0.0075666961360399999
sS'childfree'
p44
F0.0087387124963599992
sS'popping'
p45
F0.0114645779548
sS'Random_Acts_Of_Amazon'
p46
F0.00749656121045
sS'cringepics'
p47
F0.0086532504646399996
sS'whitepeoplegifs'
p48
F0.0111893583725
sS'NSFW_GIF'
p49
F0.011569497141
sS'PandR'
p50
F0.00759609717766
sS'altgonewild'
p51
F0.0211196443007
sS'geek'
p52
F0.0086973775587800006
sS'gonewildstories'
p53
F0.0074587574587600004
sS'NoStupidQuestions'
p54
F0.0071461152501100002
sS'Hotwife'
p55
F0.0080630870104599992
sS'toosoon'
p56
F0.0094408133623800003
sS'Military'
p57
F0.0073911537128999996
sS'beards'
p58
F0.014480681745400001
sS'PrettyGirlsUglyFaces'
p59
F0.022639567790099999
sS'motorcycles'
p60
F0.0072334287744099997
sS'tightdresses'
p61
F0.014620181985500001
sS'AbandonedPorn'
p62
F0.0105605761573
sS'firstimpression'
p63
F0.018007286995499999
sS'creepyPMs'
p64
F0.0107000421517
sS'WatchItForThePlot'
p65
F0.016558876003599999
sS'Celebs'
p66
F0.018193308055599999
sS'techsupportgore'
p67
F0.0071659561957999997
sS'redditgetsdrawn'
p68
F0.0096259094713799995
sS'CrappyDesign'
p69
F0.0092249932957899992
sS'ConfusedBoners'
p70
F0.0098966924212200002
sS'Whatcouldgowrong'
p71
F0.0099204722472699992
sS'Cyberpunk'
p72
F0.0091360252650600007
sS'minimalism'
p73
F0.0086688811472099992
sS'nsfw'
p74
F0.0128494091378
sS'anal'
p75
F0.0076470588235300003
sS'ArcherFX'
p76
F0.0087055261165800008
sS'StarWars'
p77
F0.0079746539216200008
sS'whatisthisthing'
p78
F0.00811244435406
sS'AskWomen'
p79
F0.0086580648511100002
sS'NetflixBestOf'
p80
F0.0073794641627899999
sS'gentlemanboners'
p81
F0.0214283826988
sS'Rateme'
p82
F0.0147316730972
sS'sex'
p83
F0.0072566699604699999
sS'tumblr'
p84
F0.013071895424800001
sS'POLITIC'
p85
F0.0070517774343099998
sS'interestingasfuck'
p86
F0.0094792256688800008
sS'AmISexy'
p87
F0.015631355685999999
sS'fatpeoplestories'
p88
F0.0084224472414099992
sS'amiugly'
p89
F0.0104814024673
sS'Cinemagraphs'
p90
F0.0089623417201099998
sS'firstworldanarchists'
p91
F0.010034053393599999
sS'offbeat'
p92
F0.0082428986538599994
sS'Blowjobs'
p93
F0.0082959855058600002
sS'4chan'
p94
F0.0078578484145599998
sS'Justrolledintotheshop'
p95
F0.0089505421703000004
sS'shittyfoodporn'
p96
F0.011378362148000001
sS'ExpectationVsReality'
p97
F0.0108371714982
sS'firstworldproblems'
p98
F0.0087516872033799997
sS'outside'
p99
F0.0071002685357999997
sS'RandomActsofMakeup'
p100
F0.0083560229086500001
sS'RoomPorn'
p101
F0.010494260950999999
sS'randomsexiness'
p102
F0.014668171094500001
sS'lifehacks'
p103
F0.0094305322001499992
sS'memes'
p104
F0.0092001780679600003
sS'gonewildcurvy'
p105
F0.0125676284941
sS'guns'
p106
F0.0070523492415800002
sS'disney'
p107
F0.0074670743179699999
sS'ass'
p108
F0.0143266475645
sS'tattoos'
p109
F0.012550241981800001
sS'blackpeoplegifs'
p110
F0.012563742517200001
sS'facepalm'
p111
F0.0108954935207
sS'celebnsfw'
p112
F0.010465687996100001
sS'FloridaMan'
p113
F0.0076576576576600002
sS'transtimelines'
p114
F0.0077601410934699999
sS'delusionalartists'
p115
F0.0087903582485600006
sS'OkCupid'
p116
F0.0084721355541700002
sS'lgbt'
p117
F0.0087092227144600007
sS'LadyBoners'
p118
F0.015167465980400001
sS'corgi'
p119
F0.0077489933905600002
sS'ainbow'
p120
F0.0070526234209099996
sS'TributeMe'
p121
F0.0087470180620200007
sS'cosplay'
p122
F0.012146261229
sS'PoliticalHumor'
p123
F0.0080990080990099994
sS'ThriftStoreHauls'
p124
F0.0093812375249500007
sS'calvinandhobbes'
p125
F0.0071994240460800003
sS'SkincareAddiction'
p126
F0.0086461639487800009
sS'GoneWildPlus'
p127
F0.0086664802907499994
sS'piercing'
p128
F0.014413969195300001
sS'Hair'
p129
F0.0105347736809
sS'itookapicture'
p130
F0.0107551752053
sS'wheredidthesodago'
p131
F0.0091939593102700005
sS'AnimalsBeingBros'
p132
F0.0130201995619
sS'classic4chan'
p133
F0.0076886493341800002
sS'GunPorn'
p134
F0.0072721122949400002
sS'NSFWFunny'
p135
F0.0101953459413
sS'whatsthisbug'
p136
F0.0073837181959299997
sS'QuotesPorn'
p137
F0.011733918622299999
sS'drunk'
p138
F0.0103583799627
sS'TinyTits'
p139
F0.020423600605100001
sS'pussy'
p140
F0.0105274022087
sS'confession'
p141
F0.0095315989807799994
sS'reactiongifs'
p142
F0.0101456497823
sS'feet'
p143
F0.0122896072669
sS'IdiotsFightingThings'
p144
F0.010025498377399999
sS'TrollXChromosomes'
p145
F0.017091147188700001
sS'Unexpected'
p146
F0.0102905960779
sS'thick'
p147
F0.0137222749633
sS'femalefashionadvice'
p148
F0.0087776598350600005
sS'gonewild'
p149
F0.0090490107913700005
sS'Damnthatsinteresting'
p150
F0.0105662869407
sS'FiftyFifty'
p151
F0.0092937765351599998
sS'CrazyIdeas'
p152
F0.0084064216563999993
sS'OldSchoolCool'
p153
F0.0084799199843400008
sS'TinyHouses'
p154
F0.0072189755929899999
sS'Bad_Cop_No_Donut'
p155
F0.0087172036578100007
sS'ANormalDayInRussia'
p156
F0.0098465473145799998
sS'TheFacebookDelusion'
p157
F0.0080497248828200006
sS'MorbidReality'
p158
F0.0086531850833299999
sS'gif'
p159
F0.0130546807902
sS'cats'
p160
F0.010992140334899999
sS'PenmanshipPorn'
p161
F0.0121532364597
sS'shittyreactiongifs'
p162
F0.010456431535299999
sS'misleadingthumbnails'
p163
F0.00942161737765
sS'Pareidolia'
p164
F0.011068034017
sS'asstastic'
p165
F0.019182071410500001
sS'happy'
p166
F0.014191372769399999
sS'Boobies'
p167
F0.0148153025614
sS'fatlogic'
p168
F0.010397570252000001
sS'TrollYChromosome'
p169
F0.017252856984399999
sS'Stacked'
p170
F0.0096495119787000008
sS'alternativeart'
p171
F0.0096182747219700007
sS'MakeupAddiction'
p172
F0.0122575219851
sS'batman'
p173
F0.0093491679601499997
sS'treesgonewild'
p174
F0.0126558719524
sS'mildlyinfuriating'
p175
F0.010341230364499999
sS'somethingimade'
p176
F0.011309286568400001
sS'nsfw_gifs'
p177
F0.0112261770081
sS'ginger'
p178
F0.021985472155000001
sS'Awwducational'
p179
F0.0115259012614
sS'TheGirlSurvivalGuide'
p180
F0.0081150159744400006
sS'burstingout'
p181
F0.0113286405631
sS'AskMen'
p182
F0.0078751657042699999
sS'ghettoglamourshots'
p183
F0.00958806818182
sS'blunderyears'
p184
F0.015612489992
sS'Marvel'
p185
F0.0074076614424399998
sS'EDC'
p186
F0.0072931158045600004
sS'showerbeer'
p187
F0.012059447983
sS'rage'
p188
F0.0097464086100999998
sS'comics'
p189
F0.0094231794975999997
sS'hugeboobs'
p190
F0.0091106739828099997
sS'AmateurArchives'
p191
F0.010537751222199999
sS'Perfectfit'
p192
F0.0081177875049699994
sS'PerfectTiming'
p193
F0.011247256766599999
sS'behindthegifs'
p194
F0.0077589922889000004
sS'standupshots'
p195
F0.011720323773899999
sS'BigBoobsGW'
p196
F0.012832039231699999
sS'BustyPetite'
p197
F0.018394741203100001
sS'OnOff'
p198
F0.0172323759791
sS'fullmoviesonyoutube'
p199
F0.0078949827151300004
sS'FoodPorn'
p200
F0.010123371382499999
sS'bisexual'
p201
F0.0088331419485899992
sS'teenagers'
p202
F0.00757876564523
sS'wifesharing'
p203
F0.010261972301
sS'IASIP'
p204
F0.00745052386496
sS'conspiracy'
p205
F0.0077893307607099999
sS'southpark'
p206
F0.0075413186735700001
sS'hardbodies'
p207
F0.0246355685131
sS'girlsinyogapants'
p208
F0.013457715247000001
sS'MURICA'
p209
F0.0108076198261
sS'eatsandwiches'
p210
F0.0070378619153699997
sS'HighQualityGifs'
p211
F0.0096631888523200007
sS'self'
p212
F0.0080647451370199994
sS'pitbulls'
p213
F0.0088888888888900008
sS'RealGirls'
p214
F0.0174703813402
sS'ImaginaryLandscapes'
p215
F0.0070132784739100002
sS'GoneMild'
p216
F0.0220728291317
sS'Hotchickswithtattoos'
p217
F0.023937600860700001
sS'TheWayWeWere'
p218
F0.0081393147832700009
sS'transpassing'
p219
F0.0118226600985
sS'scifi'
p220
F0.0071539557166899999
sS'AsiansGoneWild'
p221
F0.0129789437349
sS'RedditLaqueristas'
p222
F0.0116142885028
sS'spaceporn'
p223
F0.0082524813204000007
sS'watchpeopledie'
p224
F0.0080631614312099992
sS'nonononoyes'
p225
F0.0097449511072299991
sS'workgonewild'
p226
F0.0135495335406
sS'wallpapers'
p227
F0.0079977680647299997
sS'firefly'
p228
F0.0098113685276599999
sS'JusticePorn'
p229
F0.0081633216845999994
sS'MapPorn'
p230
F0.00714876965912
sS'notinteresting'
p231
F0.0089046550351099991
sS'forwardsfromgrandma'
p232
F0.0094393150049000007
sS'AnimalsBeingJerks'
p233
F0.0127529210601
sS'sewing'
p234
F0.0074358760130299999
sS'Images'
p235
F0.0083711196372500008
sS'progresspics'
p236
F0.016562451552899999
sS'dogpictures'
p237
F0.0101410342512
sS'comicbooks'
p238
F0.0074129188712500002
sS'catpictures'
p239
F0.0087767923133799993
sS'oddlysatisfying'
p240
F0.0107227258298
sS'traps'
p241
F0.0075372149990600001
sS'GirlGamers'
p242
F0.0070576158090600001
sS'cosplaygirls'
p243
F0.026490066225200001
sS'HumanPorn'
p244
F0.015285347365799999
sS'curvy'
p245
F0.0143147620984
sS'PrettyGirls'
p246
F0.028435364759499999
sS'TumblrInAction'
p247
F0.0089988894987400002
sS'thatHappened'
p248
F0.0094781878851200006
sS'tall'
p249
F0.011792222980200001
sS'ImGoingToHellForThis'
p250
F0.0086358172246599994
sS'drawing'
p251
F0.0083402342363700002
sS'EmmaWatson'
p252
F0.0196044711952
sS'GWNerdy'
p253
F0.0169857104341
s.