(dp1
S'minerapocalypse'
p2
F0.0070762302991299996
sS'hcfactions'
p3
F0.188994023904
sS'kohi'
p4
F0.081026875250700001
sS'Civcraft'
p5
F0.020477174525599998
sS'CivcraftExchange'
p6
F0.0086611331649199992
sS'minecraftsuggestions'
p7
F0.0104153750775
sS'admincraft'
p8
F0.0132815692685
s.