(dp1
S'FancyFollicles'
p2
F0.0086941770219300003
sS'awwwtf'
p3
F0.012049173654600001
sS'shittyama'
p4
F0.0083408476104600004
sS'Heavymind'
p5
F0.0083345626198600004
sS'MapPorn'
p6
F0.010081173081999999
sS'Hunting'
p7
F0.0079479273723899995
sS'DoesAnybodyElse'
p8
F0.0099073186321500008
sS'pettyrevenge'
p9
F0.0108269613828
sS'malehairadvice'
p10
F0.0088305854729200002
sS'CityPorn'
p11
F0.0097055255321500007
sS'ArtisanVideos'
p12
F0.0086807475395299996
sS'fffffffuuuuuuuuuuuu'
p13
F0.0080478849152500007
sS'uglyduckling'
p14
F0.010211393765700001
sS'rickandmorty'
p15
F0.0077150572200099998
sS'milf'
p16
F0.0071354648946000002
sS'dadjokes'
p17
F0.01129470822
sS'BuyItForLife'
p18
F0.010824555030899999
sS'woodworking'
p19
F0.0073460568959299996
sS'perfectloops'
p20
F0.011034661820099999
sS'everymanshouldknow'
p21
F0.0137262266535
sS'dataisbeautiful'
p22
F0.0070131603231200004
sS'bigdickproblems'
p23
F0.0079508251486599991
sS'golf'
p24
F0.0072543115247700003
sS'gaybrosgonemild'
p25
F0.0071545380212600001
sS'tattoo'
p26
F0.0070117728531899999
sS'carporn'
p27
F0.0099156777014399993
sS'BeardPorn'
p28
F0.0146189735614
sS'TalesFromRetail'
p29
F0.0081980966991899995
sS'AskMen'
p30
F0.0089953009621800001
sS'eldertrees'
p31
F0.0072631741616399998
sS'TheWayWeWere'
p32
F0.0092567383610100001
sS'quityourbullshit'
p33
F0.011261176998800001
sS'LearnUselessTalents'
p34
F0.0120352460778
sS'holdmybeer'
p35
F0.018270685441600001
sS'harrypotter'
p36
F0.0070110494138799998
sS'HistoryPorn'
p37
F0.010502466809200001
sS'StonerEngineering'
p38
F0.010029574386
sS'shittybattlestations'
p39
F0.0071162023778499998
sS'onetruegod'
p40
F0.01072
sS'woahdude'
p41
F0.0099453608425099996
sS'4chan'
p42
F0.0082179070846299992
sS'bourbon'
p43
F0.010687288209200001
sS'PublicFreakout'
p44
F0.0094207798061800001
sS'texas'
p45
F0.00714749837557
sS'MensRights'
p46
F0.0080062841777700008
sS'nononono'
p47
F0.0151363636364
sS'MilitaryPorn'
p48
F0.0098955931066299994
sS'Frisson'
p49
F0.0106433867496
sS'arresteddevelopment'
p50
F0.0095328884651999998
sS'childfree'
p51
F0.0093481798168700003
sS'Jeep'
p52
F0.0071293644506699996
sS'cringepics'
p53
F0.0087870777487000003
sS'whitepeoplegifs'
p54
F0.015468607825300001
sS'foodhacks'
p55
F0.0110186806772
sS'AbandonedPorn'
p56
F0.012772787814599999
sS'PandR'
p57
F0.0091649694500999992
sS'altgonewild'
p58
F0.0084883166428199996
sS'geek'
p59
F0.0088602234600500002
sS'daddit'
p60
F0.0073911681803899999
sS'Homebrewing'
p61
F0.017095651508799999
sS'NoStupidQuestions'
p62
F0.0081640003601799998
sS'3amjokes'
p63
F0.0071803369235000003
sS'toosoon'
p64
F0.012402496099800001
sS'Military'
p65
F0.0090151515151499998
sS'spicy'
p66
F0.0108663144253
sS'beards'
p67
F0.020126345195399999
sS'PrettyGirlsUglyFaces'
p68
F0.0133267925762
sS'motorcycles'
p69
F0.0081064937281300001
sS'Braveryjerk'
p70
F0.0071767916708800001
sS'photoshopbattles'
p71
F0.0084872558755400007
sS'IWantToLearn'
p72
F0.0071239750884900003
sS'creepyPMs'
p73
F0.0106043183851
sS'KitchenConfidential'
p74
F0.0099781301257500007
sS'WatchItForThePlot'
p75
F0.0147585458492
sS'Celebs'
p76
F0.0097459554285
sS'techsupportgore'
p77
F0.00868432479375
sS'freebies'
p78
F0.009942004971
sS'guns'
p79
F0.0088459070492300004
sS'facepalm'
p80
F0.0115742964173
sS'hardbodies'
p81
F0.0124756063563
sS'futurama'
p82
F0.0112574850299
sS'SubredditDrama'
p83
F0.00793875280496
sS'zombies'
p84
F0.0078343592613300001
sS'Libertarian'
p85
F0.0071337050247600002
sS'nsfw'
p86
F0.00832796826649
sS'ArcherFX'
p87
F0.0129707112971
sS'cringe'
p88
F0.0078297736545799995
sS'StarWars'
p89
F0.0086460994301400008
sS'mildlyinteresting'
p90
F0.0070916599764199997
sS'blunderyears'
p91
F0.014630323086300001
sS'whatisthisthing'
p92
F0.0123054813285
sS'EatCheapAndHealthy'
p93
F0.0102675059009
sS'NetflixBestOf'
p94
F0.011326728349599999
sS'gentlemanboners'
p95
F0.0145201856509
sS'TheSimpsons'
p96
F0.0094023130573000005
sS'Rateme'
p97
F0.0087421850164200003
sS'sex'
p98
F0.00707556239185
sS'cocktails'
p99
F0.0090867787369400006
sS'see'
p100
F0.0117458993606
sS'malegrooming'
p101
F0.0082615879641699998
sS'fatpeoplestories'
p102
F0.0095235131181700006
sS'CrappyDesign'
p103
F0.011440857931600001
sS'hockey'
p104
F0.0074168022278000003
sS'Cinemagraphs'
p105
F0.010389404393699999
sS'cigars'
p106
F0.0085568418781900007
sS'firstworldanarchists'
p107
F0.015651634898500001
sS'offbeat'
p108
F0.010523538723100001
sS'Coffee'
p109
F0.0082387956692400004
sS'humor'
p110
F0.0077255169279700003
sS'alcohol'
p111
F0.014201914171
sS'camping'
p112
F0.0079895409645599994
sS'whiskey'
p113
F0.0091173229135399995
sS'Justrolledintotheshop'
p114
F0.012217012726100001
sS'shittyfoodporn'
p115
F0.0195955282
sS'wikipedia'
p116
F0.0074154067674600003
sS'ExpectationVsReality'
p117
F0.014098425456199999
sS'breakingbad'
p118
F0.0094644375177100008
sS'malefashionadvice'
p119
F0.0075199932118500002
sS'firstworldproblems'
p120
F0.0125080316984
sS'outside'
p121
F0.010961478233600001
sS'AskCulinary'
p122
F0.0082430903507399993
sS'RoomPorn'
p123
F0.011520631569299999
sS'randomsexiness'
p124
F0.0071935452512900001
sS'lifehacks'
p125
F0.0112637981527
sS'memes'
p126
F0.0088908008890799996
sS'vexillology'
p127
F0.0074941451990600001
sS'tattoos'
p128
F0.0122250878297
sS'blackpeoplegifs'
p129
F0.0146795560329
sS'bestof'
p130
F0.0077196434307700004
sS'Cyberpunk'
p131
F0.0074614582761799997
sS'tonightsdinner'
p132
F0.0113452188006
sS'casualiama'
p133
F0.0087154024931299992
sS'FloridaMan'
p134
F0.013912659415899999
sS'Metal'
p135
F0.0072217063860499997
sS'malelivingspace'
p136
F0.0089787632729500001
sS'OkCupid'
p137
F0.0076364843712900003
sS'delusionalartists'
p138
F0.0097653088750999997
sS'Frugal'
p139
F0.0091217800258599994
sS'adventuretime'
p140
F0.0078734881227599997
sS'gardening'
p141
F0.0079343257786999993
sS'baseball'
p142
F0.0070840434487999997
sS'Random_Acts_Of_Pizza'
p143
F0.0077525389565100003
sS'corgi'
p144
F0.0077781039037300003
sS'shittyaskscience'
p145
F0.0095041005595199995
sS'GamePhysics'
p146
F0.0085799838765399997
sS'lewronggeneration'
p147
F0.0084843019919700006
sS'youtubehaiku'
p148
F0.0083027133973999998
sS'ThriftStoreHauls'
p149
F0.0116429495472
sS'calvinandhobbes'
p150
F0.0099760266027399992
sS'netflix'
p151
F0.0074253821887899996
sS'minimalism'
p152
F0.0096712568653999995
sS'recipes'
p153
F0.008356545961
sS'TalesFromThePizzaGuy'
p154
F0.0073449401523400003
sS'punk'
p155
F0.00749035894393
sS'piercing'
p156
F0.0089969221056000002
sS'DeepIntoYouTube'
p157
F0.0096388039591599993
sS'cripplingalcoholism'
p158
F0.018939393939400001
sS'howtonotgiveafuck'
p159
F0.0090051912278800005
sS'wheredidthesodago'
p160
F0.012491805666800001
sS'AnimalsBeingBros'
p161
F0.013978558313099999
sS'classic4chan'
p162
F0.0099601593625500001
sS'GunPorn'
p163
F0.007568359375
sS'OnOff'
p164
F0.0093023255813999995
sS'ANormalDayInRussia'
p165
F0.012703157108200001
sS'LadyBoners'
p166
F0.010060592203000001
sS'whatsthisbug'
p167
F0.0081057431032099999
sS'QuotesPorn'
p168
F0.011296863361700001
sS'itookapicture'
p169
F0.011330049261099999
sS'TrueReddit'
p170
F0.0071296296296300002
sS'drunk'
p171
F0.0339688506982
sS'beertrade'
p172
F0.012017167382
sS'reactiongifs'
p173
F0.010914984915799999
sS'cosplay'
p174
F0.0070793546262799996
sS'community'
p175
F0.00746646418628
sS'KingOfTheHill'
p176
F0.0080883803511500006
sS'NotTimAndEric'
p177
F0.0088777446462499996
sS'IdiotsFightingThings'
p178
F0.0141659111514
sS'conspiratard'
p179
F0.0076826591407999998
sS'marijuanaenthusiasts'
p180
F0.0082108464267599997
sS'TrollXChromosomes'
p181
F0.0108954828454
sS'Unexpected'
p182
F0.0126686198126
sS'ContagiousLaughter'
p183
F0.010670978173000001
sS'EmmaWatson'
p184
F0.0078489085111599997
sS'nostalgia'
p185
F0.013955397455200001
sS'Damnthatsinteresting'
p186
F0.012086797809799999
sS'HIMYM'
p187
F0.0077540657380100004
sS'FiftyFifty'
p188
F0.0133552496404
sS'CrazyIdeas'
p189
F0.0131389055923
sS'OldSchoolCool'
p190
F0.0085132620829899992
sS'lego'
p191
F0.0082469546795800007
sS'Bad_Cop_No_Donut'
p192
F0.0092223852441800005
sS'OutOfTheLoop'
p193
F0.00958787428746
sS'Whatcouldgowrong'
p194
F0.013459351134700001
sS'RandomActsOfPizza'
p195
F0.0078888390856099999
sS'gopro'
p196
F0.0070562692238099996
sS'urbanexploration'
p197
F0.0082380881698100004
sS'MorbidReality'
p198
F0.0086289774192800008
sS'gif'
p199
F0.011303524695100001
sS'beer'
p200
F0.0258336109513
sS'cats'
p201
F0.0086744273375899995
sS'PenmanshipPorn'
p202
F0.0110773352568
sS'shittyreactiongifs'
p203
F0.011842842282100001
sS'firstimpression'
p204
F0.0125573859033
sS'shittyadvice'
p205
F0.0091005612012700007
sS'Pareidolia'
p206
F0.014017552413500001
sS'asstastic'
p207
F0.0082151767784300004
sS'happy'
p208
F0.010782585107800001
sS'Boobies'
p209
F0.0073580716777699997
sS'fatlogic'
p210
F0.0098293367898000007
sS'TrollYChromosome'
p211
F0.0150043177893
sS'explainlikeIAmA'
p212
F0.0091539726811099998
sS'misleadingthumbnails'
p213
F0.012741288144200001
sS'wicked_edge'
p214
F0.0130513713753
sS'trailerparkboys'
p215
F0.012948418594800001
sS'snackexchange'
p216
F0.0078052406615900004
sS'beerporn'
p217
F0.030276437033800001
sS'mildlyinfuriating'
p218
F0.0130362787897
sS'somethingimade'
p219
F0.010559096880899999
sS'vinyl'
p220
F0.0077963591003000002
sS'TopGear'
p221
F0.0095141700404900009
sS'redditgetsdrawn'
p222
F0.0076930382752400002
sS'Awwducational'
p223
F0.011315593136
sS'Shitty_Car_Mods'
p224
F0.0129456283609
sS'smoking'
p225
F0.0074103745243300004
sS'IASIP'
p226
F0.0124152856085
sS'Scotch'
p227
F0.011338925131999999
sS'ghettoglamourshots'
p228
F0.0128303823454
sS'BBQ'
p229
F0.0088947600176100001
sS'EDC'
p230
F0.0122569386738
sS'rage'
p231
F0.0101497313979
sS'comics'
p232
F0.0089323798770499993
sS'forwardsfromgrandma'
p233
F0.011202502901499999
sS'interestingasfuck'
p234
F0.0107590955739
sS'Perfectfit'
p235
F0.0109281206711
sS'PerfectTiming'
p236
F0.0157395332104
sS'behindthegifs'
p237
F0.011188416697999999
sS'standupshots'
p238
F0.013383355578800001
sS'knives'
p239
F0.0084669924967300005
sS'MetalMemes'
p240
F0.0070156004800099999
sS'findareddit'
p241
F0.0070740416357900002
sS'cableporn'
p242
F0.0071734950451100002
sS'BustyPetite'
p243
F0.0083204437569999994
sS'AmISexy'
p244
F0.0082584269662900004
sS'tumblr'
p245
F0.0109538828744
sS'fullmoviesonyoutube'
p246
F0.0079561042524000005
sS'NewsOfTheStupid'
p247
F0.0074543040947600003
sS'FoodPorn'
p248
F0.0136920435031
sS'awesome'
p249
F0.010762252068
sS'Cooking'
p250
F0.010065520843200001
sS'offmychest'
p251
F0.0071078016584899999
sS'ginger'
p252
F0.0071278442840199997
sS'FanTheories'
p253
F0.0070159027128200002
sS'conspiracy'
p254
F0.0071536077910599998
sS'celebnsfw'
p255
F0.0087600162977000007
sS'DIY'
p256
F0.0073042146496600001
sS'YouShouldKnow'
p257
F0.0101743811658
sS'girlsinyogapants'
p258
F0.0081545694974999999
sS'bikesgonewild'
p259
F0.0078676942838800008
sS'shorthairedhotties'
p260
F0.012059447983
sS'southpark'
p261
F0.0082925644495300006
sS'Pizza'
p262
F0.014303291294999999
sS'TalesFromYourServer'
p263
F0.010505836575900001
sS'watchpeopledie'
p264
F0.0076584180837500002
sS'techsupportmacgyver'
p265
F0.0073909830007400003
sS'MURICA'
p266
F0.014980597419
sS'eatsandwiches'
p267
F0.015526610885900001
sS'HighQualityGifs'
p268
F0.0118942431863
sS'bicycling'
p269
F0.0088652040740099993
sS'CampingandHiking'
p270
F0.00962539021852
sS'self'
p271
F0.0088634578705300004
sS'pitbulls'
p272
F0.0077394388906799998
sS'RealGirls'
p273
F0.0106891062088
sS'GoneMild'
p274
F0.0078091339939700003
sS'Hotchickswithtattoos'
p275
F0.0095949732529499992
sS'food'
p276
F0.0077198523019999998
sS'JusticePorn'
p277
F0.0093020060456200006
sS'badtattoos'
p278
F0.011438136420700001
sS'popping'
p279
F0.010627356873500001
sS'slowcooking'
p280
F0.0124937280482
sS'spaceporn'
p281
F0.0089742195148499997
sS'nyc'
p282
F0.0080287824275700002
sS'nonononoyes'
p283
F0.013213811420999999
sS'Frugal_Jerk'
p284
F0.0102245388933
sS'Autos'
p285
F0.0082763427277100007
sS'wallpapers'
p286
F0.0086844841294099993
sS'firefly'
p287
F0.0090322580645200001
sS'NSFW_GIF'
p288
F0.0071473617826400002
sS'notinteresting'
p289
F0.012540192925999999
sS'Trucks'
p290
F0.0073646647938700001
sS'Hammocks'
p291
F0.0080733144228699993
sS'AnimalsBeingJerks'
p292
F0.0133955184627
sS'treesgonewild'
p293
F0.0071872227151699997
sS'budgetfood'
p294
F0.0077746196288200004
sS'Images'
p295
F0.0088028169014100002
sS'running'
p296
F0.0070950576473400003
sS'progresspics'
p297
F0.0104568527919
sS'dogpictures'
p298
F0.00963416221846
sS'DunderMifflin'
p299
F0.0081051975287600008
sS'subaru'
p300
F0.0074601415295400004
sS'oddlysatisfying'
p301
F0.012742760989999999
sS'MachinePorn'
p302
F0.00781377177275
sS'cosplaygirls'
p303
F0.0109079829372
sS'ConfusedBoners'
p304
F0.0106898279606
sS'HumanPorn'
p305
F0.0147873182012
sS'NSFWFunny'
p306
F0.0085489313835800003
sS'terriblefacebookmemes'
p307
F0.0093775262732400007
sS'PrettyGirls'
p308
F0.0096564409117799992
sS'TumblrInAction'
p309
F0.0078966714832600007
sS'thatHappened'
p310
F0.010638081896999999
sS'Fishing'
p311
F0.0084202913524100004
sS'stopsmoking'
p312
F0.0070227433799400002
sS'tall'
p313
F0.0135567330183
sS'HailCorporate'
p314
F0.0074938195302800001
sS'ImGoingToHellForThis'
p315
F0.010077817801900001
sS'Michigan'
p316
F0.0072869005253299998
sS'shutupandtakemymoney'
p317
F0.010773530472399999
sS'GWNerdy'
p318
F0.0088169833932500007
s.