(dp1
S'Heavymind'
p2
F0.020282393322399998
sS'drunk'
p3
F0.0072009601280200002
sS'mflb'
p4
F0.017138364779899998
sS'zen'
p5
F0.0097157250809600006
sS'mycology'
p6
F0.042527215383100003
sS'Buddhism'
p7
F0.0122280676809
sS'conspiracy'
p8
F0.0078425755161200001
sS'DMT'
p9
F0.050494396835899999
sS'marijuanaenthusiasts'
p10
F0.0075398535114200001
sS'skateboarding'
p11
F0.0070130010249800003
sS'gardening'
p12
F0.0072321105709300003
sS'kratom'
p13
F0.0085336538461499994
sS'cocaine'
p14
F0.0113353263577
sS'festivals'
p15
F0.0102074780872
sS'StonerPhilosophy'
p16
F0.0163741312286
sS'LucidDreaming'
p17
F0.014671426977600001
sS'LSD'
p18
F0.076449394038700005
sS'pinkfloyd'
p19
F0.0077474892396000002
sS'Nootropics'
p20
F0.011243337957200001
sS'eldertrees'
p21
F0.020250881364300002
sS'Drugs'
p22
F0.0362215345553
sS'MDMA'
p23
F0.0358268844941
sS'JoeRogan'
p24
F0.014278238768000001
sS'DarkNetMarkets'
p25
F0.019027645376500001
sS'StonerEngineering'
p26
F0.022591991342
sS'hookah'
p27
F0.0071250751137399999
sS'woahdude'
p28
F0.0092532481584399993
sS'saplings'
p29
F0.022108323133399999
sS'Graffiti'
p30
F0.0084467852529100003
sS'Dreams'
p31
F0.0071370309951100004
sS'Anarchism'
p32
F0.0070986947561299998
sS'see'
p33
F0.018822499452799998
sS'highdeas'
p34
F0.0127929477532
sS'opiates'
p35
F0.0121703853955
sS'glassheads'
p36
F0.012959400627700001
sS'longboarding'
p37
F0.0079428117553599995
sS'trees'
p38
F0.012395134321300001
sS'microgrowery'
p39
F0.020553855809200001
sS'Psychonaut'
p40
F0.062889917488400005
sS'aves'
p41
F0.0109476565173
sS'UFOs'
p42
F0.0075255623721899997
sS'gratefuldead'
p43
F0.0093468863184999994
sS'occult'
p44
F0.0104282676926
sS'askdrugs'
p45
F0.033312693498500003
sS'leaves'
p46
F0.013082858101300001
sS'Marijuana'
p47
F0.016205568985600001
sS'Glitch_in_the_Matrix'
p48
F0.00785370999883
sS'DrugNerds'
p49
F0.025987896048399999
sS'howtonotgiveafuck'
p50
F0.0079187373709800005
sS'shroomers'
p51
F0.088858405730800005
sS'Meditation'
p52
F0.017846993293200001
sS'CannabisExtracts'
p53
F0.0194614769395
sS'vaporents'
p54
F0.020622080437499999
s.