(dp1
S'DebateReligion'
p2
F0.0105617455896
sS'badphilosophy'
p3
F0.017615176151799999
sS'circlebroke2'
p4
F0.0126033871603
sS'Judaism'
p5
F0.012525620587599999
sS'badhistory'
p6
F0.012108262108300001
sS'ShitRConservativeSays'
p7
F0.0082093381221099992
sS'badlinguistics'
p8
F0.0085443037974699994
sS'Catholicism'
p9
F0.016103059581300001
sS'PanicHistory'
p10
F0.00811508668388
sS'circlebroke'
p11
F0.0091753774680600007
sS'DebateAChristian'
p12
F0.0162136385312
sS'Christianity'
p13
F0.018500712841100001
sS'OrthodoxChristianity'
p14
F0.039499670836100002
sS'religion'
p15
F0.017167381974200001
sS'DebateAnAtheist'
p16
F0.00703082747431
sS'ShitPoliticsSays'
p17
F0.0086705202312100001
sS'TrueChristian'
p18
F0.0523486134692
sS'magicskyfairy'
p19
F0.031714568880099998
sS'Reformed'
p20
F0.049519959575499997
s.