(dp1
S'awwwtf'
p2
F0.010176322418100001
sS'Heavymind'
p3
F0.013311746717
sS'DoesAnybodyElse'
p4
F0.0090007826767500004
sS'pettyrevenge'
p5
F0.0082581540596800007
sS'adventuretime'
p6
F0.0070955534531699999
sS'LucidDreaming'
p7
F0.0070102078465100002
sS'Poetry'
p8
F0.0134026805361
sS'uglyduckling'
p9
F0.0072652968554900001
sS'rickandmorty'
p10
F0.0072539849193500004
sS'quotes'
p11
F0.0139992432841
sS'futurama'
p12
F0.0082470892626100006
sS'perfectloops'
p13
F0.0143242202541
sS'everymanshouldknow'
p14
F0.0089863540549499996
sS'InternetIsBeautiful'
p15
F0.0072012273396199998
sS'Foodforthought'
p16
F0.0089454782892599994
sS'linguistics'
p17
F0.0086419753086400004
sS'TheoryOfReddit'
p18
F0.0129040038591
sS'TheBluePill'
p19
F0.0076909929926500002
sS'WouldYouRather'
p20
F0.0141106886354
sS'quityourbullshit'
p21
F0.011086019297900001
sS'LearnUselessTalents'
p22
F0.0145097554952
sS'MMFB'
p23
F0.0075926168346599999
sS'writing'
p24
F0.011838232862700001
sS'whowouldwin'
p25
F0.0101789901069
sS'woahdude'
p26
F0.0070362604293700004
sS'ImaginaryMonsters'
p27
F0.0125232871041
sS'nononono'
p28
F0.0096772559152899992
sS'Frisson'
p29
F0.019407917867899999
sS'arresteddevelopment'
p30
F0.0074620812717999998
sS'shutupandtakemymoney'
p31
F0.0091752369429299995
sS'whitepeoplegifs'
p32
F0.0102059580728
sS'howto'
p33
F0.0075915451027100001
sS'AbandonedPorn'
p34
F0.00810180903407
sS'PandR'
p35
F0.0070375084225499998
sS'NoStupidQuestions'
p36
F0.014377724285999999
sS'3amjokes'
p37
F0.019589106545600001
sS'toosoon'
p38
F0.0101260985862
sS'PrettyGirlsUglyFaces'
p39
F0.0082769758756400004
sS'photoshopbattles'
p40
F0.0072098644053900001
sS'IWantToLearn'
p41
F0.011743951612900001
sS'firstimpression'
p42
F0.0093780057710800002
sS'grammar'
p43
F0.0075945871306299997
sS'creepyPMs'
p44
F0.0083120645650799994
sS'IdiotsFightingThings'
p45
F0.0086588541666699995
sS'holdmybeer'
p46
F0.0070529605540999999
sS'freebies'
p47
F0.0071369636963700004
sS'PropagandaPosters'
p48
F0.010183727034100001
sS'vexillology'
p49
F0.0090923592279500004
sS'shittyadviceanimals'
p50
F0.0095078299776300002
sS'dadjokes'
p51
F0.012135737654999999
sS'SubredditDrama'
p52
F0.0078381046396800002
sS'Cyberpunk'
p53
F0.0085956263430699998
sS'minimalism'
p54
F0.010739436619699999
sS'DeepIntoYouTube'
p55
F0.0101739027564
sS'ArcherFX'
p56
F0.0074844074844100002
sS'getdisciplined'
p57
F0.0075084470028799997
sS'whatisthisthing'
p58
F0.0080548009920899995
sS'DoctorWhumour'
p59
F0.0072653298459799997
sS'polandball'
p60
F0.0076290887659200002
sS'tumblr'
p61
F0.010764926257899999
sS'interestingasfuck'
p62
F0.0093433822011199999
sS'MarkMyWords'
p63
F0.016622817507800002
sS'changemyview'
p64
F0.0094343450738499993
sS'CrappyDesign'
p65
F0.0109883885585
sS'Cinemagraphs'
p66
F0.011252446184
sS'firstworldanarchists'
p67
F0.011812102609099999
sS'offbeat'
p68
F0.0080789663952700007
sS'no_sob_story'
p69
F0.0113350125945
sS'humor'
p70
F0.0084171763003899995
sS'psychology'
p71
F0.0084577872599800007
sS'Glitch_in_the_Matrix'
p72
F0.0099796467730299994
sS'skeptic'
p73
F0.0077676803574099999
sS'shittyfoodporn'
p74
F0.0073381584238000003
sS'wikipedia'
p75
F0.0080027835768999994
sS'ExpectationVsReality'
p76
F0.0116052652076
sS'socialskills'
p77
F0.0093584277841299995
sS'firstworldproblems'
p78
F0.0110476190476
sS'outside'
p79
F0.0150311683089
sS'RoomPorn'
p80
F0.007647300349
sS'lifehacks'
p81
F0.0078043457633600001
sS'SCP'
p82
F0.010447568683099999
sS'blackpeoplegifs'
p83
F0.0085726532361800004
sS'glitch_art'
p84
F0.0098919840818599992
sS'PixelArt'
p85
F0.0072920528982800001
sS'casualiama'
p86
F0.0095276633313699996
sS'FloridaMan'
p87
F0.0092323257872799994
sS'delusionalartists'
p88
F0.0128539493294
sS'answers'
p89
F0.012253024965500001
sS'NotTimAndEric'
p90
F0.0079948316240000001
sS'shittyaskscience'
p91
F0.011172270968400001
sS'ainbow'
p92
F0.0084815321477400007
sS'lewronggeneration'
p93
F0.0100550525502
sS'worldbuilding'
p94
F0.0124681212808
sS'youtubehaiku'
p95
F0.0087231743090900003
sS'ThriftStoreHauls'
p96
F0.0084577872599800007
sS'RedditDayOf'
p97
F0.01029644716
sS'itookapicture'
p98
F0.0075512405609499999
sS'wheredidthesodago'
p99
F0.011067760172
sS'AnimalsBeingBros'
p100
F0.0088447034624599997
sS'classic4chan'
p101
F0.0107859688614
sS'whatstheword'
p102
F0.014780600461900001
sS'ANormalDayInRussia'
p103
F0.0093226511289100002
sS'QuotesPorn'
p104
F0.014550142738700001
sS'TrueReddit'
p105
F0.0073030265898799997
sS'confession'
p106
F0.0083595265164199996
sS'misc'
p107
F0.0102145045965
sS'AntiJokes'
p108
F0.018560240317600001
sS'community'
p109
F0.0072191049678399996
sS'findareddit'
p110
F0.011858664085199999
sS'rant'
p111
F0.0079455164585699994
sS'conspiratard'
p112
F0.0088474414155899992
sS'introvert'
p113
F0.0080630870104599992
sS'ContagiousLaughter'
p114
F0.0080779428994300004
sS'GamePhysics'
p115
F0.010634740151200001
sS'Damnthatsinteresting'
p116
F0.0121650132424
sS'FiftyFifty'
p117
F0.0081081816450399996
sS'CrazyIdeas'
p118
F0.0182883176049
sS'OutOfTheLoop'
p119
F0.011868751010200001
sS'Whatcouldgowrong'
p120
F0.0083215756284399992
sS'onetruegod'
p121
F0.0070887072954599999
sS'TheFacebookDelusion'
p122
F0.0081084505257800008
sS'MorbidReality'
p123
F0.0075173046865300002
sS'gif'
p124
F0.0074808184143200004
sS'PenmanshipPorn'
p125
F0.010564000234799999
sS'ifyoulikeblank'
p126
F0.0099678253737900003
sS'misleadingthumbnails'
p127
F0.018494753529099999
sS'shittyadvice'
p128
F0.011130692885600001
sS'MeanJokes'
p129
F0.0090141487905100008
sS'Portal'
p130
F0.0087791495198900008
sS'fifthworldproblems'
p131
F0.017711005252199999
sS'confessions'
p132
F0.0075986260018699996
sS'Pareidolia'
p133
F0.015844693455099999
sS'happy'
p134
F0.0100193923723
sS'TrollYChromosome'
p135
F0.0076181114455999999
sS'explainlikeIAmA'
p136
F0.021109560362900001
sS'alternativeart'
p137
F0.010927604619400001
sS'Unexpected'
p138
F0.0111300511381
sS'shortscarystories'
p139
F0.0134240200465
sS'WebGames'
p140
F0.0095409540954100001
sS'mildlyinfuriating'
p141
F0.0098823456175300001
sS'somethingimade'
p142
F0.0073509243513100002
sS'WritingPrompts'
p143
F0.0097964248099099999
sS'Awwducational'
p144
F0.012121212121200001
sS'shittyaskreddit'
p145
F0.0121257114576
sS'blunderyears'
p146
F0.0096144555029500003
sS'webcomics'
p147
F0.010081985375600001
sS'calvinandhobbes'
p148
F0.011294608959799999
sS'rage'
p149
F0.0079606310609400006
sS'comics'
p150
F0.00955992309336
sS'Perfectfit'
p151
F0.012645088232500001
sS'PerfectTiming'
p152
F0.010767766815199999
sS'behindthegifs'
p153
F0.013366572959200001
sS'standupshots'
p154
F0.0117772175831
sS'conlangs'
p155
F0.0071174377224199996
sS'ICanDrawThat'
p156
F0.0082942661377599994
sS'fullmoviesonyoutube'
p157
F0.0084728355756400007
sS'gallifrey'
p158
F0.0073235234284899997
sS'AskScienceFiction'
p159
F0.0113264829519
sS'NewsOfTheStupid'
p160
F0.0094709782167499996
sS'Anticonsumption'
p161
F0.00721604849185
sS'awesome'
p162
F0.0108315468803
sS'DecidingToBeBetter'
p163
F0.0072382177899299998
sS'TrueAskReddit'
p164
F0.0095097556976599992
sS'FanTheories'
p165
F0.013276249783799999
sS'tipofmytongue'
p166
F0.0080959995390200001
sS'Infographics'
p167
F0.0084995096436699998
sS'YouShouldKnow'
p168
F0.0094326688420299995
sS'counting'
p169
F0.0089335566722499992
sS'DAE'
p170
F0.0072508295440599996
sS'HighQualityGifs'
p171
F0.0096247169200899992
sS'softwaregore'
p172
F0.0093974036039499997
sS'self'
p173
F0.0093224671458199994
sS'shittyama'
p174
F0.011015237745499999
sS'circlebroke'
p175
F0.0082222606889400009
sS'ImaginaryLandscapes'
p176
F0.0109877532334
sS'TheWayWeWere'
p177
F0.0076300578034699997
sS'badtattoos'
p178
F0.0075795435615500003
sS'spaceporn'
p179
F0.0074878322725600004
sS'howtonotgiveafuck'
p180
F0.0095232318330700002
sS'nonononoyes'
p181
F0.0106409749434
sS'Frugal_Jerk'
p182
F0.0089414858645600007
sS'FutureWhatIf'
p183
F0.0077540106951899997
sS'wallpapers'
p184
F0.0075116133495899996
sS'firefly'
p185
F0.00987031700288
sS'notinteresting'
p186
F0.0141153470186
sS'facepalm'
p187
F0.0072748363576099996
sS'forwardsfromgrandma'
p188
F0.012749827704999999
sS'AnimalsBeingJerks'
p189
F0.0081814376498300003
sS'highdeas'
p190
F0.0088847632939899994
sS'Images'
p191
F0.0073237078886799999
sS'shittyreactiongifs'
p192
F0.013058963197500001
sS'oddlysatisfying'
p193
F0.0099952577244399998
sS'HumanPorn'
p194
F0.011768876285
sS'terriblefacebookmemes'
p195
F0.0107278925206
sS'TumblrInAction'
p196
F0.0073810861300899998
sS'thatHappened'
p197
F0.0092669521314000004
sS'HailCorporate'
p198
F0.0087253414263999997
sS'urbanexploration'
p199
F0.0072979547707000001
sS'GifSound'
p200
F0.0079371136381000008
s.