(dp1
S'ICanDrawThat'
p2
F0.015868491068
sS'IDAP'
p3
F0.031120012324799998
sS'alternativeart'
p4
F0.0089709762532999993
sS'PixelArt'
p5
F0.0082960231761899997
sS'GirlGamers'
p6
F0.0072122684482200002
sS'delusionalartists'
p7
F0.0073234413806299997
sS'redditgetsdrawn'
p8
F0.025811941568599998
sS'ArtistLounge'
p9
F0.047014574518099997
sS'graphic_design'
p10
F0.0072866065232499999
sS'animation'
p11
F0.0105211646685
sS'ImaginaryLandscapes'
p12
F0.0076114534251500001
sS'malefashion'
p13
F0.0091374775024199995
sS'ImaginaryMonsters'
p14
F0.0097826086956499993
sS'learnart'
p15
F0.044689119170999998
sS'femalefashionadvice'
p16
F0.0091036731736000003
sS'painting'
p17
F0.0107369448511
sS'drawing'
p18
F0.030452558860799998
sS'AnimeSketch'
p19
F0.0109335576114
s.