(dp1
S'MapPorn'
p2
F0.011621500416399999
sS'ABraThatFits'
p3
F0.036092896174899997
sS'TheGirlSurvivalGuide'
p4
F0.066872134883800005
sS'uglyduckling'
p5
F0.0107421875
sS'Aquariums'
p6
F0.0092380886394600008
sS'BuyItForLife'
p7
F0.018468485854299999
sS'everymanshouldknow'
p8
F0.0123777053068
sS'relationships'
p9
F0.029772004619800001
sS'Showerthoughts'
p10
F0.0136627399997
sS'HistoryPorn'
p11
F0.0141792502861
sS'holdmybeer'
p12
F0.0075571212091399996
sS'PerfectTiming'
p13
F0.0103513507769
sS'YouShouldKnow'
p14
F0.021004057602000002
sS'horror'
p15
F0.0073315719947200002
sS'UpliftingNews'
p16
F0.015031510153300001
sS'vegan'
p17
F0.013835730417199999
sS'Jokes'
p18
F0.0085816218301000002
sS'photoshopbattles'
p19
F0.0100996983077
sS'IWantToLearn'
p20
F0.014004703869999999
sS'Celebs'
p21
F0.010569413632000001
sS'CrappyDesign'
p22
F0.014922009561700001
sS'techsupport'
p23
F0.0090958356798999992
sS'Libertarian'
p24
F0.0071017167141999996
sS'Seattle'
p25
F0.010005096936199999
sS'Paleo'
p26
F0.0188176559537
sS'EatCheapAndHealthy'
p27
F0.036015388393200003
sS'gentlemanboners'
p28
F0.013187855787499999
sS'redditgetsdrawn'
p29
F0.016816504889100001
sS'AmISexy'
p30
F0.0081082986674199994
sS'fatpeoplestories'
p31
F0.0230700659654
sS'LongDistance'
p32
F0.011866910347199999
sS'depression'
p33
F0.017395027698200002
sS'forwardsfromgrandma'
p34
F0.0099907949978699992
sS'frugalmalefashion'
p35
F0.015303119481999999
sS'findareddit'
p36
F0.0085446317971499992
sS'skeptic'
p37
F0.0082665812239700008
sS'InteriorDesign'
p38
F0.0160010339925
sS'socialskills'
p39
F0.016519584402
sS'worldnews'
p40
F0.0117476520429
sS'disney'
p41
F0.012853776391899999
sS'tattoos'
p42
F0.021958051513299999
sS'LetsNotMeet'
p43
F0.0139247742083
sS'legaladvice'
p44
F0.0133418438833
sS'answers'
p45
F0.0071245935009799999
sS'lgbt'
p46
F0.011032764641800001
sS'doctorwho'
p47
F0.013235229454599999
sS'WritingPrompts'
p48
F0.0099813239261299994
sS'ThriftStoreHauls'
p49
F0.0134335439087
sS'braswap'
p50
F0.0096386288972900008
sS'vegetarian'
p51
F0.0137144963016
sS'personalfinance'
p52
F0.0202869866403
sS'creepy'
p53
F0.0143027045395
sS'pics'
p54
F0.0128759799802
sS'Hair'
p55
F0.027811197224500001
sS'IWantOut'
p56
F0.0088992018767400007
sS'whatsthisbug'
p57
F0.011096239367899999
sS'QuotesPorn'
p58
F0.0113864427606
sS'apple'
p59
F0.010456349887299999
sS'TrueReddit'
p60
F0.015035364244299999
sS'todayilearned'
p61
F0.013976837322699999
sS'Assistance'
p62
F0.0093920640698900004
sS'confession'
p63
F0.017840707964600001
sS'Health'
p64
F0.011471825853900001
sS'ContagiousLaughter'
p65
F0.0082133628645299998
sS'graphic_design'
p66
F0.0071566133289000002
sS'HIMYM'
p67
F0.0103228926419
sS'FiftyFifty'
p68
F0.0097362892352099994
sS'AskHistorians'
p69
F0.0100177811647
sS'Drugs'
p70
F0.0093961299365399997
sS'OutOfTheLoop'
p71
F0.0166264337442
sS'AustralianMakeup'
p72
F0.012180381218000001
sS'sports'
p73
F0.0075223113214399999
sS'ifyoulikeblank'
p74
F0.0078094131318999999
sS'firstimpression'
p75
F0.0095534157252300002
sS'Dentistry'
p76
F0.0072681704260699996
sS'Pareidolia'
p77
F0.0092956652589699998
sS'tipofmytongue'
p78
F0.017000334364299999
sS'namenerds'
p79
F0.0074812221324499998
sS'ladybonersgw'
p80
F0.0101056399511
sS'LifeProTips'
p81
F0.024724380146100001
sS'asoiaf'
p82
F0.0115978010286
sS'AskMen'
p83
F0.0282307761007
sS'ghettoglamourshots'
p84
F0.0085812200137100007
sS'EDC'
p85
F0.0077044121554000001
sS'beermoney'
p86
F0.0094868189022100004
sS'science'
p87
F0.0175158756433
sS'firstworldproblems'
p88
F0.0123353892315
sS'Entrepreneur'
p89
F0.00954874480209
sS'standupshots'
p90
F0.0128518504373
sS'Meditation'
p91
F0.010794965451500001
sS'history'
p92
F0.0079782771192799997
sS'nursing'
p93
F0.0100716381612
sS'DecidingToBeBetter'
p94
F0.0114394419784
sS'Glitch_in_the_Matrix'
p95
F0.0088288756167199996
sS'gadgets'
p96
F0.0081148347514000008
sS'Fitness'
p97
F0.0225750960816
sS'learnprogramming'
p98
F0.0074947763679900003
sS'CampingandHiking'
p99
F0.0073131955484899997
sS'HouseOfCards'
p100
F0.0073486663100899999
sS'hardbodies'
p101
F0.0078382311639899997
sS'MURICA'
p102
F0.0101980383943
sS'technology'
p103
F0.0114863432532
sS'needadvice'
p104
F0.0088081800363699995
sS'RealGirls'
p105
F0.0073021311189800002
sS'RedditLaqueristas'
p106
F0.059706976530600003
sS'nyc'
p107
F0.011634066429899999
sS'wheredidthesodago'
p108
F0.013079301668999999
sS'gaming'
p109
F0.0083487269268399996
sS'asmr'
p110
F0.010509045760900001
sS'askscience'
p111
F0.0112385946119
sS'budgetfood'
p112
F0.0128931592346
sS'Mommit'
p113
F0.0118701007839
sS'PandR'
p114
F0.0082781456953599994
sS'GradSchool'
p115
F0.00719982277359
sS'dogpictures'
p116
F0.0132234716622
sS'short'
p117
F0.0078687981446199998
sS'dating_advice'
p118
F0.0096394144948199999
sS'listentothis'
p119
F0.0083591674047800001
sS'crafts'
p120
F0.0167745092708
sS'tall'
p121
F0.0132081267278
sS'ImGoingToHellForThis'
p122
F0.0121356727071
sS'travel'
p123
F0.017842389807700001
sS'DoesAnybodyElse'
p124
F0.017490599765799999
sS'pettyrevenge'
p125
F0.020459849129
sS'malehairadvice'
p126
F0.017708783829900002
sS'electronic_cigarette'
p127
F0.0080303693969900006
sS'actuallesbians'
p128
F0.011848229817999999
sS'nsfw'
p129
F0.0075118915436399999
sS'dataisbeautiful'
p130
F0.013102282333100001
sS'BabyBumps'
p131
F0.0170814800795
sS'gaybros'
p132
F0.00777794723197
sS'nostalgia'
p133
F0.0153631544685
sS'Documentaries'
p134
F0.0106387298494
sS'writing'
p135
F0.0112553659303
sS'WTF'
p136
F0.0150607628347
sS'MensRights'
p137
F0.0103090997297
sS'Frisson'
p138
F0.0083124518118700003
sS'childfree'
p139
F0.029699186547999998
sS'food'
p140
F0.020627596999600002
sS'BDSMcommunity'
p141
F0.0071471581537799998
sS'NoStupidQuestions'
p142
F0.016973887663099999
sS'makeupexchange'
p143
F0.0451230496557
sS'creepyPMs'
p144
F0.027024574394700001
sS'freebies'
p145
F0.019457628453799999
sS'AdviceAnimals'
p146
F0.01436700606
sS'SubredditDrama'
p147
F0.019797858917500001
sS'minimalism'
p148
F0.018150913616199998
sS'wallpapers'
p149
F0.0083897582287500005
sS'FancyFollicles'
p150
F0.080869468781199993
sS'mildlyinteresting'
p151
F0.016907686378300001
sS'ADHD'
p152
F0.013621407698900001
sS'Rateme'
p153
F0.0150751340817
sS'books'
p154
F0.018951546221299999
sS'malegrooming'
p155
F0.0146050256837
sS'TwoXChromosomes'
p156
F0.042321579934500003
sS'Feminism'
p157
F0.01246774482
sS'canada'
p158
F0.012689103266800001
sS'DunderMifflin'
p159
F0.00728361304922
sS'psychology'
p160
F0.0112871879205
sS'space'
p161
F0.0080039597266800006
sS'shittyfoodporn'
p162
F0.017761863400300001
sS'malefashionadvice'
p163
F0.023353043062800002
sS'LearnUselessTalents'
p164
F0.0094994351064099994
sS'RoomPorn'
p165
F0.0160017299167
sS'medicine'
p166
F0.0093980811228600008
sS'bestof'
p167
F0.017668647893699999
sS'cars'
p168
F0.0070818768922899997
sS'LadyBoners'
p169
F0.038343558282199999
sS'youtubehaiku'
p170
F0.0074021057389900002
sS'recipes'
p171
F0.019019718309899999
sS'headphones'
p172
F0.0070948395821499996
sS'howtonotgiveafuck'
p173
F0.013546202225399999
sS'neopets'
p174
F0.0074275463871300001
sS'MakeupAddicts'
p175
F0.058287528291300003
sS'weddingplanning'
p176
F0.025073856160500001
sS'pokemon'
p177
F0.00819509324309
sS'TheLastAirbender'
p178
F0.0095501670562299999
sS'CrossStitch'
p179
F0.0072223363964700003
sS'OldSchoolCool'
p180
F0.016742377314299998
sS'seduction'
p181
F0.0128970752239
sS'PenmanshipPorn'
p182
F0.019278265642200001
sS'thesims'
p183
F0.0165565266823
sS'Indiemakeupandmore'
p184
F0.038163387000599999
sS'tea'
p185
F0.017475827231699999
sS'explainlikeimfive'
p186
F0.0149181428196
sS'dogs'
p187
F0.022635135135100001
sS'nutrition'
p188
F0.015313855642099999
sS'TrollYChromosome'
p189
F0.020668579560000001
sS'mildlyinfuriating'
p190
F0.020850164344399999
sS'breakingmom'
p191
F0.0104545717091
sS'madmen'
p192
F0.00740721689257
sS'Awwducational'
p193
F0.016926986947000001
sS'skyrim'
p194
F0.0083423344747499996
sS'sex'
p195
F0.027518340067400001
sS'toronto'
p196
F0.0085805344447199994
sS'television'
p197
F0.0133769073594
sS'thatHappened'
p198
F0.017205706196199998
sS'TheRedPill'
p199
F0.0089583031707000001
sS'nononono'
p200
F0.0072432893055000003
sS'Supernatural'
p201
F0.0073807244697500001
sS'FoodPorn'
p202
F0.021335615427699999
sS'boston'
p203
F0.0085340704664100004
sS'teenagers'
p204
F0.0138683834741
sS'conspiracy'
p205
F0.010072830514799999
sS'Nootropics'
p206
F0.00754572195933
sS'self'
p207
F0.0176414574249
sS'IAmA'
p208
F0.012782437893200001
sS'Parenting'
p209
F0.020274468727299998
sS'britishproblems'
p210
F0.010797026748399999
sS'UnresolvedMysteries'
p211
F0.0089841595082400007
sS'nonononoyes'
p212
F0.010788548102000001
sS'getdisciplined'
p213
F0.016111305974500001
sS'RandomKindness'
p214
F0.0085087673925399992
sS'Futurology'
p215
F0.0096004306735299992
sS'sewing'
p216
F0.020783961210499999
sS'progresspics'
p217
F0.034389675111000002
sS'crochet'
p218
F0.017820906394699999
sS'beyondthebump'
p219
F0.0105026462281
sS'chicago'
p220
F0.0088830052569000006
sS'TumblrInAction'
p221
F0.018813088213800001
sS'secretsanta'
p222
F0.018009004502299999
sS'breastfeeding'
p223
F0.0086976359540299995
sS'adventuretime'
p224
F0.0107078573265
sS'fffffffuuuuuuuuuuuu'
p225
F0.011306024696
sS'bodybuilding'
p226
F0.0123758285746
sS'Foodforthought'
p227
F0.0092426671696699998
sS'RandomActsofMakeup'
p228
F0.041479433114399999
sS'languagelearning'
p229
F0.0078260869565199998
sS'TheBluePill'
p230
F0.012728966159599999
sS'harrypotter'
p231
F0.023495576709600001
sS'wicked_edge'
p232
F0.0156149065556
sS'booksuggestions'
p233
F0.012272169446799999
sS'Anxiety'
p234
F0.0222203831671
sS'TalesFromYourServer'
p235
F0.0128704953266
sS'shutupandtakemymoney'
p236
F0.0102151798853
sS'photography'
p237
F0.0109900373599
sS'JusticePorn'
p238
F0.013335530177399999
sS'trees'
p239
F0.0108663577564
sS'geek'
p240
F0.0090041321568400008
sS'xxketo'
p241
F0.0216849656381
sS'wedding'
p242
F0.0144136153228
sS'beards'
p243
F0.013493838997200001
sS'PrettyGirlsUglyFaces'
p244
F0.0111839254766
sS'AbandonedPorn'
p245
F0.0115790058729
sS'Rabbits'
p246
F0.0092776125977300002
sS'futurama'
p247
F0.0071066211842900004
sS'corgi'
p248
F0.00894673691898
sS'cringe'
p249
F0.0154226449567
sS'StarWars'
p250
F0.0082732654628300002
sS'AskWomen'
p251
F0.0537389385052
sS'Christianity'
p252
F0.0087268399914099994
sS'Justrolledintotheshop'
p253
F0.0076625275095999999
sS'college'
p254
F0.0093194297516499998
sS'changemyview'
p255
F0.015889537411599999
sS'entwives'
p256
F0.0083385449239100004
sS'Android'
p257
F0.010510738407800001
sS'firstworldanarchists'
p258
F0.012364930850899999
sS'rawdenim'
p259
F0.00746383109248
sS'cosplay'
p260
F0.0114831948254
sS'AmericanHorrorStory'
p261
F0.0134638022366
sS'breakingbad'
p262
F0.0112020033389
sS'AskCulinary'
p263
F0.015537413067200001
sS'foodhacks'
p264
F0.0125518645129
sS'pcmasterrace'
p265
F0.0072307065035100001
sS'europe'
p266
F0.0071126361728400004
sS'jobs'
p267
F0.015627169063000001
sS'casualiama'
p268
F0.0181498539098
sS'facepalm'
p269
F0.020387843704799999
sS'bigboobproblems'
p270
F0.019611236084700001
sS'AnimalCrossing'
p271
F0.0095341679587200006
sS'news'
p272
F0.013419249416099999
sS'Unexpected'
p273
F0.0146792169544
sS'fitmeals'
p274
F0.018058631234800001
sS'relationship_advice'
p275
F0.020346345087699998
sS'nosleep'
p276
F0.011733850156399999
sS'itookapicture'
p277
F0.012629432067799999
sS'Sherlock'
p278
F0.0098787710531199995
sS'GetMotivated'
p279
F0.018165613515100001
sS'drunk'
p280
F0.0114294007728
sS'xxfitness'
p281
F0.054162697214000001
sS'reactiongifs'
p282
F0.0187654813304
sS'community'
p283
F0.0082913145373200003
sS'Music'
p284
F0.011369597649800001
sS'EarthPorn'
p285
F0.012709553505799999
sS'femalefashionadvice'
p286
F0.089082020641000001
sS'BeautyBoxes'
p287
F0.0308930967646
sS'ainbow'
p288
F0.0071848122508900002
sS'ketorecipes'
p289
F0.0189218587944
sS'HomeImprovement'
p290
F0.0071603679701000003
sS'fatlogic'
p291
F0.024822053819499999
sS'MakeupAddiction'
p292
F0.14702174223299999
sS'movies'
p293
F0.012408745608
sS'somethingimade'
p294
F0.015708318521199999
sS'keto'
p295
F0.026609729281899999
sS'curlyhair'
p296
F0.037517551249599997
sS'glutenfree'
p297
F0.0081565121476900003
sS'offbeat'
p298
F0.013318781016
sS'C25K'
p299
F0.012459862227999999
sS'Cooking'
p300
F0.027493187596100001
sS'piercing'
p301
F0.015365571432399999
sS'LosAngeles'
p302
F0.0110717720975
sS'DIY'
p303
F0.018314491920500001
sS'ShitRedditSays'
p304
F0.0071793276831799997
sS'shorthairedhotties'
p305
F0.0086461639487800009
sS'southpark'
p306
F0.0072362408847600002
sS'funny'
p307
F0.0114107728478
sS'pitbulls'
p308
F0.0084017772990400003
sS'transpassing'
p309
F0.0077659484340999998
sS'Design'
p310
F0.0076732904188800003
sS'Whatcouldgowrong'
p311
F0.010875378855400001
sS'talesfromtechsupport'
p312
F0.0092772384034499993
sS'knitting'
p313
F0.017858549780699999
sS'notinteresting'
p314
F0.0106972156892
sS'AnimalsBeingJerks'
p315
F0.017229002153600001
sS'birthcontrol'
p316
F0.016427470050999999
sS'running'
p317
F0.017971884275399998
sS'Teachers'
p318
F0.0073229848899000003
sS'catpictures'
p319
F0.01023160119
sS'HumanPorn'
p320
F0.013612896941400001
sS'Fantasy'
p321
F0.0073852018026200001
sS'Portland'
p322
F0.0074382562572499998
sS'drawing'
p323
F0.0092456148690400006
sS'kpop'
p324
F0.0081932662416400008
sS'awwwtf'
p325
F0.0088256727213800006
sS'PublicFreakout'
p326
F0.0078557438473999992
sS'rupaulsdragrace'
p327
F0.00761482352313
sS'dadjokes'
p328
F0.010657825728600001
sS'woodworking'
p329
F0.0079806483562499999
sS'Pets'
p330
F0.0170162347484
sS'InternetIsBeautiful'
p331
F0.011606610913699999
sS'TalesFromRetail'
p332
F0.023242318734300001
sS'quityourbullshit'
p333
F0.0144822874988
sS'Advice'
p334
F0.0098096026490100009
sS'woahdude'
p335
F0.015663520147499999
sS'hiphopheads'
p336
F0.0090490028112499999
sS'offmychest'
p337
F0.025849276059799999
sS'australia'
p338
F0.0094391200874799994
sS'RandomActsOfPolish'
p339
F0.0099049493986300002
sS'slowcooking'
p340
F0.020788562897300002
sS'howto'
p341
F0.0082603871285900007
sS'cringepics'
p342
F0.022877537208499998
sS'bodyweightfitness'
p343
F0.0130668366418
sS'thewalkingdead'
p344
F0.0133974453091
sS'gifs'
p345
F0.012665591956499999
sS'Art'
p346
F0.012570205937400001
sS'Paranormal'
p347
F0.0074193855226900004
sS'4chan'
p348
F0.0120250078367
sS'ArcherFX'
p349
F0.0073065068862200001
sS'gardening'
p350
F0.021455242708600001
sS'whatisthisthing'
p351
F0.0166371475857
sS'NetflixBestOf'
p352
F0.0160433941857
sS'tumblr'
p353
F0.0151439299124
sS'interestingasfuck'
p354
F0.017749168747299999
sS'Coffee'
p355
F0.0126155200235
sS'gameofthrones'
p356
F0.016401470632600001
sS'AMA'
p357
F0.0098566911121600008
sS'ExpectationVsReality'
p358
F0.0147917085933
sS'aww'
p359
F0.020258340708099998
sS'lifehacks'
p360
F0.021621147178899999
sS'DeadBedrooms'
p361
F0.0087626262626300001
sS'FloridaMan'
p362
F0.0080059579221699994
sS'delusionalartists'
p363
F0.0120060261908
sS'OkCupid'
p364
F0.016919759323200001
sS'Frugal'
p365
F0.036997817301700001
sS'promos'
p366
F0.0105888320582
sS'shittyaskscience'
p367
F0.0080537962311399997
sS'whatsthisplant'
p368
F0.0072938144329899998
sS'lewronggeneration'
p369
F0.0084047294409699998
sS'netflix'
p370
F0.0073615304930499999
sS'anime'
p371
F0.0071593253245999999
sS'AnimalsBeingBros'
p372
F0.012686872577599999
sS'battlestations'
p373
F0.0074982196964399998
sS'amiugly'
p374
F0.019641458404100001
sS'stopsmoking'
p375
F0.0076735869673199997
sS'TrollXChromosomes'
p376
F0.05721451139
sS'tifu'
p377
F0.015850316384600001
sS'unitedkingdom'
p378
F0.0091059871865800009
sS'Damnthatsinteresting'
p379
F0.0108376380026
sS'loseit'
p380
F0.038266248785399998
sS'CrazyIdeas'
p381
F0.0133222746358
sS'TinyHouses'
p382
F0.0072145375644200004
sS'Bad_Cop_No_Donut'
p383
F0.0076464542651600003
sS'MorbidReality'
p384
F0.021524124455100001
sS'cats'
p385
F0.032645506812599999
sS'introvert'
p386
F0.0100933701946
sS'raisedbynarcissists'
p387
F0.028457619977800001
sS'happy'
p388
F0.0148721605378
sS'misleadingthumbnails'
p389
F0.0082448778079499997
sS'snackexchange'
p390
F0.0093339349162499998
sS'NoFap'
p391
F0.0070937626346199998
sS'Austin'
p392
F0.0070857332283599996
sS'blunderyears'
p393
F0.020365435858400002
sS'Random_Acts_Of_Amazon'
p394
F0.013431476703600001
sS'rage'
p395
F0.0172294563378
sS'comics'
p396
F0.012336088496700001
sS'behindthegifs'
p397
F0.0087505971251099993
sS'fullmoviesonyoutube'
p398
F0.0086719471097100008
sS'iphone'
p399
F0.011249486405699999
sS'videos'
p400
F0.0111386364947
sS'TrueAskReddit'
p401
F0.0077743902439
sS'politics'
p402
F0.012383462119899999
sS'Dogtraining'
p403
F0.0131750552288
sS'ForeverAlone'
p404
F0.0080042304641500008
sS'yoga'
p405
F0.0177447805597
sS'bicycling'
p406
F0.010091658179799999
sS'badtattoos'
p407
F0.0120577746992
sS'popping'
p408
F0.0216837540262
sS'nottheonion'
p409
F0.0144581000913
sS'Baking'
p410
F0.021603687569599999
sS'SuicideWatch'
p411
F0.0090486896907599999
sS'socialanxiety'
p412
F0.0070953072350200003
sS'oddlysatisfying'
p413
F0.0184168410686
sS'GirlGamers'
p414
F0.017371937639199999
sS'entertainment'
p415
F0.0071816992864200003
sS'atheism'
p416
F0.012773545883900001
sS'AsianBeauty'
p417
F0.060806524694199997
sS'gainit'
p418
F0.0120868392915
s.