(dp1
S'pcgaming'
p2
F0.010783100583300001
sS'patientgamers'
p3
F0.0080791522744600008
sS'masseffect'
p4
F0.0080405613028800005
sS'teslore'
p5
F0.027283511269299999
sS'perfectloops'
p6
F0.0072117473281799998
sS'gamingpc'
p7
F0.010047095761399999
sS'assassinscreed'
p8
F0.0089657718474800002
sS'battlefield3'
p9
F0.0083239595050599996
sS'HighQualityGifs'
p10
F0.0075771576418399997
sS'shittybattlestations'
p11
F0.0072693629394699998
sS'ImaginaryLandscapes'
p12
F0.0082001389854099993
sS'CableManagement'
p13
F0.0081255771006500006
sS'outside'
p14
F0.0081247968800800003
sS'Rainmeter'
p15
F0.0112900240607
sS'misleadingthumbnails'
p16
F0.0073566717402300001
sS'ImaginaryMonsters'
p17
F0.0076148366494700002
sS'spaceporn'
p18
F0.0071211283185800001
sS'wallpapers'
p19
F0.0076436661802500002
sS'overclocking'
p20
F0.0077645359335499998
sS'Fallout'
p21
F0.0084833751171200008
sS'skyrimmods'
p22
F0.0685821655054
sS'wallpaper'
p23
F0.0088155984235600005
sS'skyrim'
p24
F0.0243634843788
sS'GamePhysics'
p25
F0.010454783063299999
sS'mountandblade'
p26
F0.0074004463761300002
sS'Morrowind'
p27
F0.018467519844499999
sS'Battlefield'
p28
F0.0071844815199199998
sS'oblivion'
p29
F0.027992104790999998
sS'classic4chan'
p30
F0.0073376410031800003
s.