(dp1
S'buildapc'
p2
F0.0102588253263
sS'pcgaming'
p3
F0.011578229588499999
sS'starbound'
p4
F0.0110540095026
sS'dragonage'
p5
F0.0090521923547799994
sS'Guildwars2'
p6
F0.0139226136041
sS'diablo3'
p7
F0.012284217016
sS'hearthstone'
p8
F0.021692500094700001
sS'skyrim'
p9
F0.0105711981796
sS'starcraft'
p10
F0.0084180410173200007
sS'roosterteeth'
p11
F0.0089859180411900001
sS'RandomActsOfGaming'
p12
F0.0094508891296999995
sS'smashbros'
p13
F0.015336181240299999
sS'ffxiv'
p14
F0.0094774964222099998
sS'TheLastAirbender'
p15
F0.0092845960111599991
sS'GlobalOffensive'
p16
F0.0135914301247
sS'summonerschool'
p17
F0.0128828283127
sS'gameofthrones'
p18
F0.0082907282022899997
sS'truegaming'
p19
F0.0081311182679099994
sS'technology'
p20
F0.0070100354191300002
sS'Planetside'
p21
F0.0093212423133799995
sS'pokemon'
p22
F0.0128783463915
sS'wow'
p23
F0.018480975466399999
sS'DestinyTheGame'
p24
F0.0081360108763399996
sS'Diablo'
p25
F0.013000333341900001
sS'montageparodies'
p26
F0.0097191190552200005
sS'dawngate'
p27
F0.017571085302400001
sS'whowouldwin'
p28
F0.0079218138222000006
sS'leagueoflegends'
p29
F0.0142691647634
sS'4chan'
p30
F0.0088896738490499994
sS'pcmasterrace'
p31
F0.014920803396499999
sS'tf2'
p32
F0.013749696101999999
sS'DarkSouls2'
p33
F0.0150283966798
sS'magicTCG'
p34
F0.00910991095485
sS'DotA2'
p35
F0.0148823353427
sS'gaming'
p36
F0.0115044597387
sS'paydaytheheist'
p37
F0.0096683147506900005
sS'bestof'
p38
F0.0070142860486700001
sS'3DS'
p39
F0.0073777433291700003
sS'reactiongifs'
p40
F0.0073237109752399996
sS'gamegrumps'
p41
F0.0091996635943899993
sS'titanfall'
p42
F0.0124257239564
sS'cringepics'
p43
F0.0073417015341699999
sS'bindingofisaac'
p44
F0.011389210939099999
sS'Cynicalbrit'
p45
F0.015234395880500001
sS'promos'
p46
F0.0091916432220499993
sS'Games'
p47
F0.014274027839500001
sS'DnD'
p48
F0.0075035556064099998
sS'SmiteLFM'
p49
F0.046625870199899999
sS'playrust'
p50
F0.0098159262902199999
sS'elderscrollsonline'
p51
F0.0146412884334
sS'Twitch'
p52
F0.012605722147999999
sS'Minecraft'
p53
F0.0106771405105
sS'Steam'
p54
F0.0149194446866
sS'dayz'
p55
F0.011793516788000001
sS'darksouls'
p56
F0.010748491796300001
sS'Borderlands'
p57
F0.00861479006481
sS'cringe'
p58
F0.0072592159358699998
sS'heroesofthestorm'
p59
F0.0204181225478
sS'strife'
p60
F0.011965854139899999
sS'Warframe'
p61
F0.0155502392344
sS'SteamGameSwap'
p62
F0.00836943849942
sS'TumblrInAction'
p63
F0.0087357007672899997
sS'anime'
p64
F0.0120942883046
sS'techsupport'
p65
F0.0090065223169599994
sS'civ'
p66
F0.0093272503439799995
sS'MMORPG'
p67
F0.0098263354583399999
sS'pathofexile'
p68
F0.0105029251949
sS'GameDeals'
p69
F0.010621323617
sS'battlestations'
p70
F0.0071266472906799999
sS'WildStar'
p71
F0.022227936344700001
s.