(dp1
S'FancyFollicles'
p2
F0.010677450134
sS'awwwtf'
p3
F0.0092669817440499992
sS'RandomActsOfGaming'
p4
F0.0073462587094800004
sS'Awwducational'
p5
F0.010290889132799999
sS'DoesAnybodyElse'
p6
F0.0081591024987299997
sS'pettyrevenge'
p7
F0.0117666948436
sS'ABraThatFits'
p8
F0.0090010589481099995
sS'PublicFreakout'
p9
F0.0071476866608699997
sS'Shitty_Car_Mods'
p10
F0.0070202265934500001
sS'uglyduckling'
p11
F0.0071362085014000003
sS'randomactsofamazon'
p12
F0.0078357624196800004
sS'dadjokes'
p13
F0.0082954044927300002
sS'BuyItForLife'
p14
F0.0091750163154099996
sS'SampleSize'
p15
F0.0070026800380399998
sS'DeepIntoYouTube'
p16
F0.0071849564973300003
sS'everymanshouldknow'
p17
F0.0082020057306599996
sS'Pets'
p18
F0.0077090909090900004
sS'japan'
p19
F0.0072177668106099997
sS'RandomActsofMakeup'
p20
F0.0105560200669
sS'TalesFromRetail'
p21
F0.0108774293341
sS'TheoryOfReddit'
p22
F0.0075040783034299998
sS'quityourbullshit'
p23
F0.010305192231499999
sS'nostalgia'
p24
F0.0127567567568
sS'harrypotter'
p25
F0.0083323553573499999
sS'HistoryPorn'
p26
F0.0073506958076999997
sS'holdmybeer'
p27
F0.0078309813198499997
sS'nononono'
p28
F0.0083410115901299993
sS'Frisson'
p29
F0.0081375508596900001
sS'RandomActsOfPolish'
p30
F0.0090663273421300004
sS'childfree'
p31
F0.00908633696563
sS'EDC'
p32
F0.0073266540142099996
sS'food'
p33
F0.0081007301156599994
sS'UnresolvedMysteries'
p34
F0.0073510773130500001
sS'howto'
p35
F0.0077665827036100003
sS'geek'
p36
F0.0071521456436900001
sS'NoStupidQuestions'
p37
F0.0098626165868399996
sS'wedding'
p38
F0.0071727435744199999
sS'spicy'
p39
F0.0095081582345300005
sS'PrettyGirlsUglyFaces'
p40
F0.0073317865429199996
sS'AbandonedPorn'
p41
F0.0082843207574199995
sS'makeupexchange'
p42
F0.011412116041
sS'creepyPMs'
p43
F0.0086793338024900007
sS'KitchenConfidential'
p44
F0.0086863761048499993
sS'penpals'
p45
F0.0094586605861000008
sS'techsupportgore'
p46
F0.0086556874760599992
sS'freebies'
p47
F0.0146917148362
sS'CrappyDesign'
p48
F0.0090798697356100008
sS'Enhancement'
p49
F0.0071238601823700003
sS'whitepeoplegifs'
p50
F0.0076517599047800002
sS'ArcherFX'
p51
F0.0070622171383099997
sS'gardening'
p52
F0.0075184829372200003
sS'whatisthisthing'
p53
F0.0114053426249
sS'AskWomen'
p54
F0.0077984245341299998
sS'NetflixBestOf'
p55
F0.0081471598489800002
sS'tea'
p56
F0.010714555195099999
sS'redditgetsdrawn'
p57
F0.0082551095133499997
sS'interestingasfuck'
p58
F0.0082661426925899999
sS'fatpeoplestories'
p59
F0.0092771044980899994
sS'popping'
p60
F0.0084172003659700005
sS'firstworldanarchists'
p61
F0.0092149897166100003
sS'PerfectTiming'
p62
F0.0087227414330199992
sS'no_sob_story'
p63
F0.0079320113314399997
sS'Glitch_in_the_Matrix'
p64
F0.0080029778522200008
sS'shittyfoodporn'
p65
F0.013933055765000001
sS'ExpectationVsReality'
p66
F0.0150948926504
sS'firstworldproblems'
p67
F0.0095024898350799993
sS'LearnUselessTalents'
p68
F0.0100443821537
sS'AskCulinary'
p69
F0.011544351513700001
sS'RoomPorn'
p70
F0.0089087955898999992
sS'foodhacks'
p71
F0.015502597509700001
sS'lifehacks'
p72
F0.0088199017942299993
sS'Cooking'
p73
F0.012493210211800001
sS'disney'
p74
F0.0085384229030600004
sS'tattoos'
p75
F0.0072565006151299998
sS'bestof'
p76
F0.0071528280162600003
sS'Indiemakeupandmore'
p77
F0.0076178960096699999
sS'tonightsdinner'
p78
F0.0108583247156
sS'casualiama'
p79
F0.0089217850808899993
sS'FloridaMan'
p80
F0.00820949185043
sS'delusionalartists'
p81
F0.0092249838415899999
sS'Random_Acts_Of_Pizza'
p82
F0.017853970509900001
sS'Frugal'
p83
F0.0098979680823199998
sS'slowcooking'
p84
F0.015085502668600001
sS'LadyBoners'
p85
F0.0098701508838600002
sS'bigboobproblems'
p86
F0.0094489981785100003
sS'TopGear'
p87
F0.0073196986006499997
sS'ThriftStoreHauls'
p88
F0.011622901420600001
sS'RedditDayOf'
p89
F0.0070951156812300003
sS'fitmeals'
p90
F0.0075587673394799998
sS'recipes'
p91
F0.015009482525099999
sS'TalesFromThePizzaGuy'
p92
F0.0086434067671599998
sS'wheredidthesodago'
p93
F0.0096501345636299998
sS'AnimalsBeingBros'
p94
F0.0090025906735800004
sS'MakeupAddicts'
p95
F0.0082635872444100002
sS'OutOfTheLoop'
p96
F0.0091917161634200006
sS'AskUK'
p97
F0.0091291414504099996
sS'weddingplanning'
p98
F0.0083094946192599998
sS'xxfitness'
p99
F0.00709409003627
sS'Assistance'
p100
F0.0131464216245
sS'confession'
p101
F0.0076988045737999998
sS'findareddit'
p102
F0.0091066455934400003
sS'IdiotsFightingThings'
p103
F0.0072660098522199998
sS'RandomKindness'
p104
F0.019064689587699999
sS'TrollXChromosomes'
p105
F0.0083364397302500004
sS'ContagiousLaughter'
p106
F0.0073150749063700003
sS'femalefashionadvice'
p107
F0.0086622573074500008
sS'BeautyBoxes'
p108
F0.0094905094905100001
sS'unitedkingdom'
p109
F0.00704943094955
sS'Damnthatsinteresting'
p110
F0.0084855272226099995
sS'loseit'
p111
F0.0082907902797599992
sS'CrazyIdeas'
p112
F0.00891036300317
sS'ANormalDayInRussia'
p113
F0.0073207443897100001
sS'EatCheapAndHealthy'
p114
F0.012965760322300001
sS'RandomActsOfPizza'
p115
F0.013262322472800001
sS'MorbidReality'
p116
F0.0087559284932499995
sS'cats'
p117
F0.00780254161999
sS'PenmanshipPorn'
p118
F0.0098844027475300002
sS'firstimpression'
p119
F0.0074107343364000003
sS'ketorecipes'
p120
F0.0082608377805400007
sS'raisedbynarcissists'
p121
F0.0070300070300100001
sS'Pareidolia'
p122
F0.010372749782499999
sS'dogs'
p123
F0.0079515640766899993
sS'happy'
p124
F0.0095173351461600008
sS'ArtisanVideos'
p125
F0.0084525750165999995
sS'TrollYChromosome'
p126
F0.0072924566828099996
sS'explainlikeIAmA'
p127
F0.0074531174867800004
sS'misleadingthumbnails'
p128
F0.0093503937007899992
sS'MakeupAddiction'
p129
F0.0079250720461099995
sS'SkincareAddiction'
p130
F0.0093339349162499998
sS'mildlyinfuriating'
p131
F0.0085276073619599997
sS'DumpsterDiving'
p132
F0.0094428706326700005
sS'somethingimade'
p133
F0.0102984447247
sS'Unexpected'
p134
F0.0075687922768800002
sS'LetsNotMeet'
p135
F0.0072766245487400003
sS'TheGirlSurvivalGuide'
p136
F0.010721649484500001
sS'ghettoglamourshots'
p137
F0.0075312989045399998
sS'blunderyears'
p138
F0.0104002228619
sS'Random_Acts_Of_Amazon'
p139
F0.017917385111300001
sS'Breadit'
p140
F0.011269208878800001
sS'showerbeer'
p141
F0.0078052406615900004
sS'rage'
p142
F0.00779791582977
sS'thatHappened'
p143
F0.0076449086161899998
sS'Perfectfit'
p144
F0.0089619768554799993
sS'offbeat'
p145
F0.0087294780691000006
sS'behindthegifs'
p146
F0.0080767289247899998
sS'ICanDrawThat'
p147
F0.0080314565381100003
sS'fullmoviesonyoutube'
p148
F0.0080629301868199998
sS'FoodPorn'
p149
F0.012966386953
sS'sushi'
p150
F0.0081149394705300002
sS'gamecollecting'
p151
F0.0071971480460100001
sS'tipofmytongue'
p152
F0.0088719898605799999
sS'YouShouldKnow'
p153
F0.0090519550080300007
sS'Pizza'
p154
F0.0111969447097
sS'TalesFromYourServer'
p155
F0.011525716755499999
sS'techsupportmacgyver'
p156
F0.0080880513633000001
sS'eatsandwiches'
p157
F0.013971462544599999
sS'travel'
p158
F0.0078114198811000003
sS'answers'
p159
F0.0091723396632
sS'TheWayWeWere'
p160
F0.0075717741087400004
sS'badtattoos'
p161
F0.0097374776037999992
sS'britishproblems'
p162
F0.0081604663123600006
sS'RedditLaqueristas'
p163
F0.0129850054104
sS'nonononoyes'
p164
F0.0081759036982900005
sS'Whatcouldgowrong'
p165
F0.0082893110037099999
sS'talesfromtechsupport'
p166
F0.0075189704084699998
sS'JusticePorn'
p167
F0.0073255455640500004
sS'Baking'
p168
F0.016886930983800001
sS'notinteresting'
p169
F0.0073670362713799996
sS'facepalm'
p170
F0.0082921723201700003
sS'forwardsfromgrandma'
p171
F0.0093299869052800005
sS'AnimalsBeingJerks'
p172
F0.0084408403980799993
sS'sewing'
p173
F0.0077967345441200004
sS'budgetfood'
p174
F0.0130057803468
sS'crochet'
p175
F0.0076555023923399997
sS'oddlysatisfying'
p176
F0.0087351126417000002
sS'beermoney'
p177
F0.00731143486909
sS'GirlGamers'
p178
F0.0076477883422900001
sS'HumanPorn'
p179
F0.0079914757591900004
sS'IWantOut'
p180
F0.0101954120646
sS'secretsanta'
p181
F0.018102461362299999
sS'crafts'
p182
F0.0109319992588
sS'HailCorporate'
p183
F0.0077988082719899999
sS'urbanexploration'
p184
F0.0091320375335099992
sS'self'
p185
F0.0078454332552700002
sS'shutupandtakemymoney'
p186
F0.0123618382781
s.