(dp1
S'FancyFollicles'
p2
F0.0082171879965499996
sS'whatsthisbug'
p3
F0.0150916995652
sS'awwwtf'
p4
F0.0101433091383
sS'gardening'
p5
F0.0080780177465300008
sS'whatisthisthing'
p6
F0.0080168678606999996
sS'Hunting'
p7
F0.0078262871173200004
sS'ferrets'
p8
F0.00747272455537
sS'Aquariums'
p9
F0.020619169291100001
sS'mycology'
p10
F0.0086019163763099999
sS'spiders'
p11
F0.0237612820041
sS'Pets'
p12
F0.0100862447011
sS'RATS'
p13
F0.0142331288344
sS'popping'
p14
F0.0082924817886099993
sS'pitbulls'
p15
F0.0089590837720499999
sS'ReefTank'
p16
F0.0093686941481699992
sS'badtattoos'
p17
F0.0077966630282199998
sS'reptiles'
p18
F0.106163415324
sS'misleadingthumbnails'
p19
F0.0074569117129799998
sS'ImaginaryMonsters'
p20
F0.0074045946459100004
sS'dogs'
p21
F0.0082891917027199998
sS'tattoos'
p22
F0.0080192126970899998
sS'biology'
p23
F0.010004880429500001
sS'BeardedDragons'
p24
F0.0287505734822
sS'AnimalsBeingJerks'
p25
F0.0087499077014000001
sS'PlantedTank'
p26
F0.012767897856799999
sS'parrots'
p27
F0.0113245960046
sS'Awwducational'
p28
F0.010803000068800001
sS'dogpictures'
p29
F0.0089790007241100003
sS'knifeclub'
p30
F0.0070675105485200002
sS'whatsthisplant'
p31
F0.00972747005386
sS'bettafish'
p32
F0.0115547754863
sS'whatsthisbird'
p33
F0.0095503967087899998
sS'piercing'
p34
F0.011551304033899999
sS'knives'
p35
F0.0092635479388600006
sS'Fishing'
p36
F0.010018573760299999
sS'AnimalsBeingBros'
p37
F0.0081727962638599994
sS'lookatmydog'
p38
F0.0074636306135399998
s.