(dp1
S'MakeNewFriendsHere'
p2
F0.0142614939663
sS'penpals'
p3
F0.0101862630966
sS'GoneWildPlus'
p4
F0.0070332480818399998
sS'RandomActsOfBlowJob'
p5
F0.0100543680643
sS'Rateme'
p6
F0.0070418848167500001
sS'GoneMild'
p7
F0.0090851468413299993
sS'Kikpals'
p8
F0.032560496642600002
sS'dirtypenpals'
p9
F0.013985417643799999
sS'r4r'
p10
F0.0143054914629
sS'Needafriend'
p11
F0.0121383311703
sS'DirtySnapchat'
p12
F0.083238022620400004
sS'dirtykikpals'
p13
F0.027614161758200001
sS'gonewildcurvy'
p14
F0.0073096613464000001
s.