(dp1
S'rawdenim'
p2
F0.023163642769100001
sS'frugalmalefashion'
p3
F0.010381189415799999
sS'makinghiphop'
p4
F0.0080846391855500001
sS'Stance'
p5
F0.0079118395026800004
sS'trapmuzik'
p6
F0.0077101002313000001
sS'TeenMFA'
p7
F0.015019379845
sS'streetwear'
p8
F0.066355888994099999
sS'hiphopheads'
p9
F0.011020308671299999
sS'MaleFashionMarket'
p10
F0.030829199149500001
sS'OFWGKTA'
p11
F0.0105851220229
sS'malefashionadvice'
p12
F0.0071595653979800002
sS'Hiphopcirclejerk'
p13
F0.0093338213762799993
sS'Sneakers'
p14
F0.13594793244699999
sS'malefashion'
p15
F0.017050180205200001
sS'supremeclothing'
p16
F0.071241606919299996
sS'HipHopImages'
p17
F0.016664851323399999
sS'nba'
p18
F0.0074071911074800002
sS'NBA2k'
p19
F0.015055731159499999
s.