(dp1
S'RandomActsOfGaming'
p2
F0.017505470459499999
sS'Piracy'
p3
F0.0071257231550699998
sS'PleX'
p4
F0.0083999458068000007
sS'sgsflair'
p5
F0.030190810946499998
sS'GlobalOffensive'
p6
F0.0075395470581500002
sS'AndroidQuestions'
p7
F0.0090090090090099995
sS'shittybattlestations'
p8
F0.0133896606043
sS'Rainmeter'
p9
F0.012643544832399999
sS'buildapcsales'
p10
F0.057660328248100003
sS'skyrimmods'
p11
F0.0088986652002200003
sS'HomeNetworking'
p12
F0.0078104883701000001
sS'Steam'
p13
F0.016312075071699999
sS'overclocking'
p14
F0.022107839000899999
sS'tmobile'
p15
F0.0079022988505700002
sS'techsupportgore'
p16
F0.015758547008500001
sS'freebies'
p17
F0.0072026341061899998
sS'Surface'
p18
F0.0083484962003599998
sS'SteamGameSwap'
p19
F0.034394200448599997
sS'montageparodies'
p20
F0.0080894728269699998
sS'hackintosh'
p21
F0.0116260423348
sS'starcitizen'
p22
F0.0106044538706
sS'google'
p23
F0.0071708205744400004
sS'pcgaming'
p24
F0.027362196036899999
sS'watercooling'
p25
F0.013741584432400001
sS'ShouldIbuythisgame'
p26
F0.0125512071821
sS'torrents'
p27
F0.0078254526162200005
sS'Android'
p28
F0.010833356150000001
sS'htcone'
p29
F0.0071546505228399998
sS'truegaming'
p30
F0.0079606585882699994
sS'GameTrade'
p31
F0.015490809856299999
sS'Nexus5'
p32
F0.0092083610517800004
sS'pcmasterrace'
p33
F0.018830425910899999
sS'techsupport'
p34
F0.0165440918961
sS'battlefield3'
p35
F0.0079354754780800001
sS'titanfall'
p36
F0.0126931024304
sS'tf2trade'
p37
F0.0094667302322399994
sS'GameDealsMeta'
p38
F0.0090664272890499994
sS'emulation'
p39
F0.00907795033386
sS'giftcardexchange'
p40
F0.019014483372399998
sS'dayz'
p41
F0.0076685073058100003
sS'Cynicalbrit'
p42
F0.00744684325701
sS'computers'
p43
F0.0070003500175000004
sS'dogecoin'
p44
F0.0085303149745300007
sS'GameDeals'
p45
F0.024683389735900001
sS'battlestations'
p46
F0.023386400098700001
sS'buildapc'
p47
F0.0270446096654
sS'gamingpc'
p48
F0.0281448538755
sS'jailbreak'
p49
F0.0071681029347499996
sS'patientgamers'
p50
F0.0127494456763
sS'htpc'
p51
F0.0090364062907299994
sS'MechanicalKeyboards'
p52
F0.025210846105
sS'SuggestALaptop'
p53
F0.014165579889399999
sS'battlefield_4'
p54
F0.0113014372908
sS'arma'
p55
F0.0076510220395099998
sS'3DS'
p56
F0.0070182657796699997
sS'indiegameswap'
p57
F0.017196324707099999
sS'xboxone'
p58
F0.0072240699203300002
sS'dogemarket'
p59
F0.014184669793199999
sS'gameswap'
p60
F0.0134896532241
sS'buildapcforme'
p61
F0.032895771105199999
sS'Battlefield'
p62
F0.010768012668300001
sS'trackers'
p63
F0.0073743319125899997
sS'hardwareswap'
p64
F0.082513487781700007
sS'beermoney'
p65
F0.0095983722576100002
sS'Chromecast'
p66
F0.0076962988585300004
sS'softwaregore'
p67
F0.0080000000000000002
sS'headphones'
p68
F0.016874232590799999
sS'gamernews'
p69
F0.0079347683135300006
sS'audiophile'
p70
F0.00828583744432
sS'hardware'
p71
F0.022489915455600001
sS'homelab'
p72
F0.0074046372475699996
sS'techsupportmacgyver'
p73
F0.0116940779188
sS'CableManagement'
p74
F0.0215539274152
sS'GlobalOffensiveTrade'
p75
F0.0126093466782
sS'windows8'
p76
F0.0112619116373
sS'wallpapers'
p77
F0.00719954648526
sS'talesfromtechsupport'
p78
F0.010919479420200001
sS'paydaytheheist'
p79
F0.0078364706857899993
sS'GameSale'
p80
F0.029555871661099999
sS'raspberry_pi'
p81
F0.0077100623680200001
sS'GiftofGames'
p82
F0.014703049759200001
sS'Games'
p83
F0.0097103800349099996
sS'playrust'
p84
F0.0073342501146000001
sS'cordcutters'
p85
F0.0083340108951899996
sS'Starcitizen_trades'
p86
F0.00705674801529
sS'windows'
p87
F0.017551806137500001
s.