(dp1
S'AndroidGaming'
p2
F0.012328024064299999
sS'BuyItForLife'
p3
F0.0086354553240099996
sS'SampleSize'
p4
F0.0096324836988700008
sS'everymanshouldknow'
p5
F0.010735733217
sS'aviation'
p6
F0.0101223888838
sS'RandomActsOfGaming'
p7
F0.0119679909355
sS'unixporn'
p8
F0.025442188725300002
sS'Showerthoughts'
p9
F0.0085180807494900004
sS'HistoryPorn'
p10
F0.0101516454475
sS'archlinux'
p11
F0.016311399443900001
sS'holdmybeer'
p12
F0.020027518728000002
sS'ImaginaryMonsters'
p13
F0.0087887503994899998
sS'dwarffortress'
p14
F0.011956181533600001
sS'YouShouldKnow'
p15
F0.0158307290332
sS'skyrimmods'
p16
F0.0090457311966100004
sS'UpliftingNews'
p17
F0.0081948949023300001
sS'Jokes'
p18
F0.0073398155073500001
sS'Stargate'
p19
F0.0083463266990699992
sS'3amjokes'
p20
F0.016890080429
sS'magicskyfairy'
p21
F0.0095001130965800002
sS'Steam'
p22
F0.018013942844999999
sS'AlienBlue'
p23
F0.0099357742767700007
sS'photoshopbattles'
p24
F0.014649394685999999
sS'IWantToLearn'
p25
F0.0079612931603300005
sS'litecoin'
p26
F0.0072103251856700003
sS'prisonarchitect'
p27
F0.0096400459892100002
sS'techsupportgore'
p28
F0.079862700228800002
sS'CrappyDesign'
p29
F0.051596180081899999
sS'NewsOfTheWeird'
p30
F0.0072761784245499997
sS'math'
p31
F0.010829603580600001
sS'techsupport'
p32
F0.0161092603008
sS'Libertarian'
p33
F0.0070271192222399999
sS'starcitizen'
p34
F0.0074193930305099997
sS'Whatisthis'
p35
F0.0076923076923099999
sS'pcgaming'
p36
F0.0177222145899
sS'fatpeoplestories'
p37
F0.0096744471744500005
sS'OneY'
p38
F0.0075180991275299999
sS'forwardsfromgrandma'
p39
F0.028168306888899999
sS'no_sob_story'
p40
F0.019598649662399999
sS'Design'
p41
F0.0109771264803
sS'findareddit'
p42
F0.015979926043300001
sS'skeptic'
p43
F0.012763868434
sS'socialskills'
p44
F0.0071952212869900002
sS'mindcrack'
p45
F0.0092201603842999996
sS'Nexus5'
p46
F0.0106688861985
sS'Nexus7'
p47
F0.0091722760559199996
sS'AskNetsec'
p48
F0.0088942793612300005
sS'vexillology'
p49
F0.017199501083200001
sS'MotoG'
p50
F0.0072066585464900003
sS'ExposurePorn'
p51
F0.0074891982717199997
sS'needamod'
p52
F0.0099527665317100007
sS'AskElectronics'
p53
F0.010454617455999999
sS'lgbt'
p54
F0.0073105040400200001
sS'doctorwho'
p55
F0.0089313978202899998
sS'Ingress'
p56
F0.00894090281311
sS'TopGear'
p57
F0.0115616154367
sS'WarshipPorn'
p58
F0.0089838639337099999
sS'whatsthisbug'
p59
F0.0089019430637099998
sS'QuotesPorn'
p60
F0.0092498681488100004
sS'firefox'
p61
F0.0196251768034
sS'apple'
p62
F0.0106583469268
sS'TrueReddit'
p63
F0.0094638673220899996
sS'Yogscast'
p64
F0.0080431491294500005
sS'jailbreak'
p65
F0.0076903942622599999
sS'AntiJokes'
p66
F0.0128068303095
sS'vim'
p67
F0.00950760608487
sS'IdiotsFightingThings'
p68
F0.024414771775
sS'gamernews'
p69
F0.011920914906
sS'ContagiousLaughter'
p70
F0.01341289539
sS'FiftyFifty'
p71
F0.011511156186599999
sS'OutOfTheLoop'
p72
F0.0251092902177
sS'ifyoulikeblank'
p73
F0.0070512820512800001
sS'misleadingthumbnails'
p74
F0.030534351144999999
sS'WebGames'
p75
F0.0126044367617
sS'battlefield_4'
p76
F0.0071568787829199999
sS'admincraft'
p77
F0.011368421052600001
sS'Pareidolia'
p78
F0.0239251663968
sS'arma'
p79
F0.0074563962912500004
sS'tipofmytongue'
p80
F0.0098738039106899995
sS'worldbuilding'
p81
F0.010616337363600001
sS'FreeKarma'
p82
F0.0076887590342900004
sS'ftlgame'
p83
F0.0133574976507
sS'LifeProTips'
p84
F0.0088705655484299997
sS'Shitty_Car_Mods'
p85
F0.017821912403
sS'ghettoglamourshots'
p86
F0.0081280788177300004
sS'KillLaKill'
p87
F0.0079919360645099996
sS'EDC'
p88
F0.0088268792710700008
sS'hardwareswap'
p89
F0.0083498132278599993
sS'trackers'
p90
F0.0088411746131999997
sS'science'
p91
F0.0083451594117699996
sS'firstworldproblems'
p92
F0.015779924897699998
sS'Glitch_in_the_Matrix'
p93
F0.012668074230500001
sS'standupshots'
p94
F0.0115945112222
sS'computers'
p95
F0.0118704146402
sS'AskScienceFiction'
p96
F0.0120451693852
sS'NewsOfTheStupid'
p97
F0.0146725750862
sS'audiophile'
p98
F0.0098091480968099994
sS'awesome'
p99
F0.0107048043162
sS'gadgets'
p100
F0.010985992859099999
sS'learnprogramming'
p101
F0.017502239221500002
sS'Infographics'
p102
F0.0129783136565
sS'BasicIncome'
p103
F0.0072142974258099998
sS'counting'
p104
F0.0156597892237
sS'SRSsucks'
p105
F0.010570421864599999
sS'asmr'
p106
F0.0078450131547500006
sS'techsupportmacgyver'
p107
F0.072337830627299995
sS'MURICA'
p108
F0.010679482045100001
sS'technology'
p109
F0.010717988457600001
sS'CableManagement'
p110
F0.0136438243742
sS'scifi'
p111
F0.0078373359352900008
sS'spaceporn'
p112
F0.0144238474277
sS'wheredidthesodago'
p113
F0.0334870443566
sS'polandball'
p114
F0.019252925838299999
sS'awwnime'
p115
F0.010498687664
sS'GiftofGames'
p116
F0.0097330777171500005
sS'askscience'
p117
F0.0093151483501100005
sS'wallpaper'
p118
F0.0129581901489
sS'netsec'
p119
F0.022457932298799999
sS'mac'
p120
F0.0116203301477
sS'nerdcubed'
p121
F0.011433597185600001
sS'nexus4'
p122
F0.0097989031078599999
sS'MachinePorn'
p123
F0.0169760431541
sS'oculus'
p124
F0.011391762391300001
sS'eFreebies'
p125
F0.014479638009
sS'tall'
p126
F0.0076722775039499997
sS'ImGoingToHellForThis'
p127
F0.010749599967199999
sS'DataHoarder'
p128
F0.0138842234912
sS'cableporn'
p129
F0.027934186471700002
sS'help'
p130
F0.0093299406276499998
sS'softwareswap'
p131
F0.0080000000000000002
sS'DoesAnybodyElse'
p132
F0.0094089616104600007
sS'pettyrevenge'
p133
F0.015955414012699998
sS'CityPorn'
p134
F0.0090962915119200006
sS'thatHappened'
p135
F0.018620311961199999
sS'DeepIntoYouTube'
p136
F0.026908603536300001
sS'dataisbeautiful'
p137
F0.0151625062229
sS'csharp'
p138
F0.0137890278735
sS'MLPLounge'
p139
F0.0135769359705
sS'battlefield3'
p140
F0.0096545481973100006
sS'badlinguistics'
p141
F0.0082996859578300004
sS'cyanogenmod'
p142
F0.0117966482539
sS'nostalgia'
p143
F0.011023727902099999
sS'startrek'
p144
F0.0092094247099599996
sS'AndroidQuestions'
p145
F0.015776129214000002
sS'Rainmeter'
p146
F0.0141384778013
sS'gamedesign'
p147
F0.0075608493008800003
sS'MensRights'
p148
F0.0091354191545300004
sS'MilitaryPorn'
p149
F0.0094677479109199995
sS'Frisson'
p150
F0.0136201554919
sS'electronicmusic'
p151
F0.0074527744982300003
sS'childfree'
p152
F0.0078873770543299998
sS'unitedkingdom'
p153
F0.0091104541789799997
sS'gmod'
p154
F0.0122462488967
sS'NoStupidQuestions'
p155
F0.0181627767804
sS'IndieGaming'
p156
F0.013621009044399999
sS'Braveryjerk'
p157
F0.0136425648022
sS'creepyPMs'
p158
F0.0141637685741
sS'WatchItForThePlot'
p159
F0.0081643402686299993
sS'freebies'
p160
F0.011391888381800001
sS'PropagandaPosters'
p161
F0.015809632466799999
sS'shittyadviceanimals'
p162
F0.0115139637433
sS'SubredditDrama'
p163
F0.018849375153599999
sS'minimalism'
p164
F0.014067350387000001
sS'wallpapers'
p165
F0.013124791609800001
sS'aspergers'
p166
F0.0074687303158499996
sS'mildlyinteresting'
p167
F0.0097272602214099994
sS'TrueAtheism'
p168
F0.00842127704936
sS'badhistory'
p169
F0.013223023617599999
sS'DoctorWhumour'
p170
F0.0078358593669500005
sS'Cinemagraphs'
p171
F0.0153324601279
sS'htcone'
p172
F0.0073966875703499997
sS'space'
p173
F0.010397218273100001
sS'shittyfoodporn'
p174
F0.0159622093921
sS'LearnUselessTalents'
p175
F0.016400358593
sS'RoomPorn'
p176
F0.0097942312876300001
sS'electronics'
p177
F0.014157107594000001
sS'Astronomy'
p178
F0.0082539330822100007
sS'CatsStandingUp'
p179
F0.01225
sS'bestof'
p180
F0.012350265580899999
sS'hackintosh'
p181
F0.010677183532099999
sS'emulation'
p182
F0.0135859849839
sS'Roadcam'
p183
F0.0156509904733
sS'GamePhysics'
p184
F0.043779069767400002
sS'software'
p185
F0.014446088243
sS'youtubehaiku'
p186
F0.017129418372000001
sS'PoliticalHumor'
p187
F0.0081594885598900001
sS'headphones'
p188
F0.0095789038728800006
sS'programming'
p189
F0.024689655172399998
sS'Planetside'
p190
F0.00746300481897
sS'dogecoin'
p191
F0.0111019736842
sS'whatstheword'
p192
F0.0084099185018199994
sS'gamingpc'
p193
F0.0139048991354
sS'misc'
p194
F0.0135708227311
sS'patientgamers'
p195
F0.0171076749542
sS'rant'
p196
F0.0093307141854900005
sS'webhosting'
p197
F0.0087119541243899992
sS'tf2'
p198
F0.0139707156472
sS'ECE'
p199
F0.0075757575757600002
sS'lego'
p200
F0.010255454036899999
sS'ANormalDayInRussia'
p201
F0.0263012351748
sS'onetruegod'
p202
F0.0110604068373
sS'TheFacebookDelusion'
p203
F0.0107627515208
sS'PenmanshipPorn'
p204
F0.013693092820000001
sS'shittyreactiongifs'
p205
F0.016629108710899999
sS'alternativeart'
p206
F0.0082614283091599992
sS'shittyadvice'
p207
F0.015441448097499999
sS'MeanJokes'
p208
F0.0093280359302099995
sS'SuggestALaptop'
p209
F0.0070446820040400001
sS'CombatFootage'
p210
F0.0076673382583399997
sS'GTA'
p211
F0.0102533620626
sS'TrollYChromosome'
p212
F0.0092830544920500004
sS'DaystromInstitute'
p213
F0.0084522402980999993
sS'3DS'
p214
F0.00754336232163
sS'LinuxActionShow'
p215
F0.0082635642057199993
sS'mildlyinfuriating'
p216
F0.027471443957300001
sS'Awwducational'
p217
F0.0136537411251
sS'skyrim'
p218
F0.0102070155262
sS'dogemarket'
p219
F0.0088109388637200008
sS'learnpython'
p220
F0.0106535700793
sS'Battlefield'
p221
F0.0078074170461900003
sS'worldpolitics'
p222
F0.0071827939436
sS'typography'
p223
F0.0098163086791700008
sS'nononono'
p224
F0.026877113867000001
sS'hacking'
p225
F0.019955654101999998
sS'KerbalSpaceProgram'
p226
F0.0171073934161
sS'torrents'
p227
F0.0131609506851
sS'gallifrey'
p228
F0.0088929426519199998
sS'FoodPorn'
p229
F0.0072767414616599999
sS'crappymusic'
p230
F0.0113396117624
sS'teenagers'
p231
F0.0094007050528799995
sS'sysadmin'
p232
F0.020771218445599999
sS'conspiracy'
p233
F0.0081613986948799993
sS'homelab'
p234
F0.017649166816000001
sS'pebble'
p235
F0.00990237099024
sS'HighQualityGifs'
p236
F0.017257400769900001
sS'self'
p237
F0.010884655967100001
sS'DaftPunk'
p238
F0.0086526576019799999
sS'spotify'
p239
F0.0074675857541400001
sS'britishproblems'
p240
F0.0117028821974
sS'conspiratard'
p241
F0.025002599022799998
sS'FutureWhatIf'
p242
F0.0089415881038000002
sS'firefly'
p243
F0.0084938389759499997
sS'paydaytheheist'
p244
F0.0090004091095000002
sS'badphilosophy'
p245
F0.0070593193551799997
sS'Futurology'
p246
F0.0111572153066
sS'germany'
p247
F0.0075529757325700003
sS'mylittlepony'
p248
F0.0123617436565
sS'Gaming4Gamers'
p249
F0.013776559287200001
sS'Minecraft'
p250
F0.0154469137891
sS'windows'
p251
F0.029331602855299999
sS'androiddev'
p252
F0.014833968426799999
sS'TumblrInAction'
p253
F0.0165278748967
sS'HailCorporate'
p254
F0.019822955284899999
sS'microsoft'
p255
F0.015437234239199999
sS'Heavymind'
p256
F0.0084339932813999995
sS'talesfromcallcenters'
p257
F0.011168290813500001
sS'adventuretime'
p258
F0.0073272163179099997
sS'PanicHistory'
p259
F0.0082683675879999998
sS'LucidDreaming'
p260
F0.0084478958967400004
sS'fffffffuuuuuuuuuuuu'
p261
F0.0123419777145
sS'PleX'
p262
F0.0073326500039399998
sS'counterstrike'
p263
F0.0084632143455699999
sS'spacex'
p264
F0.0073090293252500004
sS'Foodforthought'
p265
F0.0081000661229899996
sS'blender'
p266
F0.0135011021308
sS'TheoryOfReddit'
p267
F0.0162719218948
sS'TheBluePill'
p268
F0.0088233266698799998
sS'javahelp'
p269
F0.0093447669305200005
sS'shittybattlestations'
p270
F0.040162376921700001
sS'whowouldwin'
p271
F0.0091202284022399993
sS'GrandTheftAutoV'
p272
F0.0078302315024999999
sS'gamedev'
p273
F0.0176334871457
sS'buildapcsales'
p274
F0.010647407021299999
sS'TalesFromYourServer'
p275
F0.0104068117313
sS'shutupandtakemymoney'
p276
F0.0125343254496
sS'JusticePorn'
p277
F0.0108755129959
sS'geek'
p278
F0.022228731367600001
sS'PrettyGirlsUglyFaces'
p279
F0.00706325537592
sS'overclocking'
p280
F0.0085702762653799992
sS'AbandonedPorn'
p281
F0.0145987862441
sS'dadjokes'
p282
F0.018257261410799999
sS'privacy'
p283
F0.016804201050300002
sS'whitepeoplegifs'
p284
F0.014003959234500001
sS'PHP'
p285
F0.0151621180313
sS'cringe'
p286
F0.010817143637100001
sS'truetf2'
p287
F0.0074785338380599998
sS'TheSimpsons'
p288
F0.0093551041621600002
sS'Justrolledintotheshop'
p289
F0.018602915700499999
sS'changemyview'
p290
F0.010354035000099999
sS'Android'
p291
F0.0148709996824
sS'KarmaCourt'
p292
F0.0093615230882499994
sS'firstworldanarchists'
p293
F0.026142610131900001
sS'PerfectTiming'
p294
F0.018039527788800001
sS'truegaming'
p295
F0.0157932936566
sS'wikipedia'
p296
F0.0117077958497
sS'breakingbad'
p297
F0.0085862117186399998
sS'outside'
p298
F0.027890579677799999
sS'foodhacks'
p299
F0.0079689703808199994
sS'pcmasterrace'
p300
F0.0141681276558
sS'spaceengineers'
p301
F0.0095670727510499994
sS'europe'
p302
F0.0109099088966
sS'glitch_art'
p303
F0.031676198856099999
sS'PixelArt'
p304
F0.0118740795287
sS'casualiama'
p305
F0.012292207336700001
sS'cscareerquestions'
p306
F0.010186595582599999
sS'javascript'
p307
F0.0151146407071
sS'NotTimAndEric'
p308
F0.016179298455000001
sS'answers'
p309
F0.0149772497472
sS'gamingsuggestions'
p310
F0.0088251145243900004
sS'Unexpected'
p311
F0.0209024979855
sS'RedditDayOf'
p312
F0.010992785984200001
sS'arduino'
p313
F0.012663237040000001
sS'watchpeopledie'
p314
F0.0105062469577
sS'Sherlock'
p315
F0.0073146345313900001
sS'quityourbullshit'
p316
F0.026534120636799999
sS'GunPorn'
p317
F0.0074662055957200003
sS'buildapc'
p318
F0.0094835855069800006
sS'drunk'
p319
F0.0070268179473999999
sS'reactiongifs'
p320
F0.0096833118977100001
sS'community'
p321
F0.0075530586766499996
sS'incremental_games'
p322
F0.0076622106292799997
sS'linux'
p323
F0.0271420321571
sS'3Dprinting'
p324
F0.0081264108352100007
sS'ainbow'
p325
F0.0101002761227
sS'java'
p326
F0.0163082013708
sS'chrome'
p327
F0.018527413710299999
sS'Portal'
p328
F0.0162447677895
sS'web_design'
p329
F0.0177213373511
sS'fatlogic'
p330
F0.010847493854899999
sS'androidthemes'
p331
F0.0105037184697
sS'androidapps'
p332
F0.0123479374371
sS'somethingimade'
p333
F0.0083689966714199995
sS'MapPorn'
p334
F0.012026916499400001
sS'shittyaskreddit'
p335
F0.013143382352899999
sS'buildapcforme'
p336
F0.0074188304922300002
sS'Chromecast'
p337
F0.00933333333333
sS'Perfectfit'
p338
F0.029503223359900001
sS'offbeat'
p339
F0.0115905073745
sS'ObscureMedia'
p340
F0.0073595226255599999
sS'FanTheories'
p341
F0.0099946182824600001
sS'hardware'
p342
F0.0176288019863
sS'gamecollecting'
p343
F0.0083273852010499992
sS'ShitRedditSays'
p344
F0.0083614390106800003
sS'southpark'
p345
F0.0095831336847099994
sS'astrophotography'
p346
F0.0076582709326099997
sS'Python'
p347
F0.014192580626600001
sS'touhou'
p348
F0.00741626794258
sS'itookapicture'
p349
F0.00986523713796
sS'windows8'
p350
F0.0134582623509
sS'Whatcouldgowrong'
p351
F0.0231043614549
sS'fifthworldproblems'
p352
F0.0193377725075
sS'talesfromtechsupport'
p353
F0.041323633378199998
sS'notinteresting'
p354
F0.0270511402163
sS'AnimalsBeingJerks'
p355
F0.016175961205400002
sS'linux_gaming'
p356
F0.0192800992966
sS'24hoursupport'
p357
F0.012401471361
sS'Physics'
p358
F0.0084252191122399997
sS'thesims'
p359
F0.0078287528741899995
sS'HumanPorn'
p360
F0.0099138439749799998
sS'AskEngineers'
p361
F0.0080910086385199993
sS'retrogaming'
p362
F0.0082754684676100004
sS'GifSound'
p363
F0.011597125929700001
sS'awwwtf'
p364
F0.013227304936599999
sS'Terraria'
p365
F0.0107279693487
sS'HalfLife'
p366
F0.020355530993800001
sS'Piracy'
p367
F0.0134121959347
sS'PublicFreakout'
p368
F0.012370859752599999
sS'ArtisanVideos'
p369
F0.0079313693752000002
sS'Bitcoin'
p370
F0.0094110847248900006
sS'rickandmorty'
p371
F0.0075305006310500003
sS'quotes'
p372
F0.0070537570537599998
sS'futurama'
p373
F0.012213453588900001
sS'perfectloops'
p374
F0.0304356219034
sS'InternetIsBeautiful'
p375
F0.017354433255099999
sS'carporn'
p376
F0.0082397577894500005
sS'TalesFromRetail'
p377
F0.017697207720699999
sS'WouldYouRather'
p378
F0.0096578929470200001
sS'furry'
p379
F0.0099402034635399997
sS'audioengineering'
p380
F0.0071501532175699996
sS'linuxadmin'
p381
F0.0086224807812200002
sS'ProtectAndServe'
p382
F0.0072303984411099999
sS'woahdude'
p383
F0.0126902679248
sS'Fallout'
p384
F0.010367190354400001
sS'howto'
p385
F0.010798469702600001
sS'HomeNetworking'
p386
F0.0086920096345199996
sS'cringepics'
p387
F0.010615499956900001
sS'toosoon'
p388
F0.0152856602346
sS'nonononoyes'
p389
F0.023406506215300001
sS'ConfusedBoners'
p390
F0.0091743119266099998
sS'4chan'
p391
F0.014187298884300001
sS'oblivion'
p392
F0.0070436507936500001
sS'compsci'
p393
F0.018093931674199999
sS'montageparodies'
p394
F0.020184661986999999
sS'ArcherFX'
p395
F0.0094463872110499992
sS'google'
p396
F0.018732664817600001
sS'whatisthisthing'
p397
F0.016934384843899999
sS'MechanicalKeyboards'
p398
F0.0209945106096
sS'circlebroke2'
p399
F0.0073379044869500004
sS'ShouldIbuythisgame'
p400
F0.0099928281137900005
sS'crypto'
p401
F0.0082436455232400008
sS'tumblr'
p402
F0.012065859482999999
sS'interestingasfuck'
p403
F0.0181607482824
sS'MarkMyWords'
p404
F0.0153047525284
sS'Cyberpunk'
p405
F0.016984908314
sS'humor'
p406
F0.010113358524100001
sS'ExpectationVsReality'
p407
F0.0201701250161
sS'facepalm'
p408
F0.016340808894000001
sS'lifehacks'
p409
F0.013799736082799999
sS'SCP'
p410
F0.012037914691899999
sS'Enhancement'
p411
F0.0215996751929
sS'starbound'
p412
F0.010275275910200001
sS'blackpeoplegifs'
p413
F0.0103050003458
sS'ProgrammerHumor'
p414
F0.073846458839299994
sS'CookieClicker'
p415
F0.0111059262716
sS'FloridaMan'
p416
F0.022013262311099999
sS'delusionalartists'
p417
F0.023894798738399999
sS'Cynicalbrit'
p418
F0.014403219543200001
sS'promos'
p419
F0.0122256696365
sS'JonTron'
p420
F0.012914230019499999
sS'shittyaskscience'
p421
F0.0210857230486
sS'lewronggeneration'
p422
F0.023165549926499999
sS'Unity3D'
p423
F0.0080566222423000006
sS'csshelp'
p424
F0.0085761407366700005
sS'calvinandhobbes'
p425
F0.0085176329946199999
sS'netflix'
p426
F0.00794141423748
sS'sixwordstories'
p427
F0.0093974036039499997
sS'AnimalsBeingBros'
p428
F0.013508052877700001
sS'classic4chan'
p429
F0.023906179521899999
sS'Games'
p430
F0.0121644591006
sS'GameDeals'
p431
F0.0122258566143
sS'battlestations'
p432
F0.017903305061200001
sS'androidcirclejerk'
p433
F0.0254652301665
sS'EnoughLibertarianSpam'
p434
F0.0095265869544100008
sS'ShitAmericansSay'
p435
F0.0095460744204200008
sS'applehelp'
p436
F0.0081680907088000007
sS'linuxquestions'
p437
F0.017640863612399998
sS'gamemusic'
p438
F0.0103428142464
sS'marijuanaenthusiasts'
p439
F0.0100184806925
sS'tifu'
p440
F0.0081289471001399997
sS'homestuck'
p441
F0.0078888390856099999
sS'SimCity'
p442
F0.010745409933200001
sS'Damnthatsinteresting'
p443
F0.018859596324399999
sS'CrazyIdeas'
p444
F0.021363813171400001
sS'networking'
p445
F0.012882356279400001
sS'TalesFromThePizzaGuy'
p446
F0.0110323089046
sS'rct'
p447
F0.010136674259699999
sS'Bad_Cop_No_Donut'
p448
F0.010470340904399999
sS'linux4noobs'
p449
F0.017618969208000001
sS'MorbidReality'
p450
F0.0105583850787
sS'gif'
p451
F0.0119144769055
sS'cats'
p452
F0.0073655233985599998
sS'introvert'
p453
F0.0082246171298899998
sS'Ubuntu'
p454
F0.022160856058
sS'happy'
p455
F0.0078166053599600001
sS'cablefail'
p456
F0.041000622794300001
sS'explainlikeIAmA'
p457
F0.0164174933631
sS'tasker'
p458
F0.0074145402022100003
sS'lockpicking'
p459
F0.0090596688534800001
sS'gamegrumps'
p460
F0.0087484731438400003
sS'teslamotors'
p461
F0.0076769025367200002
sS'bindingofisaac'
p462
F0.0070643896432199997
sS'windowsphone'
p463
F0.0091192704583599998
sS'blunderyears'
p464
F0.014876880985
sS'webcomics'
p465
F0.0088570223534400003
sS'rage'
p466
F0.019137226244000001
sS'comics'
p467
F0.013084438241499999
sS'behindthegifs'
p468
F0.023885053181599999
sS'civ'
p469
F0.010631553279699999
sS'fullmoviesonyoutube'
p470
F0.0088852988691399994
sS'iphone'
p471
F0.0082395714562299993
sS'TrueAskReddit'
p472
F0.0097262007860899995
sS'engineering'
p473
F0.00800287743908
sS'webdev'
p474
F0.019393336648400001
sS'DAE'
p475
F0.0078517301195999995
sS'eatsandwiches'
p476
F0.0070097311561900001
sS'shittyama'
p477
F0.017924043194000001
sS'circlebroke'
p478
F0.014845938375400001
sS'zelda'
p479
F0.0087254252264199993
sS'ImaginaryLandscapes'
p480
F0.0096852300242099999
sS'TheWayWeWere'
p481
F0.0079351238228099995
sS'badtattoos'
p482
F0.0079611388476600008
sS'linguistics'
p483
F0.0092953523238399997
sS'nottheonion'
p484
F0.0130085384229
sS'Frugal_Jerk'
p485
F0.017021276595700002
sS'raspberry_pi'
p486
F0.019944598338
sS'cpp'
p487
F0.0081265099934100006
sS'nintendo'
p488
F0.0091897845391300005
sS'cordcutters'
p489
F0.011139330749
sS'oddlysatisfying'
p490
F0.021834904252899998
sS'feedthebeast'
p491
F0.012174273429
sS'youtube'
p492
F0.016248720573199999
sS'terriblefacebookmemes'
p493
F0.023115896136799999
sS'minecraftsuggestions'
p494
F0.013943907463199999
sS'urbanexploration'
p495
F0.015056098443700001
sS'speedrun'
p496
F0.0095551681838700001
s.