(dp1
S'AskScienceFiction'
p2
F0.0133626569416
sS'asoiaf'
p3
F0.022272480789300001
sS'AndroidGaming'
p4
F0.010166231625200001
sS'milf'
p5
F0.0092706868344799992
sS'KitchenConfidential'
p6
F0.0072698158526800002
sS'BuyItForLife'
p7
F0.0117080046377
sS'everymanshouldknow'
p8
F0.020604486318699999
sS'wiiu'
p9
F0.019272663042399999
sS'shittyaskreddit'
p10
F0.0077264325323500001
sS'golf'
p11
F0.0091406249999999994
sS'relationships'
p12
F0.0108231696001
sS'AskMen'
p13
F0.016688232607699999
sS'gonewild'
p14
F0.0119660594463
sS'JoeRogan'
p15
F0.0118797584668
sS'Showerthoughts'
p16
F0.022455801116400002
sS'Eminem'
p17
F0.0103341495031
sS'HistoryPorn'
p18
F0.031771717883800003
sS'picrequests'
p19
F0.0078872294009100005
sS'detroitlions'
p20
F0.0082379223680500002
sS'Redskins'
p21
F0.0078286397738400008
sS'ImaginaryMonsters'
p22
F0.0096550759112899991
sS'seinfeld'
p23
F0.0182263909614
sS'DeepIntoYouTube'
p24
F0.018248894646400001
sS'YouShouldKnow'
p25
F0.028012286413199999
sS'skyrimmods'
p26
F0.0088513791683800004
sS'horror'
p27
F0.015085448094699999
sS'UpliftingNews'
p28
F0.019236619365500002
sS'PandR'
p29
F0.026960474807399999
sS'Jokes'
p30
F0.0223127092634
sS'Scrubs'
p31
F0.0115220429904
sS'Military'
p32
F0.013905145371999999
sS'Steam'
p33
F0.025098637313100001
sS'AlienBlue'
p34
F0.0116842904715
sS'photoshopbattles'
p35
F0.028025999623500001
sS'IWantToLearn'
p36
F0.010843746772700001
sS'Astronomy'
p37
F0.0108016085004
sS'Celebs'
p38
F0.030512278278900001
sS'beermoney'
p39
F0.0076354612636700004
sS'CrappyDesign'
p40
F0.029255918827500001
sS'SteamGameSwap'
p41
F0.0084061279136099995
sS'Patriots'
p42
F0.011765051050300001
sS'techsupport'
p43
F0.0154379553494
sS'Libertarian'
p44
F0.022342873740400001
sS'starcitizen'
p45
F0.0074540454479699999
sS'Anarcho_Capitalism'
p46
F0.0071158921591599998
sS'pcgaming'
p47
F0.0223045822102
sS'EatCheapAndHealthy'
p48
F0.0104251157021
sS'totalwar'
p49
F0.0093069188412700007
sS'gentlemanboners'
p50
F0.032472338378400002
sS'Denver'
p51
F0.0072119773598699997
sS'DCcomics'
p52
F0.017665152242
sS'fatpeoplestories'
p53
F0.020700405278999998
sS'Naruto'
p54
F0.0150042775353
sS'nba'
p55
F0.0229071739781
sS'fantasyfootball'
p56
F0.016500991832599999
sS'forwardsfromgrandma'
p57
F0.0223329898917
sS'LSD'
p58
F0.0083787180561399992
sS'Design'
p59
F0.00770229337949
sS'frugalmalefashion'
p60
F0.0076609193103200001
sS'movies'
p61
F0.0245805547398
sS'skeptic'
p62
F0.0153890294478
sS'boardgames'
p63
F0.0072601888934100004
sS'socialskills'
p64
F0.010341478778999999
sS'Nexus5'
p65
F0.0076719142247099999
sS'GuessTheMovie'
p66
F0.0117200100355
sS'worldnews'
p67
F0.019654492224900001
sS'vexillology'
p68
F0.011024374701300001
sS'disney'
p69
F0.013063009812000001
sS'tattoos'
p70
F0.016736977256099999
sS'Economics'
p71
F0.012688851584899999
sS'needamod'
p72
F0.0079679851359600005
sS'LetsNotMeet'
p73
F0.0074572673444300002
sS'titanfall'
p74
F0.014736378484500001
sS'answers'
p75
F0.0111455496071
sS'lgbt'
p76
F0.0110679030811
sS'baseball'
p77
F0.025305001716099999
sS'doctorwho'
p78
F0.022205425380000001
sS'WritingPrompts'
p79
F0.011354733220500001
sS'ThriftStoreHauls'
p80
F0.0096231956508199996
sS'Frugal'
p81
F0.0178625316279
sS'OnePiece'
p82
F0.0091763344264100006
sS'personalfinance'
p83
F0.0099585426308999997
sS'creepy'
p84
F0.022448759170199999
sS'pics'
p85
F0.014662944244399999
sS'howtonotgiveafuck'
p86
F0.011553491533100001
sS'thewalkingdead'
p87
F0.036609613325700001
sS'emulation'
p88
F0.0071952956645599999
sS'whatsthisbug'
p89
F0.010322513034100001
sS'Dexter'
p90
F0.015977476684799999
sS'apple'
p91
F0.018291907293900001
sS'TrueReddit'
p92
F0.019705518561800001
sS'Yogscast'
p93
F0.0071629778672000002
sS'todayilearned'
p94
F0.019543973941399999
sS'PlayStationPlus'
p95
F0.0105854678515
sS'confession'
p96
F0.013712450328399999
sS'jailbreak'
p97
F0.0092915395629700002
sS'AntiJokes'
p98
F0.00921870584911
sS'KingOfTheHill'
p99
F0.022624434389100001
sS'IdiotsFightingThings'
p100
F0.021540643559999999
sS'FinalFantasy'
p101
F0.012587053316600001
sS'Browns'
p102
F0.0093770027321499992
sS'ContagiousLaughter'
p103
F0.017140396210199998
sS'thelastofus'
p104
F0.0106661231699
sS'HIMYM'
p105
F0.027262180974499998
sS'FiftyFifty'
p106
F0.031934256246199999
sS'eldertrees'
p107
F0.0115075582187
sS'AskHistorians'
p108
F0.0153366354797
sS'Drugs'
p109
F0.017881463907599999
sS'OutOfTheLoop'
p110
F0.030522469977200001
sS'stopsmoking'
p111
F0.0071709172538499998
sS'sports'
p112
F0.0228414585092
sS'ifyoulikeblank'
p113
F0.0106864072356
sS'misleadingthumbnails'
p114
F0.018225584594200001
sS'trailerparkboys'
p115
F0.0247338139012
sS'eagles'
p116
F0.00968893421724
sS'battlefield_4'
p117
F0.016026188001299999
sS'Pareidolia'
p118
F0.0173777601319
sS'hockey'
p119
F0.022372587884200001
sS'Filmmakers'
p120
F0.0095248202488700008
sS'QuotesPorn'
p121
F0.027337014917899999
sS'CallOfDuty'
p122
F0.0086351723674499992
sS'ftlgame'
p123
F0.0081727211300200008
sS'LifeProTips'
p124
F0.021425270020400001
sS'Shitty_Car_Mods'
p125
F0.0198392116183
sS'PoliticalHumor'
p126
F0.0135761232626
sS'UFOs'
p127
F0.0093486642328299997
sS'ghettoglamourshots'
p128
F0.011026804708599999
sS'popping'
p129
F0.0138000503651
sS'EDC'
p130
F0.0088998156115600007
sS'showerbeer'
p131
F0.0082925644495300006
sS'techsupportgore'
p132
F0.020899216279400001
sS'science'
p133
F0.022098605902099999
sS'EDM'
p134
F0.0083070925176199992
sS'firstworldproblems'
p135
F0.023225708193700002
sS'Entrepreneur'
p136
F0.0070082789017099998
sS'standupshots'
p137
F0.036657944098400001
sS'legaladvice'
p138
F0.0105469097377
sS'MMA'
p139
F0.015642189906600001
sS'history'
p140
F0.016477332676799999
sS'tappedout'
p141
F0.010788453751399999
sS'Aquariums'
p142
F0.0078233905152099992
sS'gamernews'
p143
F0.0174890350877
sS'NewsOfTheStupid'
p144
F0.0083203525701900007
sS'punk'
p145
F0.0085324800853199996
sS'awesome'
p146
F0.0110706429627
sS'Glitch_in_the_Matrix'
p147
F0.010764041648300001
sS'gadgets'
p148
F0.017073170731700001
sS'beatles'
p149
F0.0086126888666099993
sS'learnprogramming'
p150
F0.010141636184
sS'Infographics'
p151
F0.0080762799302700004
sS'TalesFromYourServer'
p152
F0.0093879083740100004
sS'CampingandHiking'
p153
F0.0070900209350999999
sS'SRSsucks'
p154
F0.0082998460209600007
sS'HouseOfCards'
p155
F0.0204117287366
sS'asmr'
p156
F0.0100996425864
sS'techsupportmacgyver'
p157
F0.0110095416027
sS'MURICA'
p158
F0.037766333434299998
sS'NBA2k'
p159
F0.0090964027861700006
sS'travel'
p160
F0.0107683020346
sS'RealGirls'
p161
F0.021716960628599999
sS'Hotchickswithtattoos'
p162
F0.0074063624179999997
sS'scifi'
p163
F0.019564758081599999
sS'spaceporn'
p164
F0.018976539674299998
sS'nyc'
p165
F0.014838951662099999
sS'Pizza'
p166
F0.0114817950889
sS'photography'
p167
F0.0083625429247499994
sS'anime'
p168
F0.0145005753388
sS'polandball'
p169
F0.024664460567700001
sS'gaming'
p170
F0.021486813099299999
sS'GiftofGames'
p171
F0.0091031692515200005
sS'hardbodies'
p172
F0.010427798827700001
sS'askscience'
p173
F0.0147396806913
sS'philosophy'
p174
F0.0084147101599800003
sS'Images'
p175
F0.010916646124600001
sS'mac'
p176
F0.0074840350218199998
sS'CHIBears'
p177
F0.010705068977600001
sS'dogpictures'
p178
F0.010835767455000001
sS'MachinePorn'
p179
F0.0075245327507900001
sS'oculus'
p180
F0.014208917466
sS'CFB'
p181
F0.020640744726400002
sS'FanTheories'
p182
F0.029621914888499998
sS'listentothis'
p183
F0.0130976283097
sS'tall'
p184
F0.013962819312599999
sS'ImGoingToHellForThis'
p185
F0.041899764205499998
sS'manga'
p186
F0.0071432526718000003
sS'shield'
p187
F0.014892101922699999
sS'DoesAnybodyElse'
p188
F0.022973236268300001
sS'pettyrevenge'
p189
F0.021886808474499999
sS'malehairadvice'
p190
F0.0082178135635400003
sS'CityPorn'
p191
F0.0137645251963
sS'electronic_cigarette'
p192
F0.0110311453034
sS'diablo3'
p193
F0.0077548491278099999
sS'nsfw'
p194
F0.0223671217417
sS'dataisbeautiful'
p195
F0.0238768641017
sS'japan'
p196
F0.0072317965765599998
sS'vita'
p197
F0.011299024945
sS'GlobalOffensive'
p198
F0.0113091187121
sS'beards'
p199
F0.017893266042400002
sS'gaybros'
p200
F0.0091429605992700003
sS'nostalgia'
p201
F0.035525050861899998
sS'Documentaries'
p202
F0.018906724778200001
sS'writing'
p203
F0.0107220605888
sS'AndroidQuestions'
p204
F0.0105133952396
sS'StonerEngineering'
p205
F0.0114942528736
sS'Bioshock'
p206
F0.0148219751893
sS'WTF'
p207
F0.018773242159799999
sS'soccer'
p208
F0.020385870529899999
sS'wallpaper'
p209
F0.0123608982475
sS'texas'
p210
F0.0085627717033300004
sS'Gore'
p211
F0.0116389699353
sS'MensRights'
p212
F0.022665494900799998
sS'MilitaryPorn'
p213
F0.016332535407900001
sS'Frisson'
p214
F0.0109598940142
sS'electronicmusic'
p215
F0.012439835375600001
sS'childfree'
p216
F0.0157909123405
sS'food'
p217
F0.020964195979899999
sS'whitepeoplegifs'
p218
F0.018910126067500001
sS'NoStupidQuestions'
p219
F0.0182529070945
sS'reddevils'
p220
F0.0084839942536500002
sS'chicago'
p221
F0.0110431687506
sS'halo'
p222
F0.019869961935599999
sS'Braveryjerk'
p223
F0.0082894886256100007
sS'creepyPMs'
p224
F0.019799054373500002
sS'WatchItForThePlot'
p225
F0.026343274921700001
sS'nfl'
p226
F0.0256993709008
sS'freebies'
p227
F0.017713817713800002
sS'PropagandaPosters'
p228
F0.010705356199600001
sS'mashups'
p229
F0.0071534713342800002
sS'AdviceAnimals'
p230
F0.0167605554864
sS'trap'
p231
F0.0074390282180900004
sS'arrow'
p232
F0.016420179682100002
sS'minimalism'
p233
F0.012303765770999999
sS'wallpapers'
p234
F0.023031601499699999
sS'mildlyinteresting'
p235
F0.0239547340521
sS'TrueAtheism'
p236
F0.012032932235599999
sS'badhistory'
p237
F0.0084796093440700007
sS'Madden'
p238
F0.0109679372876
sS'Rateme'
p239
F0.010538749746199999
sS'books'
p240
F0.016473713619100001
sS'xmen'
p241
F0.0092707744488400006
sS'TwoXChromosomes'
p242
F0.0114275163104
sS'Cinemagraphs'
p243
F0.010929337366
sS'canada'
p244
F0.019068026894000001
sS'DunderMifflin'
p245
F0.0262366359927
sS'psychology'
p246
F0.0084888583733800007
sS'space'
p247
F0.023497557723399998
sS'shittyfoodporn'
p248
F0.024773741502299999
sS'malefashionadvice'
p249
F0.0147212503976
sS'LearnUselessTalents'
p250
F0.017507664976099999
sS'nyjets'
p251
F0.0070885136388900002
sS'RoomPorn'
p252
F0.0180938354723
sS'memes'
p253
F0.013048205871700001
sS'tf2'
p254
F0.017116216041800001
sS'DarkSouls2'
p255
F0.0100403654751
sS'math'
p256
F0.0076915611200099997
sS'ass'
p257
F0.010660677734800001
sS'bestof'
p258
F0.029035831077000002
sS'Cyberpunk'
p259
F0.0118696932941
sS'no_sob_story'
p260
F0.0111525550168
sS'cars'
p261
F0.0145375675953
sS'Metal'
p262
F0.015644680145800002
sS'LadyBoners'
p263
F0.013472597112999999
sS'corgi'
p264
F0.0091931897381399997
sS'Roadcam'
p265
F0.0075731848128799996
sS'GamePhysics'
p266
F0.018833626367099999
sS'youtubehaiku'
p267
F0.022849127887200001
sS'dayz'
p268
F0.0129775696327
sS'Borderlands'
p269
F0.012354535310099999
sS'recipes'
p270
F0.0074991137410999999
sS'headphones'
p271
F0.0091996535499400001
sS'programming'
p272
F0.010843319952
sS'49ers'
p273
F0.0101111934766
sS'dogecoin'
p274
F0.015190954569500001
sS'snowboarding'
p275
F0.0074845613136400001
sS'StarWars'
p276
F0.034923375171599998
sS'nhl'
p277
F0.0134708997949
sS'dragonage'
p278
F0.0099003452094099994
sS'misc'
p279
F0.0071644464345700003
sS'patientgamers'
p280
F0.016013948497899999
sS'rant'
p281
F0.0087956252470699995
sS'conspiratard'
p282
F0.019652884124599999
sS'GreenBayPackers'
p283
F0.012188897895499999
sS'gtaonline'
p284
F0.0108559236948
sS'pokemon'
p285
F0.024609533508900001
sS'TheLastAirbender'
p286
F0.024959994720999999
sS'longboarding'
p287
F0.0077732433857999996
sS'OldSchoolCool'
p288
F0.0232096972405
sS'lego'
p289
F0.019411307969200001
sS'ANormalDayInRussia'
p290
F0.016229058035899999
sS'seduction'
p291
F0.0115392714256
sS'onetruegod'
p292
F0.015241790217500001
sS'TheFacebookDelusion'
p293
F0.0089189088330800005
sS'Autos'
p294
F0.0136180827776
sS'Seattle'
p295
F0.0090351366425000003
sS'PenmanshipPorn'
p296
F0.012863799983300001
sS'shittyreactiongifs'
p297
F0.0178794611859
sS'alternativeart'
p298
F0.0099061328980099995
sS'shittyadvice'
p299
F0.0096315754024399996
sS'MeanJokes'
p300
F0.0094356675463600007
sS'explainlikeimfive'
p301
F0.017987466642700001
sS'dogs'
p302
F0.010742621761399999
sS'CombatFootage'
p303
F0.0105359461693
sS'GTA'
p304
F0.0172190398254
sS'TrollYChromosome'
p305
F0.018106688857600001
sS'GODZILLA'
p306
F0.010422205679000001
sS'3DS'
p307
F0.015943977786699998
sS'Spiderman'
p308
F0.0099891422366999993
sS'mildlyinfuriating'
p309
F0.0379737447156
sS'madmen'
p310
F0.0122202928939
sS'Standup'
p311
F0.0095310027334200003
sS'vinyl'
p312
F0.011848961431400001
sS'nsfw_gifs'
p313
F0.011775611956
sS'redditgetsdrawn'
p314
F0.0089445438282599998
sS'Awwducational'
p315
F0.016384337684000001
sS'skyrim'
p316
F0.026436098770499999
sS'Twitch'
p317
F0.0087514585764299994
sS'toronto'
p318
F0.0098959031407799998
sS'Battlefield'
p319
F0.00949578302287
sS'television'
p320
F0.031921357441199998
sS'Chargers'
p321
F0.0071008903146699996
sS'worldpolitics'
p322
F0.022082885763499999
sS'TheRedPill'
p323
F0.0114398926312
sS'PerfectTiming'
p324
F0.026860909138499998
sS'sweden'
p325
F0.0083950742154899997
sS'Supernatural'
p326
F0.0102239067427
sS'KerbalSpaceProgram'
p327
F0.013931451992
sS'torrents'
p328
F0.0092238857339500008
sS'Boobies'
p329
F0.0087379543271500007
sS'gallifrey'
p330
F0.011505901991199999
sS'ShingekiNoKyojin'
p331
F0.0111494974874
sS'FoodPorn'
p332
F0.025543085025800001
sS'boston'
p333
F0.0079140152933000005
sS'teenagers'
p334
F0.021814737127000002
sS'sysadmin'
p335
F0.0080900457263499998
sS'conspiracy'
p336
F0.029908845232900001
sS'redsox'
p337
F0.0071428571428599997
sS'superman'
p338
F0.0072632641963800001
sS'HighQualityGifs'
p339
F0.020202346704599999
sS'self'
p340
F0.018673684617900001
sS'IAmA'
p341
F0.017076266464400001
sS'DaftPunk'
p342
F0.0119882535844
sS'depression'
p343
F0.0105738829565
sS'britishproblems'
p344
F0.0149848659249
sS'nonononoyes'
p345
F0.028775723753099999
sS'firefly'
p346
F0.015869118143600001
sS'paydaytheheist'
p347
F0.0110488517086
sS'MovieSuggestions'
p348
F0.0077705955164400001
sS'aww'
p349
F0.017743188594400001
sS'Futurology'
p350
F0.022776513026900001
sS'KingdomHearts'
p351
F0.0082330588980399997
sS'MLS'
p352
F0.0086663322744199994
sS'Games'
p353
F0.027841374826899998
sS'mylittlepony'
p354
F0.010195035461
sS'progresspics'
p355
F0.017051081222200001
sS'Gaming4Gamers'
p356
F0.011046663190800001
sS'hearthstone'
p357
F0.011008373609499999
sS'Minecraft'
p358
F0.0199856466719
sS'windows'
p359
F0.00924412023645
sS'newjersey'
p360
F0.0081465728774700007
sS'investing'
p361
F0.0095103457139199994
sS'TumblrInAction'
p362
F0.034167266941200002
sS'secretsanta'
p363
F0.0105007902657
sS'Fishing'
p364
F0.0091730329560000008
sS'Borderlands2'
p365
F0.0088419764417900001
sS'GifSound'
p366
F0.0103266992114
sS'vaporents'
p367
F0.00958448117539
sS'Heavymind'
p368
F0.0105904685783
sS'Psychonaut'
p369
F0.010688148265200001
sS'Justrolledintotheshop'
p370
F0.018955128924799999
sS'adventuretime'
p371
F0.027356023818400001
sS'runescape'
p372
F0.0076127309890300001
sS'LucidDreaming'
p373
F0.0104306192824
sS'fffffffuuuuuuuuuuuu'
p374
F0.028728861177099999
sS'PoliticalDiscussion'
p375
F0.0109151726769
sS'dbz'
p376
F0.021657165264100001
sS'bodybuilding'
p377
F0.010065739842700001
sS'Foodforthought'
p378
F0.010298721437100001
sS'Amateur'
p379
F0.0076417162543099999
sS'Bass'
p380
F0.0070126660488100002
sS'harrypotter'
p381
F0.024211613003799998
sS'wicked_edge'
p382
F0.0074775942122900004
sS'shittybattlestations'
p383
F0.0073380116125799999
sS'whowouldwin'
p384
F0.02147751807
sS'GrandTheftAutoV'
p385
F0.032521155778000001
sS'gamedev'
p386
F0.0074848698701899998
sS'MetalMemes'
p387
F0.0087773836082399997
sS'ipad'
p388
F0.0078774617067799996
sS'Anxiety'
p389
F0.0080131346794699992
sS'arresteddevelopment'
p390
F0.028873791481599999
sS'shutupandtakemymoney'
p391
F0.020862708235399999
sS'webcomics'
p392
F0.010355824703499999
sS'CrusaderKings'
p393
F0.0080432172869099993
sS'JusticePorn'
p394
F0.035952783237399998
sS'trees'
p395
F0.023391105120200002
sS'smashbros'
p396
F0.019561200923799999
sS'geek'
p397
F0.025064543889799999
sS'Fitness'
p398
F0.014250292292
sS'elderscrollsonline'
p399
F0.0088668641300200003
sS'spicy'
p400
F0.0070985915493
sS'Conservative'
p401
F0.0145212826658
sS'PrettyGirlsUglyFaces'
p402
F0.0076261785912399996
sS'AbandonedPorn'
p403
F0.020192900554900001
sS'motorcycles'
p404
F0.012640182474799999
sS'dadjokes'
p405
F0.0206434316354
sS'Marijuana'
p406
F0.01009530533
sS'guns'
p407
F0.0152039741081
sS'WeAreTheMusicMakers'
p408
F0.010711569339999999
sS'thatHappened'
p409
F0.035576263791100002
sS'futurama'
p410
F0.051688145406000002
sS'ClashOfClans'
p411
F0.0097940247857600006
sS'GTAV'
p412
F0.017153663798800001
sS'cringe'
p413
F0.033796610502899997
sS'FIFA'
p414
F0.0104887770086
sS'playstation'
p415
F0.0096074945295399998
sS'AskWomen'
p416
F0.011819927458900001
sS'TheSimpsons'
p417
F0.050448966579900001
sS'Christianity'
p418
F0.010863942059000001
sS'see'
p419
F0.014553487314399999
sS'changemyview'
p420
F0.020262358259799999
sS'roosterteeth'
p421
F0.014614588722200001
sS'skateboarding'
p422
F0.0119121374261
sS'PS3'
p423
F0.019023297024000001
sS'Android'
p424
F0.021412680756400002
sS'PS4'
p425
F0.021393770404
sS'firstworldanarchists'
p426
F0.037057614311900001
sS'nononono'
p427
F0.021901443504200001
sS'cosplay'
p428
F0.0146993538204
sS'truegaming'
p429
F0.020072883684800001
sS'lotr'
p430
F0.0184335687952
sS'AmericanHorrorStory'
p431
F0.015734480639200001
sS'wikipedia'
p432
F0.0113111726685
sS'breakingbad'
p433
F0.0422288208215
sS'outside'
p434
F0.020875035744899999
sS'foodhacks'
p435
F0.0094233566988499995
sS'pcmasterrace'
p436
F0.0246337558665
sS'magicTCG'
p437
F0.0099848884997200005
sS'CollegeBasketball'
p438
F0.016850115504799999
sS'europe'
p439
F0.017547964436099999
sS'StandUpComedy'
p440
F0.0154970858741
sS'jobs'
p441
F0.0094029149036200001
sS'battlefield3'
p442
F0.0089237057220699998
sS'casualiama'
p443
F0.020643309553099998
sS'facepalm'
p444
F0.0407229794886
sS'celebnsfw'
p445
F0.016441535832899999
sS'NASCAR'
p446
F0.0091740176423400002
sS'AnimalCrossing'
p447
F0.0085011696240099993
sS'news'
p448
F0.0208307449106
sS'pinkfloyd'
p449
F0.0098434492027199994
sS'environment'
p450
F0.0092800294994299995
sS'gamingsuggestions'
p451
F0.0080421161423699997
sS'Unexpected'
p452
F0.040314252473899997
sS'RedditDayOf'
p453
F0.0076995034899600004
sS'relationship_advice'
p454
F0.0075479526377899998
sS'WWE'
p455
F0.0108065991395
sS'nosleep'
p456
F0.010045220753199999
sS'watchpeopledie'
p457
F0.018313658524499999
sS'Sherlock'
p458
F0.0161420036765
sS'GunPorn'
p459
F0.0072104551599799999
sS'GetMotivated'
p460
F0.021893018523200001
sS'buildapc'
p461
F0.013230034110799999
sS'drunk'
p462
F0.025221334485
sS'reactiongifs'
p463
F0.040240827028700001
sS'community'
p464
F0.037130458946999997
sS'NotTimAndEric'
p465
F0.0147252676591
sS'formula1'
p466
F0.0118019634751
sS'Music'
p467
F0.019217548656300001
sS'startrek'
p468
F0.018482204137699999
sS'EarthPorn'
p469
F0.018421902350300001
sS'linux'
p470
F0.0088320696886600002
sS'ainbow'
p471
F0.0073873512501699996
sS'chrome'
p472
F0.0090912042598799998
sS'Homebrewing'
p473
F0.0078498055018500004
sS'TheWire'
p474
F0.010399944161400001
sS'Gunners'
p475
F0.0075972918497100002
sS'Guitar'
p476
F0.0140172360087
sS'beer'
p477
F0.0157754064428
sS'holdmybeer'
p478
F0.0261044176707
sS'ireland'
p479
F0.0080111653873
sS'web_design'
p480
F0.0082274761538799999
sS'Diablo'
p481
F0.010648727733400001
sS'ArtisanVideos'
p482
F0.0086079898321699995
sS'fatlogic'
p483
F0.027224195907800001
sS'hiphopheads'
p484
F0.021674078384100001
sS'MakeupAddiction'
p485
F0.0078995804419599996
sS'androidapps'
p486
F0.0089133121236799999
sS'marvelstudios'
p487
F0.0150327429917
sS'somethingimade'
p488
F0.011317289252599999
sS'TopGear'
p489
F0.024196327475000001
sS'MapPorn'
p490
F0.0283872657432
sS'aviation'
p491
F0.0095963200888300008
sS'ravens'
p492
F0.0071116976428800003
sS'darksouls'
p493
F0.012578743337100001
sS'Chromecast'
p494
F0.0097108329736699996
sS'sex'
p495
F0.015310228140299999
sS'Perfectfit'
p496
F0.0121553714519
sS'offbeat'
p497
F0.0272544687688
sS'softwaregore'
p498
F0.0095831336847099994
sS'socialism'
p499
F0.0087512938740900003
sS'DotA2'
p500
F0.0087512230501299998
sS'OnOff'
p501
F0.0098097112860899994
sS'windowsphone'
p502
F0.0070918540826700001
sS'Cooking'
p503
F0.014666072713600001
sS'YMS'
p504
F0.0079327678290900001
sS'IASIP'
p505
F0.040564214087199998
sS'hardware'
p506
F0.0080632704130499996
sS'gamecollecting'
p507
F0.010843079921999999
sS'LosAngeles'
p508
F0.0119073978399
sS'DIY'
p509
F0.0159101942781
sS'assassinscreed'
p510
F0.016218010931200001
sS'technology'
p511
F0.023461285488599999
sS'shorthairedhotties'
p512
F0.0075413186735700001
sS'xboxone'
p513
F0.0192038073188
sS'starcraft'
p514
F0.011132918803900001
sS'funny'
p515
F0.014193426698699999
sS'deadpool'
p516
F0.0099249943177499994
sS'IndieGaming'
p517
F0.00708194825842
sS'daddit'
p518
F0.0071329746349
sS'itookapicture'
p519
F0.014244281236800001
sS'Whatcouldgowrong'
p520
F0.0319128643369
sS'talesfromtechsupport'
p521
F0.016872022342700001
sS'buildapcsales'
p522
F0.0098228625963099996
sS'Anarchism'
p523
F0.0071086129938800003
sS'notinteresting'
p524
F0.023556697514699999
sS'AnimalsBeingJerks'
p525
F0.031950545717999997
sS'girlsinyogapants'
p526
F0.010303453318699999
sS'running'
p527
F0.00971543654198
sS'playrust'
p528
F0.0075237418777800002
sS'Physics'
p529
F0.00771983791298
sS'thesims'
p530
F0.010323408474499999
sS'comicbookmovies'
p531
F0.0087802293456500004
sS'TrueFilm'
p532
F0.0092343464540800002
sS'HumanPorn'
p533
F0.016582332500200001
sS'TimAndEric'
p534
F0.0112055075436
sS'Fantasy'
p535
F0.0081181162172400002
sS'Portland'
p536
F0.0073397243858599999
sS'drawing'
p537
F0.0075737482686499998
sS'EmmaWatson'
p538
F0.013170765790899999
sS'Sonsofanarchy'
p539
F0.015264127764099999
sS'FancyFollicles'
p540
F0.0076210400478199996
sS'awwwtf'
p541
F0.012066207664
sS'DestinyTheGame'
p542
F0.012284134675100001
sS'Terraria'
p543
F0.00853959009968
sS'HalfLife'
p544
F0.0091627872607699997
sS'Piracy'
p545
F0.0088448422847399993
sS'PublicFreakout'
p546
F0.019732720818499999
sS'Boxing'
p547
F0.0073126753038599999
sS'Bitcoin'
p548
F0.0134004932053
sS'rickandmorty'
p549
F0.039338919925500003
sS'quotes'
p550
F0.0084605231987500001
sS'woodworking'
p551
F0.0091311816291499998
sS'perfectloops'
p552
F0.015780024567700002
sS'InternetIsBeautiful'
p553
F0.021941538235400002
sS'carporn'
p554
F0.016826003824099999
sS'TalesFromRetail'
p555
F0.019157021638399999
sS'minnesotavikings'
p556
F0.00968249623649
sS'WouldYouRather'
p557
F0.012146671877
sS'quityourbullshit'
p558
F0.0346590909091
sS'ProtectAndServe'
p559
F0.011018119311299999
sS'woahdude'
p560
F0.0355225497022
sS'Fallout'
p561
F0.0286054421769
sS'offmychest'
p562
F0.016979030356799998
sS'australia'
p563
F0.016373265701900001
sS'slowcooking'
p564
F0.010224780701799999
sS'DenverBroncos'
p565
F0.012666861541500001
sS'NSFW_GIF'
p566
F0.0197641649362
sS'howto'
p567
F0.010220831913800001
sS'cringepics'
p568
F0.035412853053600001
sS'toosoon'
p569
F0.019073475840299999
sS'RandomActsOfGaming'
p570
F0.016051509930199999
sS'gifs'
p571
F0.0219342087846
sS'Art'
p572
F0.0149397900702
sS'lost'
p573
F0.010194422194700001
sS'ConfusedBoners'
p574
F0.0100386100386
sS'Paranormal'
p575
F0.0081620582581700008
sS'xbox'
p576
F0.0073013600572700002
sS'4chan'
p577
F0.0418568740047
sS'montageparodies'
p578
F0.019368437798300001
sS'zombies'
p579
F0.010874818753000001
sS'ArcherFX'
p580
F0.044792741891700003
sS'google'
p581
F0.011831184884299999
sS'gardening'
p582
F0.0092978900941699996
sS'whatisthisthing'
p583
F0.019648311731200001
sS'MechanicalKeyboards'
p584
F0.0106447880509
sS'NetflixBestOf'
p585
F0.030891438658400001
sS'NYGiants'
p586
F0.0073623676788399997
sS'ShouldIbuythisgame'
p587
F0.0136198382983
sS'SubredditDrama'
p588
F0.031826140694199999
sS'tumblr'
p589
F0.0267666497204
sS'interestingasfuck'
p590
F0.035360867306799999
sS'MarkMyWords'
p591
F0.0122586801732
sS'cowboys'
p592
F0.0082745939319600007
sS'radiohead'
p593
F0.0075706174338500002
sS'wow'
p594
F0.014263061793300001
sS'Coffee'
p595
F0.0073448033001300003
sS'gameofthrones'
p596
F0.034768468961700001
sS'humor'
p597
F0.020187946521200002
sS'AMA'
p598
F0.0142442885693
sS'SkincareAddiction'
p599
F0.0072362408847600002
sS'ExpectationVsReality'
p600
F0.018517342142000001
sS'lifehacks'
p601
F0.029773852535800002
sS'metalgearsolid'
p602
F0.0111591962906
sS'starbound'
p603
F0.0093824676141399995
sS'blackpeoplegifs'
p604
F0.021628962273499999
sS'ProgrammerHumor'
p605
F0.012069103628699999
sS'business'
p606
F0.0101190609154
sS'FloridaMan'
p607
F0.022588647307700001
sS'delusionalartists'
p608
F0.018300051792600001
sS'OkCupid'
p609
F0.013117336803900001
sS'Cynicalbrit'
p610
F0.0138193786916
sS'promos'
p611
F0.019299207729000002
sS'JonTron'
p612
F0.0115934879132
sS'shittyaskscience'
p613
F0.0251231527094
sS'lewronggeneration'
p614
F0.026789711954600001
sS'worldbuilding'
p615
F0.0071527735860399998
sS'calvinandhobbes'
p616
F0.0156095228336
sS'netflix'
p617
F0.019417740134500001
sS'masseffect'
p618
F0.017658484902000001
sS'wheredidthesodago'
p619
F0.030515779229799998
sS'AnimalsBeingBros'
p620
F0.022450152794199998
sS'classic4chan'
p621
F0.019045668646300001
sS'GameDeals'
p622
F0.020789263550099999
sS'battlestations'
p623
F0.0169542791645
sS'NSFWFunny'
p624
F0.0115857344348
sS'paradoxplaza'
p625
F0.0073496189644299999
sS'amiugly'
p626
F0.010669463031399999
sS'applehelp'
p627
F0.0076878779153499999
sS'Scotland'
p628
F0.0080524523377600004
sS'gamemusic'
p629
F0.0073555539762599998
sS'subaru'
p630
F0.0086584419809299998
sS'Sneakers'
p631
F0.0085717184012999992
sS'TrollXChromosomes'
p632
F0.026371043353100001
sS'tifu'
p633
F0.020599794002099998
sS'unitedkingdom'
p634
F0.0141224828418
sS'Damnthatsinteresting'
p635
F0.026990353539099999
sS'DnD'
p636
F0.0094387599422300003
sS'loseit'
p637
F0.0113570049827
sS'CrazyIdeas'
p638
F0.029913306616500001
sS'Bad_Cop_No_Donut'
p639
F0.023381385303100001
sS'SquaredCircle'
p640
F0.019536181806099999
sS'MorbidReality'
p641
F0.0260249247959
sS'gif'
p642
F0.026006538450200001
sS'cats'
p643
F0.0237780136996
sS'introvert'
p644
F0.0077427039904700004
sS'raisedbynarcissists'
p645
F0.0087259647408899996
sS'howardstern'
p646
F0.0071214666569299999
sS'happy'
p647
F0.012374571217899999
sS'explainlikeIAmA'
p648
F0.012131772751200001
sS'batman'
p649
F0.031466532507000003
sS'gamegrumps'
p650
F0.016709036786000001
sS'WebGames'
p651
F0.0092277966553399992
sS'bindingofisaac'
p652
F0.010637616148699999
sS'rule34'
p653
F0.01062215478
sS'HipHopImages'
p654
F0.0096917532626600005
sS'xbox360'
p655
F0.0153290984462
sS'Metalcore'
p656
F0.0073080853435700003
sS'NoFap'
p657
F0.0083337879862500006
sS'Austin'
p658
F0.0078206986157599995
sS'blunderyears'
p659
F0.023844282238399999
sS'Marvel'
p660
F0.026660781284500001
sS'Random_Acts_Of_Amazon'
p661
F0.0070000950239100003
sS'rage'
p662
F0.036601151343800001
sS'comics'
p663
F0.034987809759499999
sS'behindthegifs'
p664
F0.0280821733394
sS'civ'
p665
F0.019098602498200001
sS'findareddit'
p666
F0.0097713628815899994
sS'Enhancement'
p667
F0.0101658078312
sS'BustyPetite'
p668
F0.012492885600500001
sS'fullmoviesonyoutube'
p669
F0.022473393720100002
sS'iphone'
p670
F0.018004065434099999
sS'videos'
p671
F0.0176122553913
sS'keto'
p672
F0.0102725555456
sS'TrueAskReddit'
p673
F0.0079951194451599993
sS'engineering'
p674
F0.0074274842980399996
sS'tipofmytongue'
p675
F0.018376004848400001
sS'politics'
p676
F0.025324541864099999
sS'bestofworldstar'
p677
F0.0121081662855
sS'DAE'
p678
F0.0075729589952
sS'ForeverAlone'
p679
F0.011234942473500001
sS'eatsandwiches'
p680
F0.010120019885
sS'bicycling'
p681
F0.012607348384200001
sS'shittyama'
p682
F0.0098999932881400007
sS'circlebroke'
p683
F0.0110222748659
sS'zelda'
p684
F0.0210361287907
sS'TheWayWeWere'
p685
F0.00775896450455
sS'badtattoos'
p686
F0.012174929385399999
sS'Seahawks'
p687
F0.0125856926056
sS'saplings'
p688
F0.0072020520915499998
sS'nottheonion'
p689
F0.0302352464308
sS'Frugal_Jerk'
p690
F0.0078740157480300006
sS'SuicideWatch'
p691
F0.0075435706234299998
sS'bigdickproblems'
p692
F0.0080299615958399993
sS'nintendo'
p693
F0.019377503300400001
sS'comicbooks'
p694
F0.023305448101099999
sS'cordcutters'
p695
F0.0143836151862
sS'HailCorporate'
p696
F0.0131264916468
sS'oddlysatisfying'
p697
F0.033394867239400002
sS'cosplaygirls'
p698
F0.017528296115000001
sS'entertainment'
p699
F0.0190228273929
sS'youtube'
p700
F0.011015988921099999
sS'atheism'
p701
F0.026260815859399999
sS'terriblefacebookmemes'
p702
F0.0152496344266
sS'PrettyGirls'
p703
F0.0142753141519
sS'urbanexploration'
p704
F0.0076928200346299998
sS'gainit'
p705
F0.0073403404546999998
s.