(dp1
S'ArtisanVideos'
p2
F0.0100888056546
sS'BuyItForLife'
p3
F0.0077385741102599997
sS'everymanshouldknow'
p4
F0.0073316404992699999
sS'dataisbeautiful'
p5
F0.0102171508412
sS'Foodforthought'
p6
F0.0086451772261300006
sS'syriancivilwar'
p7
F0.00726927939317
sS'TheoryOfReddit'
p8
F0.010231849352299999
sS'arduino'
p9
F0.012243972488899999
sS'printSF'
p10
F0.0086575571085800006
sS'ProtectAndServe'
p11
F0.0073495897903400002
sS'environment'
p12
F0.0114625051788
sS'holdmybeer'
p13
F0.0072918364021500003
sS'dwarffortress'
p14
F0.0078756917837400006
sS'MilitaryPorn'
p15
F0.010118194842399999
sS'Frisson'
p16
F0.0076660988074999997
sS'BasicIncome'
p17
F0.0155404740828
sS'howto'
p18
F0.0076869322152300001
sS'geek'
p19
F0.0097380331916100005
sS'KerbalAcademy'
p20
F0.0279184145812
sS'Stargate'
p21
F0.0087102177554399998
sS'lostgeneration'
p22
F0.010511838098
sS'amateurradio'
p23
F0.0089252510226899995
sS'homestead'
p24
F0.0074203404626800003
sS'AbandonedPorn'
p25
F0.0076292130806999998
sS'progressive'
p26
F0.0077821011673200003
sS'PoliticalDiscussion'
p27
F0.0097521585191600001
sS'PropagandaPosters'
p28
F0.0079646866903400008
sS'CrappyDesign'
p29
F0.0070754067670599999
sS'radiocontrol'
p30
F0.0084044648719599994
sS'compsci'
p31
F0.0084375693879099999
sS'math'
p32
F0.0079046261500600006
sS'Cyberpunk'
p33
F0.011654451519899999
sS'Libertarian'
p34
F0.0086001829826200006
sS'starcitizen'
p35
F0.0108089559921
sS'Anarcho_Capitalism'
p36
F0.0081842726965900003
sS'firefly'
p37
F0.0080514208389699995
sS'google'
p38
F0.0081431726168599994
sS'TrueAtheism'
p39
F0.0087437544610999996
sS'EngineeringStudents'
p40
F0.0097977425084500008
sS'crypto'
p41
F0.0070619390907800004
sS'SelfDrivingCars'
p42
F0.023490438187000001
sS'interestingasfuck'
p43
F0.0077347505246800003
sS'AskScienceDiscussion'
p44
F0.0098183049317199997
sS'changemyview'
p45
F0.0077218540410399997
sS'offbeat'
p46
F0.0077068933879700001
sS'space'
p47
F0.0398606881713
sS'skeptic'
p48
F0.0133932935771
sS'wikipedia'
p49
F0.0095531088082900003
sS'outside'
p50
F0.0071210093672300001
sS'electronics'
p51
F0.012478920742000001
sS'Astronomy'
p52
F0.0246056782334
sS'spaceengineers'
p53
F0.00913278271919
sS'europe'
p54
F0.0090841620899500004
sS'bestof'
p55
F0.0091460302553900003
sS'FloridaMan'
p56
F0.0077185424519800004
sS'answers'
p57
F0.0077907226073900002
sS'netsec'
p58
F0.0099105095776899996
sS'AskElectronics'
p59
F0.0092540661805899996
sS'Roadcam'
p60
F0.0099480588079900005
sS'worldbuilding'
p61
F0.0083061997474900007
sS'hardware'
p62
F0.0081022560592299998
sS'RedditDayOf'
p63
F0.00801397308127
sS'WarshipPorn'
p64
F0.0152171615767
sS'programming'
p65
F0.0112150665831
sS'OutOfTheLoop'
p66
F0.0071872746935800003
sS'TrueReddit'
p67
F0.010688235718899999
sS'robotics'
p68
F0.019769573186700001
sS'conspiratard'
p69
F0.00760326827054
sS'startrek'
p70
F0.0102963443651
sS'linux'
p71
F0.0098981631293400003
sS'Multicopter'
p72
F0.0127840909091
sS'3Dprinting'
p73
F0.0128927089508
sS'Damnthatsinteresting'
p74
F0.0081321801987899994
sS'HistoryPorn'
p75
F0.0082713166452100008
sS'ECE'
p76
F0.0081485919712400001
sS'CrazyIdeas'
p77
F0.0070739952422699997
sS'AskHistorians'
p78
F0.0095934340689199996
sS'privacy'
p79
F0.0096673053475000003
sS'ANormalDayInRussia'
p80
F0.0086908916718000002
sS'flying'
p81
F0.014041806286900001
sS'Ubuntu'
p82
F0.0080043945695700003
sS'energy'
p83
F0.019460602855600001
sS'CombatFootage'
p84
F0.0094375235938099992
sS'cablefail'
p85
F0.00711521657721
sS'collapse'
p86
F0.0077663150573800003
sS'occupywallstreet'
p87
F0.0076658736452600001
sS'teslamotors'
p88
F0.074235344095199995
sS'cordcutters'
p89
F0.00792454664787
sS'BitcoinMarkets'
p90
F0.0071187171927800004
sS'MapPorn'
p91
F0.0084740877385099996
sS'aviation'
p92
F0.019582844612200001
sS'NeutralPolitics'
p93
F0.0095628415300499994
sS'ProgrammerHumor'
p94
F0.0080826683036599994
sS'sysadmin'
p95
F0.0074678752607299998
sS'sailing'
p96
F0.00709539362541
sS'techsupportgore'
p97
F0.0088045017800400006
sS'worldpolitics'
p98
F0.0088369821039999998
sS'science'
p99
F0.0098648238587899992
sS'Justrolledintotheshop'
p100
F0.0076705019176300003
sS'nononono'
p101
F0.0089696969697000001
sS'softwaregore'
p102
F0.0073090293252500004
sS'KerbalSpaceProgram'
p103
F0.033342972816699998
sS'history'
p104
F0.0078888436482100009
sS'AskScienceFiction'
p105
F0.00886721347816
sS'Economics'
p106
F0.012554343004200001
sS'urbanplanning'
p107
F0.0072696770585799998
sS'TrueAskReddit'
p108
F0.0070976112340699997
sS'gadgets'
p109
F0.0072114585756500003
sS'engineering'
p110
F0.0166467899026
sS'polandball'
p111
F0.0072226287823300003
sS'technology'
p112
F0.0078588812108099995
sS'DaystromInstitute'
p113
F0.0083894469588299998
sS'techsupportmacgyver'
p114
F0.0096739221082500007
sS'Python'
p115
F0.0072230104475700004
sS'AskSocialScience'
p116
F0.0071297616622499997
sS'scifi'
p117
F0.015266659911500001
sS'spaceporn'
p118
F0.023132848645099999
sS'nonononoyes'
p119
F0.0098916791473700003
sS'FutureWhatIf'
p120
F0.010561689870399999
sS'talesfromtechsupport'
p121
F0.0089116682827699994
sS'raspberry_pi'
p122
F0.0093268699760700007
sS'askscience'
p123
F0.0130967838594
sS'Futurology'
p124
F0.017949974143300001
sS'astrophotography'
p125
F0.0152060002055
sS'linux_gaming'
p126
F0.0075882867983299998
sS'EnoughLibertarianSpam'
p127
F0.0072940332416600003
sS'Physics'
p128
F0.0168481742473
sS'MachinePorn'
p129
F0.019720161517500001
sS'oculus'
p130
F0.013931731127800001
sS'investing'
p131
F0.0092789618725400008
sS'AskEngineers'
p132
F0.0171261487051
sS'cableporn'
p133
F0.0108641149925
s.