(dp1
S'linguistics'
p2
F0.025271490916500002
sS'argentina'
p3
F0.018966547192399999
sS'grammar'
p4
F0.0087810686113999996
sS'mexico'
p5
F0.029435530416699999
sS'ChineseLanguage'
p6
F0.0087527352297600003
sS'badlinguistics'
p7
F0.018458197611299999
sS'TEFL'
p8
F0.0117565698479
sS'LearnJapanese'
p9
F0.0095773474911500008
sS'duolingo'
p10
F0.0373041187075
sS'translator'
p11
F0.011994875975300001
sS'IWantOut'
p12
F0.0107164462881
sS'French'
p13
F0.020973687555600001
sS'russian'
p14
F0.0099474474474500005
sS'languagelearning'
p15
F0.053328463154
sS'Korean'
p16
F0.0090481360839699994
sS'conlangs'
p17
F0.0091400083091000006
sS'solotravel'
p18
F0.0080038572806200008
sS'vexillology'
p19
F0.00722231446123
s.