(dp1
S'awwwtf'
p2
F0.0086155674391000005
sS'pettyrevenge'
p3
F0.0070660416379399998
sS'PublicFreakout'
p4
F0.0072992700729900004
sS'ArtisanVideos'
p5
F0.0099116161616200002
sS'mycology'
p6
F0.010465663217299999
sS'KitchenConfidential'
p7
F0.018365025191000001
sS'BuyItForLife'
p8
F0.0115460656386
sS'woodworking'
p9
F0.0074398934920500001
sS'DeepIntoYouTube'
p10
F0.0071870982821099997
sS'everymanshouldknow'
p11
F0.0096390861263400008
sS'Foodforthought'
p12
F0.0076813839401000004
sS'TrueReddit'
p13
F0.0082345754428799992
sS'quityourbullshit'
p14
F0.0081763820526399994
sS'nostalgia'
p15
F0.0083173855439400007
sS'wicked_edge'
p16
F0.0117666465057
sS'holdmybeer'
p17
F0.0101843279185
sS'bourbon'
p18
F0.0136069114471
sS'texas'
p19
F0.0071422424920399999
sS'PerfectTiming'
p20
F0.0087279940490900005
sS'Frisson'
p21
F0.0082553659878899996
sS'YouShouldKnow'
p22
F0.0085931745641999995
sS'shutupandtakemymoney'
p23
F0.011530555973299999
sS'food'
p24
F0.0099026819424600006
sS'horror'
p25
F0.0080929878876800001
sS'howto'
p26
F0.011371188067599999
sS'AbandonedPorn'
p27
F0.0078320341226700008
sS'geek'
p28
F0.0095596246441499999
sS'toosoon'
p29
F0.0077934272300500002
sS'homestead'
p30
F0.010570071258900001
sS'IWantToLearn'
p31
F0.0077202769337999999
sS'techsupportgore'
p32
F0.0079836394383900004
sS'freebies'
p33
F0.00998808006905
sS'nononono'
p34
F0.0090420455116300008
sS'CrappyDesign'
p35
F0.0075870402113099996
sS'NewsOfTheWeird'
p36
F0.0083688151519600001
sS'Cyberpunk'
p37
F0.0078794321806000007
sS'minimalism'
p38
F0.00762593690082
sS'whitepeoplegifs'
p39
F0.0080491996020600007
sS'ArcherFX'
p40
F0.0070596722663099996
sS'gardening'
p41
F0.0157910719708
sS'whatisthisthing'
p42
F0.0091170373162499999
sS'EatCheapAndHealthy'
p43
F0.015073417940800001
sS'NetflixBestOf'
p44
F0.0088105726872200005
sS'tea'
p45
F0.014227479817800001
sS'TheSimpsons'
p46
F0.0071798378431199997
sS'Marijuana'
p47
F0.0072719717432000001
sS'cocktails'
p48
F0.011532313313499999
sS'interestingasfuck'
p49
F0.0073472743153700001
sS'PropagandaPosters'
p50
F0.0072083204613300001
sS'Cinemagraphs'
p51
F0.0071983875611900004
sS'cigars'
p52
F0.0084753017721100003
sS'firstworldanarchists'
p53
F0.0070344115809800002
sS'forwardsfromgrandma'
p54
F0.0078735697292400004
sS'Coffee'
p55
F0.0124592677784
sS'humor'
p56
F0.00924960917144
sS'alcohol'
p57
F0.0083487940630799992
sS'camping'
p58
F0.0107751129649
sS'entertainment'
p59
F0.0086961773053900009
sS'skeptic'
p60
F0.0090776135962500008
sS'shittyfoodporn'
p61
F0.015251276538600001
sS'wikipedia'
p62
F0.0098865199449800004
sS'ExpectationVsReality'
p63
F0.011696806464
sS'firstworldproblems'
p64
F0.0080584354382699994
sS'LearnUselessTalents'
p65
F0.0091240875912399991
sS'AskCulinary'
p66
F0.028029215306799998
sS'RoomPorn'
p67
F0.0088179825679199995
sS'foodhacks'
p68
F0.019316884713299998
sS'lifehacks'
p69
F0.0082992457380699994
sS'StandUpComedy'
p70
F0.0088089887640399999
sS'tonightsdinner'
p71
F0.0250720461095
sS'FloridaMan'
p72
F0.010025690832799999
sS'delusionalartists'
p73
F0.0083261907677199994
sS'answers'
p74
F0.0088996153556099994
sS'Frugal'
p75
F0.0089930168417299994
sS'knifeclub'
p76
F0.0107024934533
sS'whatsthisplant'
p77
F0.0078833601763199992
sS'ThriftStoreHauls'
p78
F0.0084324649902099997
sS'RedditDayOf'
p79
F0.0070921985815599999
sS'fitmeals'
p80
F0.0141145139814
sS'vegetarian'
p81
F0.0099054078172399994
sS'TalesFromThePizzaGuy'
p82
F0.0085343650432400005
sS'punk'
p83
F0.00889758875345
sS'cripplingalcoholism'
p84
F0.00985915492958
sS'wheredidthesodago'
p85
F0.0078482410474799997
sS'AnimalsBeingBros'
p86
F0.0073828230831800004
sS'IWantOut'
p87
F0.0070812306690500003
sS'whatsthisbug'
p88
F0.0075916901769700002
sS'hiking'
p89
F0.0073604579840500003
sS'drunk'
p90
F0.0100445639103
sS'misc'
p91
F0.0073639540689000001
sS'IdiotsFightingThings'
p92
F0.011503166602000001
sS'Firearms'
p93
F0.0080048201067299991
sS'ContagiousLaughter'
p94
F0.0073228778910100004
sS'Damnthatsinteresting'
p95
F0.0076325715553599996
sS'CrazyIdeas'
p96
F0.0083034111310599998
sS'eldertrees'
p97
F0.0087883320867599996
sS'TinyHouses'
p98
F0.0084178498985800002
sS'Bad_Cop_No_Donut'
p99
F0.0094802071772099993
sS'ANormalDayInRussia'
p100
F0.0083447234011899997
sS'Homebrewing'
p101
F0.0134443288241
sS'beer'
p102
F0.015704788515300001
sS'California'
p103
F0.0070274805957600004
sS'misleadingthumbnails'
p104
F0.0079001772002399995
sS'trailerparkboys'
p105
F0.0074284283448800004
sS'sousvide'
p106
F0.010166520595999999
sS'nutrition'
p107
F0.0072570194384400004
sS'Cooking'
p108
F0.023698849348500001
sS'ketorecipes'
p109
F0.0094885443184399999
sS'snackexchange'
p110
F0.0095081582345300005
sS'beerporn'
p111
F0.016218999399300001
sS'cordcutters'
p112
F0.0087215164347699999
sS'somethingimade'
p113
F0.010088891312600001
sS'Awwducational'
p114
F0.0085605352132899996
sS'smoking'
p115
F0.024652504589599999
sS'Scotch'
p116
F0.0105973928538
sS'ghettoglamourshots'
p117
F0.0077722928263800001
sS'BBQ'
p118
F0.029510395707600001
sS'EDC'
p119
F0.0089411979380500002
sS'Breadit'
p120
F0.018050541516199999
sS'showerbeer'
p121
F0.0108663144253
sS'rage'
p122
F0.0072282791412500002
sS'Pareidolia'
p123
F0.0108871250966
sS'Justrolledintotheshop'
p124
F0.0083997843298600008
sS'Perfectfit'
p125
F0.0074005550416300003
sS'offbeat'
p126
F0.0122816936801
sS'whiskey'
p127
F0.0096761708166700003
sS'knives'
p128
F0.011415525114199999
sS'recipes'
p129
F0.025953329539000002
sS'fullmoviesonyoutube'
p130
F0.0076343648208500002
sS'NewsOfTheStupid'
p131
F0.0076699285903199998
sS'FoodPorn'
p132
F0.015807410630100001
sS'awesome'
p133
F0.0071799403512600004
sS'sushi'
p134
F0.0162673765158
sS'TalesFromYourServer'
p135
F0.00846944948578
sS'CampingandHiking'
p136
F0.0091748514967899993
sS'southpark'
p137
F0.0070985915493
sS'Pizza'
p138
F0.0246231626252
sS'techsupportmacgyver'
p139
F0.0077011595998899996
sS'eatsandwiches'
p140
F0.032289522158400003
sS'backpacking'
p141
F0.00723197965509
sS'bicycling'
p142
F0.0071058241440100003
sS'Survival'
p143
F0.0107617640853
sS'badtattoos'
p144
F0.0070665571076400004
sS'scifi'
p145
F0.0085605253205900001
sS'slowcooking'
p146
F0.0228724617842
sS'spaceporn'
p147
F0.0071031500926499996
sS'nonononoyes'
p148
F0.0071962949768400002
sS'Frugal_Jerk'
p149
F0.0099290780141800001
sS'Whatcouldgowrong'
p150
F0.0090645707237300005
sS'Baking'
p151
F0.010455104551000001
sS'AnimalsBeingJerks'
p152
F0.00737017159271
sS'budgetfood'
p153
F0.019434628975299999
sS'MachinePorn'
p154
F0.0094612090429200008
sS'HumanPorn'
p155
F0.0074001675509599999
sS'preppers'
p156
F0.0070548999486899997
sS'Fishing'
p157
F0.0090537383177599993
sS'HailCorporate'
p158
F0.00718417615227
sS'cableporn'
p159
F0.00708403435757
sS'wine'
p160
F0.0086245519713300002
s.