(dp1
S'awwwtf'
p2
F0.0166826309068
sS'Heavymind'
p3
F0.0077871512005199999
sS'Justrolledintotheshop'
p4
F0.01002413217
sS'DoesAnybodyElse'
p5
F0.0074488802336900002
sS'pettyrevenge'
p6
F0.0075481272398599999
sS'photocritique'
p7
F0.0070832279281600003
sS'PublicFreakout'
p8
F0.0081271927876700005
sS'fffffffuuuuuuuuuuuu'
p9
F0.0075840734457600003
sS'mycology'
p10
F0.0172508214677
sS'dadjokes'
p11
F0.0081155433287500005
sS'futurama'
p12
F0.0071955979871100003
sS'perfectloops'
p13
F0.0087652439024400002
sS'Pets'
p14
F0.0070548999486899997
sS'carporn'
p15
F0.0073116293388699998
sS'quityourbullshit'
p16
F0.0094534711964500001
sS'LearnUselessTalents'
p17
F0.0078449955246700006
sS'ProtectAndServe'
p18
F0.0074357120727000002
sS'environment'
p19
F0.0080141930747599996
sS'reptiles'
p20
F0.013997701869800001
sS'woahdude'
p21
F0.0082206356833899995
sS'ImaginaryMonsters'
p22
F0.0098609763983200007
sS'nononono'
p23
F0.011663240682800001
sS'Frisson'
p24
F0.0074351618757699999
sS'YouShouldKnow'
p25
F0.0075713156754299996
sS'childfree'
p26
F0.00817473092826
sS'geology'
p27
F0.0079559363525100006
sS'horror'
p28
F0.0082139446036299992
sS'JusticePorn'
p29
F0.0081044143774799994
sS'geek'
p30
F0.0082524741304299994
sS'NoStupidQuestions'
p31
F0.0087797619047600001
sS'cringepics'
p32
F0.0071537290715399998
sS'toosoon'
p33
F0.0072024260803600004
sS'beards'
p34
F0.0074531846837099999
sS'photoshopbattles'
p35
F0.0078947715261000004
sS'AbandonedPorn'
p36
F0.010386807405699999
sS'creepyPMs'
p37
F0.0084601300587200008
sS'ConfusedBoners'
p38
F0.0070611151692199997
sS'techsupportgore'
p39
F0.010035122930300001
sS'CrappyDesign'
p40
F0.0095676172953099992
sS'thatHappened'
p41
F0.0082533164241
sS'SubredditDrama'
p42
F0.0071567745803400003
sS'zombies'
p43
F0.0074114526447200003
sS'DeepIntoYouTube'
p44
F0.0079971475142600005
sS'Whatisthis'
p45
F0.0109268739971
sS'gardening'
p46
F0.0123192078282
sS'snakes'
p47
F0.0237612820041
sS'tea'
p48
F0.0073364177131499996
sS'blackpeoplegifs'
p49
F0.0071662144298300003
sS'tumblr'
p50
F0.0081406571272699992
sS'POLITIC'
p51
F0.0073754272351100004
sS'interestingasfuck'
p52
F0.0103055445805
sS'Cinemagraphs'
p53
F0.0073353409003200001
sS'firstworldanarchists'
p54
F0.0099388379204899992
sS'PerfectTiming'
p55
F0.0109070034443
sS'humor'
p56
F0.0070874490764
sS'space'
p57
F0.0075149357207699996
sS'skeptic'
p58
F0.0083128491620099998
sS'shittyfoodporn'
p59
F0.0103893701637
sS'ExpectationVsReality'
p60
F0.0098417599382500005
sS'firstworldproblems'
p61
F0.0071509695873500003
sS'outside'
p62
F0.0090320306648499996
sS'lifehacks'
p63
F0.0084341112945699997
sS'Astronomy'
p64
F0.0096669646848499997
sS'guns'
p65
F0.0075690419365799996
sS'biology'
p66
F0.011387749328099999
sS'facepalm'
p67
F0.0093471314797999999
sS'Cyberpunk'
p68
F0.0072839106507000002
sS'FloridaMan'
p69
F0.0084800691368699995
sS'delusionalartists'
p70
F0.0086430881807099992
sS'whitepeoplegifs'
p71
F0.0078728570377499998
sS'NotTimAndEric'
p72
F0.00722619994696
sS'shittyaskscience'
p73
F0.0080759493670899997
sS'GamePhysics'
p74
F0.00757618589925
sS'whatsthisplant'
p75
F0.0185485577262
sS'Unexpected'
p76
F0.0098404127861500008
sS'ThriftStoreHauls'
p77
F0.0075824592442799996
sS'Roadcam'
p78
F0.0070411871593000002
sS'creepy'
p79
F0.0079733214930099994
sS'watchpeopledie'
p80
F0.0101508357114
sS'wheredidthesodago'
p81
F0.0098081483078199996
sS'AnimalsBeingBros'
p82
F0.0117285025838
sS'classic4chan'
p83
F0.0070932576719200001
sS'ANormalDayInRussia'
p84
F0.0090742996345899996
sS'whatsthisbug'
p85
F0.0477246978852
sS'QuotesPorn'
p86
F0.0071225071225099997
sS'drunk'
p87
F0.0074808122024699998
sS'reactiongifs'
p88
F0.0077205334525400002
sS'findareddit'
p89
F0.00726360274696
sS'IdiotsFightingThings'
p90
F0.0116705568523
sS'conspiratard'
p91
F0.0085993820803300005
sS'weather'
p92
F0.0083325066957599999
sS'marijuanaenthusiasts'
p93
F0.010945666107899999
sS'TrollXChromosomes'
p94
F0.0085973073825099996
sS'holdmybeer'
p95
F0.0110793832096
sS'RATS'
p96
F0.0086472517642399993
sS'ContagiousLaughter'
p97
F0.0079860376560200001
sS'nostalgia'
p98
F0.0094031208924500002
sS'whatisthisthing'
p99
F0.0147561875377
sS'Damnthatsinteresting'
p100
F0.0104004160166
sS'HistoryPorn'
p101
F0.00867355510753
sS'FiftyFifty'
p102
F0.0092134318129899993
sS'CrazyIdeas'
p103
F0.0079741507084799997
sS'Bad_Cop_No_Donut'
p104
F0.0086463676981600006
sS'OutOfTheLoop'
p105
F0.0082773564463699996
sS'onetruegod'
p106
F0.0073174529036300002
sS'MorbidReality'
p107
F0.0108267027557
sS'gif'
p108
F0.0090700469893999994
sS'cats'
p109
F0.0105491545713
sS'PenmanshipPorn'
p110
F0.0083480900581799997
sS'shittyreactiongifs'
p111
F0.0073895457374000004
sS'misleadingthumbnails'
p112
F0.0108553247239
sS'Pareidolia'
p113
F0.0118841445208
sS'dogs'
p114
F0.0078166102968799996
sS'happy'
p115
F0.0080185553346599995
sS'fatlogic'
p116
F0.0070785586451899999
sS'TrollYChromosome'
p117
F0.0085488126649099997
sS'explainlikeIAmA'
p118
F0.0076181157394500003
sS'mildlyinfuriating'
p119
F0.010901260598400001
sS'somethingimade'
p120
F0.0088080421254199993
sS'parrots'
p121
F0.0081017331555699994
sS'Awwducational'
p122
F0.014322438486999999
sS'Shitty_Car_Mods'
p123
F0.0095643629217200005
sS'ghettoglamourshots'
p124
F0.0074645434187600003
sS'blunderyears'
p125
F0.00845792396412
sS'EDC'
p126
F0.0074736584170499998
sS'whatsthisbird'
p127
F0.010622329985
sS'rage'
p128
F0.0097353969046400004
sS'comics'
p129
F0.00801094663515
sS'popping'
p130
F0.0128031202306
sS'Perfectfit'
p131
F0.0083264571299999993
sS'offbeat'
p132
F0.0084377174669500003
sS'behindthegifs'
p133
F0.0091590341382199996
sS'knives'
p134
F0.0076809055383400002
sS'NewsOfTheStupid'
p135
F0.00762753838534
sS'FoodPorn'
p136
F0.0073667321989499997
sS'Aquariums'
p137
F0.0121620903925
sS'astrophotography'
p138
F0.0071385568074300004
sS'MURICA'
p139
F0.0076977841060799999
sS'HighQualityGifs'
p140
F0.0086298459904399997
sS'self'
p141
F0.0071914480077700004
sS'badtattoos'
p142
F0.0087880645820600008
sS'Gore'
p143
F0.0117256204808
sS'spaceporn'
p144
F0.0096915827800400003
sS'itookapicture'
p145
F0.0105566578071
sS'nonononoyes'
p146
F0.0109544112824
sS'Frugal_Jerk'
p147
F0.0070798176704499997
sS'Whatcouldgowrong'
p148
F0.011555579387600001
sS'wallpapers'
p149
F0.0073832001936599998
sS'notinteresting'
p150
F0.0091591221333699995
sS'forwardsfromgrandma'
p151
F0.0078268192401100001
sS'AnimalsBeingJerks'
p152
F0.013253304652500001
sS'Images'
p153
F0.00767660269498
sS'dogpictures'
p154
F0.00738853503185
sS'oddlysatisfying'
p155
F0.0102793334957
sS'MachinePorn'
p156
F0.0077039154951899997
sS'HumanPorn'
p157
F0.00909144928397
sS'terriblefacebookmemes'
p158
F0.0074027405890699999
sS'Fishing'
p159
F0.0088536101358599999
sS'ImGoingToHellForThis'
p160
F0.0076351517469300002
s.