(dp1
S'asoiaf'
p2
F0.0138885858299
sS'everymanshouldknow'
p3
F0.0091144349864099999
sS'wiiu'
p4
F0.016808113639100002
sS'relationships'
p5
F0.0084364641250999992
sS'JoeRogan'
p6
F0.0081350196325099995
sS'Showerthoughts'
p7
F0.0133337441554
sS'HistoryPorn'
p8
F0.0135759786229
sS'holdmybeer'
p9
F0.0100205239647
sS'YouShouldKnow'
p10
F0.0107818616022
sS'horror'
p11
F0.0157959152452
sS'UpliftingNews'
p12
F0.0096239430351599993
sS'PandR'
p13
F0.0096208262592000007
sS'Jokes'
p14
F0.0108244207452
sS'Steam'
p15
F0.012829497565899999
sS'photoshopbattles'
p16
F0.0112895857999
sS'Celebs'
p17
F0.020344439079299999
sS'CrappyDesign'
p18
F0.010591730413200001
sS'Patriots'
p19
F0.010381390098400001
sS'techsupport'
p20
F0.0102276541552
sS'Libertarian'
p21
F0.0082274115676399997
sS'pcgaming'
p22
F0.0101381756578
sS'gentlemanboners'
p23
F0.016043008917500001
sS'DCcomics'
p24
F0.016395698586500002
sS'fatpeoplestories'
p25
F0.0092116337791100008
sS'Naruto'
p26
F0.0086020103940999994
sS'nba'
p27
F0.033772953306800003
sS'depression'
p28
F0.0077941851753399998
sS'forwardsfromgrandma'
p29
F0.00853432996841
sS'chicago'
p30
F0.0085461458228199994
sS'boardgames'
p31
F0.0087239248004099997
sS'worldnews'
p32
F0.013870800091900001
sS'disney'
p33
F0.0078950025239799999
sS'tattoos'
p34
F0.011549021780599999
sS'titanfall'
p35
F0.0096938121877299995
sS'baseball'
p36
F0.029704724658599999
sS'doctorwho'
p37
F0.014616741607299999
sS'TopGear'
p38
F0.0092912552891400001
sS'survivor'
p39
F0.0071724325180400001
sS'personalfinance'
p40
F0.0074757904944100003
sS'creepy'
p41
F0.013325637972200001
sS'pics'
p42
F0.0129038003773
sS'QuotesPorn'
p43
F0.0087990614334500002
sS'apple'
p44
F0.011287015704600001
sS'TrueReddit'
p45
F0.0088349566235600002
sS'todayilearned'
p46
F0.0154740449218
sS'PlayStationPlus'
p47
F0.0096258075705699993
sS'confession'
p48
F0.0075011647771400002
sS'IdiotsFightingThings'
p49
F0.0091245276951500004
sS'FinalFantasy'
p50
F0.0087026877688800002
sS'Browns'
p51
F0.0079417750641499994
sS'HIMYM'
p52
F0.0169983347897
sS'FiftyFifty'
p53
F0.0136150499972
sS'AskHistorians'
p54
F0.0070223722850400001
sS'OutOfTheLoop'
p55
F0.0140215875639
sS'sports'
p56
F0.0198108043622
sS'iphone'
p57
F0.012134299964000001
sS'trailerparkboys'
p58
F0.0078678886391099993
sS'eagles'
p59
F0.0089340924113500003
sS'battlefield_4'
p60
F0.0082396072826699997
sS'hockey'
p61
F0.025354634079900001
sS'tipofmytongue'
p62
F0.0129550973809
sS'cordcutters'
p63
F0.010762049420200001
sS'LifeProTips'
p64
F0.0130945811721
sS'Shitty_Car_Mods'
p65
F0.0078442066763999996
sS'AskMen'
p66
F0.0111519253787
sS'techsupportgore'
p67
F0.0078365706630900006
sS'science'
p68
F0.0106488336763
sS'firstworldproblems'
p69
F0.0081990845857200009
sS'movies'
p70
F0.022573124692499998
sS'standupshots'
p71
F0.0155517073253
sS'MMA'
p72
F0.0402875894801
sS'history'
p73
F0.0075731591872600004
sS'tappedout'
p74
F0.0085130986084000007
sS'gamernews'
p75
F0.00952964139462
sS'gadgets'
p76
F0.00731616274729
sS'TwoBestFriendsPlay'
p77
F0.0091623645411799993
sS'polandball'
p78
F0.0079880563935199999
sS'MURICA'
p79
F0.0166504458532
sS'NBA2k'
p80
F0.0126568746927
sS'RealGirls'
p81
F0.012799873320799999
sS'scifi'
p82
F0.0089057318806299995
sS'reddevils'
p83
F0.0101504406171
sS'wheredidthesodago'
p84
F0.0108121742055
sS'gaming'
p85
F0.0195780852089
sS'dragonage'
p86
F0.0073909590417699997
sS'CFB'
p87
F0.022717665803200001
sS'FanTheories'
p88
F0.0139322394462
sS'listentothis'
p89
F0.0073708531103199998
sS'ImGoingToHellForThis'
p90
F0.018192493911800001
sS'EarthPorn'
p91
F0.0086052882324900003
sS'shield'
p92
F0.0089815991831099992
sS'DoesAnybodyElse'
p93
F0.010408062118
sS'pettyrevenge'
p94
F0.0091460037659999993
sS'electronic_cigarette'
p95
F0.0078977956743699999
sS'nsfw'
p96
F0.012648082751
sS'dataisbeautiful'
p97
F0.0094447540550799992
sS'vita'
p98
F0.011410861449599999
sS'fantasybaseball'
p99
F0.00720208060106
sS'nostalgia'
p100
F0.019616878414900001
sS'Documentaries'
p101
F0.0090285123865299997
sS'writing'
p102
F0.0075742383339800004
sS'WTF'
p103
F0.0148150637149
sS'soccer'
p104
F0.026824641602100002
sS'MensRights'
p105
F0.0103844556238
sS'LosAngeles'
p106
F0.0080259957028999997
sS'childfree'
p107
F0.0077216426612900001
sS'food'
p108
F0.013198896579899999
sS'NoStupidQuestions'
p109
F0.0082001070909499992
sS'nyc'
p110
F0.00930017469941
sS'halo'
p111
F0.0107657358938
sS'LiverpoolFC'
p112
F0.0090830619531499998
sS'creepyPMs'
p113
F0.010859084801999999
sS'WatchItForThePlot'
p114
F0.0153454212527
sS'nfl'
p115
F0.0350537449901
sS'freebies'
p116
F0.0097680931725799992
sS'AdviceAnimals'
p117
F0.0142839398832
sS'SubredditDrama'
p118
F0.020671926880599999
sS'arrow'
p119
F0.0133418411741
sS'wallpapers'
p120
F0.0076696347278600004
sS'mildlyinteresting'
p121
F0.0137980526153
sS'Madden'
p122
F0.011177017396300001
sS'Rateme'
p123
F0.0071252790018900003
sS'opieandanthony'
p124
F0.012302402429200001
sS'books'
p125
F0.011501916230100001
sS'TwoXChromosomes'
p126
F0.0073548887834899998
sS'canada'
p127
F0.012017135314199999
sS'DunderMifflin'
p128
F0.0093687667479299998
sS'entertainment'
p129
F0.010626552580699999
sS'shittyfoodporn'
p130
F0.012060992376
sS'malefashionadvice'
p131
F0.0105979296329
sS'TheLastAirbender'
p132
F0.0088080011415399995
sS'DarkSouls2'
p133
F0.0071251585673800001
sS'bestof'
p134
F0.016515883898499999
sS'Metal'
p135
F0.0139080913819
sS'vinyl'
p136
F0.00861829784282
sS'GamePhysics'
p137
F0.0082763365575300001
sS'youtubehaiku'
p138
F0.0085522499378500004
sS'49ers'
p139
F0.0083174422850700001
sS'dogecoin'
p140
F0.0095288049654699992
sS'nhl'
p141
F0.00933940774487
sS'CHIBears'
p142
F0.0095926328579700008
sS'patientgamers'
p143
F0.0088033479113300006
sS'conspiratard'
p144
F0.0094502054392500007
sS'GreenBayPackers'
p145
F0.0098213737646599998
sS'gtaonline'
p146
F0.0070071333880399999
sS'pokemon'
p147
F0.017308058073899998
sS'gonewildcurvy'
p148
F0.0084681088379499996
sS'OldSchoolCool'
p149
F0.0133261227521
sS'lego'
p150
F0.0090355260455900008
sS'explainlikeimfive'
p151
F0.011840759449700001
sS'GTA'
p152
F0.0071542482501999998
sS'TrollYChromosome'
p153
F0.0077079267451299997
sS'GODZILLA'
p154
F0.0076473542437100004
sS'3DS'
p155
F0.0132743970239
sS'mildlyinfuriating'
p156
F0.0162629828392
sS'madmen'
p157
F0.0070986451975899997
sS'nsfw_gifs'
p158
F0.0070104797684700003
sS'skyrim'
p159
F0.0132519467792
sS'sex'
p160
F0.010466310981300001
sS'toronto'
p161
F0.0072172286504100002
sS'television'
p162
F0.0241006382474
sS'thatHappened'
p163
F0.016984217437600001
sS'nononono'
p164
F0.0086197349477599994
sS'gallifrey'
p165
F0.0080732079308600008
sS'formula1'
p166
F0.010492512161799999
sS'FoodPorn'
p167
F0.011583980556900001
sS'teenagers'
p168
F0.010734444481400001
sS'conspiracy'
p169
F0.0161900421556
sS'self'
p170
F0.0092231287690699992
sS'IAmA'
p171
F0.016681078220099999
sS'fantasyfootball'
p172
F0.022407176391000001
sS'britishproblems'
p173
F0.012809222640300001
sS'nonononoyes'
p174
F0.011120230451099999
sS'aww'
p175
F0.0130144356256
sS'Futurology'
p176
F0.0084848034756100001
sS'MLS'
p177
F0.012224413677300001
sS'Games'
p178
F0.021943096393599999
sS'progresspics'
p179
F0.0104089323489
sS'hearthstone'
p180
F0.0094654707212099998
sS'Minecraft'
p181
F0.0096053670086799995
sS'TumblrInAction'
p182
F0.018034010632899999
sS'secretsanta'
p183
F0.0075025062251400003
sS'RandomActsOfGaming'
p184
F0.0093161479898499992
sS'adventuretime'
p185
F0.0084204741971500002
sS'fffffffuuuuuuuuuuuu'
p186
F0.011400150884300001
sS'dbz'
p187
F0.013884622473400001
sS'bodybuilding'
p188
F0.0078694446236199991
sS'harrypotter'
p189
F0.010606778857500001
sS'whowouldwin'
p190
F0.0144388124547
sS'GrandTheftAutoV'
p191
F0.022136760153799999
sS'arresteddevelopment'
p192
F0.0070285628832100003
sS'shutupandtakemymoney'
p193
F0.0071393085174900001
sS'JusticePorn'
p194
F0.018910274935900001
sS'trees'
p195
F0.012454638955199999
sS'smashbros'
p196
F0.0144160851105
sS'geek'
p197
F0.010716795502499999
sS'Fitness'
p198
F0.01203282717
sS'beards'
p199
F0.011028488955799999
sS'AbandonedPorn'
p200
F0.0088894677716099997
sS'masseffect'
p201
F0.0097222222222200002
sS'worldpolitics'
p202
F0.0070516587424499996
sS'GTAV'
p203
F0.010323791647099999
sS'cringe'
p204
F0.0221546849074
sS'FIFA'
p205
F0.0143549797313
sS'StarWars'
p206
F0.019593655606500001
sS'TheSimpsons'
p207
F0.0201896943813
sS'Christianity'
p208
F0.0080917358173499994
sS'Justrolledintotheshop'
p209
F0.0083582690758400007
sS'changemyview'
p210
F0.0087776915268399994
sS'roosterteeth'
p211
F0.016116023850000001
sS'PS3'
p212
F0.0140411973918
sS'Android'
p213
F0.013706535853400001
sS'PS4'
p214
F0.025248376581300001
sS'firstworldanarchists'
p215
F0.0131530563177
sS'PerfectTiming'
p216
F0.0089316891184100002
sS'cosplay'
p217
F0.0087766051949000005
sS'truegaming'
p218
F0.012354838221300001
sS'wow'
p219
F0.012293769875999999
sS'breakingbad'
p220
F0.017935539939199999
sS'pcmasterrace'
p221
F0.0135525360959
sS'magicTCG'
p222
F0.011936277924900001
sS'CollegeBasketball'
p223
F0.015653574484499999
sS'StandUpComedy'
p224
F0.0084809234293799999
sS'casualiama'
p225
F0.0126921338156
sS'facepalm'
p226
F0.019416750282899999
sS'celebnsfw'
p227
F0.0095676369862999992
sS'NASCAR'
p228
F0.0131649708521
sS'news'
p229
F0.0159880854249
sS'Unexpected'
p230
F0.017731557683700001
sS'WWE'
p231
F0.084491927598800004
sS'watchpeopledie'
p232
F0.0078090336320900001
sS'GetMotivated'
p233
F0.011991164405200001
sS'buildapc'
p234
F0.0088912361365700004
sS'drunk'
p235
F0.0098236856420599993
sS'reactiongifs'
p236
F0.023624749041800001
sS'community'
p237
F0.0195143656242
sS'Music'
p238
F0.017865043828299999
sS'startrek'
p239
F0.0099782773784499994
sS'rpg'
p240
F0.00764086184687
sS'Gunners'
p241
F0.0090319720729200009
sS'Guitar'
p242
F0.0080115148552500001
sS'beer'
p243
F0.0094102216053799995
sS'EA_NHL'
p244
F0.0075960472848199999
sS'woahdude'
p245
F0.014639310995399999
sS'fatlogic'
p246
F0.011829939181000001
sS'hiphopheads'
p247
F0.022638969895499999
sS'marvelstudios'
p248
F0.0106638630219
sS'oddlysatisfying'
p249
F0.0130552119645
sS'WritingPrompts'
p250
F0.0077088907281599997
sS'MapPorn'
p251
F0.011578712981500001
sS'offbeat'
p252
F0.011235104401700001
sS'Cooking'
p253
F0.0073878698981300001
sS'IASIP'
p254
F0.010959512372299999
sS'gamecollecting'
p255
F0.0117281392458
sS'DIY'
p256
F0.0089064042355900003
sS'assassinscreed'
p257
F0.0085704927578399998
sS'technology'
p258
F0.0148238588058
sS'southpark'
p259
F0.019536181806099999
sS'funny'
p260
F0.012875228005200001
sS'Whatcouldgowrong'
p261
F0.013884850247200001
sS'talesfromtechsupport'
p262
F0.0088084519503500002
sS'notinteresting'
p263
F0.0087145969498899998
sS'AnimalsBeingJerks'
p264
F0.012103374725099999
sS'Sonsofanarchy'
p265
F0.0145637136428
sS'PublicFreakout'
p266
F0.0093730395955600003
sS'Boxing'
p267
F0.0117509332273
sS'rickandmorty'
p268
F0.0077263290910700002
sS'dadjokes'
p269
F0.0078561567286799996
sS'futurama'
p270
F0.0099058565541199992
sS'whitepeoplegifs'
p271
F0.0085398415605600006
sS'InternetIsBeautiful'
p272
F0.0100953449243
sS'TalesFromRetail'
p273
F0.0128701005094
sS'minnesotavikings'
p274
F0.00704837954186
sS'quityourbullshit'
p275
F0.014549246892700001
sS'Diablo'
p276
F0.0082349209447599991
sS'Fallout'
p277
F0.012867084480999999
sS'offmychest'
p278
F0.0109785774861
sS'australia'
p279
F0.0098043450092900001
sS'gifs'
p280
F0.015739454061699999
sS'NSFW_GIF'
p281
F0.0117155051416
sS'footballmanagergames'
p282
F0.0104922967948
sS'cringepics'
p283
F0.0234645004278
sS'thewalkingdead'
p284
F0.025095471904000001
sS'Kappa'
p285
F0.0079633685048800008
sS'DenverBroncos'
p286
F0.0071204233532699999
sS'4chan'
p287
F0.017461245255999999
sS'ArcherFX'
p288
F0.0113092567669
sS'unitedkingdom'
p289
F0.0118495846087
sS'NetflixBestOf'
p290
F0.0160092569537
sS'xboxone'
p291
F0.021655090723099998
sS'tumblr'
p292
F0.0095857583019499995
sS'interestingasfuck'
p293
F0.0140306676513
sS'cowboys'
p294
F0.00736914753879
sS'gameofthrones'
p295
F0.0198195098524
sS'AMA'
p296
F0.0084683633316899997
sS'lifehacks'
p297
F0.0130299570917
sS'metalgearsolid'
p298
F0.0090155894567699995
sS'blackpeoplegifs'
p299
F0.0092276961156800008
sS'OkCupid'
p300
F0.0090926260691299998
sS'Frugal'
p301
F0.0110067508072
sS'promos'
p302
F0.012325414533
sS'shittyaskscience'
p303
F0.0086930876611499997
sS'lewronggeneration'
p304
F0.0131546156859
sS'netflix'
p305
F0.0115893408562
sS'anime'
p306
F0.0102280495714
sS'AnimalsBeingBros'
p307
F0.0073978967962800004
sS'GameDeals'
p308
F0.015443040879300001
sS'battlestations'
p309
F0.0074878370160100004
sS'Sneakers'
p310
F0.0087570775756899994
sS'TrollXChromosomes'
p311
F0.0129106453153
sS'tifu'
p312
F0.012826244256300001
sS'whatisthisthing'
p313
F0.0084304067964499994
sS'Damnthatsinteresting'
p314
F0.0089504378314600001
sS'DnD'
p315
F0.00817215596614
sS'loseit'
p316
F0.0102201830408
sS'CrazyIdeas'
p317
F0.011074349783999999
sS'Bad_Cop_No_Donut'
p318
F0.0087480768542700007
sS'MorbidReality'
p319
F0.013399523751900001
sS'gif'
p320
F0.0079277912015500007
sS'cats'
p321
F0.0108565385971
sS'howardstern'
p322
F0.0081416507255200003
sS'tf2'
p323
F0.0078386167147000002
sS'batman'
p324
F0.021646259418699999
sS'gamegrumps'
p325
F0.012701347997499999
sS'xbox360'
p326
F0.0115646951033
sS'blunderyears'
p327
F0.0105756650676
sS'Marvel'
p328
F0.0244762736728
sS'gonewild'
p329
F0.0106389073493
sS'rage'
p330
F0.016570547745000001
sS'comics'
p331
F0.012806189425500001
sS'behindthegifs'
p332
F0.0098883572567800004
sS'civ'
p333
F0.0085698171864
sS'fullmoviesonyoutube'
p334
F0.0117073352318
sS'videos'
p335
F0.0146990803817
sS'keto'
p336
F0.00839934827799
sS'politics'
p337
F0.016463851109500001
sS'bestofworldstar'
p338
F0.0074240521666300002
sS'DestinyTheGame'
p339
F0.0133818262584
sS'zelda'
p340
F0.0092800708350400003
sS'Seahawks'
p341
F0.0104133737471
sS'nottheonion'
p342
F0.014788264967499999
sS'nintendo'
p343
F0.0135817805383
sS'comicbooks'
p344
F0.031523825109000002
sS'cosplaygirls'
p345
F0.0093710652878399997
sS'space'
p346
F0.0076967438559099998
sS'atheism'
p347
F0.014555817394600001
s.