(dp1
S'gamernews'
p2
F0.00793995409714
sS'badhistory'
p3
F0.027118644067799999
sS'circlebroke'
p4
F0.036698212408000003
sS'PanicHistory'
p5
F0.0119263676432
sS'patientgamers'
p6
F0.00746357066698
sS'PurplePillDebate'
p7
F0.010651896037500001
sS'blackladies'
p8
F0.015114578254499999
sS'FeMRADebates'
p9
F0.012641898864799999
sS'OneY'
p10
F0.0095732597760799995
sS'ShitRedditSays'
p11
F0.081941661099999993
sS'ainbow'
p12
F0.013006885998500001
sS'Feminism'
p13
F0.0145109799748
sS'SRSsucks'
p14
F0.019089824441800001
sS'forwardsfromgrandma'
p15
F0.0076957323665999998
sS'truegaming'
p16
F0.0110578204103
sS'ShitRConservativeSays'
p17
F0.0093367675466799992
sS'badlinguistics'
p18
F0.023490721165099999
sS'AskSocialScience'
p19
F0.0083845723868100006
sS'againstmensrights'
p20
F0.071895424836599997
sS'ShitAmericansSay'
p21
F0.011650485436899999
sS'Anarchy101'
p22
F0.011111111111100001
sS'asktransgender'
p23
F0.0072110882187700004
sS'AskFeminists'
p24
F0.0153603781016
sS'Anarchism'
p25
F0.0109623695583
sS'badphilosophy'
p26
F0.023482959268500001
sS'circlebroke2'
p27
F0.0342825546033
sS'roguelikes'
p28
F0.010594021944800001
sS'lgbt'
p29
F0.0094689936873399994
sS'EnoughLibertarianSpam'
p30
F0.026776151374499998
sS'Gaming4Gamers'
p31
F0.012963701635399999
sS'IndieGaming'
p32
F0.0076451496574100001
sS'magicskyfairy'
p33
F0.0075099741844600002
sS'TheoryOfReddit'
p34
F0.010395963919899999
sS'lewronggeneration'
p35
F0.0090972016216800001
sS'GunsAreCool'
p36
F0.0147163541419
sS'creepyPMs'
p37
F0.0079697370353999999
sS'GirlGamers'
p38
F0.038701839639000001
sS'TheBluePill'
p39
F0.0364766839378
sS'conspiratard'
p40
F0.012007781579099999
sS'PropagandaPosters'
p41
F0.0075903769458400003
sS'socialism'
p42
F0.0109230906975
sS'SubredditDrama'
p43
F0.011167450167299999
s.