(dp1
S'awwwtf'
p2
F0.0099822099229100007
sS'lostgeneration'
p3
F0.015340668641600001
sS'pettyrevenge'
p4
F0.0098739858449899999
sS'circlebroke'
p5
F0.035320860290300002
sS'PublicFreakout'
p6
F0.0175969344023
sS'PanicHistory'
p7
F0.016931582584700001
sS'ShitPoliticsSays'
p8
F0.019825072886300001
sS'inthenews'
p9
F0.0084042553191499992
sS'Conservative'
p10
F0.017388651616800001
sS'PurplePillDebate'
p11
F0.0284360189573
sS'thatHappened'
p12
F0.016800974712999999
sS'PoliticalDiscussion'
p13
F0.0138726064869
sS'teslore'
p14
F0.0075884244372999999
sS'perfectloops'
p15
F0.0082233119577499996
sS'everymanshouldknow'
p16
F0.010815583268999999
sS'dataisbeautiful'
p17
F0.0085709673158499994
sS'Foodforthought'
p18
F0.0123592597386
sS'help'
p19
F0.0072960906021999998
sS'TalesFromRetail'
p20
F0.0084784369305500006
sS'AskMen'
p21
F0.0094667630555300003
sS'syriancivilwar'
p22
F0.0081818181818200005
sS'ShitRConservativeSays'
p23
F0.013465346534700001
sS'badlinguistics'
p24
F0.012779552715700001
sS'quityourbullshit'
p25
F0.0226635899126
sS'LearnUselessTalents'
p26
F0.00782055168233
sS'ProtectAndServe'
p27
F0.0119104335398
sS'HistoryPorn'
p28
F0.0092249695088100006
sS'Piracy'
p29
F0.0090137857900299996
sS'swoleacceptance'
p30
F0.0076605774896900004
sS'whowouldwin'
p31
F0.0095776729380999993
sS'ProgrammerHumor'
p32
F0.0076833403984700004
sS'collapse'
p33
F0.0093304753498900002
sS'ImaginaryMonsters'
p34
F0.00828785122296
sS'dwarffortress'
p35
F0.0079797151167099994
sS'Gore'
p36
F0.00790024010534
sS'MensRights'
p37
F0.042326094957699997
sS'nononono'
p38
F0.0123773584906
sS'MilitaryPorn'
p39
F0.0079723502304099997
sS'Frisson'
p40
F0.0089285714285700004
sS'YouShouldKnow'
p41
F0.0088601728415299997
sS'childfree'
p42
F0.011307784842799999
sS'AskScienceFiction'
p43
F0.0107334525939
sS'misc'
p44
F0.0099688473520199994
sS'whitepeoplegifs'
p45
F0.0094808126410799998
sS'JusticePorn'
p46
F0.0125637782294
sS'UpliftingNews'
p47
F0.0073023600380999996
sS'RedPillWomen'
p48
F0.0139576767222
sS'geek'
p49
F0.0076028309158399998
sS'DebateAnAtheist'
p50
F0.0085401038661299996
sS'WhiteRights'
p51
F0.018194791294999998
sS'anonymous'
p52
F0.0089300479576599999
sS'cringepics'
p53
F0.0087413058715699998
sS'toosoon'
p54
F0.0151800867434
sS'magicskyfairy'
p55
F0.017839766461199998
sS'Braveryjerk'
p56
F0.016922471467900001
sS'GunsAreCool'
p57
F0.0136054421769
sS'AbandonedPorn'
p58
F0.0078962832378399999
sS'Liberal'
p59
F0.0124862788145
sS'creepyPMs'
p60
F0.0101606480846
sS'progressive'
p61
F0.0107690506848
sS'IdiotsFightingThings'
p62
F0.011869436201799999
sS'WatchItForThePlot'
p63
F0.0098597587114900003
sS'progun'
p64
F0.015142410767900001
sS'FeMRADebates'
p65
F0.047703493527199999
sS'PropagandaPosters'
p66
F0.0166770250673
sS'vexillology'
p67
F0.0110192837466
sS'shittyadviceanimals'
p68
F0.0089960417416300002
sS'montageparodies'
p69
F0.0085667113173999998
sS'Cyberpunk'
p70
F0.0093113360829900002
sS'Libertarian'
p71
F0.017648172694599999
sS'DeepIntoYouTube'
p72
F0.012605534709200001
sS'ArcherFX'
p73
F0.0080325420936100001
sS'cringe'
p74
F0.011865361594299999
sS'Firearms'
p75
F0.0087606287039399995
sS'pcgaming'
p76
F0.0091747549374699994
sS'badhistory'
p77
F0.025103133502999999
sS'circlebroke2'
p78
F0.021048876204099998
sS'Christianity'
p79
F0.0071360608943900001
sS'tumblr'
p80
F0.0080618701663899995
sS'POLITIC'
p81
F0.0098871699430000005
sS'interestingasfuck'
p82
F0.0081022285410799998
sS'MarkMyWords'
p83
F0.013641133263399999
sS'changemyview'
p84
F0.016546923656199999
sS'fatpeoplestories'
p85
F0.017950963222400002
sS'OneY'
p86
F0.034547976295500001
sS'KarmaCourt'
p87
F0.015051877831399999
sS'opieandanthony'
p88
F0.0074522589660000003
sS'Feminism'
p89
F0.0177930133856
sS'firstworldanarchists'
p90
F0.0098778198046200003
sS'forwardsfromgrandma'
p91
F0.020493445532099999
sS'no_sob_story'
p92
F0.017949987620699999
sS'humor'
p93
F0.010082612372299999
sS'psychology'
p94
F0.010459778764399999
sS'findareddit'
p95
F0.0080734525882500009
sS'skeptic'
p96
F0.018600396401900001
sS'bestofworldstar'
p97
F0.012925969447699999
sS'wikipedia'
p98
F0.011852615305299999
sS'ExpectationVsReality'
p99
F0.0087242672380799993
sS'DebateReligion'
p100
F0.0095335376234300002
sS'firstworldproblems'
p101
F0.0070978659396400004
sS'outside'
p102
F0.0116631098318
sS'facepalm'
p103
F0.010473112934
sS'Republican'
p104
F0.0073391630231100001
sS'SCP'
p105
F0.0118492373629
sS'AskFeminists'
p106
F0.0162277580071
sS'europe'
p107
F0.0107135269659
sS'blackpeoplegifs'
p108
F0.010051524621999999
sS'bestof'
p109
F0.012061482634599999
sS'needamod'
p110
F0.0100747481313
sS'casualiama'
p111
F0.0088837601201599992
sS'FloridaMan'
p112
F0.015911949685499999
sS'delusionalartists'
p113
F0.019205829679499999
sS'answers'
p114
F0.0072099136312399996
sS'BasicIncome'
p115
F0.012397562513100001
sS'Cynicalbrit'
p116
F0.0090518742021600002
sS'JonTron'
p117
F0.0081092178197500007
sS'NotTimAndEric'
p118
F0.0113300885662
sS'conservatives'
p119
F0.00819508295023
sS'shittyaskscience'
p120
F0.0094446849967500003
sS'ainbow'
p121
F0.0164423163791
sS'lewronggeneration'
p122
F0.023446069469800001
sS'youtubehaiku'
p123
F0.0074235640760699998
sS'PoliticalHumor'
p124
F0.011704779451600001
sS'TheoryOfReddit'
p125
F0.023710234719400002
sS'RedditDayOf'
p126
F0.00884760008848
sS'WarshipPorn'
p127
F0.0071146245059300001
sS'Anarcho_Capitalism'
p128
F0.0194658216388
sS'TheBluePill'
p129
F0.030347317744199999
sS'Roadcam'
p130
F0.0080396372814799996
sS'cripplingalcoholism'
p131
F0.0079732787415099995
sS'4chan'
p132
F0.013103714994200001
sS'watchpeopledie'
p133
F0.0131992171499
sS'wheredidthesodago'
p134
F0.011382949290500001
sS'AnimalsBeingBros'
p135
F0.0094805986320899999
sS'ukpolitics'
p136
F0.0098476559212199999
sS'classic4chan'
p137
F0.0179085088615
sS'GunPorn'
p138
F0.0071308309398799997
sS'OutOfTheLoop'
p139
F0.016818370835800001
sS'paradoxplaza'
p140
F0.0078233176405399993
sS'QuotesPorn'
p141
F0.00976739960022
sS'ShitAmericansSay'
p142
F0.0217218543046
sS'TrueReddit'
p143
F0.014170289054199999
sS'AmIFreeToGo'
p144
F0.0150867488056
sS'Scotland'
p145
F0.0078032631827899997
sS'patientgamers'
p146
F0.0083359881066200001
sS'rant'
p147
F0.013032970826899999
sS'conspiratard'
p148
F0.0300525013578
sS'Documentaries'
p149
F0.0073791348600499998
sS'TrollXChromosomes'
p150
F0.0077415818860700003
sS'confession'
p151
F0.012341972714199999
sS'TrueAtheism'
p152
F0.0117530004353
sS'ContagiousLaughter'
p153
F0.0075531461290099999
sS'GamePhysics'
p154
F0.011367391447999999
sS'unitedkingdom'
p155
F0.0086707708315300006
sS'Damnthatsinteresting'
p156
F0.0085147900128600008
sS'FiftyFifty'
p157
F0.0089943649761599995
sS'CrazyIdeas'
p158
F0.010462466703
sS'AskHistorians'
p159
F0.0091336839191799996
sS'privacy'
p160
F0.0091624248033300004
sS'Bad_Cop_No_Donut'
p161
F0.019111546170699999
sS'ANormalDayInRussia'
p162
F0.0123928236905
sS'Whatcouldgowrong'
p163
F0.010561662313799999
sS'onetruegod'
p164
F0.0078328981723199999
sS'TheFacebookDelusion'
p165
F0.010038418639200001
sS'Enhancement'
p166
F0.0103774544715
sS'MorbidReality'
p167
F0.015277812336699999
sS'SubredditDrama'
p168
F0.035548998605500003
sS'shittyreactiongifs'
p169
F0.0086040216550699999
sS'misleadingthumbnails'
p170
F0.0094416168768899997
sS'shittyadvice'
p171
F0.0090958704748000004
sS'MeanJokes'
p172
F0.0078072719161300002
sS'holdmybeer'
p173
F0.00906724876165
sS'CombatFootage'
p174
F0.011328459461200001
sS'fatlogic'
p175
F0.021069127633599999
sS'TrollYChromosome'
p176
F0.011151057217699999
sS'explainlikeIAmA'
p177
F0.011303756586800001
sS'alternativeart'
p178
F0.0078606844842200006
sS'occupywallstreet'
p179
F0.0096083855000699998
sS'mildlyinfuriating'
p180
F0.0088040176080399993
sS'oddlysatisfying'
p181
F0.0073785351704099998
sS'raisedbynarcissists'
p182
F0.0076680712143599996
sS'Unexpected'
p183
F0.0092952875054000007
sS'Awwducational'
p184
F0.0086120281326299997
sS'NeutralPolitics'
p185
F0.010732237467700001
sS'SRSGaming'
p186
F0.019089824441800001
sS'ghettoglamourshots'
p187
F0.010176248426399999
sS'blunderyears'
p188
F0.011074356392899999
sS'webcomics'
p189
F0.0071397663349200002
sS'againstmensrights'
p190
F0.031372549019600002
sS'rage'
p191
F0.022906157857500001
sS'worldpolitics'
p192
F0.014039771681100001
sS'TheRedPill'
p193
F0.019577078058700001
sS'offbeat'
p194
F0.0118875854714
sS'behindthegifs'
p195
F0.0108957569408
sS'standupshots'
p196
F0.011095483669300001
sS'socialism'
p197
F0.015064617267000001
sS'russia'
p198
F0.00715005035247
sS'fullmoviesonyoutube'
p199
F0.010444795434899999
sS'gamernews'
p200
F0.0100831024931
sS'NewsOfTheStupid'
p201
F0.012299960322700001
sS'Economics'
p202
F0.0091174325309999991
sS'crappymusic'
p203
F0.0096166175150699997
sS'Infographics'
p204
F0.0070347473886199999
sS'offmychest'
p205
F0.0076021666845399998
sS'TrueAskReddit'
p206
F0.0144375050693
sS'FanTheories'
p207
F0.0105659408821
sS'NoStupidQuestions'
p208
F0.0102711056733
sS'blackladies'
p209
F0.0075397475823599999
sS'conspiracy'
p210
F0.012501852126199999
sS'YMS'
p211
F0.0089285714285700004
sS'politics'
p212
F0.0073072574075699996
sS'AnythingGoesNews'
p213
F0.0094773118897199995
sS'ShitRedditSays'
p214
F0.032198306280900001
sS'southpark'
p215
F0.0082998460209600007
sS'DaystromInstitute'
p216
F0.0084776119403000005
sS'asktrp'
p217
F0.0108986615679
sS'Israel'
p218
F0.0093844601412699999
sS'MURICA'
p219
F0.0097490734839399996
sS'HighQualityGifs'
p220
F0.00715080247894
sS'softwaregore'
p221
F0.010570421864599999
sS'self'
p222
F0.010174766578899999
sS'AskSocialScience'
p223
F0.00943706792494
sS'comics'
p224
F0.0085463279985099998
sS'TumblrInAction'
p225
F0.033572211674700002
sS'scifi'
p226
F0.0077891775040299996
sS'UnresolvedMysteries'
p227
F0.0083355740790499993
sS'nottheonion'
p228
F0.010026538327
sS'nonononoyes'
p229
F0.0100988473754
sS'Frugal_Jerk'
p230
F0.011444001543
sS'CrusaderKings'
p231
F0.0078146421716499999
sS'FutureWhatIf'
p232
F0.0084789981737500002
sS'fifthworldproblems'
p233
F0.0103105001185
sS'talesfromtechsupport'
p234
F0.0076845582550399997
sS'Anarchism'
p235
F0.013840224246700001
sS'MapPorn'
p236
F0.0089021349540299999
sS'notinteresting'
p237
F0.0083355844556800007
sS'badphilosophy'
p238
F0.0145395799677
sS'AnimalsBeingJerks'
p239
F0.0101824513589
sS'Futurology'
p240
F0.0071344123282599996
sS'CrappyDesign'
p241
F0.011099529537699999
sS'ForeverAlone'
p242
F0.011153688244100001
sS'philosophy'
p243
F0.0077495666360799997
sS'Games'
p244
F0.0073860651692900002
sS'EnoughLibertarianSpam'
p245
F0.022607086197800001
sS'bigdickproblems'
p246
F0.0083809822197900008
sS'Gaming4Gamers'
p247
F0.0107392607393
sS'polandball'
p248
F0.0130197258661
sS'startrek'
p249
F0.0083196156070600002
sS'truegaming'
p250
F0.011763601664400001
sS'short'
p251
F0.0095063195419699993
sS'GirlGamers'
p252
F0.0150589262331
sS'ConfusedBoners'
p253
F0.0086690464049000004
sS'gunpolitics'
p254
F0.0108713029576
sS'terriblefacebookmemes'
p255
F0.015016795099799999
sS'Shitstatistssay'
p256
F0.026955950032900002
sS'HumanPorn'
p257
F0.010267514144
sS'techsupportgore'
p258
F0.0091223655237500003
sS'HailCorporate'
p259
F0.0192959337349
sS'ImGoingToHellForThis'
p260
F0.011771220855900001
s.