(dp1
S'Boobies'
p2
F0.068613019299999994
sS'wifesharing'
p3
F0.0216595165847
sS'boltedontits'
p4
F0.061948322901600003
sS'GWCouples'
p5
F0.018980081343199999
sS'gentlemanboners'
p6
F0.0100692609385
sS'pussy'
p7
F0.0247729149463
sS'RandomActsOfBlowJob'
p8
F0.0093558132735600003
sS'ginger'
p9
F0.028188423953900001
sS'milf'
p10
F0.040903054448900002
sS'penis'
p11
F0.0072599045841100001
sS'incest'
p12
F0.0086172741679899998
sS'Tgirls'
p13
F0.017399915122399998
sS'nsfw'
p14
F0.019049528774800002
sS'thick'
p15
F0.067203995913299994
sS'hentai'
p16
F0.0132375577219
sS'shorthairedhotties'
p17
F0.0096495119787000008
sS'gonewild'
p18
F0.0087178169044299994
sS'gonewildaudio'
p19
F0.0107199159222
sS'hardbodies'
p20
F0.0193194674093
sS'BDSMGW'
p21
F0.0088054494102000006
sS'NSFWFunny'
p22
F0.0218101460415
sS'Blowjobs'
p23
F0.032885653319900003
sS'redheads'
p24
F0.031958626176899999
sS'RealGirls'
p25
F0.020420170127199998
sS'GoneMild'
p26
F0.0192320020514
sS'Hotchickswithtattoos'
p27
F0.023916967508999999
sS'TinyTits'
p28
F0.021526182126
sS'BBWGW'
p29
F0.022209647757799999
sS'bdsm'
p30
F0.0084631008801599999
sS'randomsexiness'
p31
F0.0286220526101
sS'Hotwife'
p32
F0.015630270999700002
sS'tightdresses'
p33
F0.0338289455736
sS'gonewildcurvy'
p34
F0.028066846229199999
sS'AsianHotties'
p35
F0.022614079956899999
sS'AsiansGoneWild'
p36
F0.014984356989999999
sS'asstastic'
p37
F0.0274914089347
sS'BigBoobsGW'
p38
F0.072137445310000006
sS'ass'
p39
F0.032260137523300002
sS'pornID'
p40
F0.0222428174235
sS'treesgonewild'
p41
F0.012092471843499999
sS'cumsluts'
p42
F0.032862383888800001
sS'Bondage'
p43
F0.012980845338000001
sS'NSFW_GIF'
p44
F0.023546704325999999
sS'celebnsfw'
p45
F0.0213758588515
sS'girlsinyogapants'
p46
F0.022207646176899999
sS'altgonewild'
p47
F0.020113053766300001
sS'nsfw_gifs'
p48
F0.0268822488697
sS'rule34'
p49
F0.015469953775
sS'bigdickproblems'
p50
F0.0079671457905500006
sS'BBW'
p51
F0.029091451588799999
sS'Amateur'
p52
F0.030627995775399999
sS'hugeboobs'
p53
F0.14281303072400001
sS'feet'
p54
F0.0090593893300500005
sS'TributeMe'
p55
F0.015382224984500001
sS'gonewildstories'
p56
F0.00983751519841
sS'traps'
p57
F0.0105301379811
sS'Pegging'
p58
F0.0088523062587400007
sS'tipofmypenis'
p59
F0.016107449075700001
sS'cosplaygirls'
p60
F0.014807720642399999
sS'GoneWildPlus'
p61
F0.024477806788499999
sS'Cuckold'
p62
F0.0129835363405
sS'ConfusedBoners'
p63
F0.013199520017500001
sS'AmateurArchives'
p64
F0.024444117214
sS'BustyPetite'
p65
F0.0710909938095
sS'curvy'
p66
F0.083690068493200001
sS'WatchItForThePlot'
p67
F0.0160516723157
sS'PrettyGirls'
p68
F0.0126623114767
sS'pornvids'
p69
F0.0154104203795
sS'workgonewild'
p70
F0.023238267692800001
sS'dirtypenpals'
p71
F0.0071463534018600004
sS'burstingout'
p72
F0.105908944139
sS'MassiveCock'
p73
F0.0091583078935899998
sS'anal'
p74
F0.022557360144400001
sS'GWNerdy'
p75
F0.023969866453600001
sS'Celebs'
p76
F0.0120654469944
sS'EmmaWatson'
p77
F0.0079465988556900007
sS'OnOff'
p78
F0.030765017345299999
s.