(dp1
S'FancyFollicles'
p2
F0.0071121177802900004
sS'Coffee'
p3
F0.013845010221100001
sS'TalesFromYourServer'
p4
F0.0074680453827399998
sS'tea'
p5
F0.0081355932203399997
sS'TheGirlSurvivalGuide'
p6
F0.0071972033723999998
sS'femalefashionadvice'
p7
F0.0074623683425000002
sS'disney'
p8
F0.0077850326469100003
s.