(dp1
S'Destiny'
p2
F0.024183583406900001
sS'nl_Kripparrian'
p3
F0.0070294784580500003
sS'allthingszerg'
p4
F0.033558792923999999
sS'AllThingsTerran'
p5
F0.036623817608500003
sS'esports'
p6
F0.0153631284916
sS'allthingsprotoss'
p7
F0.031676838128500001
sS'starcraft'
p8
F0.018055911772199999
s.