(dp1
S'OutreachHPG'
p2
F0.00939443950743
sS'softwareswap'
p3
F0.00705674801529
sS'oculus'
p4
F0.0084479764925899994
sS'Planetside'
p5
F0.00743460302891
sS'starcitizen'
p6
F0.092962521763000003
sS'mwo'
p7
F0.0137461459404
s.