(dp1
S'TrueReddit'
p2
F0.00795853700474
sS'wikipedia'
p3
F0.0080504025201299997
sS'Infographics'
p4
F0.0076779642426200003
sS'vim'
p5
F0.0070165590794300002
sS'AskScienceDiscussion'
p6
F0.0076855234975400002
sS'dataisbeautiful'
p7
F0.011808870693599999
sS'askphilosophy'
p8
F0.0073090979034400004
sS'Foodforthought'
p9
F0.0091177435224700006
sS'cheatatmathhomework'
p10
F0.00887845698541
sS'finance'
p11
F0.0126174249401
sS'linguistics'
p12
F0.0082162988439899998
sS'gis'
p13
F0.010482900842100001
sS'psychology'
p14
F0.0137039033028
sS'TheoryOfReddit'
p15
F0.0098181818181799999
sS'skeptic'
p16
F0.0071788605468200003
sS'HomeworkHelp'
p17
F0.0102132527167
sS'excel'
p18
F0.0128728693182
sS'learnmath'
p19
F0.0155569383945
sS'environment'
p20
F0.0072799470549299999
sS'compsci'
p21
F0.0169287548139
sS'investing'
p22
F0.0078879124045499998
sS'math'
p23
F0.028534668933499999
sS'economy'
p24
F0.0094692541501100007
sS'biology'
p25
F0.012035491522400001
sS'AskAcademia'
p26
F0.0277053902071
sS'Scholar'
p27
F0.010096229689200001
sS'askscience'
p28
F0.0071838539115599998
sS'Economics'
p29
F0.016496282527899999
sS'GradSchool'
p30
F0.0260171919771
sS'learnpython'
p31
F0.0158221704523
sS'Physics'
p32
F0.0114545208079
sS'MachineLearning'
p33
F0.065521915951199994
sS'programming'
p34
F0.0079871876475799998
sS'Python'
p35
F0.0178335993338
sS'SampleSize'
p36
F0.0094206311822899996
sS'AskSocialScience'
p37
F0.019388686131400001
s.