(dp1
S'nutrition'
p2
F0.011051952242699999
sS'bjj'
p3
F0.0072256305385099999
sS'bodybuilding'
p4
F0.078685333533000001
sS'hardbodies'
p5
F0.021192361434600002
sS'Nootropics'
p6
F0.020932593923299998
sS'crossfit'
p7
F0.0100645936608
sS'seduction'
p8
F0.0085751757070299996
sS'DarkNetMarkets'
p9
F0.0088660755949600007
sS'swoleacceptance'
p10
F0.034579177928999998
sS'fatlogic'
p11
F0.0073825503355699996
sS'ketogains'
p12
F0.016301816488100002
sS'asktrp'
p13
F0.0107146019658
sS'leangains'
p14
F0.022306981044800001
sS'Supplements'
p15
F0.042260265772800003
sS'weightlifting'
p16
F0.0198930747234
sS'progresspics'
p17
F0.0078921838538
sS'Fitness'
p18
F0.012416559591299999
sS'bodyweightfitness'
p19
F0.0098861427381300004
sS'fitnesscirclejerk'
p20
F0.023889690556400001
sS'gainit'
p21
F0.02237919981
sS'weightroom'
p22
F0.050234589872200003
sS'TheRedPill'
p23
F0.013917596803100001
sS'powerlifting'
p24
F0.040980815075499999
sS'DrugNerds'
p25
F0.00872018466273
sS'MMA'
p26
F0.0087532747726900006
sS'fitmeals'
p27
F0.0114318611728
s.