(dp1
S'stocks'
p2
F0.094204598779900006
sS'BitcoinMarkets'
p3
F0.0091396947845
sS'collapse'
p4
F0.0074928817623300002
sS'business'
p5
F0.015402075227
sS'investing'
p6
F0.058246330167200003
sS'energy'
p7
F0.0077539755552600001
sS'Economics'
p8
F0.016375865094099998
sS'teslamotors'
p9
F0.0087947479251800006
sS'finance'
p10
F0.044507278248999999
sS'churning'
p11
F0.0092772085294900008
sS'Silverbugs'
p12
F0.0095732597760799995
sS'Entrepreneur'
p13
F0.010951924031400001
sS'RealEstate'
p14
F0.0130317807298
sS'startups'
p15
F0.0086168474223700005
sS'smallbusiness'
p16
F0.0086655112651600006
sS'PersonalFinanceCanada'
p17
F0.0085365853658500006
sS'financialindependence'
p18
F0.019475810628800001
sS'economy'
p19
F0.028085336213900001
s.