(dp1
S'drunk'
p2
F0.0100577332118
sS'Paleo'
p3
F0.0078354059245799995
sS'watchpeopledie'
p4
F0.0073746864822399998
sS'TrueReddit'
p5
F0.0083618646299699999
sS'DoesAnybodyElse'
p6
F0.00754786876896
sS'NetflixBestOf'
p7
F0.0078862743096300009
sS'Cooking'
p8
F0.0082253798915199999
sS'DecidingToBeBetter'
p9
F0.011061946902699999
sS'self'
p10
F0.0091441784691400005
sS'KitchenConfidential'
p11
F0.00790398126464
sS'Buddhism'
p12
F0.0090579710144899992
sS'conspiracy'
p13
F0.0074391113828599998
sS'everymanshouldknow'
p14
F0.0080010040475700008
sS'confession'
p15
F0.00905316572483
sS'YouShouldKnow'
p16
F0.0077903854063300004
sS'EatCheapAndHealthy'
p17
F0.0094055140723700009
sS'depression'
p18
F0.0096201003508499996
sS'TalesFromYourServer'
p19
F0.0081123419492000002
sS'cripplingalcoholism'
p20
F0.035186280307499998
sS'loseit'
p21
F0.0108563849943
sS'Drugs'
p22
F0.0074188844331
sS'Bad_Cop_No_Donut'
p23
F0.0077542952714000002
sS'OutOfTheLoop'
p24
F0.0076198364219899999
sS'OpiatesRecovery'
p25
F0.0081156716417899993
sS'nostalgia'
p26
F0.0070946476220400002
sS'Documentaries'
p27
F0.0071446502017900003
sS'socialskills'
p28
F0.0076855967762000004
sS'MorbidReality'
p29
F0.0093267010126099996
sS'Parenting'
p30
F0.0076382083357399997
sS'JusticePorn'
p31
F0.0074068174577899999
sS'slowcooking'
p32
F0.0086522165730099996
sS'raisedbynarcissists'
p33
F0.0071677644323899998
sS'lifehacks'
p34
F0.0075362442254099998
sS'alcoholism'
p35
F0.069629326233900002
sS'happy'
p36
F0.0083144368858700003
sS'getdisciplined'
p37
F0.010664479081200001
sS'fatlogic'
p38
F0.0070281885981500003
sS'offmychest'
p39
F0.0085053142416599992
sS'Anxiety'
p40
F0.012535290796199999
sS'jobs'
p41
F0.0070168052485699997
sS'childfree'
p42
F0.0087932259592599996
sS'SuicideWatch'
p43
F0.0088863856816500005
sS'FloridaMan'
p44
F0.0073119945765299996
sS'Frugal'
p45
F0.0087333845984800002
sS'running'
p46
F0.0074975386867899996
sS'progresspics'
p47
F0.0091964456334800004
sS'keto'
p48
F0.0088808664259899996
sS'leaves'
p49
F0.011447315571
sS'stopsmoking'
p50
F0.023394131641600001
sS'BuyItForLife'
p51
F0.0070206960803900001
sS'relationship_advice'
p52
F0.0071257928989199998
sS'GetMotivated'
p53
F0.0085229444288699996
sS'offbeat'
p54
F0.0082495629370599993
sS'standupshots'
p55
F0.0071921084754700002
sS'howtonotgiveafuck'
p56
F0.0086380921083500008
sS'minimalism'
p57
F0.0071718342509399999
sS'Meditation'
p58
F0.010131712259400001
sS'shittyfoodporn'
p59
F0.0083778708652299996
s.