(dp1
S'delusionalartists'
p2
F0.0077847351497700003
sS'malehairadvice'
p3
F0.024512833189100001
sS'PublicFreakout'
p4
F0.0080651074125699992
sS'OFWGKTA'
p5
F0.0357641799385
sS'Hiphopcirclejerk'
p6
F0.0248820575255
sS'DeepIntoYouTube'
p7
F0.0086146777700299992
sS'bodybuilding'
p8
F0.00972762645914
sS'carporn'
p9
F0.0109667732881
sS'Stance'
p10
F0.010989010989
sS'quityourbullshit'
p11
F0.0071144263014399998
sS'nostalgia'
p12
F0.0075972858551300003
sS'StonerEngineering'
p13
F0.0084302325581400005
sS'GrandTheftAutoV'
p14
F0.010315009264999999
sS'hiphopheads'
p15
F0.047838742013799999
sS'soccer'
p16
F0.0075774736396000001
sS'electronicmusic'
p17
F0.012605308164900001
sS'jailbreak'
p18
F0.0074120294212200004
sS'FixedGearBicycle'
p19
F0.0088779426084000003
sS'cringepics'
p20
F0.0099522651535599999
sS'beards'
p21
F0.0078486562559199995
sS'DJs'
p22
F0.0088447325377100008
sS'Celebs'
p23
F0.0076017041182900001
sS'Watches'
p24
F0.0102742371572
sS'CrappyDesign'
p25
F0.0079079966408500003
sS'WeAreTheMusicMakers'
p26
F0.0083124826244100006
sS'4chan'
p27
F0.0103888207483
sS'montageparodies'
p28
F0.0093838211733600005
sS'minimalism'
p29
F0.0136717450602
sS'whitepeoplegifs'
p30
F0.0072428252464200003
sS'cringe'
p31
F0.0115393766357
sS'FIFA'
p32
F0.00898715333297
sS'MechanicalKeyboards'
p33
F0.0078202719133399993
sS'gentlemanboners'
p34
F0.0073792333796399998
sS'Rateme'
p35
F0.0074423162167800002
sS'tumblr'
p36
F0.0072689149047699998
sS'malegrooming'
p37
F0.0093085106383000004
sS'skateboarding'
p38
F0.027281160398
sS'nba'
p39
F0.012215279543700001
sS'firstworldanarchists'
p40
F0.0074604866323500002
sS'rawdenim'
p41
F0.0470814830667
sS'LSD'
p42
F0.0070082825157000003
sS'frugalmalefashion'
p43
F0.030593546673700001
sS'trapmuzik'
p44
F0.020199674947799999
sS'shittyfoodporn'
p45
F0.0086442953020100001
sS'breakingbad'
p46
F0.0080689074798300005
sS'malefashionadvice'
p47
F0.036351776691800002
sS'BMW'
p48
F0.0084830794490600003
sS'RoomPorn'
p49
F0.0075729452817600001
sS'trap'
p50
F0.025530851861100001
sS'tattoos'
p51
F0.00925704839747
sS'blackpeoplegifs'
p52
F0.014901795587400001
sS'glitch_art'
p53
F0.0093601822772299993
sS'cars'
p54
F0.0087828262504999997
sS'FiftyFifty'
p55
F0.0076432544887199997
sS'NotTimAndEric'
p56
F0.0076108870967700002
sS'malelivingspace'
p57
F0.010878708013199999
sS'MaleFashionMarket'
p58
F0.0233318472284
sS'vinyl'
p59
F0.0107418048844
sS'lewronggeneration'
p60
F0.020612181799400001
sS'Unexpected'
p61
F0.00742090295059
sS'ThriftStoreHauls'
p62
F0.0116063591144
sS'chicagobulls'
p63
F0.0073306958342999997
sS'headphones'
p64
F0.0104433623783
sS'lakers'
p65
F0.0072147553383399999
sS'itookapicture'
p66
F0.0071274708565600003
sS'snowboarding'
p67
F0.0086338242762800006
sS'battlestations'
p68
F0.0090077926086000008
sS'Bombing'
p69
F0.0080645161290299992
sS'amiugly'
p70
F0.0073374187862500001
sS'drunk'
p71
F0.0077175651783499997
sS'reactiongifs'
p72
F0.0082711731325199999
sS'Sneakers'
p73
F0.138841773685
sS'malefashion'
p74
F0.058127465227300001
sS'graphic_design'
p75
F0.0085550479261800004
sS'longboarding'
p76
F0.013025846884899999
sS'CrazyIdeas'
p77
F0.0075041545492299999
sS'Drugs'
p78
F0.011152805654900001
sS'TeenMFA'
p79
F0.0462160176341
sS'OutOfTheLoop'
p80
F0.0084281251841799992
sS'seduction'
p81
F0.00890831627289
sS'Autos'
p82
F0.0090363597399799999
sS'iphone'
p83
F0.0090068922305800003
sS'goodyearwelt'
p84
F0.012161605056999999
sS'aves'
p85
F0.0075352315214299997
sS'woahdude'
p86
F0.0084441072665500001
sS'iOSthemes'
p87
F0.0088373377519999994
sS'makinghiphop'
p88
F0.0278979731269
sS'sneakermarket'
p89
F0.066355888994099999
sS'androidthemes'
p90
F0.0072811424055999998
sS'mildlyinfuriating'
p91
F0.00768288609286
sS'oddlysatisfying'
p92
F0.0075143397314700001
sS'youtubehaiku'
p93
F0.0108770770109
sS'indieheads'
p94
F0.013651208360499999
sS'HipHopImages'
p95
F0.057758198727399998
sS'Shitty_Car_Mods'
p96
F0.0092081031307600005
sS'blunderyears'
p97
F0.011753811084200001
sS'EDC'
p98
F0.010216325551100001
sS'rage'
p99
F0.0090272660280000007
sS'thatHappened'
p100
F0.0092679428476899993
sS'EDM'
p101
F0.0097069597069600003
sS'NewSkaters'
p102
F0.013637396772499999
sS'Design'
p103
F0.0077211749989199996
sS'teenagers'
p104
F0.020705619412500001
sS'supremeclothing'
p105
F0.14952343129500001
sS'bestofworldstar'
p106
F0.013682136602500001
sS'NBA2k'
p107
F0.0111869168255
sS'saplings'
p108
F0.0070813295988999998
sS'howtonotgiveafuck'
p109
F0.0071726438698899997
sS'nonononoyes'
p110
F0.0070107988918399998
sS'wallpapers'
p111
F0.0070858230659399998
sS'notinteresting'
p112
F0.0083210226416199993
sS'edmproduction'
p113
F0.0095106668655799993
sS'trees'
p114
F0.0097231705314500001
sS'futurebeats'
p115
F0.0203421656583
sS'terriblefacebookmemes'
p116
F0.0075032934303200004
sS'Graffiti'
p117
F0.0112330865458
sS'listentothis'
p118
F0.0076978636052600002
sS'ImGoingToHellForThis'
p119
F0.0072559451317200001
sS'gainit'
p120
F0.0095850728465500003
sS'vaporents'
p121
F0.0074238416247100003
s.