(dp1
S'BeardPorn'
p2
F0.0089523809523800006
sS'tattoos'
p3
F0.00900981068274
sS'tattoo'
p4
F0.010180995475099999
sS'poppunkers'
p5
F0.0077519379845000002
sS'piercing'
p6
F0.0813347236705
sS'Dreadlocks'
p7
F0.0162439441436
sS'Hair'
p8
F0.0087064676616900004
sS'badtattoos'
p9
F0.0099858785555800005
sS'PostHardcore'
p10
F0.0078941516566599992
sS'RandomActsofMakeup'
p11
F0.0070433088565900002
sS'FancyFollicles'
p12
F0.010897469481800001
sS'RedditLaqueristas'
p13
F0.0077799891442000002
sS'Metalcore'
p14
F0.0086971955981499996
sS'Hardcore'
p15
F0.0070970695970700003
sS'selfharm'
p16
F0.0072202166065000002
s.