(dp1
S'ShinyPokemon'
p2
F0.052853617766500001
sS'friendsafari'
p3
F0.013310886183399999
sS'wiiu'
p4
F0.00923746237969
sS'Naruto'
p5
F0.0072494821798400003
sS'pokemon'
p6
F0.033446283383300003
sS'TheLastAirbender'
p7
F0.0086295694371300007
sS'SSBPM'
p8
F0.0152373941848
sS'CasualPokemonTrades'
p9
F0.051393087670600003
sS'pokemonzetaomicron'
p10
F0.024380366110499999
sS'zelda'
p11
F0.0088778409090899991
sS'whowouldwin'
p12
F0.0093875850576300001
sS'MonsterHunter'
p13
F0.0141557928035
sS'Vivillon'
p14
F0.018856629751600001
sS'pkmntcgtrades'
p15
F0.0078244860386600008
sS'3DS'
p16
F0.017271551396199999
sS'gamegrumps'
p17
F0.0075409491073600001
sS'AnimalCrossing'
p18
F0.010818080814
sS'smashbros'
p19
F0.0181069600893
sS'nintendo'
p20
F0.015214742050999999
sS'pokemontrades'
p21
F0.067216353826299993
sS'lewronggeneration'
p22
F0.0073337962159299996
sS'Pokemongiveaway'
p23
F0.055557942680399999
sS'pkmntcg'
p24
F0.015331709414
sS'fireemblem'
p25
F0.020084025002599998
sS'yugioh'
p26
F0.0148274683977
sS'SVExchange'
p27
F0.045973624106700001
s.