(dp1
S'Paleo'
p2
F0.018094089264199999
sS'JoeRogan'
p3
F0.0108315565032
sS'steroids'
p4
F0.042260265772800003
sS'xxfitness'
p5
F0.0095307100657700001
sS'Fitness'
p6
F0.0124642998998
sS'DecidingToBeBetter'
p7
F0.0083892617449699992
sS'BuyItForLife'
p8
F0.0083369552333200005
sS'Health'
p9
F0.0149292149292
sS'everymanshouldknow'
p10
F0.0084340011785499994
sS'bodybuilding'
p11
F0.039910481163700003
sS'kratom'
p12
F0.010139225181600001
sS'EatCheapAndHealthy'
p13
F0.0074568965517199997
sS'financialindependence'
p14
F0.0073999634569699999
sS'collapse'
p15
F0.00738759393708
sS'hardbodies'
p16
F0.011339182254600001
sS'Nootropics'
p17
F0.065501799982399994
sS'crossfit'
p18
F0.0135277440259
sS'weightroom'
p19
F0.047838566582600002
sS'investing'
p20
F0.0071201116319000004
sS'selfimprovement'
p21
F0.0088311051146800004
sS'seduction'
p22
F0.0078740157480300006
sS'socialskills'
p23
F0.0073313025969299998
sS'swoleacceptance'
p24
F0.023771152296499998
sS'ketorecipes'
p25
F0.0082056045827499993
sS'getdisciplined'
p26
F0.0106057770291
sS'nutrition'
p27
F0.041116796839900001
sS'ketogains'
p28
F0.023243598161500002
sS'Scholar'
p29
F0.0070530512112799999
sS'leangains'
p30
F0.0403841094449
sS'weightlifting'
p31
F0.021650499086199999
sS'Psychonaut'
p32
F0.0080498571799499999
sS'martialarts'
p33
F0.0079432970793099997
sS'productivity'
p34
F0.0097708082026499998
sS'bodyweightfitness'
p35
F0.017462096631500001
sS'psychology'
p36
F0.0097705067030199998
sS'frugalmalefashion'
p37
F0.0073154297815000002
sS'IWantToLearn'
p38
F0.0073918689441600004
sS'keto'
p39
F0.0098063184201199992
sS'fitnesscirclejerk'
p40
F0.025592773805
sS'askdrugs'
p41
F0.0080608365019000008
sS'powerlifting'
p42
F0.031700288184400002
sS'fitmeals'
p43
F0.022406190947500002
sS'TheRedPill'
p44
F0.0076379066478099999
sS'Entrepreneur'
p45
F0.0078110116212599997
sS'DrugNerds'
p46
F0.021671826625400001
sS'howtonotgiveafuck'
p47
F0.0070384407146700002
sS'Meditation'
p48
F0.0112415688234
sS'gainit'
p49
F0.024919765905200002
sS'malegrooming'
p50
F0.0143091206991
s.