(dp1
S'NewSkaters'
p2
F0.0107873527588
sS'malehairadvice'
p3
F0.0076958596275199997
sS'teenagers'
p4
F0.0076548125772300003
sS'OFWGKTA'
p5
F0.042567053968900002
sS'Hiphopcirclejerk'
p6
F0.0116607340125
sS'Sneakers'
p7
F0.073404354733200006
sS'malefashion'
p8
F0.036777583187400001
sS'skateboarding'
p9
F0.019988273546199999
sS'rawdenim'
p10
F0.037615740740700003
sS'frugalmalefashion'
p11
F0.011781011781
sS'trapmuzik'
p12
F0.0096458941490000002
sS'TeenMFA'
p13
F0.024556616643899999
sS'malefashionadvice'
p14
F0.012767956273
sS'hiphopheads'
p15
F0.0177630757708
sS'makinghiphop'
p16
F0.012951117428700001
sS'sneakermarket'
p17
F0.071241606919299996
sS'MaleFashionMarket'
p18
F0.0213961271814
sS'HipHopImages'
p19
F0.022638629811799999
sS'futurebeats'
p20
F0.0076620272740099997
sS'Graffiti'
p21
F0.0070188750829900002
sS'trap'
p22
F0.0097683321232900008
sS'streetwear'
p23
F0.14952343129500001
s.