(dp1
S'nfl'
p2
F0.0072143252722900002
sS'HIMYM'
p3
F0.011961307769599999
sS'gameofthrones'
p4
F0.0072207796974099996
sS'DunderMifflin'
p5
F0.0084216556860499999
sS'lost'
p6
F0.0118959107807
sS'OnceUponATime'
p7
F0.0073306105351299998
sS'tennis'
p8
F0.0083194675540799994
sS'CFB'
p9
F0.0073930531355299997
sS'SquaredCircle'
p10
F0.0071724325180400001
sS'PandR'
p11
F0.0088187962664999994
sS'breakingbad'
p12
F0.00733329543517
sS'madmen'
p13
F0.0083321361873299991
sS'community'
p14
F0.0096629141818399995
sS'baseball'
p15
F0.0087951110744100003
sS'rupaulsdragrace'
p16
F0.0099542425945300002
sS'harrypotter'
p17
F0.0076723457068699997
sS'thewalkingdead'
p18
F0.0100840336134
sS'AmericanHorrorStory'
p19
F0.0086577390221100007
sS'fantasyfootball'
p20
F0.0071025020177600002
sS'CollegeBasketball'
p21
F0.01077827043
s.