(dp1
S'pkmntcgtrades'
p2
F0.0070359011365699999
sS'Pokemongiveaway'
p3
F0.114035757946
sS'ShinyPokemon'
p4
F0.085912746770700002
sS'3DS'
p5
F0.015238225007899999
sS'CasualPokemonTrades'
p6
F0.073523083543399995
sS'AdoptMyVillager'
p7
F0.013313332083299999
sS'smashbros'
p8
F0.011477005434300001
sS'pkmntcg'
p9
F0.0074169900819300002
sS'pokemonzetaomicron'
p10
F0.0087760355722000007
sS'stunfisk'
p11
F0.045973624106700001
sS'AnimalCrossing'
p12
F0.010203139427500001
sS'ACTrade'
p13
F0.014794322828999999
sS'Vivillon'
p14
F0.049710024855
sS'friendsafari'
p15
F0.0220462214129
sS'nintendo'
p16
F0.0088668092063900004
sS'FreeKarma'
p17
F0.0106985926256
sS'MonsterHunter'
p18
F0.0073444367337500002
sS'pokemontrades'
p19
F0.12758763455700001
sS'pokemon'
p20
F0.0284529277974
sS'acturnips'
p21
F0.0087627517656299996
sS'GiveMeTheVirus'
p22
F0.0091413925672800007
s.