(dp1
S'BBWGW'
p2
F0.0074241446094300001
sS'BDSMGW'
p3
F0.0107270560191
sS'gonewildstories'
p4
F0.017219865235799998
sS'Amateur'
p5
F0.00827158366362
sS'DeadBedrooms'
p6
F0.0084623694634499997
sS'Pegging'
p7
F0.0149143804088
sS'GWCouples'
p8
F0.024842547235800001
sS'bisexual'
p9
F0.012132582864300001
sS'Cuckold'
p10
F0.032946344524599998
sS'BDSMcommunity'
p11
F0.0121773522065
sS'AmateurArchives'
p12
F0.0072512647554800001
sS'wifesharing'
p13
F0.0374571664894
sS'RandomActsOfBlowJob'
p14
F0.0107839965491
sS'milf'
p15
F0.0089966348465100009
sS'bdsm'
p16
F0.0086239695624599991
sS'Hotwife'
p17
F0.059505002633000001
sS'GWNerdy'
p18
F0.0071878940731400004
sS'polyamory'
p19
F0.031672100605499999
sS'workgonewild'
p20
F0.0123995808592
sS'BigBoobsGW'
p21
F0.0076717811874599997
s.