(dp1
S'Justrolledintotheshop'
p2
F0.0075566080408700003
sS'pettyrevenge'
p3
F0.0093742001535699997
sS'malehairadvice'
p4
F0.0105895529987
sS'PublicFreakout'
p5
F0.0074392757909799998
sS'Fitness'
p6
F0.022009857406200001
sS'dadjokes'
p7
F0.0100673470805
sS'BuyItForLife'
p8
F0.0089640714234100003
sS'whitepeoplegifs'
p9
F0.0082286056253700005
sS'everymanshouldknow'
p10
F0.014514974956600001
sS'bodybuilding'
p11
F0.059531725755099997
sS'carporn'
p12
F0.0076086956521699998
sS'crossfit'
p13
F0.015049370105500001
sS'TheBluePill'
p14
F0.0083303918107999995
sS'quityourbullshit'
p15
F0.0105843768634
sS'drunk'
p16
F0.0084884100555000005
sS'outside'
p17
F0.012363311760799999
sS'ProtectAndServe'
p18
F0.0076264103635599999
sS'wicked_edge'
p19
F0.0095929100116899993
sS'whowouldwin'
p20
F0.010041394044599999
sS'holdmybeer'
p21
F0.010203298810899999
sS'MensRights'
p22
F0.0101467657184
sS'nononono'
p23
F0.0086381427992999991
sS'MilitaryPorn'
p24
F0.0081751824817500006
sS'Frisson'
p25
F0.0095679562607700001
sS'YouShouldKnow'
p26
F0.0070718458542599998
sS'childfree'
p27
F0.0080076263107700003
sS'cringepics'
p28
F0.0077117924778500003
sS'JusticePorn'
p29
F0.0090002332377500001
sS'martialarts'
p30
F0.0097732232659599998
sS'toosoon'
p31
F0.0087245213094499993
sS'Military'
p32
F0.0099773242630400005
sS'beards'
p33
F0.0090504822748299994
sS'bodyweightfitness'
p34
F0.023715209006599999
sS'IWantToLearn'
p35
F0.0074113760157199999
sS'creepyPMs'
p36
F0.0072065779866000001
sS'fitnesscirclejerk'
p37
F0.024020887728500001
sS'WatchItForThePlot'
p38
F0.0073454506460800002
sS'CrappyDesign'
p39
F0.0073329640473700003
sS'thatHappened'
p40
F0.0088407849484100007
sS'SubredditDrama'
p41
F0.0103225075956
sS'Libertarian'
p42
F0.0072168508287299999
sS'ArcherFX'
p43
F0.0077858656592600002
sS'cringe'
p44
F0.00765001195314
sS'Paleo'
p45
F0.0120273925304
sS'EatCheapAndHealthy'
p46
F0.0077043410246400001
sS'gentlemanboners'
p47
F0.0070883735264699998
sS'interestingasfuck'
p48
F0.0072973462697899999
sS'changemyview'
p49
F0.0082794557560600009
sS'fatpeoplestories'
p50
F0.022157269470100001
sS'OneY'
p51
F0.0080621940685299993
sS'firstworldanarchists'
p52
F0.0094774590163899993
sS'forwardsfromgrandma'
p53
F0.0077616424637000003
sS'frugalmalefashion'
p54
F0.0098326359832600005
sS'4chan'
p55
F0.011749332801799999
sS'investing'
p56
F0.0074215786522399997
sS'shittyfoodporn'
p57
F0.0070219939988199996
sS'socialskills'
p58
F0.0100986811768
sS'malefashionadvice'
p59
F0.0113606144093
sS'LearnUselessTalents'
p60
F0.0088505011729600007
sS'guns'
p61
F0.0075840643274900001
sS'blackpeoplegifs'
p62
F0.010132501948599999
sS'bestof'
p63
F0.0089273161816399993
sS'cars'
p64
F0.0071362975434300004
sS'FloridaMan'
p65
F0.0090232965109900004
sS'malelivingspace'
p66
F0.0089971302256999994
sS'delusionalartists'
p67
F0.010208467655300001
sS'Frugal'
p68
F0.00793774539682
sS'Supplements'
p69
F0.023771152296499998
sS'shittyaskscience'
p70
F0.0086347427407000004
sS'lewronggeneration'
p71
F0.00936145858883
sS'youtubehaiku'
p72
F0.0074259168015799997
sS'fitmeals'
p73
F0.019264967397699999
sS'minimalism'
p74
F0.0089179548156999994
sS'weightroom'
p75
F0.062541387682999994
sS'watchpeopledie'
p76
F0.0076727392089299996
sS'wheredidthesodago'
p77
F0.0079517114251599994
sS'AnimalsBeingBros'
p78
F0.0084994138335299993
sS'classic4chan'
p79
F0.012051868802399999
sS'GetMotivated'
p80
F0.0106177225183
sS'QuotesPorn'
p81
F0.0089271021885799998
sS'bigdickproblems'
p82
F0.0116690004668
sS'TrueReddit'
p83
F0.0079071488023699996
sS'steroids'
p84
F0.034579177928999998
sS'xxfitness'
p85
F0.0117420691697
sS'ANormalDayInRussia'
p86
F0.0088238923855400008
sS'reactiongifs'
p87
F0.00715364957377
sS'bjj'
p88
F0.0075719960278100001
sS'IdiotsFightingThings'
p89
F0.0096564114080399995
sS'conspiratard'
p90
F0.0080154062353599998
sS'ContagiousLaughter'
p91
F0.0081339968962399999
sS'FiftyFifty'
p92
F0.0088531700471999996
sS'CrazyIdeas'
p93
F0.0094119756185000007
sS'army'
p94
F0.0071242531025000003
sS'Bad_Cop_No_Donut'
p95
F0.0080944632202599991
sS'OutOfTheLoop'
p96
F0.0089320726765700006
sS'seduction'
p97
F0.0146470512324
sS'MorbidReality'
p98
F0.0073622212873400003
sS'shittyreactiongifs'
p99
F0.0073587592973599998
sS'CombatFootage'
p100
F0.0086852179875399997
sS'fatlogic'
p101
F0.025779967159300001
sS'TrollYChromosome'
p102
F0.011132519803
sS'explainlikeIAmA'
p103
F0.0078801647025400004
sS'Unexpected'
p104
F0.0080167696098800006
sS'weightlifting'
p105
F0.0247136190072
sS'Shitty_Car_Mods'
p106
F0.0082699087344699999
sS'AskMen'
p107
F0.0106246011576
sS'rugbyunion'
p108
F0.0074101796407199999
sS'powerlifting'
p109
F0.044110423420800002
sS'blunderyears'
p110
F0.0095830095830099996
sS'rage'
p111
F0.0089328441537700008
sS'comics'
p112
F0.0076517216373699999
sS'TheRedPill'
p113
F0.017155652145300002
sS'firstworldproblems'
p114
F0.0073888487833900004
sS'behindthegifs'
p115
F0.0088288877470000006
sS'standupshots'
p116
F0.010036561760700001
sS'Meditation'
p117
F0.0072620854107999996
sS'MMA'
p118
F0.0083173573219299992
sS'malegrooming'
p119
F0.010031131096499999
sS'fullmoviesonyoutube'
p120
F0.0073743627094000003
sS'loseit'
p121
F0.0089616016142799997
sS'nutrition'
p122
F0.0131798102687
sS'keto'
p123
F0.00877014073017
sS'FanTheories'
p124
F0.00746210649048
sS'polandball'
p125
F0.0081219504803500004
sS'ketogains'
p126
F0.014946193702700001
sS'bestofworldstar'
p127
F0.0085138162808100007
sS'SRSsucks'
p128
F0.0076605774896900004
sS'hardbodies'
p129
F0.020318391286099999
sS'MURICA'
p130
F0.012125566982500001
sS'Nootropics'
p131
F0.010361613351899999
sS'howtonotgiveafuck'
p132
F0.0122202824948
sS'nonononoyes'
p133
F0.0092336103416400007
sS'Frugal_Jerk'
p134
F0.0094348991955499999
sS'Whatcouldgowrong'
p135
F0.0093374952908900008
sS'getdisciplined'
p136
F0.010873701951799999
sS'asktrp'
p137
F0.011790598962399999
sS'AnimalsBeingJerks'
p138
F0.0084194412552600004
sS'leangains'
p139
F0.027115940584199999
sS'running'
p140
F0.0085389758599400001
sS'progresspics'
p141
F0.0135914437416
sS'short'
p142
F0.0086632591180800002
sS'HumanPorn'
p143
F0.0079980756509700004
sS'TumblrInAction'
p144
F0.011795360660899999
sS'tall'
p145
F0.0097570217401600004
sS'ImGoingToHellForThis'
p146
F0.0090128402107099992
sS'gainit'
p147
F0.041594647337600002
s.