(dp1
S'audioengineering'
p2
F0.058204720049799999
sS'Heavymind'
p3
F0.0075233483223800003
sS'Psychonaut'
p4
F0.0072611986091200001
sS'Luthier'
p5
F0.0088300220750599998
sS'crappymusic'
p6
F0.0088805503439600003
sS'livesound'
p7
F0.0150281778334
sS'FL_Studio'
p8
F0.018791105543400001
sS'NotTimAndEric'
p9
F0.010761979575799999
sS'DnB'
p10
F0.0096481939051700008
sS'glitch_art'
p11
F0.017457180500700002
sS'DeepIntoYouTube'
p12
F0.0091303091592000001
sS'radiohead'
p13
F0.011366050563
sS'Bass'
p14
F0.0143732671823
sS'electronics'
p15
F0.011156008432900001
sS'deadmau5'
p16
F0.0099609637905500002
sS'Jazz'
p17
F0.0149773926149
sS'Guitar'
p18
F0.012638310831400001
sS'audiophile'
p19
F0.0114124432446
sS'Techno'
p20
F0.0226700251889
sS'edmproduction'
p21
F0.0577035269159
sS'musictheory'
p22
F0.031465929626900001
sS'piano'
p23
F0.017236165709099999
sS'ObscureMedia'
p24
F0.012138804591599999
sS'LetsTalkMusic'
p25
F0.0154370275737
sS'makinghiphop'
p26
F0.0183546072859
sS'electronicmusic'
p27
F0.023984175389399998
sS'listentothis'
p28
F0.0070437988238400001
sS'Beatmatch'
p29
F0.015734989647999999
sS'ableton'
p30
F0.056829802775700003
sS'delusionalartists'
p31
F0.0077865636506300002
sS'AskElectronics'
p32
F0.0081237153763300003
sS'progrockmusic'
p33
F0.010982306284299999
sS'realdubstep'
p34
F0.0079796264855699992
sS'vinyl'
p35
F0.0133509077767
sS'drums'
p36
F0.0086640995260699998
sS'pinkfloyd'
p37
F0.0081912773964999998
sS'DaftPunk'
p38
F0.010102935570000001
sS'vintageaudio'
p39
F0.0079269343443
sS'DJs'
p40
F0.026610644257699999
sS'postrock'
p41
F0.0071895424836600002
sS'House'
p42
F0.0138457191297
sS'futurebeats'
p43
F0.0229459659511
sS'TimAndEric'
p44
F0.0073404856013599999
sS'WeAreTheMusicMakers'
p45
F0.053535280508999999
sS'Design'
p46
F0.00738259197221
sS'guitarpedals'
p47
F0.032511572828100001
sS'Cyberpunk'
p48
F0.0094502779493499996
sS'indieheads'
p49
F0.0071985602879399996
sS'audio'
p50
F0.0113757015016
sS'classicalmusic'
p51
F0.0084493041749500002
s.