(dp1
S'circlebroke'
p2
F0.011822581924900001
sS'CityPorn'
p3
F0.0098563116019499998
sS'PanicHistory'
p4
F0.0156927215663
sS'ShitPoliticsSays'
p5
F0.0078572597806499996
sS'inthenews'
p6
F0.0153440187647
sS'Conservative'
p7
F0.0137199515766
sS'PoliticalDiscussion'
p8
F0.022019600545799999
sS'everymanshouldknow'
p9
F0.00748864281658
sS'dataisbeautiful'
p10
F0.0091888053103800008
sS'spacex'
p11
F0.00726927939317
sS'Foodforthought'
p12
F0.011795624006799999
sS'islam'
p13
F0.033132530120499999
sS'linguistics'
p14
F0.0095582536812199997
sS'languagelearning'
p15
F0.0081992337164800005
sS'TheoryOfReddit'
p16
F0.0096695356497699999
sS'TheBluePill'
p17
F0.0073431763143499999
sS'quityourbullshit'
p18
F0.0081504702194400008
sS'Documentaries'
p19
F0.0127593708166
sS'environment'
p20
F0.0099850563782100006
sS'PublicFreakout'
p21
F0.0096696984203000005
sS'MensRights'
p22
F0.0080487958246899995
sS'nononono'
p23
F0.0092619253287300005
sS'MilitaryPorn'
p24
F0.021934152686800001
sS'australia'
p25
F0.0072525714915999996
sS'Judaism'
p26
F0.011050380228099999
sS'misc'
p27
F0.0081637217624700009
sS'CrusaderKings'
p28
F0.0103546466477
sS'JusticePorn'
p29
F0.0090761614409999997
sS'UpliftingNews'
p30
F0.0078858236160999993
sS'spaceporn'
p31
F0.0082417582417599992
sS'WhiteRights'
p32
F0.0093030349245099998
sS'lostgeneration'
p33
F0.00951191391238
sS'toosoon'
p34
F0.0075064710957700002
sS'Military'
p35
F0.0173874633578
sS'GunsAreCool'
p36
F0.0081575246132200002
sS'AbandonedPorn'
p37
F0.0075692963752699996
sS'Republican'
p38
F0.0079419416678099992
sS'Liberal'
p39
F0.00839416058394
sS'progressive'
p40
F0.0097323600973199999
sS'progun'
p41
F0.00764591858712
sS'PropagandaPosters'
p42
F0.026512251148500001
sS'vexillology'
p43
F0.0183608499297
sS'SubredditDrama'
p44
F0.012778684067400001
sS'Cyberpunk'
p45
F0.0086313922553900007
sS'Libertarian'
p46
F0.0115055525214
sS'eu4'
p47
F0.0082683203307299998
sS'cringe'
p48
F0.0072834896007999998
sS'Firearms'
p49
F0.0073230916182400003
sS'Turkey'
p50
F0.028421512898999999
sS'TrueAtheism'
p51
F0.0080384908760200002
sS'badhistory'
p52
F0.0229969120754
sS'totalwar'
p53
F0.0129260450161
sS'energy'
p54
F0.0101424034423
sS'Christianity'
p55
F0.00872944520171
sS'POLITIC'
p56
F0.015133876600699999
sS'changemyview'
p57
F0.01039079729
sS'canada'
p58
F0.0085291005290999995
sS'forwardsfromgrandma'
p59
F0.0091560295147299995
sS'mountandblade'
p60
F0.0076978159684900002
sS'space'
p61
F0.0092377124321300005
sS'skeptic'
p62
F0.010806117034099999
sS'Warthunder'
p63
F0.0076272591609999997
sS'wikipedia'
p64
F0.0109933880347
sS'DebateReligion'
p65
F0.010604621715700001
sS'religion'
p66
F0.0095183486238500006
sS'outside'
p67
F0.0073324187520700003
sS'China'
p68
F0.0111239654712
sS'worldnews'
p69
F0.00754261777884
sS'Astronomy'
p70
F0.0070969715509300001
sS'guns'
p71
F0.0074996462430999998
sS'europe'
p72
F0.023637125246799999
sS'bestof'
p73
F0.0095470014060699999
sS'iran'
p74
F0.030708035004
sS'FloridaMan'
p75
F0.010123135211899999
sS'delusionalartists'
p76
F0.0074048362836999998
sS'Roadcam'
p77
F0.0088869715271799998
sS'lewronggeneration'
p78
F0.0073052649779500002
sS'PoliticalHumor'
p79
F0.0093596059113299993
sS'CanadaPolitics'
p80
F0.0082716586852399996
sS'RedditDayOf'
p81
F0.0085452900372000005
sS'WarshipPorn'
p82
F0.0164443065467
sS'Anarcho_Capitalism'
p83
F0.0121423819029
sS'privacy'
p84
F0.0100889192886
sS'watchpeopledie'
p85
F0.0162719298246
sS'ukpolitics'
p86
F0.0127098697631
sS'GunPorn'
p87
F0.0088326352212700007
sS'IWantOut'
p88
F0.0076422518159799998
sS'paradoxplaza'
p89
F0.0150282189264
sS'pakistan'
p90
F0.012488292226
sS'QuotesPorn'
p91
F0.0083678361298799991
sS'ShitAmericansSay'
p92
F0.0124442357361
sS'TrueReddit'
p93
F0.0133736704363
sS'Catholicism'
p94
F0.0085235083860300005
sS'AmIFreeToGo'
p95
F0.0085316569375800001
sS'Scotland'
p96
F0.011969853701800001
sS'IdiotsFightingThings'
p97
F0.0083849799489599999
sS'conspiratard'
p98
F0.019564477713499999
sS'ProtectAndServe'
p99
F0.011183913239899999
sS'exmuslim'
p100
F0.019512195122
sS'unitedkingdom'
p101
F0.0099275178385099996
sS'HistoryPorn'
p102
F0.017803503694400001
sS'AskHistorians'
p103
F0.020007096650899999
sS'army'
p104
F0.00745373543523
sS'Bad_Cop_No_Donut'
p105
F0.0138456059122
sS'ANormalDayInRussia'
p106
F0.016165183726099999
sS'MorbidReality'
p107
F0.0141992268229
sS'Whatcouldgowrong'
p108
F0.0079810241384100002
sS'OutOfTheLoop'
p109
F0.0079199479482199991
sS'arma'
p110
F0.0102504026944
sS'CombatFootage'
p111
F0.074945476174700001
sS'collapse'
p112
F0.011803427533800001
sS'occupywallstreet'
p113
F0.0117358782564
sS'MapPorn'
p114
F0.015883112627500001
sS'aviation'
p115
F0.0087833117077600002
sS'NeutralPolitics'
p116
F0.0144575385737
sS'rage'
p117
F0.0096522824116599994
sS'worldpolitics'
p118
F0.0271347333542
sS'science'
p119
F0.0071283966810200003
sS'offbeat'
p120
F0.0084209886301500007
sS'socialism'
p121
F0.0175765836861
sS'russia'
p122
F0.0301170694864
sS'history'
p123
F0.0146230861335
sS'fullmoviesonyoutube'
p124
F0.0076758647493200003
sS'AskScienceFiction'
p125
F0.00705072146917
sS'Economics'
p126
F0.0141254125413
sS'arabs'
p127
F0.0476600631639
sS'Infographics'
p128
F0.0070977151191099997
sS'india'
p129
F0.0083135391924000004
sS'TrueAskReddit'
p130
F0.010925256178399999
sS'conspiracy'
p131
F0.0148084578023
sS'politics'
p132
F0.0080044529685400004
sS'AnythingGoesNews'
p133
F0.0101781170483
sS'bestofworldstar'
p134
F0.0096666666666699996
sS'SRSsucks'
p135
F0.0081818181818200005
sS'Israel'
p136
F0.042610107958300003
sS'MURICA'
p137
F0.0093807763401099996
sS'AskSocialScience'
p138
F0.014348785871999999
sS'TheWayWeWere'
p139
F0.00718022361268
sS'nottheonion'
p140
F0.0080117641093299993
sS'nonononoyes'
p141
F0.00762200379376
sS'Ask_Politics'
p142
F0.015795141797299999
sS'FutureWhatIf'
p143
F0.0139638582492
sS'economy'
p144
F0.0104070066976
sS'BasicIncome'
p145
F0.0104436140653
sS'Anarchism'
p146
F0.0144644888672
sS'badphilosophy'
p147
F0.0078638648962199992
sS'Futurology'
p148
F0.0086720357099600003
sS'philosophy'
p149
F0.0073842096588099997
sS'wargame'
p150
F0.010673782521700001
sS'germany'
p151
F0.00867972607103
sS'EnoughLibertarianSpam'
p152
F0.0138383956843
sS'law'
p153
F0.0075790198949300001
sS'polandball'
p154
F0.018304370048599999
sS'MachinePorn'
p155
F0.007639141506
sS'HumanPorn'
p156
F0.0145845707121
sS'TumblrInAction'
p157
F0.00774344834695
sS'HailCorporate'
p158
F0.0113724476609
s.