(dp1
S'DeepIntoYouTube'
p2
F0.0071728039602000004
sS'dataisbeautiful'
p3
F0.0071243157835300004
sS'InternetIsBeautiful'
p4
F0.0077683298090899999
sS'ContagiousLaughter'
p5
F0.0070249017038000001
sS'counting'
p6
F0.0116648209671
sS'firstworldanarchists'
p7
F0.0074456769487899997
sS'CrazyIdeas'
p8
F0.0083852490477999992
sS'TheoryOfReddit'
p9
F0.0087797885683599999
sS'quityourbullshit'
p10
F0.0074036065093099996
sS'OutOfTheLoop'
p11
F0.0086208759155599994
sS'LearnUselessTalents'
p12
F0.0077835240035499997
sS'outside'
p13
F0.0076496044061700004
sS'chess'
p14
F0.0079163337932999997
sS'misleadingthumbnails'
p15
F0.0074544110399199998
sS'WebGames'
p16
F0.019407632703299999
sS'nonononoyes'
p17
F0.0090894282456399998
sS'SubredditDrama'
p18
F0.0084178233379499992
sS'bestof'
p19
F0.0078355337457599993
sS'notinteresting'
p20
F0.0099249491477899996
sS'needamod'
p21
F0.0082394484614100004
sS'Unexpected'
p22
F0.0073446417500000003
sS'baseball'
p23
F0.0074282109204900004
sS'shittyaskscience'
p24
F0.0074609936228700003
sS'lewronggeneration'
p25
F0.0071130043401400004
sS'youtubehaiku'
p26
F0.0101731526321
sS'CrappyDesign'
p27
F0.0072620882422100002
sS'nononono'
p28
F0.0083182160081400006
sS'behindthegifs'
p29
F0.0098381757999300001
sS'standupshots'
p30
F0.0076950229438800003
sS'wheredidthesodago'
p31
F0.0080265410958900007
sS'perfectloops'
p32
F0.0072249795815799997
sS'CollegeBasketball'
p33
F0.00850974048808
s.