(dp1
S'shanghai'
p2
F0.019638648860999999
sS'languagelearning'
p3
F0.0073721990493699997
sS'singapore'
p4
F0.00933333333333
sS'ChineseLanguage'
p5
F0.053284036537599999
sS'HongKong'
p6
F0.028721067747899998
sS'asianamerican'
p7
F0.022093743547399999
sS'LearnJapanese'
p8
F0.0071874631789799999
sS'TEFL'
p9
F0.018851570964199999
sS'korea'
p10
F0.01025390625
sS'China'
p11
F0.038317418107100001
sS'Thailand'
p12
F0.0103605470369
sS'japan'
p13
F0.012330275229400001
s.