(dp1
S'NewsOfTheStupid'
p2
F0.0122560877278
sS'pettyrevenge'
p3
F0.015964426301199999
sS'misc'
p4
F0.0080910997902300004
sS'ExpectationVsReality'
p5
F0.0071672354948799999
sS'rant'
p6
F0.0097465886939599993
sS'fatpeoplestories'
p7
F0.0097304865243299996
sS'forwardsfromgrandma'
p8
F0.0077804325185299996
sS'techsupportmacgyver'
p9
F0.011076427348699999
sS'quityourbullshit'
p10
F0.0075217054929899996
sS'TheFacebookDelusion'
p11
F0.0078869047618999998
sS'firstworldproblems'
p12
F0.0070323488045000004
sS'raisedbynarcissists'
p13
F0.0093038177735000008
sS'talesfromtechsupport'
p14
F0.021994206882999998
sS'cablefail'
p15
F0.011118598382700001
sS'TalesFromYourServer'
p16
F0.039344830574599997
sS'childfree'
p17
F0.0080146635997699993
sS'TalesFromRetail'
p18
F0.030455629068099999
sS'LetsNotMeet'
p19
F0.0073281080736599998
sS'Roadcam'
p20
F0.0074978577549299997
sS'techsupportgore'
p21
F0.0123801583993
sS'TalesFromThePizzaGuy'
p22
F0.0352422907489
sS'NewsOfTheWeird'
p23
F0.0083956926446400008
sS'softwaregore'
p24
F0.011168290813500001
sS'HailCorporate'
p25
F0.0074610957152
s.