(dp1
S'awwwtf'
p2
F0.011608924360599999
sS'LifeProTips'
p3
F0.0073940753376400001
sS'Justrolledintotheshop'
p4
F0.0145072536268
sS'talesfromcallcenters'
p5
F0.0352422907489
sS'pettyrevenge'
p6
F0.025339673912999999
sS'PublicFreakout'
p7
F0.012077641984199999
sS'fffffffuuuuuuuuuuuu'
p8
F0.0084983627007599993
sS'dadjokes'
p9
F0.011673293692799999
sS'BuyItForLife'
p10
F0.0099277291745900002
sS'futurama'
p11
F0.0090562197914000001
sS'perfectloops'
p12
F0.0080366584420200008
sS'everymanshouldknow'
p13
F0.010312211080299999
sS'Foodforthought'
p14
F0.0077189570291100002
sS'TalesFromRetail'
p15
F0.035286352558900003
sS'TheoryOfReddit'
p16
F0.0082548417821999998
sS'WouldYouRather'
p17
F0.0080614203454899992
sS'quityourbullshit'
p18
F0.01429696731
sS'Honda'
p19
F0.0078110470522599999
sS'LearnUselessTalents'
p20
F0.0096021159153599992
sS'ProtectAndServe'
p21
F0.012367291619600001
sS'HistoryPorn'
p22
F0.00704668155504
sS'StonerEngineering'
p23
F0.00866587462436
sS'shittybattlestations'
p24
F0.010270957644499999
sS'whowouldwin'
p25
F0.0073496905393500003
sS'holdmybeer'
p26
F0.0125283814466
sS'ImaginaryMonsters'
p27
F0.0070143054914599996
sS'CCW'
p28
F0.0082877016427399999
sS'texas'
p29
F0.0070724729815599997
sS'MensRights'
p30
F0.0079474775397400006
sS'nononono'
p31
F0.0132820019249
sS'offmychest'
p32
F0.0085096230316499995
sS'Frisson'
p33
F0.0074795280159900002
sS'YouShouldKnow'
p34
F0.0120568700152
sS'childfree'
p35
F0.010922047217900001
sS'whitepeoplegifs'
p36
F0.0093310005831900005
sS'JusticePorn'
p37
F0.010726188142400001
sS'howto'
p38
F0.0073494058657900003
sS'AbandonedPorn'
p39
F0.0093903393327200001
sS'geek'
p40
F0.0085934581026499996
sS'NoStupidQuestions'
p41
F0.0109821344764
sS'3amjokes'
p42
F0.00876826722338
sS'toosoon'
p43
F0.0101864640884
sS'IWantToLearn'
p44
F0.0076042013212299997
sS'creepyPMs'
p45
F0.0113920255821
sS'IdiotsFightingThings'
p46
F0.0124261436316
sS'WatchItForThePlot'
p47
F0.0071672157678699996
sS'techsupportgore'
p48
F0.015461556081500001
sS'freebies'
p49
F0.012567396130699999
sS'PropagandaPosters'
p50
F0.0074032424327599997
sS'CrappyDesign'
p51
F0.0101492209787
sS'NewsOfTheWeird'
p52
F0.0073264781490999997
sS'ConfusedBoners'
p53
F0.0071641235578699999
sS'Enhancement'
p54
F0.0083518930957700004
sS'zombies'
p55
F0.0079174450671600002
sS'DeepIntoYouTube'
p56
F0.0092577193857799993
sS'ArcherFX'
p57
F0.0074656188605100003
sS'talesfromtechsupport'
p58
F0.022975395144199998
sS'TrueAtheism'
p59
F0.0074364679704900004
sS'whatisthisthing'
p60
F0.0107760112606
sS'EatCheapAndHealthy'
p61
F0.0095978818467599997
sS'NetflixBestOf'
p62
F0.0092527292730399998
sS'Paranormal'
p63
F0.0072391412880700003
sS'see'
p64
F0.0072815533980600004
sS'AutoDetailing'
p65
F0.0073124492190999998
sS'MechanicAdvice'
p66
F0.0096096454577999993
sS'changemyview'
p67
F0.0076243662864399998
sS'fatpeoplestories'
p68
F0.016109045848800001
sS'tifu'
p69
F0.00751696593824
sS'popping'
p70
F0.0077704992094000001
sS'firstworldanarchists'
p71
F0.0110009831797
sS'offbeat'
p72
F0.0094878968495299993
sS'no_sob_story'
p73
F0.0084792423741899998
sS'humor'
p74
F0.0088858928790299992
sS'Glitch_in_the_Matrix'
p75
F0.010650670257699999
sS'skeptic'
p76
F0.0080246023737399995
sS'shittyfoodporn'
p77
F0.010758611750200001
sS'wikipedia'
p78
F0.0071281482654799999
sS'ExpectationVsReality'
p79
F0.012916188289299999
sS'breakingbad'
p80
F0.0080119739390699992
sS'firstworldproblems'
p81
F0.011947863866799999
sS'outside'
p82
F0.00913566221717
sS'AskCulinary'
p83
F0.00896886934383
sS'facepalm'
p84
F0.0093579836316800002
sS'foodhacks'
p85
F0.0113371391815
sS'lifehacks'
p86
F0.010449006070200001
sS'SubredditDrama'
p87
F0.0093047549038599991
sS'blackpeoplegifs'
p88
F0.0083685280775799998
sS'bestof'
p89
F0.0085583156095100001
sS'casualiama'
p90
F0.0103170881281
sS'LetsNotMeet'
p91
F0.0134228187919
sS'legaladvice'
p92
F0.0089035406499800001
sS'delusionalartists'
p93
F0.0118363794604
sS'Random_Acts_Of_Pizza'
p94
F0.011301872142199999
sS'KitchenConfidential'
p95
F0.014273908797200001
sS'Frugal'
p96
F0.0094364199496299993
sS'bigboobproblems'
p97
F0.0078375096589
sS'answers'
p98
F0.010495175036999999
sS'shittyaskscience'
p99
F0.0083865182762799997
sS'ainbow'
p100
F0.0070242128749700003
sS'TopGear'
p101
F0.0077096732972699996
sS'ThriftStoreHauls'
p102
F0.011621355120400001
sS'RedditDayOf'
p103
F0.0072108162243399998
sS'recipes'
p104
F0.0077992359932100002
sS'Roadcam'
p105
F0.0114803625378
sS'beermoney'
p106
F0.0073697046816200004
sS'howtonotgiveafuck'
p107
F0.0078262349004700003
sS'wheredidthesodago'
p108
F0.011787144764399999
sS'AnimalsBeingBros'
p109
F0.0094946791563100003
sS'classic4chan'
p110
F0.0095827679782900001
sS'ANormalDayInRussia'
p111
F0.0099063279196699994
sS'TrueReddit'
p112
F0.0082125719196899996
sS'drunk'
p113
F0.0098843970175799996
sS'Assistance'
p114
F0.0080020989111899993
sS'AmIFreeToGo'
p115
F0.0123609394314
sS'misc'
p116
F0.0082534017399100001
sS'patientgamers'
p117
F0.0093713591003500001
sS'KingOfTheHill'
p118
F0.0091401489505800008
sS'NotTimAndEric'
p119
F0.0070292267850500002
sS'rant'
p120
F0.0088368760449000008
sS'conspiratard'
p121
F0.0098154691794300006
sS'DoesAnybodyElse'
p122
F0.0086923466801799992
sS'startrek'
p123
F0.0089354424967899998
sS'introvert'
p124
F0.0070059590916400002
sS'confession'
p125
F0.010008394137
sS'ContagiousLaughter'
p126
F0.0079593955473499997
sS'nostalgia'
p127
F0.0094658553076400007
sS'Damnthatsinteresting'
p128
F0.0090781230021700007
sS'FiftyFifty'
p129
F0.0083192478343500006
sS'CrazyIdeas'
p130
F0.011765440189700001
sS'eldertrees'
p131
F0.0084040819826800006
sS'Bad_Cop_No_Donut'
p132
F0.0124794599636
sS'OutOfTheLoop'
p133
F0.012387666388899999
sS'Whatcouldgowrong'
p134
F0.012492997198899999
sS'RandomActsOfPizza'
p135
F0.0121876904327
sS'TheFacebookDelusion'
p136
F0.0082121851070900004
sS'GamePhysics'
p137
F0.0083835310190599997
sS'MorbidReality'
p138
F0.0094809655105700004
sS'Autos'
p139
F0.0074162789626399999
sS'PenmanshipPorn'
p140
F0.0070256325813700003
sS'shittyreactiongifs'
p141
F0.0076227619216499998
sS'misleadingthumbnails'
p142
F0.010436104775700001
sS'shittyadvice'
p143
F0.00838293234974
sS'raisedbynarcissists'
p144
F0.0107772096958
sS'confessions'
p145
F0.00820895522388
sS'Pareidolia'
p146
F0.0098612845966699995
sS'happy'
p147
F0.0071687236715700002
sS'fatlogic'
p148
F0.0095874329159199995
sS'cablefail'
p149
F0.010697787503
sS'explainlikeIAmA'
p150
F0.0097560975609800003
sS'DaystromInstitute'
p151
F0.0078427159432700004
sS'FloridaMan'
p152
F0.0148473690462
sS'lockpicking'
p153
F0.0070715999494900001
sS'snackexchange'
p154
F0.0086434067671599998
sS'mildlyinfuriating'
p155
F0.0104536549529
sS'cordcutters'
p156
F0.0073953131002700003
sS'somethingimade'
p157
F0.0070786400743999998
sS'Unexpected'
p158
F0.0091860293756400001
sS'Awwducational'
p159
F0.0086131485095200001
sS'Shitty_Car_Mods'
p160
F0.0122905414762
sS'ghettoglamourshots'
p161
F0.0094601051122799994
sS'blunderyears'
p162
F0.011666896330000001
sS'EDC'
p163
F0.0075502989569200003
sS'calvinandhobbes'
p164
F0.0072661993503199997
sS'showerbeer'
p165
F0.0073449401523400003
sS'rage'
p166
F0.0107881471711
sS'comics'
p167
F0.0074001241978899996
sS'AMA'
p168
F0.0076586107220600001
sS'Flipping'
p169
F0.0086635944700500008
sS'Perfectfit'
p170
F0.0109112607621
sS'PerfectTiming'
p171
F0.010383575932899999
sS'behindthegifs'
p172
F0.0081215744892900003
sS'standupshots'
p173
F0.0096009036144599994
sS'MarkMyWords'
p174
F0.0076391795730400003
sS'findareddit'
p175
F0.010122654056499999
sS'Cartalk'
p176
F0.0090610215700400003
sS'fullmoviesonyoutube'
p177
F0.0084494731219299998
sS'AskScienceFiction'
p178
F0.0091893665900900003
sS'NewsOfTheStupid'
p179
F0.011899151743599999
sS'awesome'
p180
F0.0079944039172599995
sS'Cooking'
p181
F0.0080850024425999992
sS'TrollYChromosome'
p182
F0.0079930994824600008
sS'TrueAskReddit'
p183
F0.0094623009912899996
sS'FanTheories'
p184
F0.0097857818346299991
sS'spicy'
p185
F0.0085343650432400005
sS'TalesFromYourServer'
p186
F0.056811465721000001
sS'bestofworldstar'
p187
F0.0085562385778400005
sS'Pizza'
p188
F0.016641065028200001
sS'techsupportmacgyver'
p189
F0.014953578177599999
sS'MURICA'
p190
F0.0083508270087000007
sS'eatsandwiches'
p191
F0.0095219774935099994
sS'softwaregore'
p192
F0.0110323089046
sS'self'
p193
F0.010015430750900001
sS'shittyama'
p194
F0.0075512405609499999
sS'TheWayWeWere'
p195
F0.0080901177675399994
sS'badtattoos'
p196
F0.0084642366936099993
sS'slowcooking'
p197
F0.010153911928199999
sS'UnresolvedMysteries'
p198
F0.0091933079343999996
sS'nottheonion'
p199
F0.0074907948518700002
sS'watchpeopledie'
p200
F0.0089165325562200002
sS'nonononoyes'
p201
F0.0119743900329
sS'Frugal_Jerk'
p202
F0.0110281447444
sS'FutureWhatIf'
p203
F0.0070889018012799997
sS'firefly'
p204
F0.0081879909466099996
sS'notinteresting'
p205
F0.0086463923673200001
sS'forwardsfromgrandma'
p206
F0.0129028775036
sS'AnimalsBeingJerks'
p207
F0.0104254307349
sS'highdeas'
p208
F0.0077286884300400002
sS'budgetfood'
p209
F0.0092705309485900007
sS'interestingasfuck'
p210
F0.0086036742750099995
sS'DumpsterDiving'
p211
F0.0072821846553999996
sS'oddlysatisfying'
p212
F0.0086220746532400007
sS'urbanexploration'
p213
F0.0090178717822600001
sS'NSFWFunny'
p214
F0.0072823568354799997
sS'terriblefacebookmemes'
p215
F0.0094560518732000002
sS'TumblrInAction'
p216
F0.0079356899927900005
sS'thatHappened'
p217
F0.0098267821452399998
sS'tall'
p218
F0.0072683222289500003
sS'HailCorporate'
p219
F0.011434958301099999
sS'ImGoingToHellForThis'
p220
F0.00703066149597
sS'cableporn'
p221
F0.00800392028749
sS'shutupandtakemymoney'
p222
F0.0087296665553599998
s.