(dp1
S'MapPorn'
p2
F0.0089605418658399993
sS'ABraThatFits'
p3
F0.0103092783505
sS'Shitty_Car_Mods'
p4
F0.0109455123399
sS'uglyduckling'
p5
F0.0070971333147800001
sS'KitchenConfidential'
p6
F0.059163229227999999
sS'BuyItForLife'
p7
F0.0126648387518
sS'everymanshouldknow'
p8
F0.0138426439758
sS'relationships'
p9
F0.0117093122016
sS'Showerthoughts'
p10
F0.0076308264719100001
sS'HistoryPorn'
p11
F0.011180395583399999
sS'holdmybeer'
p12
F0.013213130548500001
sS'YouShouldKnow'
p13
F0.0180744581263
sS'horror'
p14
F0.0075137472190700003
sS'UpliftingNews'
p15
F0.010880684460199999
sS'PandR'
p16
F0.0094844486832999994
sS'Jokes'
p17
F0.0077595416140599999
sS'inthenews'
p18
F0.00730766628324
sS'3amjokes'
p19
F0.0073393187972100003
sS'Military'
p20
F0.0090985963132100001
sS'photoshopbattles'
p21
F0.0078866156132099997
sS'IWantToLearn'
p22
F0.0108669974014
sS'beermoney'
p23
F0.0083336913097599996
sS'CrappyDesign'
p24
F0.015840610011100001
sS'NewsOfTheWeird'
p25
F0.0078598329785500003
sS'Libertarian'
p26
F0.0096653112292800006
sS'Paleo'
p27
F0.0087736400857899993
sS'EatCheapAndHealthy'
p28
F0.017584043977700001
sS'gentlemanboners'
p29
F0.0080504942241299993
sS'redditgetsdrawn'
p30
F0.0077394481687100003
sS'MechanicAdvice'
p31
F0.0080120652276399994
sS'fatpeoplestories'
p32
F0.029706689784700001
sS'OneY'
p33
F0.0074748371817600001
sS'depression'
p34
F0.00727394184558
sS'forwardsfromgrandma'
p35
F0.0170270506872
sS'no_sob_story'
p36
F0.0072415576738299996
sS'Glitch_in_the_Matrix'
p37
F0.0119598765432
sS'skeptic'
p38
F0.0133784590882
sS'socialskills'
p39
F0.0083847301165000006
sS'guns'
p40
F0.0072313829219899997
sS'disney'
p41
F0.0099538722991000007
sS'tattoos'
p42
F0.010054653133499999
sS'FloridaMan'
p43
F0.016261312217200001
sS'LetsNotMeet'
p44
F0.0181613339342
sS'legaladvice'
p45
F0.0142044789741
sS'answers'
p46
F0.012046248991700001
sS'lgbt'
p47
F0.0107462686567
sS'baseball'
p48
F0.0074631183106699996
sS'Random_Acts_Of_Pizza'
p49
F0.010545363783900001
sS'doctorwho'
p50
F0.011528854159999999
sS'WritingPrompts'
p51
F0.00917173982698
sS'ThriftStoreHauls'
p52
F0.012688172043
sS'glutenfree'
p53
F0.0076851420586899998
sS'vegetarian'
p54
F0.0073330528340399999
sS'personalfinance'
p55
F0.0082585133058300005
sS'creepy'
p56
F0.0078355635260000008
sS'Hair'
p57
F0.0077342121191700001
sS'IWantOut'
p58
F0.0078637700837299995
sS'whatsthisbug'
p59
F0.0079154612664699992
sS'QuotesPorn'
p60
F0.0082454668174699996
sS'TrueReddit'
p61
F0.0138717030283
sS'todayilearned'
p62
F0.0070854450301700003
sS'Assistance'
p63
F0.0104400081483
sS'confession'
p64
F0.016950598674700001
sS'KingOfTheHill'
p65
F0.0075854299661999997
sS'IdiotsFightingThings'
p66
F0.0120424123207
sS'Health'
p67
F0.0071479289940800002
sS'ContagiousLaughter'
p68
F0.0074356267498999996
sS'HIMYM'
p69
F0.0095474271543700001
sS'FiftyFifty'
p70
F0.00961037731383
sS'eldertrees'
p71
F0.0076354832702200002
sS'AskHistorians'
p72
F0.0101575506068
sS'Drugs'
p73
F0.0077343693790900003
sS'OutOfTheLoop'
p74
F0.017101932456600001
sS'stopsmoking'
p75
F0.0074383261090600001
sS'misleadingthumbnails'
p76
F0.0088238402198000006
sS'Pareidolia'
p77
F0.0117839106259
sS'tipofmytongue'
p78
F0.0101442108499
sS'cordcutters'
p79
F0.0098801682406199996
sS'LifeProTips'
p80
F0.012174106762599999
sS'TheGirlSurvivalGuide'
p81
F0.016841004184099999
sS'AskMen'
p82
F0.013193871793800001
sS'ghettoglamourshots'
p83
F0.0137531180476
sS'EDC'
p84
F0.0088958851954900001
sS'showerbeer'
p85
F0.010505836575900001
sS'techsupportgore'
p86
F0.016188638519100001
sS'science'
p87
F0.0089584668096600005
sS'firstworldproblems'
p88
F0.0150557972385
sS'findareddit'
p89
F0.0113712374582
sS'standupshots'
p90
F0.0152508274385
sS'history'
p91
F0.0072261231167799998
sS'AskScienceFiction'
p92
F0.0107588518012
sS'NewsOfTheStupid'
p93
F0.0130293159609
sS'awesome'
p94
F0.0079612322603000007
sS'DecidingToBeBetter'
p95
F0.0072242289524900001
sS'CampingandHiking'
p96
F0.0070400570333700001
sS'Pizza'
p97
F0.010795139103099999
sS'techsupportmacgyver'
p98
F0.0112994350282
sS'MURICA'
p99
F0.0108672848571
sS'technology'
p100
F0.0078102886137499999
sS'travel'
p101
F0.0081738768718800005
sS'scifi'
p102
F0.0096382744005100007
sS'RedditLaqueristas'
p103
F0.015189346649999999
sS'spaceporn'
p104
F0.0084396012056599991
sS'nyc'
p105
F0.0089684581020700004
sS'askscience'
p106
F0.0084681065971400002
sS'budgetfood'
p107
F0.013759638394
sS'Mommit'
p108
F0.0084074826595700002
sS'Images'
p109
F0.0070757836264999999
sS'piercing'
p110
F0.0070577856197599998
sS'dogpictures'
p111
F0.0085184386456800005
sS'law'
p112
F0.0071508518840899997
sS'dating_advice'
p113
F0.0071581654522099997
sS'FanTheories'
p114
F0.0123439570402
sS'crafts'
p115
F0.0086373598040499992
sS'tall'
p116
F0.0101306649024
sS'ImGoingToHellForThis'
p117
F0.010758500665799999
sS'needadvice'
p118
F0.0092895648825599992
sS'bartenders'
p119
F0.036484381405299998
sS'wine'
p120
F0.011482181614500001
sS'DoesAnybodyElse'
p121
F0.013667895327300001
sS'pettyrevenge'
p122
F0.046530587595900001
sS'CityPorn'
p123
F0.0074955495174699998
sS'DeepIntoYouTube'
p124
F0.0074630180800499997
sS'dataisbeautiful'
p125
F0.0090245828002100004
sS'BabyBumps'
p126
F0.0098901621416
sS'nostalgia'
p127
F0.0152409806164
sS'Documentaries'
p128
F0.0070222848116900001
sS'writing'
p129
F0.0075426535667599999
sS'WTF'
p130
F0.0071334772456100003
sS'texas'
p131
F0.0081138287864500006
sS'MensRights'
p132
F0.0103634102529
sS'Frisson'
p133
F0.0093411008437099992
sS'childfree'
p134
F0.0235674404937
sS'food'
p135
F0.0108375076073
sS'whitepeoplegifs'
p136
F0.0075927838182600002
sS'starbucks'
p137
F0.0074680453827399998
sS'NoStupidQuestions'
p138
F0.0153187965774
sS'creepyPMs'
p139
F0.0215236643012
sS'WatchItForThePlot'
p140
F0.0083344845052299998
sS'freebies'
p141
F0.0154960075788
sS'SubredditDrama'
p142
F0.016180533132400001
sS'minimalism'
p143
F0.0095423219650100002
sS'mildlyinteresting'
p144
F0.0084346795645200007
sS'TrueAtheism'
p145
F0.0102996691057
sS'badhistory'
p146
F0.0089159187529499993
sS'ADHD'
p147
F0.0084102007596299991
sS'books'
p148
F0.0083306032667199992
sS'TwoXChromosomes'
p149
F0.0117570018892
sS'Feminism'
p150
F0.0088026182146500008
sS'canada'
p151
F0.0076124968603299998
sS'DunderMifflin'
p152
F0.0088955137760299997
sS'psychology'
p153
F0.0071650090899399999
sS'space'
p154
F0.0073742943844399998
sS'shittyfoodporn'
p155
F0.016821577236700001
sS'LearnUselessTalents'
p156
F0.012639610240399999
sS'RoomPorn'
p157
F0.0095619123824799996
sS'memes'
p158
F0.0070570395427499997
sS'bestof'
p159
F0.013780548677199999
sS'LadyBoners'
p160
F0.0142052245177
sS'Roadcam'
p161
F0.0109265734266
sS'GamePhysics'
p162
F0.0074423582060499996
sS'PoliticalHumor'
p163
F0.0082062504274099998
sS'recipes'
p164
F0.014437624276
sS'TalesFromThePizzaGuy'
p165
F0.056811465721000001
sS'howtonotgiveafuck'
p166
F0.0105856162828
sS'MakeupAddicts'
p167
F0.0096337748813499994
sS'whatstheword'
p168
F0.0083391730904000001
sS'weddingplanning'
p169
F0.012068161806599999
sS'misc'
p170
F0.0097138160352700006
sS'patientgamers'
p171
F0.0082648043307599998
sS'rant'
p172
F0.0125797306875
sS'conspiratard'
p173
F0.010929207519999999
sS'OldSchoolCool'
p174
F0.0082182327662800002
sS'lego'
p175
F0.0087191618790099998
sS'ANormalDayInRussia'
p176
F0.010647138257
sS'TheFacebookDelusion'
p177
F0.0105843768634
sS'PenmanshipPorn'
p178
F0.0113903293002
sS'tea'
p179
F0.0072777777777800002
sS'explainlikeimfive'
p180
F0.0082227280036599997
sS'dogs'
p181
F0.012439082575099999
sS'TrollYChromosome'
p182
F0.014244226248099999
sS'shittyadvice'
p183
F0.0076326555535200001
sS'mildlyinfuriating'
p184
F0.017097840045
sS'breakingmom'
p185
F0.0089945880021300006
sS'madmen'
p186
F0.0070536540240500002
sS'Awwducational'
p187
F0.0121171147746
sS'toronto'
p188
F0.0075252429034100001
sS'television'
p189
F0.0084018713258900007
sS'worldpolitics'
p190
F0.0091213358343399994
sS'nononono'
p191
F0.015958293537099998
sS'gallifrey'
p192
F0.0094251171971400007
sS'FoodPorn'
p193
F0.0137533368927
sS'boston'
p194
F0.0076971083836099999
sS'sysadmin'
p195
F0.0075609587939199996
sS'conspiracy'
p196
F0.0097656906578799992
sS'HighQualityGifs'
p197
F0.0075213103794099997
sS'self'
p198
F0.0158483127124
sS'Parenting'
p199
F0.013765503930999999
sS'britishproblems'
p200
F0.0091637352567299993
sS'UnresolvedMysteries'
p201
F0.011537527325700001
sS'nonononoyes'
p202
F0.0136805075318
sS'firefly'
p203
F0.0101956745623
sS'RandomKindness'
p204
F0.0083620840886499993
sS'Futurology'
p205
F0.0072070018112499997
sS'sewing'
p206
F0.0102158828065
sS'progresspics'
p207
F0.0085830870972299998
sS'crochet'
p208
F0.0100587243444
sS'beyondthebump'
p209
F0.0072715143428999998
sS'TumblrInAction'
p210
F0.014559772342600001
sS'secretsanta'
p211
F0.012691439380100001
sS'HailCorporate'
p212
F0.0109582217795
sS'talesfromcallcenters'
p213
F0.039344830574599997
sS'fffffffuuuuuuuuuuuu'
p214
F0.0122088127982
sS'PoliticalDiscussion'
p215
F0.0090926585201600001
sS'Foodforthought'
p216
F0.0103176888377
sS'RandomActsofMakeup'
p217
F0.0102391472053
sS'TheoryOfReddit'
p218
F0.0082097076191800008
sS'TheBluePill'
p219
F0.0113973367448
sS'harrypotter'
p220
F0.013555895388900001
sS'wicked_edge'
p221
F0.0077345731191899997
sS'booksuggestions'
p222
F0.0074706038369700004
sS'whowouldwin'
p223
F0.0083265587662899997
sS'ProgrammerHumor'
p224
F0.0083391817693900007
sS'CCW'
p225
F0.0080761947198400002
sS'Anxiety'
p226
F0.0086433260393899997
sS'arresteddevelopment'
p227
F0.0081109805895799997
sS'shutupandtakemymoney'
p228
F0.0120486687209
sS'JusticePorn'
p229
F0.015083295812699999
sS'geek'
p230
F0.0121156466615
sS'xxketo'
p231
F0.0073134424956299996
sS'lostgeneration'
p232
F0.0078586781300400005
sS'wedding'
p233
F0.0082173174872700004
sS'spicy'
p234
F0.00846944948578
sS'beards'
p235
F0.0083911293775200003
sS'PrettyGirlsUglyFaces'
p236
F0.0088655924415999999
sS'AbandonedPorn'
p237
F0.0124822782469
sS'progressive'
p238
F0.00717205766334
sS'thatHappened'
p239
F0.0158581016299
sS'futurama'
p240
F0.0097208374875399992
sS'corgi'
p241
F0.0073783172676400001
sS'cringe'
p242
F0.0101316340705
sS'StarWars'
p243
F0.0085029413753499993
sS'AskWomen'
p244
F0.016743721104599998
sS'TheSimpsons'
p245
F0.0096459285658899996
sS'sex'
p246
F0.010737213297600001
sS'cocktails'
p247
F0.014543132803599999
sS'Justrolledintotheshop'
p248
F0.014483065953700001
sS'changemyview'
p249
F0.014199600579
sS'entwives'
p250
F0.0073211314475899996
sS'firstworldanarchists'
p251
F0.0118990956687
sS'PerfectTiming'
p252
F0.0128456945317
sS'cosplay'
p253
F0.0070989115002399999
sS'truegaming'
p254
F0.0087386424371999998
sS'lotr'
p255
F0.0071400062086999999
sS'AmericanHorrorStory'
p256
F0.00870909559392
sS'wikipedia'
p257
F0.0087441314553999994
sS'breakingbad'
p258
F0.0090979984403400001
sS'outside'
p259
F0.0099064176357699998
sS'AskCulinary'
p260
F0.020398658718299999
sS'foodhacks'
p261
F0.0157264549949
sS'StandUpComedy'
p262
F0.0070703408266899999
sS'jobs'
p263
F0.0106339187706
sS'tonightsdinner'
p264
F0.0089192446765800001
sS'casualiama'
p265
F0.013301392122999999
sS'facepalm'
p266
F0.017815801174400001
sS'bigboobproblems'
p267
F0.0111499293838
sS'news'
p268
F0.0075698385191200002
sS'Unexpected'
p269
F0.0125292937338
sS'RedditDayOf'
p270
F0.0072790294627400002
sS'relationship_advice'
p271
F0.010499542171099999
sS'itookapicture'
p272
F0.0077898428542499997
sS'Sherlock'
p273
F0.0075914423740499996
sS'drunk'
p274
F0.0144408640649
sS'xxfitness'
p275
F0.0101800761367
sS'reactiongifs'
p276
F0.0097434172854799998
sS'community'
p277
F0.0090131597892099992
sS'startrek'
p278
F0.010111187075
sS'rpg'
p279
F0.0083591554370500004
sS'femalefashionadvice'
p280
F0.013719185423399999
sS'BeautyBoxes'
p281
F0.0079408758550199993
sS'ainbow'
p282
F0.0095751772619799991
sS'RandomActsOfPizza'
p283
F0.0096496748479099996
sS'beer'
p284
F0.0125379005163
sS'ketorecipes'
p285
F0.0089854598921700005
sS'confessions'
p286
F0.0089132444209699992
sS'fatlogic'
p287
F0.019643305702099999
sS'MakeupAddiction'
p288
F0.014948495637799999
sS'somethingimade'
p289
F0.0109686128923
sS'TopGear'
p290
F0.0074490563334900003
sS'curlyhair'
p291
F0.0097016413050699992
sS'Flipping'
p292
F0.0073836905384199996
sS'Perfectfit'
p293
F0.0100810192343
sS'offbeat'
p294
F0.016240861143299999
sS'softwaregore'
p295
F0.0104068117313
sS'socialism'
p296
F0.0070073307460100003
sS'stopdrinking'
p297
F0.0081123419492000002
sS'Cooking'
p298
F0.0195239368815
sS'IASIP'
p299
F0.0085597499398899993
sS'LosAngeles'
p300
F0.0073952641165800003
sS'DIY'
p301
F0.0089644188863099994
sS'ShitRedditSays'
p302
F0.0072412575061799999
sS'southpark'
p303
F0.0093879083740100004
sS'cripplingalcoholism'
p304
F0.0115801014115
sS'pitbulls'
p305
F0.0081572355321499999
sS'daddit'
p306
F0.0085268884703899993
sS'watchpeopledie'
p307
F0.0091913776124299996
sS'Whatcouldgowrong'
p308
F0.015119708102199999
sS'talesfromtechsupport'
p309
F0.032344036501599997
sS'knitting'
p310
F0.0096176680123500006
sS'notinteresting'
p311
F0.00953935785396
sS'AnimalsBeingJerks'
p312
F0.0140600315956
sS'thesims'
p313
F0.0085767379806499996
sS'HumanPorn'
p314
F0.010731905803399999
sS'Fantasy'
p315
F0.0074012300635900004
sS'Portland'
p316
F0.0073096675038399998
sS'FancyFollicles'
p317
F0.016119313046099999
sS'awwwtf'
p318
F0.0127017043614
sS'PublicFreakout'
p319
F0.016000317624200001
sS'Conservative'
p320
F0.00877072769631
sS'dadjokes'
p321
F0.0137874590783
sS'woodworking'
p322
F0.0077268759496899996
sS'perfectloops'
p323
F0.0089218531656499993
sS'Pets'
p324
F0.0116994068673
sS'InternetIsBeautiful'
p325
F0.0087549760572299996
sS'TalesFromRetail'
p326
F0.070997515087000002
sS'WouldYouRather'
p327
F0.00744005036342
sS'quityourbullshit'
p328
F0.019667375096999999
sS'Advice'
p329
F0.00850270371061
sS'ProtectAndServe'
p330
F0.0138040280606
sS'woahdude'
p331
F0.0095940959409599996
sS'offmychest'
p332
F0.017120563615000001
sS'AmIFreeToGo'
p333
F0.010796221322500001
sS'slowcooking'
p334
F0.016790639001300001
sS'howto'
p335
F0.0089088033737499996
sS'cringepics'
p336
F0.012027042900600001
sS'toosoon'
p337
F0.0081022125272699995
sS'thewalkingdead'
p338
F0.0084372162139799995
sS'Paranormal'
p339
F0.0084637964775000005
sS'4chan'
p340
F0.0081635702013700007
sS'Enhancement'
p341
F0.0082161167345900007
sS'zombies'
p342
F0.0079086676446199992
sS'ArcherFX'
p343
F0.010433938609599999
sS'gardening'
p344
F0.0097274222331099995
sS'whatisthisthing'
p345
F0.015930134680099999
sS'NetflixBestOf'
p346
F0.0134709807378
sS'tumblr'
p347
F0.011918189337499999
sS'interestingasfuck'
p348
F0.012016315731500001
sS'MarkMyWords'
p349
F0.0080777753949500004
sS'Coffee'
p350
F0.0096135577763399992
sS'gameofthrones'
p351
F0.0074697958493200002
sS'humor'
p352
F0.0129178963665
sS'AMA'
p353
F0.0095983967513100007
sS'SkincareAddiction'
p354
F0.0128704953266
sS'ExpectationVsReality'
p355
F0.0189661788083
sS'aww'
p356
F0.0074602945292700003
sS'lifehacks'
p357
F0.0164454214932
sS'DeadBedrooms'
p358
F0.0076978457107999996
sS'Economics'
p359
F0.0072773816054100002
sS'delusionalartists'
p360
F0.015714087053300001
sS'OkCupid'
p361
F0.0109316220403
sS'Frugal'
p362
F0.016698630137000001
sS'promos'
p363
F0.0090553977272699992
sS'shittyaskscience'
p364
F0.0096212945014399996
sS'lewronggeneration'
p365
F0.0087445573294599992
sS'calvinandhobbes'
p366
F0.0095013351549399997
sS'netflix'
p367
F0.0095671597757799997
sS'wheredidthesodago'
p368
F0.0136032176842
sS'AnimalsBeingBros'
p369
F0.0122072745391
sS'classic4chan'
p370
F0.0074429476533199998
sS'amiugly'
p371
F0.00703459742917
sS'Homebrewing'
p372
F0.0070653459991200001
sS'TrollXChromosomes'
p373
F0.0165506329114
sS'tifu'
p374
F0.011492057428499999
sS'Damnthatsinteresting'
p375
F0.0117896552964
sS'DnD'
p376
F0.0086789082993800008
sS'loseit'
p377
F0.0121013747311
sS'CrazyIdeas'
p378
F0.0148543448959
sS'Bad_Cop_No_Donut'
p379
F0.017157136996000001
sS'philadelphia'
p380
F0.00725163161711
sS'MorbidReality'
p381
F0.0142665876517
sS'gif'
p382
F0.0077380390676600004
sS'cats'
p383
F0.0136957025058
sS'introvert'
p384
F0.0086140319610299998
sS'raisedbynarcissists'
p385
F0.0221035122513
sS'happy'
p386
F0.0117942984908
sS'cablefail'
p387
F0.0078026481714999997
sS'explainlikeIAmA'
p388
F0.010509721492400001
sS'snackexchange'
p389
F0.011525716755499999
sS'beerporn'
p390
F0.0075784073685400003
sS'blunderyears'
p391
F0.015404659718000001
sS'Marvel'
p392
F0.00713284155337
sS'Random_Acts_Of_Amazon'
p393
F0.0093138605676500001
sS'rage'
p394
F0.018835064181100002
sS'comics'
p395
F0.0105461656656
sS'behindthegifs'
p396
F0.0095619483491299999
sS'fullmoviesonyoutube'
p397
F0.0097211665399799998
sS'keto'
p398
F0.0094611854865399997
sS'TrueAskReddit'
p399
F0.0124901096417
sS'politics'
p400
F0.0095107733698300001
sS'Dogtraining'
p401
F0.0090920336467099992
sS'bestofworldstar'
p402
F0.0070921985815599999
sS'DAE'
p403
F0.0071538068472200003
sS'ForeverAlone'
p404
F0.0081410448506600008
sS'eatsandwiches'
p405
F0.0108725013506
sS'shittyama'
p406
F0.0071528156634499997
sS'circlebroke'
p407
F0.0077111812127599998
sS'TheWayWeWere'
p408
F0.0090210726619199995
sS'badtattoos'
p409
F0.014735393612799999
sS'popping'
p410
F0.012591220176199999
sS'nottheonion'
p411
F0.011729893654399999
sS'Frugal_Jerk'
p412
F0.0105824133993
sS'Baking'
p413
F0.014464275967500001
sS'bigdickproblems'
p414
F0.00743924615639
sS'comicbooks'
p415
F0.00759037050026
sS'alcohol'
p416
F0.0076436071649199997
sS'oddlysatisfying'
p417
F0.0130420335604
sS'GirlGamers'
p418
F0.0088057523968299994
sS'entertainment'
p419
F0.0088838268792699997
sS'atheism'
p420
F0.0092247580603399999
sS'terriblefacebookmemes'
p421
F0.0080997685780399998
sS'urbanexploration'
p422
F0.0099301877708199999
s.