(dp1
S'HIMYM'
p2
F0.0071599954297900002
sS'WatchItForThePlot'
p3
F0.0086962081974600001
sS'gentlemanboners'
p4
F0.0110037423895
sS'Celebs'
p5
F0.0104798478269
sS'PrettyGirls'
p6
F0.0113793383728
sS'EmmaWatson'
p7
F0.016326089307
sS'disney'
p8
F0.0076896670099599997
sS'lewronggeneration'
p9
F0.0074356352820900001
s.