(dp1
S'literature'
p2
F0.0081985880209500001
sS'weddingplanning'
p3
F0.0070374053392499997
sS'TEFL'
p4
F0.0161583151779
sS'Parenting'
p5
F0.0074849785407699997
sS'Teachers'
p6
F0.122396634862
sS'education'
p7
F0.070847708230699996
s.