(dp1
S'GlobalOffensive'
p2
F0.0083421454588199998
sS'LeagueofLegendsMeta'
p3
F0.024279285961499999
sS'heroesofthestorm'
p4
F0.0070724526369700001
sS'wow'
p5
F0.00729939485111
sS'summonerschool'
p6
F0.059036171297999998
sS'dawngate'
p7
F0.0074104151862800002
sS'leagueoflegends'
p8
F0.027308403773299999
sS'hearthstone'
p9
F0.0106391467404
sS'LeagueOfMemes'
p10
F0.0136934808291
sS'Twitch'
p11
F0.0075465196416299998
s.