(dp1
S'Shitty_Car_Mods'
p2
F0.051758035755099997
sS'inthenews'
p3
F0.0086088537608099997
sS'AndroidGaming'
p4
F0.0164257555848
sS'milf'
p5
F0.0078600029660399993
sS'KitchenConfidential'
p6
F0.0094717182497299993
sS'BuyItForLife'
p7
F0.027344954346000001
sS'SampleSize'
p8
F0.0084748742834999998
sS'everymanshouldknow'
p9
F0.028712600756
sS'wiiu'
p10
F0.0142897114078
sS'shittyaskreddit'
p11
F0.0081580575316999998
sS'RandomActsOfGaming'
p12
F0.021157086687899999
sS'relationships'
p13
F0.010366766467100001
sS'AskMen'
p14
F0.016956655631699999
sS'gonewild'
p15
F0.0088951547643099996
sS'Honda'
p16
F0.0087334648834300008
sS'unixporn'
p17
F0.017797510625400002
sS'Showerthoughts'
p18
F0.020997690875900001
sS'HistoryPorn'
p19
F0.0304507294808
sS'picrequests'
p20
F0.0097869606050099995
sS'archlinux'
p21
F0.0116256464093
sS'holdmybeer'
p22
F0.041261288230300001
sS'ImaginaryMonsters'
p23
F0.0097037793666999994
sS'Atlanta'
p24
F0.0071001056214099996
sS'DeepIntoYouTube'
p25
F0.024819785500799999
sS'YouShouldKnow'
p26
F0.037354469263100001
sS'skyrimmods'
p27
F0.0142384714312
sS'UpliftingNews'
p28
F0.0205485718468
sS'PandR'
p29
F0.010379061371800001
sS'Jokes'
p30
F0.018069699920200001
sS'Stargate'
p31
F0.010906268193299999
sS'3amjokes'
p32
F0.0093176003360400002
sS'Military'
p33
F0.0173633751117
sS'Steam'
p34
F0.040189930934200001
sS'AlienBlue'
p35
F0.0136977998667
sS'photoshopbattles'
p36
F0.030572202795199999
sS'IWantToLearn'
p37
F0.0142380125551
sS'litecoin'
p38
F0.0108676721586
sS'prisonarchitect'
p39
F0.010884925333200001
sS'Celebs'
p40
F0.019125563482000001
sS'beermoney'
p41
F0.0111670247654
sS'Surface'
p42
F0.011424025457400001
sS'CrappyDesign'
p43
F0.060512516077999998
sS'NewsOfTheWeird'
p44
F0.0076585985174299999
sS'SteamGameSwap'
p45
F0.012371646989599999
sS'math'
p46
F0.0125988204292
sS'techsupport'
p47
F0.046840185108100001
sS'Libertarian'
p48
F0.0200471428245
sS'starcitizen'
p49
F0.0180125937633
sS'Anarcho_Capitalism'
p50
F0.0071286990993500001
sS'spiders'
p51
F0.010035122930300001
sS'Whatisthis'
p52
F0.0106708401508
sS'pcgaming'
p53
F0.0456023196556
sS'EatCheapAndHealthy'
p54
F0.0135896994018
sS'totalwar'
p55
F0.0073049184387299999
sS'tea'
p56
F0.00975739271846
sS'redditgetsdrawn'
p57
F0.0079236602198199998
sS'polandball'
p58
F0.028051794427699998
sS'SelfDrivingCars'
p59
F0.0075747958190500002
sS'electricians'
p60
F0.0099466857643000003
sS'bestof'
p61
F0.032349167884299999
sS'MechanicAdvice'
p62
F0.019492705369599999
sS'fatpeoplestories'
p63
F0.026427944231500002
sS'OneY'
p64
F0.0071922867584200004
sS'nba'
p65
F0.0078000926416100002
sS'vmware'
p66
F0.011347808275300001
sS'cigars'
p67
F0.0076815404049000004
sS'forwardsfromgrandma'
p68
F0.0300350795814
sS'no_sob_story'
p69
F0.0131306420728
sS'frugalmalefashion'
p70
F0.00867336477343
sS'movies'
p71
F0.016354274531399999
sS'skeptic'
p72
F0.023149277601599998
sS'Warthunder'
p73
F0.013954430966100001
sS'boardgames'
p74
F0.0089788732394399991
sS'socialskills'
p75
F0.0097704882537599999
sS'mindcrack'
p76
F0.0106466683059
sS'usenet'
p77
F0.0089414260816900008
sS'Nexus7'
p78
F0.015141330880500001
sS'worldnews'
p79
F0.019276038388199999
sS'AskNetsec'
p80
F0.0087846550612500005
sS'vexillology'
p81
F0.0133355448665
sS'disney'
p82
F0.0082871244896700006
sS'tattoos'
p83
F0.0124277501433
sS'Economics'
p84
F0.0135348292881
sS'ExposurePorn'
p85
F0.0086870681145099996
sS'needamod'
p86
F0.0090352449223400008
sS'LetsNotMeet'
p87
F0.0076831980589800002
sS'titanfall'
p88
F0.016914113888400001
sS'malelivingspace'
p89
F0.010383699014999999
sS'AskElectronics'
p90
F0.017116524029000001
sS'netsec'
p91
F0.028402803393600001
sS'lgbt'
p92
F0.0119194872372
sS'baseball'
p93
F0.010111128502099999
sS'Random_Acts_Of_Pizza'
p94
F0.00714108954643
sS'gentlemanboners'
p95
F0.026345955087900001
sS'doctorwho'
p96
F0.023041711669999999
sS'MotoX'
p97
F0.0079093773041099998
sS'Ingress'
p98
F0.011466927702399999
sS'WritingPrompts'
p99
F0.0116258992806
sS'ThriftStoreHauls'
p100
F0.0168550336447
sS'environment'
p101
F0.010500446827499999
sS'WarshipPorn'
p102
F0.0149071638263
sS'personalfinance'
p103
F0.013401512572699999
sS'creepy'
p104
F0.019830810553000001
sS'pics'
p105
F0.0147100566522
sS'howtonotgiveafuck'
p106
F0.010385279232399999
sS'IWantOut'
p107
F0.00749539902961
sS'emulation'
p108
F0.0145306373491
sS'whatsthisbug'
p109
F0.017586366482500001
sS'QuotesPorn'
p110
F0.021228164403199998
sS'firefox'
p111
F0.015042761148400001
sS'apple'
p112
F0.0274622199062
sS'TrueReddit'
p113
F0.026373473435199999
sS'Yogscast'
p114
F0.0091595425779899993
sS'todayilearned'
p115
F0.0186975300268
sS'PlayStationPlus'
p116
F0.0073823230612899996
sS'Assistance'
p117
F0.0072720433814999997
sS'AmIFreeToGo'
p118
F0.010150096014399999
sS'jailbreak'
p119
F0.0151155189183
sS'AntiJokes'
p120
F0.0098816415323900002
sS'KingOfTheHill'
p121
F0.0070899761056100003
sS'IdiotsFightingThings'
p122
F0.037829100742900003
sS'FinalFantasy'
p123
F0.0084100332284499993
sS'chromeos'
p124
F0.00946033111159
sS'Firearms'
p125
F0.015238751939300001
sS'AskScienceFiction'
p126
F0.016363636363600002
sS'ContagiousLaughter'
p127
F0.019956512673900001
sS'Multicopter'
p128
F0.010216301175099999
sS'GamePhysics'
p129
F0.038775060585999999
sS'graphic_design'
p130
F0.0087375068980300001
sS'HIMYM'
p131
F0.0109746478873
sS'FiftyFifty'
p132
F0.027546612309000001
sS'eldertrees'
p133
F0.0084847627801699996
sS'AskHistorians'
p134
F0.015810499071599999
sS'Drugs'
p135
F0.0107106929404
sS'OutOfTheLoop'
p136
F0.036337990327800003
sS'sports'
p137
F0.012066127418899999
sS'wheredidthesodago'
p138
F0.049631461545900001
sS'iphone'
p139
F0.021479477365699998
sS'misleadingthumbnails'
p140
F0.028879564675799999
sS'trailerparkboys'
p141
F0.0100647260158
sS'battlefield_4'
p142
F0.021232670044
sS'admincraft'
p143
F0.0091668030774299993
sS'Pareidolia'
p144
F0.0294796206101
sS'hockey'
p145
F0.010773550021699999
sS'Filmmakers'
p146
F0.0071301734735700001
sS'Eve'
p147
F0.017143353153100001
sS'depression'
p148
F0.0092623472698099996
sS'ftlgame'
p149
F0.0144347240915
sS'LifeProTips'
p150
F0.0274717827394
sS'thinkpad'
p151
F0.0087272727272700006
sS'PoliticalHumor'
p152
F0.012015271747300001
sS'UFOs'
p153
F0.0074854548034599998
sS'girlsinyogapants'
p154
F0.0081791827719500006
sS'ghettoglamourshots'
p155
F0.012034362734199999
sS'KillLaKill'
p156
F0.0078401443141600004
sS'EDC'
p157
F0.025711638441299998
sS'dwarffortress'
p158
F0.013867688610299999
sS'hardwareswap'
p159
F0.0271483474251
sS'showerbeer'
p160
F0.00868432479375
sS'trackers'
p161
F0.013657719343
sS'science'
p162
F0.026338134307000001
sS'firstworldproblems'
p163
F0.032619883349599997
sS'Entrepreneur'
p164
F0.0085097719869699998
sS'standupshots'
p165
F0.027610761359100001
sS'legaladvice'
p166
F0.0143490072383
sS'MMA'
p167
F0.0074147808068900003
sS'history'
p168
F0.013986890647899999
sS'computers'
p169
F0.017348572279499999
sS'gamernews'
p170
F0.019982969060500001
sS'NewsOfTheStupid'
p171
F0.014118305803300001
sS'audiophile'
p172
F0.020105629576300001
sS'awesome'
p173
F0.0137410343526
sS'Glitch_in_the_Matrix'
p174
F0.0141712126291
sS'gadgets'
p175
F0.0323691734823
sS'buildapcsales'
p176
F0.034847221540999999
sS'learnprogramming'
p177
F0.0230474210545
sS'Infographics'
p178
F0.011663002571099999
sS'TalesFromYourServer'
p179
F0.016188638519100001
sS'counting'
p180
F0.0097684388066999993
sS'CampingandHiking'
p181
F0.0106875977524
sS'SRSsucks'
p182
F0.0091223655237500003
sS'HouseOfCards'
p183
F0.0088189727088500008
sS'asmr'
p184
F0.013325478314500001
sS'techsupportmacgyver'
p185
F0.13874550289400001
sS'MURICA'
p186
F0.031959730398399999
sS'travel'
p187
F0.010005817335699999
sS'RealGirls'
p188
F0.016124383255099999
sS'Jeep'
p189
F0.0105097049077
sS'scifi'
p190
F0.023883064340699998
sS'spaceporn'
p191
F0.026692001447699999
sS'nyc'
p192
F0.0118226600985
sS'Pizza'
p193
F0.011675896857
sS'wallpapers'
p194
F0.031140985280400001
sS'BasicIncome'
p195
F0.0085217840410199992
sS'gaming'
p196
F0.0217331889897
sS'mylittlepony'
p197
F0.0166561005129
sS'GiftofGames'
p198
F0.0110794555239
sS'hardbodies'
p199
F0.0096875105116199997
sS'askscience'
p200
F0.024677954778
sS'philosophy'
p201
F0.0073180590124900004
sS'budgetfood'
p202
F0.0082357247437799992
sS'Images'
p203
F0.011651841505600001
sS'mac'
p204
F0.015986969112
sS'nerdcubed'
p205
F0.0122924088104
sS'nexus4'
p206
F0.011779141104300001
sS'dogpictures'
p207
F0.0090160466100300003
sS'GameDeals'
p208
F0.029573135700299999
sS'MachinePorn'
p209
F0.0301977453336
sS'oculus'
p210
F0.022776809067100001
sS'CFB'
p211
F0.0074319495874699999
sS'eFreebies'
p212
F0.011477430288100001
sS'listentothis'
p213
F0.010036162044200001
sS'tall'
p214
F0.016244188620800001
sS'ImGoingToHellForThis'
p215
F0.032954400306599997
sS'DataHoarder'
p216
F0.018204088528500001
sS'needadvice'
p217
F0.0071761642342400003
sS'shield'
p218
F0.0081684747925999997
sS'Hunting'
p219
F0.00730438262958
sS'DoesAnybodyElse'
p220
F0.021986161545000001
sS'pettyrevenge'
p221
F0.038668288906100003
sS'malehairadvice'
p222
F0.0076602069399199996
sS'CityPorn'
p223
F0.0151369533878
sS'electronic_cigarette'
p224
F0.015800926043099999
sS'Guildwars2'
p225
F0.0076092099037999997
sS'diablo3'
p226
F0.0095791336462300002
sS'thatHappened'
p227
F0.033521233809400003
sS'london'
p228
F0.00911827195467
sS'dataisbeautiful'
p229
F0.030845569378700002
sS'japan'
p230
F0.0096861095135799997
sS'MLPLounge'
p231
F0.012004175365299999
sS'GlobalOffensive'
p232
F0.0158712570001
sS'beards'
p233
F0.017606461400400002
sS'gaybros'
p234
F0.00901927055487
sS'arduino'
p235
F0.019856443281700002
sS'cyanogenmod'
p236
F0.011065060994699999
sS'nostalgia'
p237
F0.028812400273499999
sS'Documentaries'
p238
F0.016064444756099999
sS'writing'
p239
F0.0077303520219400004
sS'AndroidQuestions'
p240
F0.023547793091899999
sS'StonerEngineering'
p241
F0.011017498379799999
sS'Bioshock'
p242
F0.0095590194511100002
sS'WorldofTanks'
p243
F0.010176657104
sS'soccer'
p244
F0.0098618792055999993
sS'wallpaper'
p245
F0.017456445992999999
sS'texas'
p246
F0.0089102124742999993
sS'Gore'
p247
F0.0128272769241
sS'MensRights'
p248
F0.0231204188482
sS'MilitaryPorn'
p249
F0.027388369678099999
sS'Frisson'
p250
F0.015741611790500001
sS'electronicmusic'
p251
F0.0113894128602
sS'childfree'
p252
F0.020330395998899999
sS'food'
p253
F0.019345056303299999
sS'whitepeoplegifs'
p254
F0.019484645252399999
sS'unitedkingdom'
p255
F0.019557295704799998
sS'gmod'
p256
F0.0075691411936000003
sS'NoStupidQuestions'
p257
F0.0228840582731
sS'halo'
p258
F0.012935654359300001
sS'tmobile'
p259
F0.0093210859912599992
sS'Braveryjerk'
p260
F0.0080392855728500003
sS'Nexus5'
p261
F0.0185835528241
sS'creepyPMs'
p262
F0.022919650996200001
sS'WatchItForThePlot'
p263
F0.020504402328
sS'nfl'
p264
F0.0089767321510300004
sS'freebies'
p265
F0.026345155499499999
sS'Watches'
p266
F0.0107039137049
sS'radiocontrol'
p267
F0.0086189289653200007
sS'AdviceAnimals'
p268
F0.0153433033358
sS'SubredditDrama'
p269
F0.033442760564200001
sS'minimalism'
p270
F0.0215005375134
sS'mildlyinteresting'
p271
F0.027917157652899999
sS'TrueAtheism'
p272
F0.015150156880299999
sS'badhistory'
p273
F0.010767854685600001
sS'awwnime'
p274
F0.0093125888248900002
sS'energy'
p275
F0.0081706763504299992
sS'TrollXChromosomes'
p276
F0.023878001471500002
sS'Rateme'
p277
F0.0081111090200800002
sS'CryptoCurrency'
p278
F0.0078615823954300001
sS'CableManagement'
p279
F0.026007160199200002
sS'memes'
p280
F0.0106670313515
sS'books'
p281
F0.0129393559797
sS'dubstep'
p282
F0.0083917569577200007
sS'TwoXChromosomes'
p283
F0.011081630543400001
sS'Cinemagraphs'
p284
F0.0181411620442
sS'canada'
p285
F0.019392904031999999
sS'htcone'
p286
F0.0088146007827099998
sS'DunderMifflin'
p287
F0.011090516848499999
sS'psychology'
p288
F0.0088799585169800008
sS'space'
p289
F0.030853196703100001
sS'shittyfoodporn'
p290
F0.032487244074100002
sS'malefashionadvice'
p291
F0.014648347813299999
sS'LearnUselessTalents'
p292
F0.0250238891543
sS'BMW'
p293
F0.010352868024200001
sS'RoomPorn'
p294
F0.023453692593000001
sS'electronics'
p295
F0.025984586014299999
sS'tf2'
p296
F0.023001620531100001
sS'DarkSouls2'
p297
F0.0084969061787600001
sS'CatsStandingUp'
p298
F0.0089772600808700007
sS'ass'
p299
F0.0082438537816099996
sS'AutoDetailing'
p300
F0.013501252132300001
sS'hackintosh'
p301
F0.012438106555800001
sS'cars'
p302
F0.026211410559999999
sS'Metal'
p303
F0.013397605630599999
sS'ECE'
p304
F0.0083280456852800003
sS'LadyBoners'
p305
F0.0081138824207199998
sS'corgi'
p306
F0.010162461112999999
sS'Roadcam'
p307
F0.026597469996799999
sS'knifeclub'
p308
F0.0084119586222599994
sS'paradoxplaza'
p309
F0.0072753387872399999
sS'youtubehaiku'
p310
F0.0256475959747
sS'dayz'
p311
F0.018993949609399999
sS'simracing'
p312
F0.0072942135289300004
sS'Borderlands'
p313
F0.0130058993003
sS'recipes'
p314
F0.0091142526594999995
sS'headphones'
p315
F0.021587641927800001
sS'programming'
p316
F0.031361511012700002
sS'running'
p317
F0.0087806178812200007
sS'Rainmeter'
p318
F0.0160077532333
sS'AnimalCrossing'
p319
F0.0073410183083200001
sS'Planetside'
p320
F0.014984910116800001
sS'dogecoin'
p321
F0.027676795033399999
sS'ar15'
p322
F0.0082869128670699996
sS'xbmc'
p323
F0.0093051870650199993
sS'gamingpc'
p324
F0.032508508224599997
sS'misc'
p325
F0.012436249509599999
sS'patientgamers'
p326
F0.024085961484800002
sS'BitcoinMining'
p327
F0.0077336111556299998
sS'rant'
p328
F0.0092218032224899993
sS'conspiratard'
p329
F0.026359289214199999
sS'cade'
p330
F0.0081259736432199997
sS'pokemon'
p331
F0.015390981871400001
sS'TheLastAirbender'
p332
F0.013014643551699999
sS'projectcar'
p333
F0.0080029549372100002
sS'longboarding'
p334
F0.0075457623228299998
sS'OldSchoolCool'
p335
F0.0201551987839
sS'lego'
p336
F0.024580000486300001
sS'ANormalDayInRussia'
p337
F0.034299674267099997
sS'seduction'
p338
F0.0072446632414
sS'onetruegod'
p339
F0.013550526164
sS'TheFacebookDelusion'
p340
F0.0109494759894
sS'Volkswagen'
p341
F0.0091491308325699992
sS'Autos'
p342
F0.0257247531061
sS'Seattle'
p343
F0.0094653129512099997
sS'PenmanshipPorn'
p344
F0.0200737878744
sS'shittyreactiongifs'
p345
F0.016180879112900001
sS'alternativeart'
p346
F0.0091472868217099997
sS'shittyadvice'
p347
F0.013301428672
sS'MeanJokes'
p348
F0.0082202111613900002
sS'explainlikeimfive'
p349
F0.0195486954478
sS'dogs'
p350
F0.010076233076
sS'SuggestALaptop'
p351
F0.0153326849362
sS'CombatFootage'
p352
F0.016200430371999999
sS'GTA'
p353
F0.0110460191982
sS'TrollYChromosome'
p354
F0.0202588130299
sS'DaystromInstitute'
p355
F0.011684593360699999
sS'3DS'
p356
F0.0145257761322
sS'mildlyinfuriating'
p357
F0.056968489862600002
sS'DumpsterDiving'
p358
F0.0072731755424100004
sS'vinyl'
p359
F0.0120437688184
sS'nsfw_gifs'
p360
F0.0084381672712300002
sS'Awwducational'
p361
F0.020371441424099999
sS'skyrim'
p362
F0.026321653754900001
sS'dogemarket'
p363
F0.0149172839188
sS'learnpython'
p364
F0.0083354024048499994
sS'BBQ'
p365
F0.0073271028037400002
sS'toronto'
p366
F0.0104429653431
sS'Battlefield'
p367
F0.014093853689400001
sS'television'
p368
F0.016721049223600001
sS'worldpolitics'
p369
F0.018900343642600001
sS'TheRedPill'
p370
F0.0094855971565000006
sS'newzealand'
p371
F0.0075022475741699998
sS'PerfectTiming'
p372
F0.035770632718600003
sS'sweden'
p373
F0.0084964424405099999
sS'knives'
p374
F0.0147806471163
sS'hacking'
p375
F0.020922728935900001
sS'KerbalSpaceProgram'
p376
F0.0369394695972
sS'torrents'
p377
F0.0173909899487
sS'Boobies'
p378
F0.0081303425669999995
sS'gallifrey'
p379
F0.0116767576918
sS'formula1'
p380
F0.0162636980344
sS'quityourbullshit'
p381
F0.0405501309253
sS'FoodPorn'
p382
F0.023917624685199999
sS'boston'
p383
F0.0078388076179999999
sS'teenagers'
p384
F0.0196877400944
sS'sysadmin'
p385
F0.062035302798100003
sS'conspiracy'
p386
F0.025855836699999999
sS'homelab'
p387
F0.0305525206805
sS'TheSimpsons'
p388
F0.0171842265772
sS'tasker'
p389
F0.0071448308530400002
sS'pebble'
p390
F0.012721599286800001
sS'HighQualityGifs'
p391
F0.023276181493600001
sS'Warframe'
p392
F0.0075562424866900003
sS'self'
p393
F0.022208978943200001
sS'IAmA'
p394
F0.014907366018100001
sS'Parenting'
p395
F0.0112473145457
sS'DaftPunk'
p396
F0.0099892202659
sS'spotify'
p397
F0.0071123231132099998
sS'britishproblems'
p398
F0.022685725612799999
sS'lockpicking'
p399
F0.0128541018503
sS'nonononoyes'
p400
F0.0461832321441
sS'firefly'
p401
F0.018673987295299999
sS'paydaytheheist'
p402
F0.015042101534200001
sS'aww'
p403
F0.0174307937367
sS'teslamotors'
p404
F0.0119744842765
sS'Futurology'
p405
F0.029270316020800002
sS'germany'
p406
F0.0079378656721499994
sS'EnoughLibertarianSpam'
p407
F0.0070469931509600002
sS'progresspics'
p408
F0.0145294441387
sS'Gaming4Gamers'
p409
F0.014515909709
sS'hearthstone'
p410
F0.0085925188687100001
sS'Minecraft'
p411
F0.032068968720700003
sS'chemistry'
p412
F0.010293830217
sS'windows'
p413
F0.035471445318999997
sS'chicago'
p414
F0.0098342230963800008
sS'cableporn'
p415
F0.0573940208507
sS'investing'
p416
F0.0099797766640300004
sS'TumblrInAction'
p417
F0.033819736885100003
sS'secretsanta'
p418
F0.0130506436239
sS'Fishing'
p419
F0.0082651768229500006
sS'Borderlands2'
p420
F0.010328936913999999
sS'vaporents'
p421
F0.0078558088518700005
sS'TalesFromThePizzaGuy'
p422
F0.015461556081500001
sS'Heavymind'
p423
F0.0100446815143
sS'Psychonaut'
p424
F0.0075277552125599997
sS'Justrolledintotheshop'
p425
F0.074163692456599997
sS'talesfromcallcenters'
p426
F0.0123801583993
sS'adventuretime'
p427
F0.0142888938349
sS'runescape'
p428
F0.0072023936738600004
sS'LucidDreaming'
p429
F0.0099905693740399999
sS'fffffffuuuuuuuuuuuu'
p430
F0.034629133154599999
sS'PleX'
p431
F0.014546647708599999
sS'PoliticalDiscussion'
p432
F0.0089770418221000008
sS'dbz'
p433
F0.0078315296148999992
sS'counterstrike'
p434
F0.0094659560988300008
sS'spacex'
p435
F0.0088045017800400006
sS'Foodforthought'
p436
F0.013401811219800001
sS'blender'
p437
F0.0092073194320899995
sS'Twitch'
p438
F0.0099753357084099992
sS'Amateur'
p439
F0.00705163617457
sS'softwareswap'
p440
F0.015758547008500001
sS'TheoryOfReddit'
p441
F0.012281039461000001
sS'TheBluePill'
p442
F0.00815023601725
sS'IASIP'
p443
F0.0105714025335
sS'buildapc'
p444
F0.036163275766299997
sS'harrypotter'
p445
F0.0140472714359
sS'wicked_edge'
p446
F0.017771644229099999
sS'shittybattlestations'
p447
F0.051049303696799997
sS'whowouldwin'
p448
F0.0142345363771
sS'GrandTheftAutoV'
p449
F0.020388199557200001
sS'gamedev'
p450
F0.016106551029899999
sS'Marvel'
p451
F0.012710823187800001
sS'CCW'
p452
F0.0120205114544
sS'MetalMemes'
p453
F0.0076723414001099999
sS'ipad'
p454
F0.0099177316034200005
sS'Anxiety'
p455
F0.0075660134675000004
sS'arresteddevelopment'
p456
F0.0101292816207
sS'shutupandtakemymoney'
p457
F0.030804785209399999
sS'Random_Acts_Of_Amazon'
p458
F0.0079030558482599995
sS'photography'
p459
F0.017661299196699998
sS'JusticePorn'
p460
F0.038154485398800002
sS'trees'
p461
F0.0137581522868
sS'smashbros'
p462
F0.0118715732739
sS'geek'
p463
F0.0557638557502
sS'lostgeneration'
p464
F0.0093171146522699998
sS'Fitness'
p465
F0.0109145311739
sS'elderscrollsonline'
p466
F0.0100517167632
sS'spicy'
p467
F0.0079836394383900004
sS'Conservative'
p468
F0.0127861414725
sS'PrettyGirlsUglyFaces'
p469
F0.0094121054155799997
sS'overclocking'
p470
F0.0166774874209
sS'AbandonedPorn'
p471
F0.038484541774
sS'motorcycles'
p472
F0.022088287994800001
sS'dadjokes'
p473
F0.0280935218557
sS'progun'
p474
F0.010237984855499999
sS'guns'
p475
F0.025768309288700001
sS'WeAreTheMusicMakers'
p476
F0.010439001147899999
sS'privacy'
p477
F0.017717375836099999
sS'futurama'
p478
F0.024463975815899999
sS'ClashOfClans'
p479
F0.0076955212066600002
sS'nsfw'
p480
F0.018398664228399999
sS'PHP'
p481
F0.0096989726273399995
sS'cringe'
p482
F0.028025641532999999
sS'hometheater'
p483
F0.0136237873428
sS'spotted'
p484
F0.0086583622626100008
sS'StarWars'
p485
F0.022684310018899999
sS'rpg'
p486
F0.011475780328
sS'AskWomen'
p487
F0.0111845230384
sS'EngineeringStudents'
p488
F0.0095896000932699996
sS'Christianity'
p489
F0.012326777372100001
sS'see'
p490
F0.0097795402607900005
sS'changemyview'
p491
F0.019040732706699998
sS'roosterteeth'
p492
F0.011121565675599999
sS'skateboarding'
p493
F0.0076262831293899998
sS'PS3'
p494
F0.013822420661399999
sS'Android'
p495
F0.040423241260999998
sS'KarmaCourt'
p496
F0.0071095856827700001
sS'vita'
p497
F0.0096957040572799996
sS'PS4'
p498
F0.013567493799
sS'firstworldanarchists'
p499
F0.047948610102099998
sS'nononono'
p500
F0.050084677531299998
sS'cosplay'
p501
F0.0152704728511
sS'truegaming'
p502
F0.027746970630499999
sS'camping'
p503
F0.0082394946443300008
sS'lotr'
p504
F0.0122321506029
sS'wow'
p505
F0.0140716433352
sS'WTF'
p506
F0.019376792427600001
sS'wikipedia'
p507
F0.0140326741187
sS'breakingbad'
p508
F0.020524697520299999
sS'outside'
p509
F0.035030029621999997
sS'AskCulinary'
p510
F0.0106967673305
sS'foodhacks'
p511
F0.0136092017547
sS'pcmasterrace'
p512
F0.044813656209199998
sS'magicTCG'
p513
F0.010430435032499999
sS'spaceengineers'
p514
F0.014611498019900001
sS'europe'
p515
F0.020426945161399999
sS'glitch_art'
p516
F0.019571259947499999
sS'jobs'
p517
F0.010674089313799999
sS'flightsim'
p518
F0.0076022190260900003
sS'battlefield3'
p519
F0.0157516876808
sS'casualiama'
p520
F0.0213730388167
sS'cscareerquestions'
p521
F0.0092651846081100008
sS'javascript'
p522
F0.0074330051509400004
sS'celebnsfw'
p523
F0.0084410621115900003
sS'NASCAR'
p524
F0.0088634167471899998
sS'answers'
p525
F0.017562794348499999
sS'news'
p526
F0.019201546077899999
sS'gamingsuggestions'
p527
F0.0097182056627900006
sS'Unexpected'
p528
F0.045110977804400001
sS'RedditDayOf'
p529
F0.0118827567996
sS'Xcom'
p530
F0.0071125799267200002
sS'relationship_advice'
p531
F0.0071363547694899996
sS'nosleep'
p532
F0.0091244916271399999
sS'itookapicture'
p533
F0.0206407588443
sS'Sherlock'
p534
F0.010431133831699999
sS'ukpolitics'
p535
F0.0073601736594000001
sS'GunPorn'
p536
F0.014265439062599999
sS'Cartalk'
p537
F0.014832999101
sS'GetMotivated'
p538
F0.0178366445916
sS'bikesgonewild'
p539
F0.0077619663648100003
sS'drunk'
p540
F0.019085565852899999
sS'robotics'
p541
F0.0071878172588799999
sS'reactiongifs'
p542
F0.033426020536400002
sS'community'
p543
F0.015794669299099999
sS'NotTimAndEric'
p544
F0.0152062027939
sS'ShingekiNoKyojin'
p545
F0.0078650589879400001
sS'Music'
p546
F0.0133842961095
sS'startrek'
p547
F0.024465763159199998
sS'EarthPorn'
p548
F0.018469249386399999
sS'linux'
p549
F0.043294389030100001
sS'3Dprinting'
p550
F0.0155898318549
sS'ainbow'
p551
F0.0095892321640299993
sS'java'
p552
F0.0084421675445599999
sS'chrome'
p553
F0.018222070844700001
sS'Homebrewing'
p554
F0.012730116712799999
sS'Enhancement'
p555
F0.019931347580600001
sS'Guitar'
p556
F0.0112019163027
sS'beer'
p557
F0.014364095925000001
sS'Portal'
p558
F0.011943409081799999
sS'ireland'
p559
F0.0078485687903999991
sS'HomeImprovement'
p560
F0.0109498264437
sS'web_design'
p561
F0.018984816839899998
sS'androiddev'
p562
F0.0100785384434
sS'Astronomy'
p563
F0.016351855247900001
sS'Diablo'
p564
F0.011385986478199999
sS'fatlogic'
p565
F0.0277907338308
sS'hiphopheads'
p566
F0.0084708813453800002
sS'androidapps'
p567
F0.017956859739400002
sS'androidthemes'
p568
F0.011029938404199999
sS'CarAV'
p569
F0.00954884602003
sS'Aquariums'
p570
F0.0110130207564
sS'somethingimade'
p571
F0.020777027026999999
sS'TopGear'
p572
F0.032962821004199998
sS'UnresolvedMysteries'
p573
F0.0083939953328000007
sS'MapPorn'
p574
F0.0273486584374
sS'aviation'
p575
F0.023396017699100002
sS'Scotch'
p576
F0.0079185520362000002
sS'buildapcforme'
p577
F0.015745176744799999
sS'darksouls'
p578
F0.011714876033099999
sS'Chromecast'
p579
F0.0182308491812
sS'sex'
p580
F0.013903217542400001
sS'Flipping'
p581
F0.0079659537319899994
sS'Perfectfit'
p582
F0.029378978028700001
sS'offbeat'
p583
F0.033446407148500001
sS'softwaregore'
p584
F0.079862700228800002
sS'socialism'
p585
F0.0087273674612499998
sS'DotA2'
p586
F0.0088087798080999993
sS'bodybuilding'
p587
F0.0070993914807300001
sS'OnOff'
p588
F0.0091727477323899995
sS'windowsphone'
p589
F0.0135111334759
sS'Cooking'
p590
F0.017781986531999999
sS'FanTheories'
p591
F0.0158800393314
sS'hardware'
p592
F0.043054265622899997
sS'gamecollecting'
p593
F0.0181008430094
sS'LosAngeles'
p594
F0.0085334141230500003
sS'DIY'
p595
F0.029877820122599999
sS'politics'
p596
F0.0242436765946
sS'assassinscreed'
p597
F0.0081213767169799993
sS'technology'
p598
F0.034742630611800003
sS'shorthairedhotties'
p599
F0.0071659561957999997
sS'southpark'
p600
F0.020899216279400001
sS'starcraft'
p601
F0.011320627765000001
sS'funny'
p602
F0.0134979983517
sS'astrophotography'
p603
F0.0088150343223699999
sS'IndieGaming'
p604
F0.0136738750678
sS'Python'
p605
F0.011908084473
sS'daddit'
p606
F0.0135794542536
sS'watchpeopledie'
p607
F0.020740210977999999
sS'windows8'
p608
F0.015333609614599999
sS'Whatcouldgowrong'
p609
F0.051300391408899998
sS'fifthworldproblems'
p610
F0.0116489874638
sS'talesfromtechsupport'
p611
F0.108751232697
sS'notinteresting'
p612
F0.0302994687603
sS'AnimalsBeingJerks'
p613
F0.036569133409600003
sS'AskUK'
p614
F0.0073862997262900002
sS'linux_gaming'
p615
F0.017472118959099999
sS'playrust'
p616
F0.012715217332
sS'24hoursupport'
p617
F0.0153422178348
sS'Physics'
p618
F0.0129054116488
sS'thesims'
p619
F0.0079828895047599994
sS'Animesuggest'
p620
F0.0074939003137000004
sS'HumanPorn'
p621
F0.017846971710699999
sS'Fantasy'
p622
F0.0074424733413000002
sS'Portland'
p623
F0.0089389216620700002
sS'AskEngineers'
p624
F0.0130706391158
sS'retrogaming'
p625
F0.0090869753353500001
sS'EmmaWatson'
p626
F0.010498401627399999
sS'GifSound'
p627
F0.015078328981699999
sS'awwwtf'
p628
F0.017788794517600001
sS'Terraria'
p629
F0.011879865226
sS'HalfLife'
p630
F0.014875519477999999
sS'Piracy'
p631
F0.017267800411100001
sS'circlebroke'
p632
F0.0113651923867
sS'PublicFreakout'
p633
F0.022565320665099999
sS'ArtisanVideos'
p634
F0.017648123567000001
sS'Bitcoin'
p635
F0.023234858724299999
sS'rickandmorty'
p636
F0.014884592365099999
sS'quotes'
p637
F0.0072157690953900001
sS'woodworking'
p638
F0.018775050980900002
sS'perfectloops'
p639
F0.0311338289963
sS'InternetIsBeautiful'
p640
F0.0305532928128
sS'carporn'
p641
F0.027169323995400001
sS'TalesFromRetail'
p642
F0.042101260321599998
sS'WouldYouRather'
p643
F0.0096585728276699992
sS'furry'
p644
F0.0096077725800600006
sS'Advice'
p645
F0.0079948750800800002
sS'audioengineering'
p646
F0.0110350779853
sS'linuxadmin'
p647
F0.013134206219300001
sS'ProtectAndServe'
p648
F0.016554836063200001
sS'woahdude'
p649
F0.034276315276600001
sS'Fallout'
p650
F0.025242919879699999
sS'offmychest'
p651
F0.017823670623800001
sS'australia'
p652
F0.019133360093300002
sS'slowcooking'
p653
F0.0152274150396
sS'NSFW_GIF'
p654
F0.014209256746600001
sS'howto'
p655
F0.019096096485500001
sS'HomeNetworking'
p656
F0.012884694296300001
sS'cringepics'
p657
F0.030983399550299998
sS'toosoon'
p658
F0.018933428775899999
sS'amateurradio'
p659
F0.011135678392
sS'thewalkingdead'
p660
F0.0159376341406
sS'gifs'
p661
F0.020501383591999999
sS'Art'
p662
F0.012403808530099999
sS'ConfusedBoners'
p663
F0.012922173274599999
sS'CookieClicker'
p664
F0.0072373540855999998
sS'xbox'
p665
F0.0070974971983599998
sS'4chan'
p666
F0.036502019260599997
sS'compsci'
p667
F0.013362439637499999
sS'montageparodies'
p668
F0.025810151993100001
sS'zombies'
p669
F0.0090863381697999998
sS'ArcherFX'
p670
F0.022294740306
sS'google'
p671
F0.023129895389799999
sS'gardening'
p672
F0.012972627018500001
sS'whatisthisthing'
p673
F0.043320242524500001
sS'watercooling'
p674
F0.011281531246000001
sS'NetflixBestOf'
p675
F0.019717435180899998
sS'ShouldIbuythisgame'
p676
F0.0146691722997
sS'tumblr'
p677
F0.024215035787099999
sS'interestingasfuck'
p678
F0.042586514497400002
sS'MarkMyWords'
p679
F0.00956169203702
sS'PropagandaPosters'
p680
F0.0144516129032
sS'Cyberpunk'
p681
F0.0275298974079
sS'mashups'
p682
F0.00745865311858
sS'Coffee'
p683
F0.0137200688612
sS'gameofthrones'
p684
F0.016703001029199999
sS'humor'
p685
F0.019888281873399999
sS'AMA'
p686
F0.013830149726400001
sS'ExpectationVsReality'
p687
F0.025297964874999999
sS'DarkNetMarkets'
p688
F0.0070104450926900003
sS'facepalm'
p689
F0.040355957528400002
sS'lifehacks'
p690
F0.0396184507309
sS'SCP'
p691
F0.0090595340810999993
sS'metalgearsolid'
p692
F0.0078641987148699993
sS'starbound'
p693
F0.016310446514800001
sS'blackpeoplegifs'
p694
F0.018159349147000001
sS'ProgrammerHumor'
p695
F0.047797055130699997
sS'business'
p696
F0.01302047389
sS'FloridaMan'
p697
F0.031598513011200001
sS'delusionalartists'
p698
F0.026405809278
sS'OkCupid'
p699
F0.0117794879849
sS'Frugal'
p700
F0.028117461109699999
sS'promos'
p701
F0.0268592333083
sS'JonTron'
p702
F0.0093886382807099999
sS'shittyaskscience'
p703
F0.033949282854300003
sS'htpc'
p704
F0.0080463073196800003
sS'whatsthisplant'
p705
F0.0073786935971999999
sS'lewronggeneration'
p706
F0.023588879528200001
sS'worldbuilding'
p707
F0.0096615326704100005
sS'calvinandhobbes'
p708
F0.0125190623116
sS'netflix'
p709
F0.015207954068100001
sS'PickAnAndroidForMe'
p710
F0.0070324050026000003
sS'anime'
p711
F0.015755912336499998
sS'AnimalsBeingBros'
p712
F0.023187951051100001
sS'classic4chan'
p713
F0.023342137197500001
sS'Games'
p714
F0.031634345861200001
sS'Cynicalbrit'
p715
F0.021080614695799998
sS'battlestations'
p716
F0.059822847290299998
sS'NSFWFunny'
p717
F0.011676280370599999
sS'androidcirclejerk'
p718
F0.013709410205400001
sS'software'
p719
F0.013316640109300001
sS'amiugly'
p720
F0.00799146673891
sS'asoiaf'
p721
F0.0092291779931799999
sS'ShitAmericansSay'
p722
F0.0082513487781699993
sS'applehelp'
p723
F0.0156188988676
sS'linuxquestions'
p724
F0.016362804180299999
sS'Scotland'
p725
F0.0083344357719300002
sS'gamemusic'
p726
F0.0086888715606600001
sS'subaru'
p727
F0.015179822512799999
sS'weather'
p728
F0.0070716300504499998
sS'marijuanaenthusiasts'
p729
F0.0090847780378500009
sS'ADHD'
p730
F0.010102189781
sS'confession'
p731
F0.0150618953061
sS'tifu'
p732
F0.024716854420499999
sS'SimCity'
p733
F0.012678169542399999
sS'Damnthatsinteresting'
p734
F0.035327547807400002
sS'DnD'
p735
F0.013898482469899999
sS'loseit'
p736
F0.011947212824999999
sS'CrazyIdeas'
p737
F0.034622746681800001
sS'networking'
p738
F0.034851534977399998
sS'MechanicalKeyboards'
p739
F0.048982515838700003
sS'TinyHouses'
p740
F0.0093352295518399995
sS'Bad_Cop_No_Donut'
p741
F0.0271554297879
sS'SquaredCircle'
p742
F0.0078365706630900006
sS'flying'
p743
F0.010711371055499999
sS'linux4noobs'
p744
F0.019033457249100001
sS'gopro'
p745
F0.0091863928515399998
sS'MorbidReality'
p746
F0.027106265690600002
sS'gif'
p747
F0.0239152923994
sS'cats'
p748
F0.0242855662932
sS'introvert'
p749
F0.010215350635
sS'Ubuntu'
p750
F0.0226743389505
sS'raisedbynarcissists'
p751
F0.0122392020498
sS'happy'
p752
F0.012255636593699999
sS'cablefail'
p753
F0.057645272834599998
sS'explainlikeIAmA'
p754
F0.015019030963900001
sS'MTB'
p755
F0.0074521392779099997
sS'firstimpression'
p756
F0.0071020381197799999
sS'batman'
p757
F0.014927787406100001
sS'gamegrumps'
p758
F0.012655979395200001
sS'WebGames'
p759
F0.010728421637399999
sS'snackexchange'
p760
F0.0086556874760599992
sS'bindingofisaac'
p761
F0.0088574927827800003
sS'rule34'
p762
F0.0093740023797800002
sS'xbox360'
p763
F0.011481162275299999
sS'Austin'
p764
F0.0075921350628000003
sS'blunderyears'
p765
F0.025700687466900001
sS'Welding'
p766
F0.0083375938962500003
sS'webcomics'
p767
F0.0113066267316
sS'rage'
p768
F0.040519571092299998
sS'comics'
p769
F0.031118104405799998
sS'forhire'
p770
F0.0081148966316699992
sS'behindthegifs'
p771
F0.032193271215799998
sS'civ'
p772
F0.0190836940837
sS'findareddit'
p773
F0.0129118136439
sS'arma'
p774
F0.0128132966924
sS'BustyPetite'
p775
F0.0103695435051
sS'fullmoviesonyoutube'
p776
F0.018395919253299999
sS'Design'
p777
F0.0123590112791
sS'videos'
p778
F0.016182824659299998
sS'keto'
p779
F0.0125621661448
sS'TrueAskReddit'
p780
F0.012298103344299999
sS'engineering'
p781
F0.015941871814299999
sS'tipofmytongue'
p782
F0.018014573848199999
sS'webdev'
p783
F0.0173700732473
sS'xboxone'
p784
F0.0124260662032
sS'airsoft'
p785
F0.0090810025426799994
sS'bestofworldstar'
p786
F0.0086531751570099995
sS'DAE'
p787
F0.0076468543621800002
sS'ForeverAlone'
p788
F0.00982495413985
sS'eatsandwiches'
p789
F0.0090680287215900001
sS'bicycling'
p790
F0.0216542615295
sS'Survival'
p791
F0.0092366807064199995
sS'shittyama'
p792
F0.011405380820800001
sS'excel'
p793
F0.0080307502230800003
sS'zelda'
p794
F0.0151127477941
sS'ImaginaryLandscapes'
p795
F0.0097850315463400006
sS'masseffect'
p796
F0.014088519410599999
sS'TheWayWeWere'
p797
F0.011555859657099999
sS'badtattoos'
p798
F0.0126274562766
sS'popping'
p799
F0.018772487876099999
sS'nottheonion'
p800
F0.032837407013800002
sS'Frugal_Jerk'
p801
F0.0152880911726
sS'raspberry_pi'
p802
F0.030900520656800001
sS'Trucks'
p803
F0.0085218306154700007
sS'SuicideWatch'
p804
F0.0076526072254799998
sS'GTAV'
p805
F0.0107347719202
sS'bigdickproblems'
p806
F0.0096753954363799997
sS'nintendo'
p807
F0.0135681491126
sS'comicbooks'
p808
F0.0124737319015
sS'cordcutters'
p809
F0.027382345736099999
sS'HailCorporate'
p810
F0.020020735761999999
sS'oddlysatisfying'
p811
F0.046460808957999998
sS'GirlGamers'
p812
F0.0087635436583800002
sS'cosplaygirls'
p813
F0.017896239885800001
sS'feedthebeast'
p814
F0.0127360562143
sS'entertainment'
p815
F0.011662064508500001
sS'youtube'
p816
F0.0127004909984
sS'microsoft'
p817
F0.013862388536300001
sS'atheism'
p818
F0.0238652885674
sS'terriblefacebookmemes'
p819
F0.015794633455600001
sS'PrettyGirls'
p820
F0.0143307914804
sS'minecraftsuggestions'
p821
F0.00756123150393
sS'urbanexploration'
p822
F0.021214569210800002
sS'speedrun'
p823
F0.0094401684099699994
sS'Michigan'
p824
F0.0072847682119200003
s.