(dp1
S'rawdenim'
p2
F0.0304088194763
sS'NewSkaters'
p3
F0.0094434398231900002
sS'sneakermarket'
p4
F0.015019379845
sS'frugalmalefashion'
p5
F0.020611991822199999
sS'malehairadvice'
p6
F0.025333747283500001
sS'MaleFashionMarket'
p7
F0.0267247915087
sS'teenagers'
p8
F0.0201901545465
sS'OFWGKTA'
p9
F0.010774515927500001
sS'malefashionadvice'
p10
F0.019276706849599999
sS'Hiphopcirclejerk'
p11
F0.0100730792021
sS'indieheads'
p12
F0.010437235543
sS'malegrooming'
p13
F0.0077304022224900003
sS'malefashion'
p14
F0.043635269334900001
sS'goodyearwelt'
p15
F0.0143175310213
sS'Sneakers'
p16
F0.023835319609999999
sS'supremeclothing'
p17
F0.024556616643899999
sS'HipHopImages'
p18
F0.0107490382439
sS'streetwear'
p19
F0.0462160176341
sS'lewronggeneration'
p20
F0.0075968480158499999
s.