(dp1
S'uglyduckling'
p2
F0.015258320692400001
sS'everymanshouldknow'
p3
F0.0091466513093299995
sS'RandomActsOfGaming'
p4
F0.0104833804429
sS'Showerthoughts'
p5
F0.0082576058619800007
sS'HistoryPorn'
p6
F0.0112922667005
sS'holdmybeer'
p7
F0.015688239602200001
sS'ImaginaryMonsters'
p8
F0.0095300690108399994
sS'YouShouldKnow'
p9
F0.0109014243842
sS'skyrimmods'
p10
F0.0074423360981699998
sS'moviescirclejerk'
p11
F0.0080321285140600007
sS'horror'
p12
F0.0070327552986499996
sS'UpliftingNews'
p13
F0.0074088856736599998
sS'PandR'
p14
F0.011987061584299999
sS'Jokes'
p15
F0.0082019748833300002
sS'Scrubs'
p16
F0.0070081926759499999
sS'3amjokes'
p17
F0.016105282532700001
sS'Military'
p18
F0.00708097928437
sS'magicskyfairy'
p19
F0.024087765323199999
sS'Steam'
p20
F0.0090199870197000005
sS'AlienBlue'
p21
F0.0071380771804599999
sS'photoshopbattles'
p22
F0.0135959491248
sS'IWantToLearn'
p23
F0.0070921985815599999
sS'Celebs'
p24
F0.0106634687064
sS'CrappyDesign'
p25
F0.028482972136200001
sS'NewsOfTheWeird'
p26
F0.0086480569239200007
sS'Cyberpunk'
p27
F0.0074757175597499996
sS'Libertarian'
p28
F0.0074567611419899997
sS'spiders'
p29
F0.0074027405890699999
sS'Whatisthis'
p30
F0.0097689564273499997
sS'pcgaming'
p31
F0.0086204925342399999
sS'gentlemanboners'
p32
F0.01027608942
sS'DCcomics'
p33
F0.0078084600268900003
sS'fatpeoplestories'
p34
F0.013645284899800001
sS'forwardsfromgrandma'
p35
F0.0683252877831
sS'no_sob_story'
p36
F0.028607693809800001
sS'findareddit'
p37
F0.015042158516
sS'skeptic'
p38
F0.0093006456273399991
sS'socialskills'
p39
F0.0083728205364099993
sS'GuessTheMovie'
p40
F0.0077827741265999997
sS'vexillology'
p41
F0.016225276567199999
sS'needamod'
p42
F0.0108591781774
sS'LetsNotMeet'
p43
F0.0092137274185999998
sS'answers'
p44
F0.0086605080831399991
sS'lgbt'
p45
F0.0070866526562699999
sS'doctorwho'
p46
F0.0070955857269599997
sS'ThriftStoreHauls'
p47
F0.0110483042138
sS'creepy'
p48
F0.0095464715027899997
sS'vinyl'
p49
F0.0071012805587900001
sS'HalfLife'
p50
F0.010538200978500001
sS'QuotesPorn'
p51
F0.011333663039900001
sS'confession'
p52
F0.0098633356007700006
sS'AntiJokes'
p53
F0.019716155349700001
sS'KingOfTheHill'
p54
F0.0122609122119
sS'IdiotsFightingThings'
p55
F0.0167787130671
sS'ContagiousLaughter'
p56
F0.0127853881279
sS'HIMYM'
p57
F0.0087623220153300006
sS'FiftyFifty'
p58
F0.018985548314000001
sS'OutOfTheLoop'
p59
F0.022491005804799999
sS'ifyoulikeblank'
p60
F0.0104792053269
sS'firstimpression'
p61
F0.0118624757054
sS'WebGames'
p62
F0.0086004116436300005
sS'Pareidolia'
p63
F0.020983286568300001
sS'tipofmytongue'
p64
F0.0105961742234
sS'FreeKarma'
p65
F0.0097271648873099997
sS'Shitty_Car_Mods'
p66
F0.016534962480900001
sS'FanTheories'
p67
F0.015147363889000001
sS'ghettoglamourshots'
p68
F0.0237482853224
sS'showerbeer'
p69
F0.0093775262732400007
sS'techsupportgore'
p70
F0.015794633455600001
sS'firstworldproblems'
p71
F0.016486810551599999
sS'Glitch_in_the_Matrix'
p72
F0.0101648972216
sS'standupshots'
p73
F0.016697320494800001
sS'AskScienceFiction'
p74
F0.0083918217882200004
sS'NewsOfTheStupid'
p75
F0.0151777528777
sS'awesome'
p76
F0.0103110954437
sS'Infographics'
p77
F0.0090955894971700008
sS'polandball'
p78
F0.0150678664023
sS'counting'
p79
F0.0089960689446600007
sS'SRSsucks'
p80
F0.015016795099799999
sS'hardbodies'
p81
F0.0071610548784699999
sS'techsupportmacgyver'
p82
F0.0122382777942
sS'MURICA'
p83
F0.016915512652799999
sS'Gore'
p84
F0.0098846787479400008
sS'spaceporn'
p85
F0.0104014301967
sS'Pizza'
p86
F0.0093415356573299992
sS'wheredidthesodago'
p87
F0.02788829944
sS'GiftofGames'
p88
F0.0083043937792499998
sS'highdeas'
p89
F0.0082751744765700002
sS'wallpaper'
p90
F0.0089122653225199994
sS'Images'
p91
F0.013109552438200001
sS'dogpictures'
p92
F0.0076168344952199998
sS'tall'
p93
F0.010228725671299999
sS'streetwear'
p94
F0.0075032934303200004
sS'ImGoingToHellForThis'
p95
F0.016511910683700001
sS'DoesAnybodyElse'
p96
F0.013986013986000001
sS'pettyrevenge'
p97
F0.013551266818699999
sS'malehairadvice'
p98
F0.0088369730827799996
sS'CityPorn'
p99
F0.010428100987900001
sS'DeepIntoYouTube'
p100
F0.032586343263900003
sS'dataisbeautiful'
p101
F0.0082181281403500006
sS'MLPLounge'
p102
F0.0083197529805300006
sS'battlefield3'
p103
F0.0074119827053700004
sS'badlinguistics'
p104
F0.0088619402985100001
sS'nostalgia'
p105
F0.018211693824500001
sS'StonerEngineering'
p106
F0.0075197552893199997
sS'Bioshock'
p107
F0.0094033283723399998
sS'MensRights'
p108
F0.010905356010000001
sS'MilitaryPorn'
p109
F0.0086749801893499998
sS'Frisson'
p110
F0.0120238095238
sS'childfree'
p111
F0.0090937996820299998
sS'gmod'
p112
F0.0093660765276999992
sS'NoStupidQuestions'
p113
F0.018163684719500001
sS'Braveryjerk'
p114
F0.032840722495899997
sS'creepyPMs'
p115
F0.027250954754400002
sS'WatchItForThePlot'
p116
F0.0139128559103
sS'freebies'
p117
F0.0105492360251
sS'PropagandaPosters'
p118
F0.015746712454999999
sS'mashups'
p119
F0.0074537148353000003
sS'shittyadviceanimals'
p120
F0.032459913961699997
sS'SubredditDrama'
p121
F0.019649657273400001
sS'minimalism'
p122
F0.0088330824685100007
sS'wallpapers'
p123
F0.0113094510331
sS'mildlyinteresting'
p124
F0.0089273426578499997
sS'TrueAtheism'
p125
F0.0073728721674099999
sS'badhistory'
p126
F0.0172313508797
sS'Rateme'
p127
F0.0085592011412300006
sS'popping'
p128
F0.011099726775999999
sS'DunderMifflin'
p129
F0.0138306314477
sS'shittyfoodporn'
p130
F0.021516843359899999
sS'LearnUselessTalents'
p131
F0.0138673234459
sS'RoomPorn'
p132
F0.0085649202733500008
sS'memes'
p133
F0.016789839994300001
sS'CatsStandingUp'
p134
F0.0121710808263
sS'LetsTalkMusic'
p135
F0.0075187969924800004
sS'bestof'
p136
F0.0089665836613400003
sS'Metal'
p137
F0.0074041065368700004
sS'LadyBoners'
p138
F0.00860565622868
sS'corgi'
p139
F0.0072078631234100002
sS'GamePhysics'
p140
F0.021751740139200001
sS'youtubehaiku'
p141
F0.016324213066500001
sS'PoliticalHumor'
p142
F0.0127826086957
sS'TalesFromThePizzaGuy'
p143
F0.0094560518732000002
sS'punk'
p144
F0.0076577571607399997
sS'howtonotgiveafuck'
p145
F0.0078955679545200004
sS'whatstheword'
p146
F0.0084836577960399999
sS'misc'
p147
F0.010476282859600001
sS'patientgamers'
p148
F0.010674637062299999
sS'rant'
p149
F0.0151745068285
sS'seinfeld'
p150
F0.0098604495696499993
sS'pokemon'
p151
F0.0082129250233600008
sS'tf2'
p152
F0.0097114799687099997
sS'OldSchoolCool'
p153
F0.0084822682773999999
sS'lego'
p154
F0.0107299380384
sS'ANormalDayInRussia'
p155
F0.018486244242500002
sS'onetruegod'
p156
F0.020352564102600001
sS'TheFacebookDelusion'
p157
F0.0215799238356
sS'PenmanshipPorn'
p158
F0.0114353110097
sS'shittyreactiongifs'
p159
F0.0286521388216
sS'alternativeart'
p160
F0.010920140537499999
sS'shittyadvice'
p161
F0.018693009118500001
sS'MeanJokes'
p162
F0.0130333868952
sS'ObscureMedia'
p163
F0.0087574696064300003
sS'GTA'
p164
F0.010979794128899999
sS'TrollYChromosome'
p165
F0.0136721891588
sS'GODZILLA'
p166
F0.0080277167483500007
sS'mildlyinfuriating'
p167
F0.023819651212300001
sS'indieheads'
p168
F0.0075699501724799997
sS'Awwducational'
p169
F0.012810198650900001
sS'skyrim'
p170
F0.0118224223902
sS'thatHappened'
p171
F0.040140962549
sS'Justrolledintotheshop'
p172
F0.0081437125748500001
sS'nononono'
p173
F0.018709413741400002
sS'gallifrey'
p174
F0.0071358124963699998
sS'ShingekiNoKyojin'
p175
F0.0080665978317000005
sS'FoodPorn'
p176
F0.0090276514462399992
sS'crappymusic'
p177
F0.024542345604499999
sS'teenagers'
p178
F0.0156134213383
sS'conspiracy'
p179
F0.00996153641633
sS'TalesFromYourServer'
p180
F0.0080997685780399998
sS'HighQualityGifs'
p181
F0.015515956365600001
sS'self'
p182
F0.0102515265251
sS'DaftPunk'
p183
F0.0083247443114199994
sS'britishproblems'
p184
F0.0088722781930500004
sS'conspiratard'
p185
F0.0307945963195
sS'FutureWhatIf'
p186
F0.0085358505724
sS'firefly'
p187
F0.0074390243902399998
sS'badphilosophy'
p188
F0.0077604109738799998
sS'mylittlepony'
p189
F0.00800729779039
sS'progresspics'
p190
F0.0074462983062800001
sS'Minecraft'
p191
F0.0088759579604299997
sS'TumblrInAction'
p192
F0.0225661443617
sS'HailCorporate'
p193
F0.018287485470699999
sS'Heavymind'
p194
F0.0096781288950800008
sS'adventuretime'
p195
F0.0094651995050000007
sS'PanicHistory'
p196
F0.0108508014797
sS'fffffffuuuuuuuuuuuu'
p197
F0.0142103536182
sS'Hiphopcirclejerk'
p198
F0.015109725386699999
sS'dbz'
p199
F0.0084538246268700008
sS'TheoryOfReddit'
p200
F0.010284443620900001
sS'TheBluePill'
p201
F0.0154840542652
sS'harrypotter'
p202
F0.0079780533549800008
sS'shittybattlestations'
p203
F0.0140344797713
sS'whowouldwin'
p204
F0.013012396583600001
sS'GrandTheftAutoV'
p205
F0.0114301452868
sS'MetalMemes'
p206
F0.0126943243492
sS'beatles'
p207
F0.00779986683154
sS'arresteddevelopment'
p208
F0.012550030527099999
sS'shutupandtakemymoney'
p209
F0.0092306313572600007
sS'webcomics'
p210
F0.0099939167463299998
sS'JusticePorn'
p211
F0.011134479772400001
sS'geek'
p212
F0.0086677054927899993
sS'beards'
p213
F0.0098051500532500002
sS'PrettyGirlsUglyFaces'
p214
F0.0126438644837
sS'AbandonedPorn'
p215
F0.012556999931900001
sS'dadjokes'
p216
F0.019686142637000002
sS'GTAV'
p217
F0.0083982643586999993
sS'cringe'
p218
F0.019707894676199999
sS'StarWars'
p219
F0.0093326195574600004
sS'TheSimpsons'
p220
F0.015969211713699999
sS'Christianity'
p221
F0.0079389398033399994
sS'see'
p222
F0.0098525561526800007
sS'changemyview'
p223
F0.0092703464791999996
sS'KarmaCourt'
p224
F0.0099269117486600004
sS'firstworldanarchists'
p225
F0.025945298878400001
sS'PerfectTiming'
p226
F0.017080606114900001
sS'truegaming'
p227
F0.0083517634733999997
sS'lotr'
p228
F0.0077065351418000002
sS'AmericanHorrorStory'
p229
F0.0075206358911600003
sS'wikipedia'
p230
F0.0077225598855900001
sS'breakingbad'
p231
F0.0149440309108
sS'outside'
p232
F0.020090790597299998
sS'foodhacks'
p233
F0.0075084831420099999
sS'pcmasterrace'
p234
F0.0083361455983600001
sS'glitch_art'
p235
F0.0136193697703
sS'LucidDreaming'
p236
F0.0079004964501099995
sS'casualiama'
p237
F0.014279907392700001
sS'facepalm'
p238
F0.0273521199922
sS'celebnsfw'
p239
F0.0070028954279200001
sS'NotTimAndEric'
p240
F0.027773967905600001
sS'AnimalCrossing'
p241
F0.0074574816245499996
sS'gamingsuggestions'
p242
F0.0071561274341200003
sS'Unexpected'
p243
F0.021397655984000001
sS'RedditDayOf'
p244
F0.0085560553938400005
sS'watchpeopledie'
p245
F0.0115259539785
sS'drunk'
p246
F0.0129137987545
sS'reactiongifs'
p247
F0.014189392231999999
sS'community'
p248
F0.010406452633199999
sS'Portal'
p249
F0.0085933503836300006
sS'Rainmeter'
p250
F0.0073815595222100003
sS'fatlogic'
p251
F0.020438154851
sS'hiphopheads'
p252
F0.0078278127735100008
sS'androidthemes'
p253
F0.0071366951611599996
sS'marvelstudios'
p254
F0.0079193177203200002
sS'somethingimade'
p255
F0.0083595071273299994
sS'MapPorn'
p256
F0.0115731219385
sS'shittyaskreddit'
p257
F0.019172071728299999
sS'Perfectfit'
p258
F0.018623980298600001
sS'offbeat'
p259
F0.0110246812493
sS'softwaregore'
p260
F0.023115896136799999
sS'ICanDrawThat'
p261
F0.0095132743362800008
sS'YMS'
p262
F0.0082058106010200003
sS'IASIP'
p263
F0.014067729309699999
sS'gamecollecting'
p264
F0.0094173400571100005
sS'assassinscreed'
p265
F0.0081205488969899996
sS'ShitRedditSays'
p266
F0.0116228703436
sS'southpark'
p267
F0.0152496344266
sS'deadpool'
p268
F0.0074917590650300002
sS'itookapicture'
p269
F0.010486213269999999
sS'Whatcouldgowrong'
p270
F0.017931745428900001
sS'fifthworldproblems'
p271
F0.013182498130099999
sS'talesfromtechsupport'
p272
F0.00948838452458
sS'notinteresting'
p273
F0.0303216925083
sS'AnimalsBeingJerks'
p274
F0.0155489406409
sS'catpictures'
p275
F0.0071891986673700004
sS'HumanPorn'
p276
F0.0140845070423
sS'TimAndEric'
p277
F0.0099716402890900006
sS'drawing'
p278
F0.0076650268847999999
sS'EmmaWatson'
p279
F0.0081940613337700002
sS'GifSound'
p280
F0.0115238524432
sS'FancyFollicles'
p281
F0.0076786769049000001
sS'awwwtf'
p282
F0.016631510627900001
sS'Terraria'
p283
F0.0071469263038000004
sS'whatsthisbug'
p284
F0.0100133204722
sS'PublicFreakout'
p285
F0.015484628233500001
sS'Dexter'
p286
F0.0072089784549800003
sS'rickandmorty'
p287
F0.0098802395209599998
sS'quotes'
p288
F0.0070819372525099998
sS'futurama'
p289
F0.0150267993874
sS'perfectloops'
p290
F0.021038233569999999
sS'InternetIsBeautiful'
p291
F0.011148761080700001
sS'carporn'
p292
F0.0079174105410199994
sS'TalesFromRetail'
p293
F0.012488292226
sS'WouldYouRather'
p294
F0.013412504366
sS'quityourbullshit'
p295
F0.040739604112300001
sS'ProtectAndServe'
p296
F0.0074104999478099998
sS'woahdude'
p297
F0.012919718115200001
sS'Fallout'
p298
F0.013292716699
sS'Conservative'
p299
F0.0098393787894900005
sS'offmychest'
p300
F0.0093030528085099994
sS'howto'
p301
F0.0072199899547999999
sS'cringepics'
p302
F0.021020314935199999
sS'toosoon'
p303
F0.023235800344199999
sS'nonononoyes'
p304
F0.017648818426599999
sS'thewalkingdead'
p305
F0.0083302899079999992
sS'ConfusedBoners'
p306
F0.0153103677817
sS'4chan'
p307
F0.017867088466600001
sS'oblivion'
p308
F0.0080123266563899998
sS'montageparodies'
p309
F0.022340111995300001
sS'ArcherFX'
p310
F0.011599963027999999
sS'blunderyears'
p311
F0.035257686352600001
sS'whatisthisthing'
p312
F0.0127544158522
sS'MechanicalKeyboards'
p313
F0.0075565944093999998
sS'NetflixBestOf'
p314
F0.0098939929328600001
sS'circlebroke2'
p315
F0.0120906801008
sS'ShouldIbuythisgame'
p316
F0.0092740956542900002
sS'tumblr'
p317
F0.0209601371625
sS'interestingasfuck'
p318
F0.0152880832628
sS'MarkMyWords'
p319
F0.024290367612799998
sS'humor'
p320
F0.0103641615223
sS'AMA'
p321
F0.0072990611403700003
sS'ExpectationVsReality'
p322
F0.023721421963800001
sS'lifehacks'
p323
F0.0123306781873
sS'SCP'
p324
F0.0096679687500000003
sS'Enhancement'
p325
F0.0082351972329700006
sS'blackpeoplegifs'
p326
F0.0206709105214
sS'FloridaMan'
p327
F0.020842547545299999
sS'delusionalartists'
p328
F0.036579991185500003
sS'whitepeoplegifs'
p329
F0.021966368731999999
sS'promos'
p330
F0.0076589081073399996
sS'JonTron'
p331
F0.0137867647059
sS'shittyaskscience'
p332
F0.0168912848158
sS'lewronggeneration'
p333
F0.067170626349899995
sS'calvinandhobbes'
p334
F0.0116073487586
sS'netflix'
p335
F0.0079737109167400001
sS'masseffect'
p336
F0.00840086554372
sS'sixwordstories'
p337
F0.0107278925206
sS'AnimalsBeingBros'
p338
F0.0144338399906
sS'classic4chan'
p339
F0.026509003787
sS'battlestations'
p340
F0.0081191663470099994
sS'NSFWFunny'
p341
F0.011345823691900001
sS'androidcirclejerk'
p342
F0.0114673792029
sS'EnoughLibertarianSpam'
p343
F0.0117824773414
sS'amiugly'
p344
F0.0077616710421199997
sS'ShitAmericansSay'
p345
F0.0116032690949
sS'gamemusic'
p346
F0.0084789311408000004
sS'Sneakers'
p347
F0.0070330815316500001
sS'marijuanaenthusiasts'
p348
F0.0096482412060300005
sS'TrollXChromosomes'
p349
F0.010727095419899999
sS'tifu'
p350
F0.0077320280050899998
sS'Damnthatsinteresting'
p351
F0.015730792621100002
sS'CrazyIdeas'
p352
F0.019179156237700001
sS'Bad_Cop_No_Donut'
p353
F0.0096053455836299997
sS'MorbidReality'
p354
F0.0142796650042
sS'gif'
p355
F0.0137670700566
sS'cats'
p356
F0.0097557314922499996
sS'happy'
p357
F0.010778039744
sS'explainlikeIAmA'
p358
F0.0170328490661
sS'misleadingthumbnails'
p359
F0.032797469171699997
sS'shortscarystories'
p360
F0.0087533736961099996
sS'batman'
p361
F0.0117017127052
sS'gamegrumps'
p362
F0.010331338393099999
sS'trailerparkboys'
p363
F0.0101604652792
sS'rule34'
p364
F0.0082154742096499991
sS'HipHopImages'
p365
F0.013280541120199999
sS'xbox360'
p366
F0.0072062723394400001
sS'ProgrammerHumor'
p367
F0.0081773492153500004
sS'Marvel'
p368
F0.0090308666936200002
sS'Random_Acts_Of_Amazon'
p369
F0.0073475872112299997
sS'rage'
p370
F0.029809100844
sS'comics'
p371
F0.0132974712181
sS'behindthegifs'
p372
F0.022474568251700001
sS'civ'
p373
F0.0099501265263000002
sS'fullmoviesonyoutube'
p374
F0.012065813528300001
sS'TrueAskReddit'
p375
F0.00857551214864
sS'bestofworldstar'
p376
F0.010691588784999999
sS'DAE'
p377
F0.0110544217687
sS'ForeverAlone'
p378
F0.0098688098333499993
sS'eatsandwiches'
p379
F0.0090082433925399996
sS'shittyama'
p380
F0.0243218669495
sS'circlebroke'
p381
F0.020402278134200001
sS'zelda'
p382
F0.010115714818999999
sS'ImaginaryLandscapes'
p383
F0.0071955227858200004
sS'TheWayWeWere'
p384
F0.0114476293492
sS'badtattoos'
p385
F0.025781524411700001
sS'Cinemagraphs'
p386
F0.011421819614
sS'nottheonion'
p387
F0.010839154981499999
sS'Frugal_Jerk'
p388
F0.017494751574499999
sS'thesims'
p389
F0.0090457311966100004
sS'nintendo'
p390
F0.0086656922113200006
sS'comicbooks'
p391
F0.00757185116834
sS'oddlysatisfying'
p392
F0.018548174219099999
sS'cosplaygirls'
p393
F0.0086425722228899993
sS'youtube'
p394
F0.0078433914565400002
sS'atheism'
p395
F0.0076041117553999997
sS'PrettyGirls'
p396
F0.0097252137588899994
sS'urbanexploration'
p397
F0.0096650435295900002
s.