(dp1
S'StarWars'
p2
F0.0079709470155499996
sS'gallifrey'
p3
F0.0092674017452500004
sS'gamernews'
p4
F0.0083546841929400002
sS'StarWarsEU'
p5
F0.0075214273220199999
sS'dragonage'
p6
F0.010843196353699999
sS'HalfLife'
p7
F0.0096095365527300008
sS'totalwar'
p8
F0.012107037215399999
sS'AskScienceFiction'
p9
F0.017557207233599999
sS'asoiaf'
p10
F0.0083046419488199998
sS'patientgamers'
p11
F0.0091482987374299999
sS'TrueAskReddit'
p12
F0.0074055989583299998
sS'FanTheories'
p13
F0.0140261533814
sS'masseffect'
p14
F0.0149431304431
sS'conspiratard'
p15
F0.0097752875961100005
sS'explainlikeIAmA'
p16
F0.0107332989868
sS'ImaginaryLandscapes'
p17
F0.0099886492622
sS'rpg'
p18
F0.011534649004200001
sS'stalker'
p19
F0.0076910489281600001
sS'civ'
p20
F0.010505409501899999
sS'tolkienfans'
p21
F0.0110468174645
sS'assassinscreed'
p22
F0.0109981020974
sS'TheLastAirbender'
p23
F0.0079483822704299999
sS'DnD'
p24
F0.0092320881005000001
sS'Fantasy'
p25
F0.0079931241942399998
sS'Xcom'
p26
F0.0079004542761199996
sS'mountandblade'
p27
F0.016915422885599999
sS'AskHistorians'
p28
F0.010682096361400001
sS'badlinguistics'
p29
F0.0087690808704099996
sS'lotr'
p30
F0.0117231222386
sS'OutOfTheLoop'
p31
F0.0083404177101799992
sS'circlebroke'
p32
F0.0093925032313699995
sS'startrek'
p33
F0.0082770345845799998
sS'linguistics'
p34
F0.0071630537229000002
sS'outside'
p35
F0.0128506425321
sS'conlangs'
p36
F0.0074046649389100001
sS'Bioshock'
p37
F0.0078326873385000002
sS'scifi'
p38
F0.00758045620564
sS'Fallout'
p39
F0.017270140319899999
sS'ImaginaryMonsters'
p40
F0.0124396011103
sS'whowouldwin'
p41
F0.0140381034236
sS'SRSsucks'
p42
F0.0075884244372999999
sS'vexillology'
p43
F0.0111314303888
sS'FutureWhatIf'
p44
F0.0091584815503100003
sS'fifthworldproblems'
p45
F0.0094974753546500004
sS'polandball'
p46
F0.0102535543471
sS'starbound'
p47
F0.0085021016431000001
sS'FloridaMan'
p48
F0.0076715085203999996
sS'DaystromInstitute'
p49
F0.0081202278511699998
sS'forwardsfromgrandma'
p50
F0.0071700904797099996
sS'skyrimmods'
p51
F0.0416155837079
sS'rpg_gamers'
p52
F0.0108655389554
sS'CrusaderKings'
p53
F0.0173821989529
sS'badhistory'
p54
F0.017261118450000001
sS'Terraria'
p55
F0.0075833876414500003
sS'ftlgame'
p56
F0.0072771872444799997
sS'Games'
p57
F0.00726519557078
sS'Gaming4Gamers'
p58
F0.0091565860215099999
sS'elderscrollsonline'
p59
F0.019145758661899999
sS'GamePhysics'
p60
F0.0105214090697
sS'TheoryOfReddit'
p61
F0.00845943047778
sS'truegaming'
p62
F0.0134344324188
sS'Morrowind'
p63
F0.081549161325499997
sS'worldbuilding'
p64
F0.0216323916601
sS'dwarffortress'
p65
F0.01224860124
sS'SkyrimPorn'
p66
F0.027283511269299999
sS'darksouls'
p67
F0.00734390164995
sS'ShitAmericansSay'
p68
F0.0071694105151400003
sS'PropagandaPosters'
p69
F0.011274663326
sS'SCP'
p70
F0.013341885824199999
sS'fantasywriters'
p71
F0.0087139423076900008
sS'skyrim'
p72
F0.034403120402399998
sS'oblivion'
p73
F0.060100647016500003
sS'TumblrInAction'
p74
F0.0080590386624899996
sS'wheredidthesodago'
p75
F0.0077976567447799999
sS'Cyberpunk'
p76
F0.0086239456124900006
sS'quityourbullshit'
p77
F0.0084136578990400002
sS'classic4chan'
p78
F0.0077144716051699997
sS'eu4'
p79
F0.0088831578193300006
sS'KerbalSpaceProgram'
p80
F0.0074441687344900002
sS'SubredditDrama'
p81
F0.0091214215202399997
sS'paradoxplaza'
p82
F0.0134859872164
s.