(dp1
S'HalfLife'
p2
F0.011542364282100001
sS'truetf2'
p3
F0.086242871053000006
sS'RandomActsOfGaming'
p4
F0.0077528578774599998
sS'DeepIntoYouTube'
p5
F0.0074881686934600003
sS'counterstrike'
p6
F0.0074441687344900002
sS'tf2'
p7
F0.067659990229599995
sS'Rainmeter'
p8
F0.0073202829412700003
sS'Portal'
p9
F0.0089603185891100005
sS'GlobalOffensiveTrade'
p10
F0.0082689373431099993
sS'SCP'
p11
F0.00771687067589
sS'starbound'
p12
F0.0073166004457800001
sS'paydaytheheist'
p13
F0.011817073817
sS'GiftofGames'
p14
F0.0090510670731700008
sS'gamegrumps'
p15
F0.0092643652806900009
sS'Terraria'
p16
F0.0107240230233
sS'bindingofisaac'
p17
F0.010621387283199999
sS'tf2trade'
p18
F0.106900126714
sS'JonTron'
p19
F0.013523747701
sS'gmod'
p20
F0.0179379715004
sS'ftlgame'
p21
F0.0076451314794599998
sS'Steam'
p22
F0.010989162317400001
sS'lewronggeneration'
p23
F0.0086428834130200007
sS'Borderlands'
p24
F0.0080584506285599992
sS'SteamGameSwap'
p25
F0.0073451461456900003
sS'dontstarve'
p26
F0.0081509082440599998
sS'montageparodies'
p27
F0.0128498001142
sS'Borderlands2'
p28
F0.0076115873485099999
s.