(dp1
S'HalfLife'
p2
F0.0092992042948899997
sS'buildapc'
p3
F0.0073486093454500001
sS'truetf2'
p4
F0.081402629931100007
sS'pcgaming'
p5
F0.0089174902321299994
sS'softwareswap'
p6
F0.0094667302322399994
sS'starbound'
p7
F0.0091219575461500002
sS'indiegameswap'
p8
F0.030904109589000001
sS'teenagers'
p9
F0.0070830760787500002
sS'ShouldIbuythisgame'
p10
F0.0105604401002
sS'sgsflair'
p11
F0.049206591394599999
sS'buildapcsales'
p12
F0.0086847694174800004
sS'counterstrike'
p13
F0.0098478853424799999
sS'RandomActsOfGaming'
p14
F0.018272968358300001
sS'tf2'
p15
F0.083214310801000002
sS'GlobalOffensive'
p16
F0.0121957178177
sS'patientgamers'
p17
F0.0075960252245399996
sS'MechanicalKeyboards'
p18
F0.010180995475099999
sS'GameTrade'
p19
F0.0135930208967
sS'smashbros'
p20
F0.0074812967580999996
sS'Rainmeter'
p21
F0.00893039743677
sS'Fallout'
p22
F0.0085864647770299996
sS'FreeKarma'
p23
F0.0070580686557599999
sS'Portal'
p24
F0.0101570680628
sS'pcmasterrace'
p25
F0.0091302800189799992
sS'GlobalOffensiveTrade'
p26
F0.034811121591900002
sS'buildapcforme'
p27
F0.0076358672468200004
sS'bindingofisaac'
p28
F0.013579918985299999
sS'GameSale'
p29
F0.0084622118471000003
sS'GiftofGames'
p30
F0.020259256384400001
sS'needamod'
p31
F0.0092764378478700001
sS'GameDeals'
p32
F0.011051417033199999
sS'gamegrumps'
p33
F0.00867285195643
sS'mylittlepony'
p34
F0.00701090015864
sS'ftlgame'
p35
F0.0092271402802800006
sS'Dota2Trade'
p36
F0.025303643724699999
sS'GameDealsMeta'
p37
F0.0088173054314600006
sS'JonTron'
p38
F0.0104254958468
sS'gmod'
p39
F0.0130373502467
sS'playrust'
p40
F0.0079651407955800002
sS'dogemarket'
p41
F0.0079024514594000003
sS'GamePhysics'
p42
F0.0085187760778900005
sS'giftcardexchange'
p43
F0.011815033611700001
sS'Minecraft'
p44
F0.0088532037398999994
sS'Steam'
p45
F0.022215643796199998
sS'lewronggeneration'
p46
F0.0076935736032300002
sS'paydaytheheist'
p47
F0.015909517552099999
sS'hardwareswap'
p48
F0.0085528178986099997
sS'Borderlands'
p49
F0.012155168320600001
sS'Terraria'
p50
F0.0120488266863
sS'TF2fashionadvice'
p51
F0.106900126714
sS'4chan'
p52
F0.00705866757984
sS'SteamGameSwap'
p53
F0.044825856385299997
sS'dontstarve'
p54
F0.0085462396545499999
sS'montageparodies'
p55
F0.0142088076957
sS'classic4chan'
p56
F0.0070889197102799997
sS'Borderlands2'
p57
F0.0091011095873300002
s.