(dp1
S'MapPorn'
p2
F0.011929366546999999
sS'ABraThatFits'
p3
F0.0096285167986899997
sS'TheGirlSurvivalGuide'
p4
F0.014666217127400001
sS'uglyduckling'
p5
F0.0084752292164299997
sS'KitchenConfidential'
p6
F0.0076535260888100001
sS'SampleSize'
p7
F0.0095577842094599994
sS'everymanshouldknow'
p8
F0.0141661300708
sS'askphilosophy'
p9
F0.012000274292000001
sS'relationships'
p10
F0.0150874873434
sS'NeutralPolitics'
p11
F0.0095112285336900002
sS'syriancivilwar'
p12
F0.0073431763143499999
sS'transtimelines'
p13
F0.0074273512208699998
sS'HistoryPorn'
p14
F0.011951214529399999
sS'swoleacceptance'
p15
F0.0083303918107999995
sS'holdmybeer'
p16
F0.0087716144803499999
sS'ImaginaryMonsters'
p17
F0.0087915255458699999
sS'dwarffortress'
p18
F0.0074095347501400002
sS'YouShouldKnow'
p19
F0.011263925860200001
sS'UpliftingNews'
p20
F0.0094966306146399993
sS'PandR'
p21
F0.0079301688726599994
sS'inthenews'
p22
F0.0085150881386300004
sS'magicskyfairy'
p23
F0.018996734936200001
sS'GunsAreCool'
p24
F0.0176185291498
sS'IWantToLearn'
p25
F0.0078423236514499998
sS'PoliticalDiscussion'
p26
F0.015183707312
sS'CrappyDesign'
p27
F0.015907760441899999
sS'Cyberpunk'
p28
F0.0089522380595100006
sS'Libertarian'
p29
F0.0128848234484
sS'Anarcho_Capitalism'
p30
F0.014537971322399999
sS'polyamory'
p31
F0.0143007360673
sS'EatCheapAndHealthy'
p32
F0.012112064205
sS'tea'
p33
F0.0077631341397399996
sS'POLITIC'
p34
F0.0072940616823899997
sS'AmISexy'
p35
F0.0075471698113200002
sS'fatpeoplestories'
p36
F0.020135827475299999
sS'OneY'
p37
F0.022066198595799998
sS'depression'
p38
F0.0091956654456699996
sS'forwardsfromgrandma'
p39
F0.037117903930099998
sS'no_sob_story'
p40
F0.012651947407600001
sS'findareddit'
p41
F0.0092135372756800005
sS'skeptic'
p42
F0.021954223109300001
sS'socialskills'
p43
F0.0120781223231
sS'DebateReligion'
p44
F0.012494422133
sS'Anticonsumption'
p45
F0.0079229314846500001
sS'vexillology'
p46
F0.01108913265
sS'Economics'
p47
F0.011562258314
sS'LetsNotMeet'
p48
F0.0150768199876
sS'legaladvice'
p49
F0.0077342492734099998
sS'answers'
p50
F0.0085034997396899997
sS'lgbt'
p51
F0.018529505727699999
sS'doctorwho'
p52
F0.0078667689273599992
sS'WritingPrompts'
p53
F0.0070296384757399999
sS'vegetarian'
p54
F0.0094550229809599994
sS'cripplingalcoholism'
p55
F0.0074553806762600004
sS'IWantOut'
p56
F0.0076045627376399999
sS'QuotesPorn'
p57
F0.012497107151099999
sS'TrueReddit'
p58
F0.019848324594399998
sS'confession'
p59
F0.020243395666399999
sS'AntiJokes'
p60
F0.0072735287634999998
sS'IdiotsFightingThings'
p61
F0.0089587386095999998
sS'gamernews'
p62
F0.0076062842396
sS'ContagiousLaughter'
p63
F0.00808863179568
sS'environment'
p64
F0.0082987551867200002
sS'FiftyFifty'
p65
F0.0090964665606999996
sS'AskHistorians'
p66
F0.016496760910000002
sS'OutOfTheLoop'
p67
F0.020067102692600002
sS'Indiemakeupandmore'
p68
F0.0079365079365100004
sS'ifyoulikeblank'
p69
F0.0081248130794500002
sS'firstimpression'
p70
F0.0084593232541400002
sS'Pareidolia'
p71
F0.0086932750136699995
sS'tipofmytongue'
p72
F0.0073725085537399999
sS'LifeProTips'
p73
F0.0072769860381899998
sS'asoiaf'
p74
F0.0099327035071800004
sS'AskMen'
p75
F0.0168226984846
sS'ghettoglamourshots'
p76
F0.0090915810481200007
sS'techsupportgore'
p77
F0.00815023601725
sS'science'
p78
F0.0098502514539399993
sS'firstworldproblems'
p79
F0.0099615033535699997
sS'Glitch_in_the_Matrix'
p80
F0.0088017294626299997
sS'standupshots'
p81
F0.013901603770399999
sS'Meditation'
p82
F0.0073901398670800002
sS'history'
p83
F0.0090234044553100003
sS'AskScienceFiction'
p84
F0.0121240601504
sS'NewsOfTheStupid'
p85
F0.0105581999135
sS'DecidingToBeBetter'
p86
F0.0093457943925200002
sS'Infographics'
p87
F0.00883696547592
sS'BasicIncome'
p88
F0.0125277983692
sS'Ask_Politics'
p89
F0.0070306397014100004
sS'asktrp'
p90
F0.031954754330200001
sS'MURICA'
p91
F0.0095346981038499992
sS'scifi'
p92
F0.0096145124716599997
sS'RedditLaqueristas'
p93
F0.0124521494258
sS'nyc'
p94
F0.0080493599517700003
sS'SRSsucks'
p95
F0.030347317744199999
sS'wheredidthesodago'
p96
F0.013797117326899999
sS'polandball'
p97
F0.0135565726204
sS'mylittlepony'
p98
F0.00736837196288
sS'asmr'
p99
F0.0078591637849699993
sS'askscience'
p100
F0.0083312445542499999
sS'philosophy'
p101
F0.011080082875400001
sS'budgetfood'
p102
F0.0086564341310800003
sS'vegan'
p103
F0.0099906822652400008
sS'short'
p104
F0.015882665856100001
sS'dating_advice'
p105
F0.0088051462201700001
sS'Shitstatistssay'
p106
F0.0090382159347699997
sS'tall'
p107
F0.009771701503
sS'ImGoingToHellForThis'
p108
F0.0077915818785499998
sS'DoesAnybodyElse'
p109
F0.0084407034703299997
sS'pettyrevenge'
p110
F0.014667764461900001
sS'CityPorn'
p111
F0.0073091364205299996
sS'PurplePillDebate'
p112
F0.112375827815
sS'actuallesbians'
p113
F0.014370158988999999
sS'DeepIntoYouTube'
p114
F0.0126498002663
sS'dataisbeautiful'
p115
F0.011471238476600001
sS'MLPLounge'
p116
F0.0073303912035299996
sS'islam'
p117
F0.0086888782358600005
sS'linguistics'
p118
F0.011797599563600001
sS'badlinguistics'
p119
F0.025227542540600001
sS'nostalgia'
p120
F0.0076563300871299996
sS'Documentaries'
p121
F0.00841470812704
sS'writing'
p122
F0.0110940086545
sS'MensRights'
p123
F0.026407936971099999
sS'Frisson'
p124
F0.0099848877374800003
sS'childfree'
p125
F0.020534570086000001
sS'BDSMcommunity'
p126
F0.0120116156283
sS'DebateAnAtheist'
p127
F0.0075793462813799999
sS'NoStupidQuestions'
p128
F0.015636207143899999
sS'Braveryjerk'
p129
F0.0108163790883
sS'Liberal'
p130
F0.012251420454500001
sS'creepyPMs'
p131
F0.0526464849896
sS'asianamerican'
p132
F0.0086576056600299999
sS'Buddhism'
p133
F0.0079956387425000001
sS'PropagandaPosters'
p134
F0.017649654360900002
sS'shittyadviceanimals'
p135
F0.0079539508110900003
sS'SubredditDrama'
p136
F0.049370525796099997
sS'minimalism'
p137
F0.0083846553387300002
sS'aspergers'
p138
F0.0093150244920900006
sS'TrueAtheism'
p139
F0.0167852490229
sS'badhistory'
p140
F0.058942541138400001
sS'ADHD'
p141
F0.010239072687799999
sS'Rateme'
p142
F0.0080361881175599996
sS'Anarchism'
p143
F0.017217765603599999
sS'TwoXChromosomes'
p144
F0.019753635297499999
sS'Feminism'
p145
F0.040830493499899999
sS'canada'
p146
F0.0083422714813499999
sS'psychology'
p147
F0.014829030007
sS'shittyfoodporn'
p148
F0.012225011073400001
sS'LearnUselessTalents'
p149
F0.0088932323479100003
sS'RoomPorn'
p150
F0.0082012259564599992
sS'LetsTalkMusic'
p151
F0.0078401809272499994
sS'bestof'
p152
F0.016420508230099998
sS'LadyBoners'
p153
F0.0142923666583
sS'GamePhysics'
p154
F0.0080325474650499995
sS'paradoxplaza'
p155
F0.0080842059573500002
sS'youtubehaiku'
p156
F0.0082051622761899999
sS'PoliticalHumor'
p157
F0.012660147070000001
sS'howtonotgiveafuck'
p158
F0.012130622543500001
sS'MakeupAddicts'
p159
F0.0093340654168999997
sS'whatstheword'
p160
F0.0074372482181600001
sS'patientgamers'
p161
F0.0092531684427500007
sS'rant'
p162
F0.014875394423299999
sS'conspiratard'
p163
F0.052705130764599997
sS'TheLastAirbender'
p164
F0.0079326154174200001
sS'OldSchoolCool'
p165
F0.0077295812878400002
sS'ANormalDayInRussia'
p166
F0.0099463567277599998
sS'seduction'
p167
F0.0102009744214
sS'TheFacebookDelusion'
p168
F0.012644538723899999
sS'PenmanshipPorn'
p169
F0.0078521722775999996
sS'shittyreactiongifs'
p170
F0.010414482421199999
sS'alternativeart'
p171
F0.0075831702544000004
sS'shittyadvice'
p172
F0.0092128980572800008
sS'dogs'
p173
F0.0088334817453299998
sS'asktransgender'
p174
F0.011587905124
sS'TrollYChromosome'
p175
F0.030489328734900002
sS'collapse'
p176
F0.0070328198258500004
sS'mildlyinfuriating'
p177
F0.010957020392600001
sS'madmen'
p178
F0.0079210410511100001
sS'Psychonaut'
p179
F0.0072345890410999997
sS'skyrim'
p180
F0.0076726342711000003
sS'sex'
p181
F0.0118520438106
sS'SRSGaming'
p182
F0.0364766839378
sS'worldpolitics'
p183
F0.013026402768600001
sS'TheRedPill'
p184
F0.0429124164615
sS'nononono'
p185
F0.0089849137030400001
sS'gallifrey'
p186
F0.0092612193056700008
sS'FoodPorn'
p187
F0.0072344982842699997
sS'bisexual'
p188
F0.014362922928900001
sS'conspiracy'
p189
F0.012437682209499999
sS'AnythingGoesNews'
p190
F0.0073824279985400003
sS'HighQualityGifs'
p191
F0.0081502052644299994
sS'self'
p192
F0.015591816984300001
sS'Parenting'
p193
F0.0081336622034300001
sS'britishproblems'
p194
F0.0098039215686299992
sS'UnresolvedMysteries'
p195
F0.011256041846000001
sS'nonononoyes'
p196
F0.010218111368
sS'startrek'
p197
F0.0094946285368399993
sS'firefly'
p198
F0.0076264161370500003
sS'badphilosophy'
p199
F0.035426731078900001
sS'Futurology'
p200
F0.0084537945276200004
sS'Games'
p201
F0.0079964803136800006
sS'INTP'
p202
F0.0072551390568299998
sS'progresspics'
p203
F0.0090179632008899994
sS'Gaming4Gamers'
p204
F0.00905175104563
sS'TumblrInAction'
p205
F0.024411134903600001
sS'HailCorporate'
p206
F0.0150355385457
sS'Heavymind'
p207
F0.0075491344526899999
sS'Awwducational'
p208
F0.0141943447038
sS'adventuretime'
p209
F0.0079006415320900004
sS'PanicHistory'
p210
F0.0263076126359
sS'fffffffuuuuuuuuuuuu'
p211
F0.0077457843207999998
sS'Hiphopcirclejerk'
p212
F0.0082235212523499995
sS'Foodforthought'
p213
F0.017749029754200001
sS'RandomActsofMakeup'
p214
F0.0075059970595099997
sS'languagelearning'
p215
F0.00749272400768
sS'TheoryOfReddit'
p216
F0.0205484993124
sS'harrypotter'
p217
F0.0097984097662800005
sS'whowouldwin'
p218
F0.0112256117831
sS'blunderyears'
p219
F0.018122111408400001
sS'Anxiety'
p220
F0.0098012837759900006
sS'TalesFromYourServer'
p221
F0.0113973367448
sS'CrusaderKings'
p222
F0.0095972394457300002
sS'JusticePorn'
p223
F0.0098614036735399993
sS'geek'
p224
F0.0070037476193399997
sS'lostgeneration'
p225
F0.015584221907399999
sS'PrettyGirlsUglyFaces'
p226
F0.0085197018104399991
sS'AbandonedPorn'
p227
F0.0086226239702499995
sS'progressive'
p228
F0.0149134060295
sS'dadjokes'
p229
F0.0085405759162299998
sS'thatHappened'
p230
F0.025706276466700002
sS'whitepeoplegifs'
p231
F0.00902634897458
sS'cringe'
p232
F0.0137503370181
sS'AskWomen'
p233
F0.022852246860500001
sS'TheSimpsons'
p234
F0.0079235419049199993
sS'Christianity'
p235
F0.0100754324706
sS'changemyview'
p236
F0.026612136199400001
sS'KarmaCourt'
p237
F0.0073468638075100002
sS'againstmensrights'
p238
F0.085638188895700004
sS'firstworldanarchists'
p239
F0.0116573620914
sS'PerfectTiming'
p240
F0.0075989097216500002
sS'cosplay'
p241
F0.0073599877333499998
sS'truegaming'
p242
F0.013151295625499999
sS'AmericanHorrorStory'
p243
F0.0077008310249299999
sS'wikipedia'
p244
F0.0100338723078
sS'outside'
p245
F0.0137060264983
sS'AskCulinary'
p246
F0.00731252453867
sS'foodhacks'
p247
F0.0077190274025500001
sS'Anarchy101'
p248
F0.0077734000638899998
sS'AskFeminists'
p249
F0.025542080117600001
sS'europe'
p250
F0.011736961943
sS'casualiama'
p251
F0.013235042002399999
sS'facepalm'
p252
F0.0153552962494
sS'NotTimAndEric'
p253
F0.0115708487308
sS'bigboobproblems'
p254
F0.012933178577399999
sS'news'
p255
F0.0073385983141600001
sS'Unexpected'
p256
F0.010934083099
sS'RedditDayOf'
p257
F0.012166012166000001
sS'relationship_advice'
p258
F0.013265049114299999
sS'watchpeopledie'
p259
F0.0078220858895700004
sS'Sherlock'
p260
F0.0080585720603400003
sS'ukpolitics'
p261
F0.0100876363407
sS'GetMotivated'
p262
F0.0074916937128799996
sS'drunk'
p263
F0.0080981670942399994
sS'xxfitness'
p264
F0.014928098607600001
sS'reactiongifs'
p265
F0.0088646938737999992
sS'community'
p266
F0.0086917428443000003
sS'MMFB'
p267
F0.0071863375042299999
sS'rpg'
p268
F0.0086452053236300008
sS'femalefashionadvice'
p269
F0.015005641218499999
sS'ainbow'
p270
F0.026823529411799999
sS'crappymusic'
p271
F0.0088187908081100008
sS'confessions'
p272
F0.0103242693035
sS'fatlogic'
p273
F0.022640131458799999
sS'MakeupAddiction'
p274
F0.013046422599100001
sS'oddlysatisfying'
p275
F0.0091277031718300008
sS'keto'
p276
F0.0070726532205000001
sS'curlyhair'
p277
F0.0099458826970899999
sS'offbeat'
p278
F0.014568129071900001
sS'softwaregore'
p279
F0.0088233266698799998
sS'socialism'
p280
F0.022643963580499998
sS'Cooking'
p281
F0.0088698856012200001
sS'FanTheories'
p282
F0.0115619626066
sS'australia'
p283
F0.0079591110207000004
sS'ShitRedditSays'
p284
F0.072797980487099997
sS'Israel'
p285
F0.0074701910645000001
sS'transpassing'
p286
F0.0081131014539300005
sS'Whatcouldgowrong'
p287
F0.0098321836713700008
sS'fifthworldproblems'
p288
F0.012098725600899999
sS'talesfromtechsupport'
p289
F0.0096816435180200004
sS'literature'
p290
F0.0103634505912
sS'knitting'
p291
F0.0076764288478900003
sS'notinteresting'
p292
F0.0112012878127
sS'AnimalsBeingJerks'
p293
F0.0116282900155
sS'birthcontrol'
p294
F0.0082345489096000007
sS'DebateAChristian'
p295
F0.0081729697600099998
sS'Physics'
p296
F0.0071312463950499996
sS'thesims'
p297
F0.010523089497299999
sS'TrueFilm'
p298
F0.00759592287217
sS'HumanPorn'
p299
F0.0138195777351
sS'Fantasy'
p300
F0.0089171508972000005
sS'FancyFollicles'
p301
F0.015876165905899998
sS'awwwtf'
p302
F0.0108595358081
sS'circlebroke'
p303
F0.065623320795300005
sS'PublicFreakout'
p304
F0.0108160026727
sS'Conservative'
p305
F0.0131179637788
sS'quotes'
p306
F0.0070797653563499999
sS'perfectloops'
p307
F0.0081173537426799999
sS'Pets'
p308
F0.0080848321518499997
sS'InternetIsBeautiful'
p309
F0.0088888888888900008
sS'TalesFromRetail'
p310
F0.014335260115600001
sS'ShitRConservativeSays'
p311
F0.021797451374899999
sS'WouldYouRather'
p312
F0.0072666294019000004
sS'quityourbullshit'
p313
F0.027869845682299998
sS'ProtectAndServe'
p314
F0.010336538461500001
sS'woahdude'
p315
F0.0070834955400199996
sS'Fallout'
p316
F0.0075535039865699998
sS'offmychest'
p317
F0.017438348946899999
sS'exmormon'
p318
F0.0079937304075199996
sS'slowcooking'
p319
F0.0073293632615700002
sS'cringepics'
p320
F0.0148031745613
sS'RedPillWomen'
p321
F0.0326690936961
sS'ConfusedBoners'
p322
F0.0092854552049299998
sS'4chan'
p323
F0.0098392310863300008
sS'montageparodies'
p324
F0.0070829759566200003
sS'ArcherFX'
p325
F0.0095392907558699992
sS'getdisciplined'
p326
F0.0081873666451599998
sS'gardening'
p327
F0.0075551969485800003
sS'whatisthisthing'
p328
F0.0088640275387299999
sS'NetflixBestOf'
p329
F0.0096116378750500005
sS'circlebroke2'
p330
F0.032083862769999999
sS'tumblr'
p331
F0.0132560723924
sS'interestingasfuck'
p332
F0.0095860496483499997
sS'MarkMyWords'
p333
F0.012419393360400001
sS'FeMRADebates'
p334
F0.024871001032
sS'gameofthrones'
p335
F0.00840844091988
sS'humor'
p336
F0.0100222141861
sS'SkincareAddiction'
p337
F0.012728966159599999
sS'ExpectationVsReality'
p338
F0.0124168775378
sS'lifehacks'
p339
F0.0077902460077699997
sS'SCP'
p340
F0.0083682008368199997
sS'Enhancement'
p341
F0.0078000866676300002
sS'blackpeoplegifs'
p342
F0.0082649842271300001
sS'DeadBedrooms'
p343
F0.014911857039399999
sS'FloridaMan'
p344
F0.015706806282699999
sS'delusionalartists'
p345
F0.023433215336299999
sS'OkCupid'
p346
F0.0155196918986
sS'Frugal'
p347
F0.0099421772952300001
sS'promos'
p348
F0.0082614742698199992
sS'shittyaskscience'
p349
F0.0106632752886
sS'lewronggeneration'
p350
F0.036368629604899998
sS'worldbuilding'
p351
F0.0104274717476
sS'masseffect'
p352
F0.0086701769666299999
sS'sixwordstories'
p353
F0.0076909929926500002
sS'AnimalsBeingBros'
p354
F0.012678542770000001
sS'classic4chan'
p355
F0.010650488709100001
sS'EnoughLibertarianSpam'
p356
F0.0492593253614
sS'amiugly'
p357
F0.0095103909827399993
sS'ShitAmericansSay'
p358
F0.0203425193428
sS'Scotland'
p359
F0.00755259845352
sS'marijuanaenthusiasts'
p360
F0.00719609354922
sS'TrollXChromosomes'
p361
F0.029849768180999998
sS'tifu'
p362
F0.0075006654245399996
sS'exmuslim'
p363
F0.0073703829210400003
sS'unitedkingdom'
p364
F0.010357448796799999
sS'Damnthatsinteresting'
p365
F0.0083641021776799992
sS'DnD'
p366
F0.0073902332995200003
sS'loseit'
p367
F0.0092257632309300005
sS'CrazyIdeas'
p368
F0.0129803440504
sS'Bad_Cop_No_Donut'
p369
F0.0137458390444
sS'MorbidReality'
p370
F0.019282368457000001
sS'cats'
p371
F0.0093055378855299992
sS'introvert'
p372
F0.0102364755426
sS'raisedbynarcissists'
p373
F0.021555325335
sS'happy'
p374
F0.0106408706167
sS'explainlikeIAmA'
p375
F0.0150452632921
sS'misleadingthumbnails'
p376
F0.011423349326000001
sS'occupywallstreet'
p377
F0.0078175296606300005
sS'ProgrammerHumor'
p378
F0.0070370208488100003
sS'webcomics'
p379
F0.0071002341566599996
sS'rage'
p380
F0.023131672597899999
sS'comics'
p381
F0.011725051161700001
sS'behindthegifs'
p382
F0.0120204825551
sS'books'
p383
F0.0078314766730900008
sS'civ'
p384
F0.0089064819396299996
sS'fullmoviesonyoutube'
p385
F0.0091801336830500003
sS'buffy'
p386
F0.0083710600495400002
sS'TrueAskReddit'
p387
F0.016292652935800001
sS'blackladies'
p388
F0.0179161245121
sS'politics'
p389
F0.0096612034861200003
sS'ForeverAlone'
p390
F0.019191152553399999
sS'shittyama'
p391
F0.0090102027295599994
sS'AskSocialScience'
p392
F0.0154366024115
sS'TheWayWeWere'
p393
F0.0084217092950700009
sS'badtattoos'
p394
F0.013481610337999999
sS'popping'
p395
F0.0086186353165499992
sS'nottheonion'
p396
F0.0130703264684
sS'Frugal_Jerk'
p397
F0.0108834282799
sS'SuicideWatch'
p398
F0.0078737647433900007
sS'bigdickproblems'
p399
F0.0102236039699
sS'comicbooks'
p400
F0.0075755610325599996
sS'GirlGamers'
p401
F0.0336975273145
sS'atheism'
p402
F0.0086958223521099998
sS'terriblefacebookmemes'
p403
F0.0154840542652
s.