(dp1
S'awwwtf'
p2
F0.0124525732075
sS'daddit'
p3
F0.0070195544731800003
sS'NoStupidQuestions'
p4
F0.0099830416280000008
sS'talesfromcallcenters'
p5
F0.0078869047618999998
sS'pettyrevenge'
p6
F0.0119276777121
sS'PublicFreakout'
p7
F0.011520508491399999
sS'PanicHistory'
p8
F0.0077982412477199999
sS'fffffffuuuuuuuuuuuu'
p9
F0.0106219130065
sS'uglyduckling'
p10
F0.0079512035726000008
sS'Conservative'
p11
F0.0081908406074400007
sS'quotes'
p12
F0.0077160493827199998
sS'PoliticalDiscussion'
p13
F0.0096770058959200003
sS'futurama'
p14
F0.0099481426606000001
sS'perfectloops'
p15
F0.0102124487514
sS'everymanshouldknow'
p16
F0.0082364517657300008
sS'Foodforthought'
p17
F0.0084071078275299999
sS'islam'
p18
F0.0085350713842300002
sS'dadjokes'
p19
F0.0088978615223600007
sS'TalesFromRetail'
p20
F0.0119047619048
sS'ShitRConservativeSays'
p21
F0.0108592112783
sS'badlinguistics'
p22
F0.0072519672889999999
sS'WouldYouRather'
p23
F0.0078131358346200004
sS'quityourbullshit'
p24
F0.0210698244181
sS'DoesAnybodyElse'
p25
F0.0096163788646499992
sS'LearnUselessTalents'
p26
F0.0087603504140200007
sS'ProtectAndServe'
p27
F0.0082751335172300006
sS'HistoryPorn'
p28
F0.0084517609674299998
sS'badtattoos'
p29
F0.013482781026599999
sS'whowouldwin'
p30
F0.0074193184382800002
sS'woahdude'
p31
F0.0072858629768
sS'collapse'
p32
F0.0071296865396399999
sS'ImaginaryMonsters'
p33
F0.0076335877862599997
sS'MetalMemes'
p34
F0.0080553664624499997
sS'scifi'
p35
F0.0077048956770800004
sS'MensRights'
p36
F0.0103810690567
sS'nononono'
p37
F0.0121100368783
sS'offmychest'
p38
F0.0070577856197599998
sS'Frisson'
p39
F0.0081994985430599993
sS'arresteddevelopment'
p40
F0.0084285151634499993
sS'childfree'
p41
F0.0135889098066
sS'misc'
p42
F0.0092491176828499999
sS'whitepeoplegifs'
p43
F0.010848301618400001
sS'JusticePorn'
p44
F0.0097393418523100007
sS'howto'
p45
F0.0070906591418899998
sS'AbandonedPorn'
p46
F0.0087620021174799993
sS'patientgamers'
p47
F0.0073533273806400002
sS'geek'
p48
F0.0095912388392900005
sS'spaceporn'
p49
F0.0093440820813499997
sS'DebateAnAtheist'
p50
F0.035014492753600003
sS'inthenews'
p51
F0.0081343205756599993
sS'lostgeneration'
p52
F0.0094913855359499994
sS'cringepics'
p53
F0.0093213090242900004
sS'toosoon'
p54
F0.015856824925800001
sS'magicskyfairy'
p55
F0.0131661442006
sS'PrettyGirlsUglyFaces'
p56
F0.0070894435272399999
sS'Braveryjerk'
p57
F0.0083820167640299998
sS'GunsAreCool'
p58
F0.0117720922932
sS'IWantToLearn'
p59
F0.0075862068965499999
sS'Liberal'
p60
F0.0154320987654
sS'creepyPMs'
p61
F0.0142118420602
sS'progressive'
p62
F0.014837819185599999
sS'IdiotsFightingThings'
p63
F0.012114256567200001
sS'WatchItForThePlot'
p64
F0.0088923840058099998
sS'firstworldproblems'
p65
F0.0122710880052
sS'freebies'
p66
F0.0073947667804299998
sS'PropagandaPosters'
p67
F0.0119372787051
sS'vexillology'
p68
F0.0089804134086899998
sS'NewsOfTheWeird'
p69
F0.010979609297000001
sS'shittyadviceanimals'
p70
F0.0101080515859
sS'MarkMyWords'
p71
F0.0105814085789
sS'Enhancement'
p72
F0.00706608280255
sS'zombies'
p73
F0.00742503569729
sS'Libertarian'
p74
F0.0095135054469499998
sS'DeepIntoYouTube'
p75
F0.0098328416912500001
sS'ArcherFX'
p76
F0.0084698198887700003
sS'cringe'
p77
F0.0084381783805200002
sS'YouShouldKnow'
p78
F0.0105143043443
sS'talesfromtechsupport'
p79
F0.0097470898976199996
sS'TrueAtheism'
p80
F0.038949561265099998
sS'whatisthisthing'
p81
F0.0097085101892499994
sS'NetflixBestOf'
p82
F0.0079705349178500005
sS'gentlemanboners'
p83
F0.0071936587219699998
sS'TheSimpsons'
p84
F0.0077358216893100001
sS'Christianity'
p85
F0.010862468095200001
sS'tumblr'
p86
F0.011610556747200001
sS'POLITIC'
p87
F0.0093309057806100007
sS'interestingasfuck'
p88
F0.0094896127212099994
sS'StandUpComedy'
p89
F0.0071277719112999996
sS'changemyview'
p90
F0.010175502226500001
sS'fatpeoplestories'
p91
F0.012450481041299999
sS'OneY'
p92
F0.0075630252100800004
sS'CrappyDesign'
p93
F0.012488073188499999
sS'Cinemagraphs'
p94
F0.0073322053017499996
sS'firstworldanarchists'
p95
F0.0122116689281
sS'offbeat'
p96
F0.0095513658142
sS'no_sob_story'
p97
F0.0094815170427300002
sS'humor'
p98
F0.0106102501447
sS'psychology'
p99
F0.0080698896868299994
sS'Glitch_in_the_Matrix'
p100
F0.0077995141286300003
sS'skeptic'
p101
F0.025860757568099999
sS'shittyfoodporn'
p102
F0.0089146644573299995
sS'wikipedia'
p103
F0.0075763953194699996
sS'ExpectationVsReality'
p104
F0.0128797636185
sS'DebateReligion'
p105
F0.028952088137299999
sS'religion'
p106
F0.0094940662086200004
sS'outside'
p107
F0.011754291054000001
sS'facepalm'
p108
F0.0213401906925
sS'foodhacks'
p109
F0.0072365060446099999
sS'lifehacks'
p110
F0.00844566777237
sS'memes'
p111
F0.0117577895356
sS'Astronomy'
p112
F0.0089102564102599997
sS'SCP'
p113
F0.0079754601226999997
sS'SubredditDrama'
p114
F0.010849909584100001
sS'TheWayWeWere'
p115
F0.0107777777778
sS'blackpeoplegifs'
p116
F0.0098944042570899993
sS'bestof'
p117
F0.0070439118282399999
sS'Cyberpunk'
p118
F0.0074608459736099997
sS'casualiama'
p119
F0.0079333236066500001
sS'FloridaMan'
p120
F0.012955616166600001
sS'delusionalartists'
p121
F0.0171846435101
sS'answers'
p122
F0.0089027375918099994
sS'BasicIncome'
p123
F0.0076930967278700003
sS'nostalgia'
p124
F0.010204454848
sS'lgbt'
p125
F0.0119914581394
sS'NotTimAndEric'
p126
F0.0091793503844299993
sS'shittyaskscience'
p127
F0.0093696992541899993
sS'doctorwho'
p128
F0.0073594418293499997
sS'lewronggeneration'
p129
F0.014283789246700001
sS'Unexpected'
p130
F0.010757507844
sS'PoliticalHumor'
p131
F0.017631972643699999
sS'ThriftStoreHauls'
p132
F0.0075477282817799996
sS'RedditDayOf'
p133
F0.0082304526748999997
sS'Anarcho_Capitalism'
p134
F0.0070372976776900001
sS'TheBluePill'
p135
F0.012644538723899999
sS'Roadcam'
p136
F0.00734551464512
sS'4chan'
p137
F0.0076999503228999998
sS'howtonotgiveafuck'
p138
F0.0076950396590500002
sS'sixwordstories'
p139
F0.0081084505257800008
sS'AnimalsBeingBros'
p140
F0.0110515740121
sS'confession'
p141
F0.0083542464667799993
sS'classic4chan'
p142
F0.0108715346983
sS'OutOfTheLoop'
p143
F0.011302278759000001
sS'whatsthisbug'
p144
F0.00755731385677
sS'QuotesPorn'
p145
F0.0108229988726
sS'ShitAmericansSay'
p146
F0.012168566670899999
sS'TrueReddit'
p147
F0.0086068563092600008
sS'AmIFreeToGo'
p148
F0.0087912087912100003
sS'reactiongifs'
p149
F0.0072589238145999999
sS'AntiJokes'
p150
F0.0082703696140499997
sS'KingOfTheHill'
p151
F0.0077462191073400001
sS'techsupportmacgyver'
p152
F0.0086034587642300001
sS'rant'
p153
F0.0099940713136300006
sS'conspiratard'
p154
F0.026530248051900001
sS'exmuslim'
p155
F0.010790464240899999
sS'TrollXChromosomes'
p156
F0.0079060157437300001
sS'holdmybeer'
p157
F0.0095428595241099992
sS'ainbow'
p158
F0.011853162317600001
sS'badhistory'
p159
F0.011248402215600001
sS'Damnthatsinteresting'
p160
F0.0099991190203500002
sS'environment'
p161
F0.0078364322861000004
sS'FiftyFifty'
p162
F0.0086225479629200002
sS'CrazyIdeas'
p163
F0.011173897774800001
sS'Bad_Cop_No_Donut'
p164
F0.0139789396239
sS'ANormalDayInRussia'
p165
F0.0110053961943
sS'Whatcouldgowrong'
p166
F0.012122944960700001
sS'onetruegod'
p167
F0.0099952403617300008
sS'urbanexploration'
p168
F0.0073189857976800003
sS'MorbidReality'
p169
F0.0107508322032
sS'gif'
p170
F0.0098241661973600004
sS'PenmanshipPorn'
p171
F0.0075566750629700004
sS'shittyreactiongifs'
p172
F0.0100808368997
sS'alternativeart'
p173
F0.0091178211959700006
sS'shittyadvice'
p174
F0.0107507615123
sS'MeanJokes'
p175
F0.0079772702436900003
sS'Pareidolia'
p176
F0.0100912358308
sS'happy'
p177
F0.0075876095118900004
sS'fatlogic'
p178
F0.015648778246799999
sS'TrollYChromosome'
p179
F0.010598578826900001
sS'explainlikeIAmA'
p180
F0.011549083605299999
sS'misleadingthumbnails'
p181
F0.0110042267891
sS'fifthworldproblems'
p182
F0.0080990396852900007
sS'batman'
p183
F0.0070167410288700001
sS'occupywallstreet'
p184
F0.0073539810493600003
sS'mildlyinfuriating'
p185
F0.011153798487999999
sS'cordcutters'
p186
F0.0070685449748600004
sS'somethingimade'
p187
F0.00725455424794
sS'raisedbynarcissists'
p188
F0.0092875750368100005
sS'introvert'
p189
F0.0096170358921499992
sS'Awwducational'
p190
F0.0107877927608
sS'Shitty_Car_Mods'
p191
F0.0087449106036499996
sS'shittyaskreddit'
p192
F0.0075320701423999999
sS'IASIP'
p193
F0.0071606674764999999
sS'ghettoglamourshots'
p194
F0.014152892562000001
sS'blunderyears'
p195
F0.011937033338100001
sS'webcomics'
p196
F0.00924450111572
sS'calvinandhobbes'
p197
F0.0074858499178400003
sS'rage'
p198
F0.0171270051863
sS'worldpolitics'
p199
F0.0089464123524099996
sS'popping'
p200
F0.00761789035846
sS'Perfectfit'
p201
F0.0098146128680500003
sS'PerfectTiming'
p202
F0.010367531446499999
sS'behindthegifs'
p203
F0.0094803916489700005
sS'standupshots'
p204
F0.010505097491999999
sS'socialism'
p205
F0.0108883382143
sS'findareddit'
p206
F0.0095297609748499993
sS'fullmoviesonyoutube'
p207
F0.0086150435790199997
sS'gallifrey'
p208
F0.0078052652467299997
sS'TalesFromThePizzaGuy'
p209
F0.0082121851070900004
sS'AskScienceFiction'
p210
F0.0095232664233600006
sS'NewsOfTheStupid'
p211
F0.016856846472999999
sS'crappymusic'
p212
F0.0095166541447499996
sS'awesome'
p213
F0.0091842247433799994
sS'Infographics'
p214
F0.0086883701455
sS'TrueAskReddit'
p215
F0.0091414944356099995
sS'FanTheories'
p216
F0.0104387677162
sS'exmormon'
p217
F0.0093372510610499997
sS'conspiracy'
p218
F0.0083639705882400002
sS'politics'
p219
F0.0070726509995800001
sS'AnythingGoesNews'
p220
F0.010358342665200001
sS'bestofworldstar'
p221
F0.0076052352316899998
sS'shorthairedhotties'
p222
F0.0080497248828200006
sS'southpark'
p223
F0.0089189088330800005
sS'SRSsucks'
p224
F0.010038418639200001
sS'TalesFromYourServer'
p225
F0.0105843768634
sS'DAE'
p226
F0.0088214537755799995
sS'ForeverAlone'
p227
F0.0077441077441100003
sS'MURICA'
p228
F0.0091842247433799994
sS'HighQualityGifs'
p229
F0.0088620500352899999
sS'softwaregore'
p230
F0.0107627515208
sS'self'
p231
F0.0081378081378099994
sS'shittyama'
p232
F0.0089428014875200003
sS'circlebroke'
p233
F0.0087204427301699992
sS'comics'
p234
F0.0080779282489900003
sS'TumblrInAction'
p235
F0.0123319703719
sS'Feminism'
p236
F0.0086859510718000008
sS'UnresolvedMysteries'
p237
F0.0074870078393399998
sS'nottheonion'
p238
F0.0079238224791699993
sS'watchpeopledie'
p239
F0.0101241900648
sS'nonononoyes'
p240
F0.010389702492799999
sS'Frugal_Jerk'
p241
F0.0086412022542300005
sS'FutureWhatIf'
p242
F0.0080193482688399997
sS'wheredidthesodago'
p243
F0.0134460389227
sS'firefly'
p244
F0.0091820284572800004
sS'DoctorWhumour'
p245
F0.0079944865609899995
sS'MapPorn'
p246
F0.0075594580450099999
sS'notinteresting'
p247
F0.0094357715469300003
sS'forwardsfromgrandma'
p248
F0.028958190541499999
sS'AnimalsBeingJerks'
p249
F0.0114029805811
sS'wallpaper'
p250
F0.0074131540384400002
sS'DebateAChristian'
p251
F0.029181645168099998
sS'Images'
p252
F0.0089717741935500007
sS'EnoughLibertarianSpam'
p253
F0.014468629961599999
sS'GamePhysics'
p254
F0.0093171748762099996
sS'polandball'
p255
F0.0072093624725200001
sS'startrek'
p256
F0.0086956521739099991
sS'oddlysatisfying'
p257
F0.0087386018237099999
sS'MachinePorn'
p258
F0.0070977151191099997
sS'cosplaygirls'
p259
F0.0085866629734799998
sS'ConfusedBoners'
p260
F0.0084050430258199998
sS'HumanPorn'
p261
F0.0080495356037199994
sS'NSFWFunny'
p262
F0.0086518937053100004
sS'atheism'
p263
F0.015906595072400002
sS'terriblefacebookmemes'
p264
F0.0215799238356
sS'PrettyGirls'
p265
F0.0074733902015600004
sS'Shitstatistssay'
p266
F0.0078296273097399997
sS'thatHappened'
p267
F0.0157605921388
sS'techsupportgore'
p268
F0.0109494759894
sS'Marijuana'
p269
F0.0071080422420800003
sS'HailCorporate'
p270
F0.011104992657899999
sS'ImGoingToHellForThis'
p271
F0.0097379653447200003
sS'shutupandtakemymoney'
p272
F0.0101515301575
s.