(dp1
S'playstation'
p2
F0.0146829115901
sS'PlayStationPlus'
p3
F0.016783727081999999
sS'Trophies'
p4
F0.0152229845626
sS'gtaonline'
p5
F0.0091720779220799999
sS'thelastofus'
p6
F0.110764430577
sS'PS3'
p7
F0.018075463743700001
sS'vita'
p8
F0.0090763236305300005
sS'assassinscreed'
p9
F0.00867285195643
sS'PS4'
p10
F0.012616913484
sS'metalgearsolid'
p11
F0.0095282724148700003
s.