(dp1
S'GLRP_EastBlue'
p2
F0.043307086614199998
sS'DWMA'
p3
F0.024390243902400001
sS'PotterPlayRP'
p4
F0.025000000000000001
sS'PercyJacksonRP'
p5
F0.0098231827111999997
sS'randomsuperpowers'
p6
F0.016077170418000001
s.