(dp1
S'inthenews'
p2
F0.018333837010199999
sS'AndroidGaming'
p3
F0.0088847705221800008
sS'BuyItForLife'
p4
F0.0125380965241
sS'SampleSize'
p5
F0.014599178249799999
sS'everymanshouldknow'
p6
F0.014400173235200001
sS'askphilosophy'
p7
F0.0181867048916
sS'financialindependence'
p8
F0.0081489106193200003
sS'AskMen'
p9
F0.0082960636372899996
sS'syriancivilwar'
p10
F0.0096695356497699999
sS'Showerthoughts'
p11
F0.0072995266953500004
sS'HistoryPorn'
p12
F0.014690035845400001
sS'archlinux'
p13
F0.0073189956086000003
sS'holdmybeer'
p14
F0.011522532496800001
sS'ImaginaryMonsters'
p15
F0.0083666096215999994
sS'dwarffortress'
p16
F0.010861797913399999
sS'YouShouldKnow'
p17
F0.020748013343800002
sS'UpliftingNews'
p18
F0.0114203580295
sS'PandR'
p19
F0.0075527634643900001
sS'Jokes'
p20
F0.0070090130414399996
sS'Stargate'
p21
F0.0080880700966100005
sS'anonymous'
p22
F0.0085406053341299994
sS'3amjokes'
p23
F0.0090566037735800003
sS'Military'
p24
F0.0078030729627499998
sS'magicskyfairy'
p25
F0.015737608471799999
sS'Steam'
p26
F0.0070835699029400002
sS'AlienBlue'
p27
F0.0102393288922
sS'photoshopbattles'
p28
F0.0086961225842199993
sS'IWantToLearn'
p29
F0.014861583292900001
sS'techsupportgore'
p30
F0.012281039461000001
sS'PoliticalDiscussion'
p31
F0.026230754609400001
sS'CrappyDesign'
p32
F0.0159396906643
sS'NewsOfTheWeird'
p33
F0.0078950889870200002
sS'Cyberpunk'
p34
F0.013957703927500001
sS'Libertarian'
p35
F0.0133014001474
sS'Anarcho_Capitalism'
p36
F0.0123456790123
sS'pcgaming'
p37
F0.0087733897620000008
sS'EatCheapAndHealthy'
p38
F0.0080732870409099995
sS'tea'
p39
F0.0073934364390800004
sS'blackpeoplegifs'
p40
F0.00897723629368
sS'polandball'
p41
F0.0154256515731
sS'SelfDrivingCars'
p42
F0.016596258298099999
sS'AskAcademia'
p43
F0.011827178373199999
sS'fatpeoplestories'
p44
F0.0079051383399199992
sS'OneY'
p45
F0.021387283236999999
sS'forwardsfromgrandma'
p46
F0.018036403750700002
sS'no_sob_story'
p47
F0.022758780037
sS'Glitch_in_the_Matrix'
p48
F0.010160194477300001
sS'skeptic'
p49
F0.022504698783300001
sS'boardgames'
p50
F0.0080924855491300001
sS'socialskills'
p51
F0.012356178089000001
sS'DebateReligion'
p52
F0.013798701298700001
sS'Anticonsumption'
p53
F0.012852135531600001
sS'metacanada'
p54
F0.00748346675948
sS'gamedev'
p55
F0.00891608391608
sS'AskNetsec'
p56
F0.0073380566801600003
sS'vexillology'
p57
F0.0163674762408
sS'Economics'
p58
F0.024341957255300001
sS'needamod'
p59
F0.024706609017899998
sS'AskTechnology'
p60
F0.0076116616401000004
sS'answers'
p61
F0.030078497542399999
sS'netsec'
p62
F0.0168274624187
sS'lgbt'
p63
F0.0094953590099200007
sS'ainbow'
p64
F0.015817373461000001
sS'WritingPrompts'
p65
F0.0075266063399899996
sS'sanfrancisco'
p66
F0.0077906102644699996
sS'Frugal'
p67
F0.010374228844099999
sS'WarshipPorn'
p68
F0.00983606557377
sS'cripplingalcoholism'
p69
F0.0076697951357400001
sS'howtonotgiveafuck'
p70
F0.010705398993099999
sS'IWantOut'
p71
F0.0092119523145999995
sS'HalfLife'
p72
F0.0070038910505800002
sS'QuotesPorn'
p73
F0.014964476021300001
sS'firefox'
p74
F0.0153681963714
sS'apple'
p75
F0.0080091346546000003
sS'TrueReddit'
p76
F0.0350309822994
sS'AmIFreeToGo'
p77
F0.0079907353792699996
sS'AntiJokes'
p78
F0.0088988851945999998
sS'findareddit'
p79
F0.0226472838562
sS'IdiotsFightingThings'
p80
F0.015371211649799999
sS'Health'
p81
F0.010225950645999999
sS'gamernews'
p82
F0.0131055967343
sS'ContagiousLaughter'
p83
F0.0095243694514699998
sS'graphic_design'
p84
F0.0078945693003099997
sS'environment'
p85
F0.0152400835073
sS'FiftyFifty'
p86
F0.0077696769730200002
sS'eldertrees'
p87
F0.00871862615588
sS'AskHistorians'
p88
F0.023370030074799999
sS'OutOfTheLoop'
p89
F0.027337997054500001
sS'wheredidthesodago'
p90
F0.015767859910100001
sS'ifyoulikeblank'
p91
F0.0115384615385
sS'misleadingthumbnails'
p92
F0.013236126840300001
sS'WebGames'
p93
F0.017752979964499999
sS'musictheory'
p94
F0.0074508245579200001
sS'admincraft'
p95
F0.0078363660512699995
sS'Pareidolia'
p96
F0.0128489741002
sS'tipofmytongue'
p97
F0.0090066980190999998
sS'ftlgame'
p98
F0.0109779667569
sS'LifeProTips'
p99
F0.0090117415510700006
sS'asoiaf'
p100
F0.0077840938188099996
sS'NeutralPolitics'
p101
F0.034217608612099999
sS'trackers'
p102
F0.0109931410317
sS'science'
p103
F0.011084224047
sS'firstworldproblems'
p104
F0.0130914101975
sS'Entrepreneur'
p105
F0.0083548156660600004
sS'standupshots'
p106
F0.016643657002599999
sS'legaladvice'
p107
F0.0072878301073599997
sS'Meditation'
p108
F0.0096681785629000004
sS'history'
p109
F0.012157043407000001
sS'TalesFromThePizzaGuy'
p110
F0.0082548417821999998
sS'AskScienceFiction'
p111
F0.0174956541244
sS'NewsOfTheStupid'
p112
F0.0091363138019199992
sS'audiophile'
p113
F0.0071420069039400003
sS'awesome'
p114
F0.0085575832560100002
sS'DecidingToBeBetter'
p115
F0.0112895893317
sS'gadgets'
p116
F0.0090478888259399991
sS'ShitPoliticsSays'
p117
F0.0111837577426
sS'learnprogramming'
p118
F0.010225465195499999
sS'Infographics'
p119
F0.0169525731584
sS'arresteddevelopment'
p120
F0.0088360755636800008
sS'counting'
p121
F0.0118841082582
sS'SRSsucks'
p122
F0.023710234719400002
sS'HouseOfCards'
p123
F0.0101083032491
sS'techsupportmacgyver'
p124
F0.0127774041695
sS'MURICA'
p125
F0.0093714392019200003
sS'technology'
p126
F0.0090150986893600005
sS'needadvice'
p127
F0.0070908751632799997
sS'scifi'
p128
F0.017432001627899998
sS'spaceporn'
p129
F0.0149530474311
sS'nyc'
p130
F0.0097608195861700001
sS'Ask_Politics'
p131
F0.021782424695
sS'photography'
p132
F0.0070778829265700002
sS'economy'
p133
F0.0146996165317
sS'BasicIncome'
p134
F0.021390906377500001
sS'kickstarter'
p135
F0.0077526534379300004
sS'askscience'
p136
F0.014449963093199999
sS'philosophy'
p137
F0.015562636256900001
sS'budgetfood'
p138
F0.0080854750216600001
sS'Images'
p139
F0.0074224021592400003
sS'law'
p140
F0.014120781527499999
sS'short'
p141
F0.0081867798665899993
sS'oculus'
p142
F0.010082896294999999
sS'Shitstatistssay'
p143
F0.0099853157121899995
sS'listentothis'
p144
F0.0078748721964800004
sS'tall'
p145
F0.0074852601896900003
sS'ImGoingToHellForThis'
p146
F0.0074135321486599997
sS'help'
p147
F0.023622047244100001
sS'DoesAnybodyElse'
p148
F0.0095335463258800004
sS'pettyrevenge'
p149
F0.010654129743599999
sS'CityPorn'
p150
F0.0138181818182
sS'zen'
p151
F0.0071864406779700001
sS'PurplePillDebate'
p152
F0.0115495668912
sS'thatHappened'
p153
F0.0128819400664
sS'london'
p154
F0.0079458505002899995
sS'dataisbeautiful'
p155
F0.020543006401299999
sS'japan'
p156
F0.0086089433915499999
sS'MLPLounge'
p157
F0.0076015203040599999
sS'islam'
p158
F0.0072697294461499997
sS'linguistics'
p159
F0.022059480217899999
sS'badlinguistics'
p160
F0.019452976451700001
sS'nostalgia'
p161
F0.0077207598664099999
sS'Documentaries'
p162
F0.010283747481500001
sS'writing'
p163
F0.0112967075408
sS'AndroidQuestions'
p164
F0.0086393088552900003
sS'gamedesign'
p165
F0.0099580712788299997
sS'TrueChristian'
p166
F0.0075208165458000003
sS'wallpaper'
p167
F0.0088164351659299998
sS'MensRights'
p168
F0.0139092707203
sS'MilitaryPorn'
p169
F0.0087412587412599996
sS'Frisson'
p170
F0.0159824922077
sS'Judaism'
p171
F0.0075915268764499997
sS'childfree'
p172
F0.00818517276082
sS'GunsAreCool'
p173
F0.0116022910853
sS'unitedkingdom'
p174
F0.0113290256469
sS'DebateAnAtheist'
p175
F0.010897712559300001
sS'NoStupidQuestions'
p176
F0.018585112815500002
sS'IndieGaming'
p177
F0.0106032906764
sS'Braveryjerk'
p178
F0.0131753898223
sS'grammar'
p179
F0.011459890383699999
sS'creepyPMs'
p180
F0.0099795033768999997
sS'WatchItForThePlot'
p181
F0.0082449941107199994
sS'freebies'
p182
F0.0085524738230400004
sS'PropagandaPosters'
p183
F0.024421341702600002
sS'shittyadviceanimals'
p184
F0.0090585571012600005
sS'SubredditDrama'
p185
F0.034936850296299997
sS'minimalism'
p186
F0.0132907348243
sS'wallpapers'
p187
F0.0092232541697500007
sS'gamemusic'
p188
F0.0072854291417199998
sS'TrueAtheism'
p189
F0.0181949632486
sS'badhistory'
p190
F0.034022177419400002
sS'energy'
p191
F0.014508101238999999
sS'TrollXChromosomes'
p192
F0.0081201579955600001
sS'perfectloops'
p193
F0.018337942075400002
sS'literature'
p194
F0.0177232447171
sS'Cinemagraphs'
p195
F0.018158591112300001
sS'canada'
p196
F0.0083223362138699995
sS'psychology'
p197
F0.021137502723900001
sS'space'
p198
F0.0130706168976
sS'shittyfoodporn'
p199
F0.0096103556485400005
sS'LearnUselessTalents'
p200
F0.016975126723999999
sS'China'
p201
F0.0080960611298099994
sS'RoomPorn'
p202
F0.012072036414
sS'medicine'
p203
F0.0073098407006399998
sS'electronics'
p204
F0.0071645313553600001
sS'Astronomy'
p205
F0.011502156654400001
sS'math'
p206
F0.016198044009799999
sS'LetsTalkMusic'
p207
F0.0154723127036
sS'bestof'
p208
F0.018976310551399998
sS'CrazyIdeas'
p209
F0.0218269750867
sS'emulation'
p210
F0.0075675675675700004
sS'Roadcam'
p211
F0.0089285714285700004
sS'GamePhysics'
p212
F0.014517669532
sS'software'
p213
F0.0110155266471
sS'youtubehaiku'
p214
F0.0120133648684
sS'PoliticalHumor'
p215
F0.013527257933300001
sS'CanadaPolitics'
p216
F0.0114839000225
sS'TinyHouses'
p217
F0.0098057882711299997
sS'programming'
p218
F0.015439936615
sS'dogecoin'
p219
F0.0077197663072300004
sS'whatstheword'
p220
F0.015961945031699998
sS'classicalmusic'
p221
F0.0099295323510600001
sS'AskUK'
p222
F0.0080263428688999994
sS'misc'
p223
F0.024272983114400001
sS'patientgamers'
p224
F0.015316946959899999
sS'rant'
p225
F0.0102107498775
sS'Buddhism'
p226
F0.00921764302582
sS'lego'
p227
F0.0075556627280800003
sS'ANormalDayInRussia'
p228
F0.0124129370388
sS'onetruegod'
p229
F0.0075667791047500004
sS'PenmanshipPorn'
p230
F0.0084399977642400006
sS'shittyreactiongifs'
p231
F0.011613021214300001
sS'alternativeart'
p232
F0.0090049527240000007
sS'shittyadvice'
p233
F0.010254200775500001
sS'ObscureMedia'
p234
F0.015020653398400001
sS'CombatFootage'
p235
F0.0089629489364400003
sS'TrollYChromosome'
p236
F0.011035454332000001
sS'DaystromInstitute'
p237
F0.016008060002200002
sS'mildlyinfuriating'
p238
F0.0122460296677
sS'madmen'
p239
F0.0077333971139300003
sS'MachinePorn'
p240
F0.011899184859
sS'Psychonaut'
p241
F0.0085649887302800005
sS'learnpython'
p242
F0.010050698212199999
sS'SRSGaming'
p243
F0.010395963919899999
sS'television'
p244
F0.0074349442379200003
sS'POLITIC'
p245
F0.0106359887128
sS'worldpolitics'
p246
F0.0191148691194
sS'TheRedPill'
p247
F0.0070648240686499997
sS'PerfectTiming'
p248
F0.0146852809043
sS'kindle'
p249
F0.0077075791194699999
sS'hacking'
p250
F0.0079183008954300006
sS'KerbalSpaceProgram'
p251
F0.0087945027288399997
sS'russia'
p252
F0.0078687902919999993
sS'torrents'
p253
F0.011701252399699999
sS'gallifrey'
p254
F0.011092480330199999
sS'urbanplanning'
p255
F0.0091794944216900005
sS'sysadmin'
p256
F0.0085717236393699995
sS'conspiracy'
p257
F0.0133966206062
sS'AnythingGoesNews'
p258
F0.013361555761299999
sS'collapse'
p259
F0.0113609744671
sS'Nootropics'
p260
F0.0102906520031
sS'HighQualityGifs'
p261
F0.016656479217599999
sS'self'
p262
F0.022692799571699999
sS'chess'
p263
F0.0076595744680899996
sS'britishproblems'
p264
F0.010253587035100001
sS'UnresolvedMysteries'
p265
F0.0095173351461600008
sS'conspiratard'
p266
F0.027160350531000001
sS'FutureWhatIf'
p267
F0.0132089190499
sS'firefly'
p268
F0.0081521739130399999
sS'MovieSuggestions'
p269
F0.0082086829624199997
sS'badphilosophy'
p270
F0.019751082251100002
sS'teslamotors'
p271
F0.0108564535585
sS'Futurology'
p272
F0.0149509104982
sS'Games'
p273
F0.011209158120700001
sS'INTP'
p274
F0.0109848840484
sS'Gaming4Gamers'
p275
F0.0126873364523
sS'Minecraft'
p276
F0.0070691815815700004
sS'chemistry'
p277
F0.0084629294755900007
sS'windows'
p278
F0.0108076529867
sS'investing'
p279
F0.0086986899563300003
sS'TumblrInAction'
p280
F0.013195527821100001
sS'HailCorporate'
p281
F0.029467253616
sS'microsoft'
p282
F0.00707706133453
sS'Heavymind'
p283
F0.0095198329853899994
sS'Awwducational'
p284
F0.015912550159100002
sS'PanicHistory'
p285
F0.029058749210400001
sS'LucidDreaming'
p286
F0.0074390815370199998
sS'fffffffuuuuuuuuuuuu'
p287
F0.0082757175780399997
sS'Hiphopcirclejerk'
p288
F0.0071269487750599998
sS'teslore'
p289
F0.00845943047778
sS'spacex'
p290
F0.010231849352299999
sS'Foodforthought'
p291
F0.040734109221099997
sS'languagelearning'
p292
F0.0089320692627100004
sS'TheBluePill'
p293
F0.0205484993124
sS'printSF'
p294
F0.0110456553756
sS'shittybattlestations'
p295
F0.0083501006036200004
sS'whowouldwin'
p296
F0.010453059057000001
sS'blunderyears'
p297
F0.00952823611434
sS'TalesFromYourServer'
p298
F0.0082097076191800008
sS'shutupandtakemymoney'
p299
F0.012239545388300001
sS'CrusaderKings'
p300
F0.0078885090717899994
sS'JusticePorn'
p301
F0.0093102286131600005
sS'geek'
p302
F0.018506324727099999
sS'lostgeneration'
p303
F0.019742746036499999
sS'Conservative'
p304
F0.013054677438199999
sS'AskGames'
p305
F0.0092956271275200005
sS'AbandonedPorn'
p306
F0.012588371086399999
sS'progressive'
p307
F0.0170142700329
sS'dadjokes'
p308
F0.011580733200599999
sS'WeAreTheMusicMakers'
p309
F0.0078013217960100001
sS'privacy'
p310
F0.018724606959900001
sS'architecture'
p311
F0.0075261200637499999
sS'DeepIntoYouTube'
p312
F0.013991163475699999
sS'cringe'
p313
F0.0083480401263200006
sS'StarWars'
p314
F0.0073420091408000002
sS'truetf2'
p315
F0.0078204692281500007
sS'AskWomen'
p316
F0.0071268902038099996
sS'TheSimpsons'
p317
F0.00876777251185
sS'Christianity'
p318
F0.0096570291466700001
sS'Justrolledintotheshop'
p319
F0.0074307024379400002
sS'AskScienceDiscussion'
p320
F0.0155375299897
sS'changemyview'
p321
F0.023743497358499999
sS'Android'
p322
F0.0087415564511599993
sS'KarmaCourt'
p323
F0.022402159244300002
sS'againstmensrights'
p324
F0.0142173423423
sS'firstworldanarchists'
p325
F0.0134257021642
sS'nononono'
p326
F0.0152152641879
sS'truegaming'
p327
F0.022009361728500001
sS'lotr'
p328
F0.0082087034746400004
sS'wikipedia'
p329
F0.026890617243100001
sS'breakingbad'
p330
F0.0078754144954999994
sS'outside'
p331
F0.019206518576
sS'AskCulinary'
p332
F0.0117521998465
sS'foodhacks'
p333
F0.0095418277535600001
sS'Republican'
p334
F0.0076846449409400004
sS'Anarchy101'
p335
F0.0084717607973399996
sS'AskFeminists'
p336
F0.0105359001041
sS'europe'
p337
F0.014773610861900001
sS'StandUpComedy'
p338
F0.0095116772823799992
sS'jobs'
p339
F0.0088278567925499998
sS'PixelArt'
p340
F0.0074099023240099997
sS'casualiama'
p341
F0.012798836469400001
sS'cscareerquestions'
p342
F0.0070802957990199998
sS'javascript'
p343
F0.0080909687295000008
sS'NotTimAndEric'
p344
F0.0104040097205
sS'gamingsuggestions'
p345
F0.00895638629283
sS'Unexpected'
p346
F0.013434907624699999
sS'RedditDayOf'
p347
F0.025662599915899999
sS'BitcoinMarkets'
p348
F0.0077312138728299999
sS'watchpeopledie'
p349
F0.00770382109526
sS'Sherlock'
p350
F0.0097304947809199998
sS'ukpolitics'
p351
F0.0112917434131
sS'GetMotivated'
p352
F0.0076299027824300002
sS'robotics'
p353
F0.0082170340420000005
sS'reactiongifs'
p354
F0.0090161056118100002
sS'community'
p355
F0.0099789740680199992
sS'incremental_games'
p356
F0.00759937646142
sS'startrek'
p357
F0.012298465951100001
sS'rpg'
p358
F0.0079916608756100006
sS'linux'
p359
F0.0132984660522
sS'3Dprinting'
p360
F0.0074759437453699997
sS'chrome'
p361
F0.012955209732200001
sS'beer'
p362
F0.0073625756535799997
sS'California'
p363
F0.0099370326643099995
sS'web_design'
p364
F0.0108566386619
sS'fatlogic'
p365
F0.0085325673734900007
sS'androidapps'
p366
F0.0081186729477800007
sS'somethingimade'
p367
F0.0084095448333900008
sS'MapPorn'
p368
F0.016540624394
sS'aviation'
p369
F0.0077856420626899996
sS'engineering'
p370
F0.0088022945307100007
sS'Perfectfit'
p371
F0.0117338003503
sS'offbeat'
p372
F0.0243545423402
sS'softwaregore'
p373
F0.0162719218948
sS'socialism'
p374
F0.019055995309300001
sS'Cooking'
p375
F0.0095369526109599992
sS'FanTheories'
p376
F0.0160020107239
sS'hardware'
p377
F0.013538287970700001
sS'webdev'
p378
F0.0093443801309000003
sS'electronicmusic'
p379
F0.0076110779039599997
sS'ShitRedditSays'
p380
F0.016319129646400001
sS'finance'
p381
F0.0080569926214900008
sS'Israel'
p382
F0.0079628400796299993
sS'productivity'
p383
F0.0084247866090199994
sS'Python'
p384
F0.013021681098999999
sS'itookapicture'
p385
F0.0081108211202600006
sS'tolkienfans'
p386
F0.00883898709986
sS'Whatcouldgowrong'
p387
F0.0124004293543
sS'fifthworldproblems'
p388
F0.015867731913000001
sS'talesfromtechsupport'
p389
F0.014199395770400001
sS'Anarchism'
p390
F0.014126641183300001
sS'notinteresting'
p391
F0.012141614343
sS'AnimalsBeingJerks'
p392
F0.012565794351
sS'DebateAChristian'
p393
F0.0097241516173799999
sS'linux_gaming'
p394
F0.0086190009794300006
sS'Physics'
p395
F0.0147587268994
sS'paradoxplaza'
p396
F0.0093041802352599994
sS'TrueFilm'
p397
F0.019761183989200001
sS'HumanPorn'
p398
F0.016362534509499999
sS'Fantasy'
p399
F0.0079507138991799994
sS'AskEngineers'
p400
F0.0117507996106
sS'awwwtf'
p401
F0.0093031909945099998
sS'Piracy'
p402
F0.0126771810741
sS'circlebroke'
p403
F0.052755971976000002
sS'PublicFreakout'
p404
F0.0096051227321200007
sS'ArtisanVideos'
p405
F0.010553769636699999
sS'Bitcoin'
p406
F0.010085897799700001
sS'rickandmorty'
p407
F0.0079518293804000002
sS'quotes'
p408
F0.0125438596491
sS'futurama'
p409
F0.0081569437274100001
sS'whitepeoplegifs'
p410
F0.011216713759700001
sS'InternetIsBeautiful'
p411
F0.013894939939
sS'startups'
p412
F0.0082364121826499995
sS'TalesFromRetail'
p413
F0.0092001595691599998
sS'ShitRConservativeSays'
p414
F0.0105485232068
sS'WouldYouRather'
p415
F0.0083339885211099994
sS'quityourbullshit'
p416
F0.019755560007999998
sS'learnmath'
p417
F0.0071650796643700004
sS'ProtectAndServe'
p418
F0.011073498192699999
sS'woahdude'
p419
F0.0098798864380899992
sS'offmychest'
p420
F0.0075384901747000002
sS'australia'
p421
F0.0072530220925400004
sS'slowcooking'
p422
F0.0084594110948400005
sS'howto'
p423
F0.0144814919469
sS'cringepics'
p424
F0.0073792576507000001
sS'toosoon'
p425
F0.0105515162263
sS'Liberal'
p426
F0.011492801212400001
sS'bodyweightfitness'
p427
F0.0076810944157899999
sS'4chan'
p428
F0.0108186080058
sS'compsci'
p429
F0.016103662647
sS'Enhancement'
p430
F0.035696773560900001
sS'ArcherFX'
p431
F0.0095928053959499996
sS'getdisciplined'
p432
F0.010447761194
sS'google'
p433
F0.0133543540759
sS'gardening'
p434
F0.0072788119640199997
sS'whatisthisthing'
p435
F0.012216689160899999
sS'glitch_art'
p436
F0.0120971947023
sS'HPMOR'
p437
F0.011499684940099999
sS'NetflixBestOf'
p438
F0.0116935713878
sS'circlebroke2'
p439
F0.033338754269000001
sS'ShouldIbuythisgame'
p440
F0.0083394911854699997
sS'crypto'
p441
F0.0101220601369
sS'tumblr'
p442
F0.0088410882741600007
sS'interestingasfuck'
p443
F0.0137537281636
sS'MarkMyWords'
p444
F0.0157969277699
sS'FeMRADebates'
p445
F0.0128582494191
sS'Coffee'
p446
F0.0081887578070799997
sS'gameofthrones'
p447
F0.0072490706319699996
sS'humor'
p448
F0.0209781372425
sS'AMA'
p449
F0.0074864702345200001
sS'ExpectationVsReality'
p450
F0.0117948717949
sS'nonononoyes'
p451
F0.0156189673932
sS'religion'
p452
F0.0091167416528499991
sS'facepalm'
p453
F0.0101164125266
sS'lifehacks'
p454
F0.0111604015877
sS'SCP'
p455
F0.0099160055996300005
sS'TagPro'
p456
F0.0087797885683599999
sS'biology'
p457
F0.0094347295648600001
sS'ProgrammerHumor'
p458
F0.017557489123700001
sS'business'
p459
F0.01261829653
sS'FloridaMan'
p460
F0.014998488055599999
sS'delusionalartists'
p461
F0.014566556134499999
sS'OkCupid'
p462
F0.0073384554767500004
sS'Cynicalbrit'
p463
F0.0078469838156000008
sS'promos'
p464
F0.012157431413
sS'shittyaskscience'
p465
F0.013493293432399999
sS'lewronggeneration'
p466
F0.017006802721100001
sS'worldbuilding'
p467
F0.0143614522515
sS'csshelp'
p468
F0.021127765881500001
sS'calvinandhobbes'
p469
F0.011188441546999999
sS'netflix'
p470
F0.0096351287316400001
sS'DrugNerds'
p471
F0.0075009869719700004
sS'sixwordstories'
p472
F0.0129040038591
sS'AnimalsBeingBros'
p473
F0.0123802697596
sS'classic4chan'
p474
F0.013986013986000001
sS'GameDeals'
p475
F0.0075644360805200003
sS'androidcirclejerk'
p476
F0.0077593248026099999
sS'EnoughLibertarianSpam'
p477
F0.021741785757899999
sS'ShitAmericansSay'
p478
F0.0189278300159
sS'Scotland'
p479
F0.0102409638554
sS'marijuanaenthusiasts'
p480
F0.0097790655559600002
sS'ADHD'
p481
F0.0072422117484800003
sS'confession'
p482
F0.0108990047316
sS'SimCity'
p483
F0.0083299471759399994
sS'Damnthatsinteresting'
p484
F0.0149830626249
sS'statistics'
p485
F0.0098181818181799999
sS'typography'
p486
F0.0113581440309
sS'Bad_Cop_No_Donut'
p487
F0.0125596470694
sS'linux4noobs'
p488
F0.0094698818705499996
sS'MorbidReality'
p489
F0.0121656284353
sS'gif'
p490
F0.0081478779034399994
sS'introvert'
p491
F0.0097665949346100005
sS'Ubuntu'
p492
F0.010431484115699999
sS'Portal'
p493
F0.0073918935567299998
sS'happy'
p494
F0.0116173120729
sS'explainlikeIAmA'
p495
F0.021691266411199998
sS'occupywallstreet'
p496
F0.0133958472873
sS'snackexchange'
p497
F0.0075040783034299998
sS'shittyaskreddit'
p498
F0.0087394957983200003
sS'webcomics'
p499
F0.012116892373500001
sS'MachineLearning'
p500
F0.0078451221055299992
sS'rage'
p501
F0.011418126572699999
sS'comics'
p502
F0.018750988976199999
sS'forhire'
p503
F0.0080736543909299997
sS'behindthegifs'
p504
F0.0169941311559
sS'BritishTV'
p505
F0.0091330074607700006
sS'civ'
p506
F0.0090860228814200004
sS'fullmoviesonyoutube'
p507
F0.0134720158494
sS'Design'
p508
F0.0135537591929
sS'TrueAskReddit'
p509
F0.041874851296700003
sS'blackladies'
p510
F0.0081820886640900006
sS'politics'
p511
F0.0095598812753799993
sS'education'
p512
F0.0088252598548699997
sS'DAE'
p513
F0.00849826680085
sS'ForeverAlone'
p514
F0.0083115183246100007
sS'eatsandwiches'
p515
F0.0080118694361999993
sS'Survival'
p516
F0.0072763028515199996
sS'shittyama'
p517
F0.0098106125234600008
sS'AskSocialScience'
p518
F0.033543638275499998
sS'ImaginaryLandscapes'
p519
F0.0122654366286
sS'TheWayWeWere'
p520
F0.012740205966700001
sS'Feminism'
p521
F0.0135396518375
sS'nottheonion'
p522
F0.012628712449999999
sS'Frugal_Jerk'
p523
F0.0148112756808
sS'raspberry_pi'
p524
F0.0079950799507999999
sS'cordcutters'
p525
F0.0119438053747
sS'oddlysatisfying'
p526
F0.012120884662499999
sS'GirlGamers'
p527
F0.0107429997228
sS'entertainment'
p528
F0.013835376532400001
sS'youtube'
p529
F0.0095376774663300003
sS'terriblefacebookmemes'
p530
F0.010284443620900001
sS'urbanexploration'
p531
F0.0107789473684
s.