(dp1
S'AskUK'
p2
F0.064954939636099995
sS'ShitAmericansSay'
p3
F0.020793549756
sS'unitedkingdom'
p4
F0.0234789840701
sS'RedditDayOf'
p5
F0.0074518062530399996
sS'Scotland'
p6
F0.013017630176299999
sS'BritishTV'
p7
F0.0402895054282
sS'london'
p8
F0.0169846614291
sS'britishproblems'
p9
F0.026305332591599999
sS'ukpolitics'
p10
F0.031529998865799998
sS'manchester'
p11
F0.0136376287225
sS'northernireland'
p12
F0.0072354537232400002
sS'glasgow'
p13
F0.00714694110921
s.