(dp1
S'awwwtf'
p2
F0.0081591024987299997
sS'Heavymind'
p3
F0.0076080065211500004
sS'pettyrevenge'
p4
F0.0082987551867200002
sS'confession'
p5
F0.0077220077220099999
sS'FanTheories'
p6
F0.0073965136900400004
sS'Buddhism'
p7
F0.0070503361206799998
sS'conspiracy'
p8
F0.0088944182419100001
sS'TalesFromRetail'
p9
F0.0070085121565800004
sS'Wicca'
p10
F0.00768365817091
sS'nosleep'
p11
F0.0131969793252
sS'quityourbullshit'
p12
F0.0074476402090300001
sS'ExpectationVsReality'
p13
F0.0072128577028599998
sS'MorbidReality'
p14
F0.0090006981150899997
sS'UnresolvedMysteries'
p15
F0.0296170533862
sS'raisedbynarcissists'
p16
F0.0083480803262300004
sS'confessions'
p17
F0.0083509513742100003
sS'SCP'
p18
F0.0087857330186200001
sS'Dreams'
p19
F0.0165490699166
sS'FloridaMan'
p20
F0.0073229750382100001
sS'collapse'
p21
F0.0082807570977899998
sS'LucidDreaming'
p22
F0.0113374447144
sS'shortscarystories'
p23
F0.01231103467
sS'horror'
p24
F0.0105705905141
sS'LetsNotMeet'
p25
F0.040249398111
sS'delusionalartists'
p26
F0.0082304526748999997
sS'Psychonaut'
p27
F0.00931824164254
sS'UFOs'
p28
F0.026852952833900001
sS'occult'
p29
F0.024639346355200001
sS'creepyPMs'
p30
F0.0085274542429299993
sS'Paranormal'
p31
F0.078468344332400006
sS'creepy'
p32
F0.0087915290460499999
sS'NewsOfTheWeird'
p33
F0.010150722854499999
sS'Glitch_in_the_Matrix'
p34
F0.062530498431500006
sS'AnimalsBeingBros'
p35
F0.00718778077269
sS'Meditation'
p36
F0.0078332280480099999
s.