(dp1
S'Shitty_Car_Mods'
p2
F0.013864337458
sS'uglyduckling'
p3
F0.0104955091331
sS'KitchenConfidential'
p4
F0.0103177570093
sS'BuyItForLife'
p5
F0.0146294881589
sS'SampleSize'
p6
F0.0076058480520599997
sS'everymanshouldknow'
p7
F0.013803188643600001
sS'NeutralPolitics'
p8
F0.010360197566599999
sS'syriancivilwar'
p9
F0.00718022361268
sS'HistoryPorn'
p10
F0.0365924405373
sS'holdmybeer'
p11
F0.016394109511
sS'ImaginaryMonsters'
p12
F0.0097993898493099994
sS'seinfeld'
p13
F0.0138074522413
sS'YouShouldKnow'
p14
F0.015818211016500001
sS'horror'
p15
F0.0072161228802599996
sS'UpliftingNews'
p16
F0.010174493864199999
sS'PandR'
p17
F0.0096180459452000003
sS'inthenews'
p18
F0.0110550814585
sS'Military'
p19
F0.0100314477927
sS'photoshopbattles'
p20
F0.0074244441754399999
sS'IWantToLearn'
p21
F0.0107204116638
sS'Celebs'
p22
F0.0077736843884099998
sS'CrappyDesign'
p23
F0.016669426505500001
sS'NewsOfTheWeird'
p24
F0.015131919296400001
sS'Cyberpunk'
p25
F0.0108187998818
sS'Libertarian'
p26
F0.0104246122553
sS'Anarcho_Capitalism'
p27
F0.0075107296137299998
sS'Whatisthis'
p28
F0.0098744045041100001
sS'Paleo'
p29
F0.0076340615690199997
sS'EatCheapAndHealthy'
p30
F0.011056358441300001
sS'tea'
p31
F0.0089305483799500002
sS'polandball'
p32
F0.0099686698946200008
sS'POLITIC'
p33
F0.0086947412528800005
sS'bestof'
p34
F0.0096770907609199999
sS'MechanicAdvice'
p35
F0.0074995535980000002
sS'fatpeoplestories'
p36
F0.0080848586766699999
sS'OneY'
p37
F0.0084848484848500001
sS'forwardsfromgrandma'
p38
F0.018831063113899999
sS'no_sob_story'
p39
F0.011359876475100001
sS'newjersey'
p40
F0.0075123249080499997
sS'skeptic'
p41
F0.013568979670700001
sS'InteriorDesign'
p42
F0.010731104763399999
sS'socialskills'
p43
F0.0096772608930599992
sS'Anticonsumption'
p44
F0.0131020713751
sS'GuessTheMovie'
p45
F0.0076388208794400001
sS'guns'
p46
F0.0070422535211300003
sS'Economics'
p47
F0.0101969365427
sS'ExposurePorn'
p48
F0.0087215974294200006
sS'classiccars'
p49
F0.012825546394500001
sS'LetsNotMeet'
p50
F0.0083416750083400003
sS'malelivingspace'
p51
F0.0099627479857899992
sS'answers'
p52
F0.0185868331442
sS'lgbt'
p53
F0.0073294591906199998
sS'gentlemanboners'
p54
F0.0103268845897
sS'ainbow'
p55
F0.0074331020812699999
sS'TopGear'
p56
F0.0093386209543299993
sS'sanfrancisco'
p57
F0.0072211821342600003
sS'ThriftStoreHauls'
p58
F0.0190698993336
sS'Breadit'
p59
F0.0084783087425700007
sS'WarshipPorn'
p60
F0.0198490644061
sS'IWantOut'
p61
F0.0099069802616699992
sS'vinyl'
p62
F0.00981559817652
sS'whatsthisbug'
p63
F0.0103365502376
sS'QuotesPorn'
p64
F0.017697949145800002
sS'TrueReddit'
p65
F0.016727640319600001
sS'AmIFreeToGo'
p66
F0.0098511138475299992
sS'KingOfTheHill'
p67
F0.011521518129400001
sS'IdiotsFightingThings'
p68
F0.0172466515809
sS'Health'
p69
F0.0085167636298200001
sS'ContagiousLaughter'
p70
F0.0126230457441
sS'environment'
p71
F0.011330483750599999
sS'FiftyFifty'
p72
F0.0079174474149500008
sS'eldertrees'
p73
F0.010212838997599999
sS'AskHistorians'
p74
F0.0184872576781
sS'OutOfTheLoop'
p75
F0.0143256779317
sS'coins'
p76
F0.0080580177276399993
sS'stopsmoking'
p77
F0.0072219885009099996
sS'ifyoulikeblank'
p78
F0.0094178586144000008
sS'firstimpression'
p79
F0.00888921539818
sS'trailerparkboys'
p80
F0.010139318885399999
sS'Pareidolia'
p81
F0.0204447394623
sS'tipofmytongue'
p82
F0.0080366254677399999
sS'cordcutters'
p83
F0.0105435462905
sS'LifeProTips'
p84
F0.0075084957487699996
sS'TheGirlSurvivalGuide'
p85
F0.00746469401479
sS'UFOs'
p86
F0.00761509172724
sS'ghettoglamourshots'
p87
F0.0185880766638
sS'EDC'
p88
F0.0092192074103200003
sS'showerbeer'
p89
F0.0092567383610100001
sS'techsupportgore'
p90
F0.011555859657099999
sS'firstworldproblems'
p91
F0.013270528556500001
sS'Glitch_in_the_Matrix'
p92
F0.0101485602494
sS'standupshots'
p93
F0.013678443226900001
sS'Meditation'
p94
F0.0077768682025500004
sS'history'
p95
F0.016161101198099999
sS'TalesFromThePizzaGuy'
p96
F0.0080901177675399994
sS'AskScienceFiction'
p97
F0.0091281770975700002
sS'NewsOfTheStupid'
p98
F0.0172678888232
sS'awesome'
p99
F0.016200442745000002
sS'DecidingToBeBetter'
p100
F0.0087855297157600001
sS'Infographics'
p101
F0.0137507314219
sS'TalesFromYourServer'
p102
F0.0090210726619199995
sS'CampingandHiking'
p103
F0.010191011861699999
sS'Pizza'
p104
F0.011450381679400001
sS'HouseOfCards'
p105
F0.0070650574035900004
sS'techsupportmacgyver'
p106
F0.0099648778894099992
sS'MURICA'
p107
F0.0119425093156
sS'travel'
p108
F0.0097274479214499998
sS'scifi'
p109
F0.0114095079233
sS'RedditLaqueristas'
p110
F0.0074800363893699996
sS'spaceporn'
p111
F0.016883346079200001
sS'nyc'
p112
F0.0111678366305
sS'Ask_Politics'
p113
F0.0093524328163800009
sS'wheredidthesodago'
p114
F0.0138692545753
sS'BasicIncome'
p115
F0.0090579710144899992
sS'wallpaper'
p116
F0.010227272727300001
sS'budgetfood'
p117
F0.011151719613899999
sS'Images'
p118
F0.014318010550099999
sS'dogpictures'
p119
F0.010928961748600001
sS'wallpapers'
p120
F0.0094513747454200003
sS'law'
p121
F0.0096352374397800002
sS'MachinePorn'
p122
F0.021032329169699999
sS'FanTheories'
p123
F0.010071528405799999
sS'crafts'
p124
F0.0098393211771100001
sS'tall'
p125
F0.0094024871094899997
sS'ImGoingToHellForThis'
p126
F0.0077322465386299999
sS'needadvice'
p127
F0.00799902302009
sS'DoesAnybodyElse'
p128
F0.011020542901399999
sS'pettyrevenge'
p129
F0.010574928050299999
sS'CityPorn'
p130
F0.020842067437300001
sS'washingtondc'
p131
F0.0082412060301499997
sS'thatHappened'
p132
F0.010939551165799999
sS'DeepIntoYouTube'
p133
F0.0147042441796
sS'dataisbeautiful'
p134
F0.011278686620899999
sS'linguistics'
p135
F0.011611904352299999
sS'beards'
p136
F0.0093512947946600006
sS'badlinguistics'
p137
F0.0070480928689900003
sS'nostalgia'
p138
F0.023072208803499999
sS'Documentaries'
p139
F0.0098578633654300002
sS'writing'
p140
F0.0084196479633999993
sS'texas'
p141
F0.0090684909712799994
sS'Gore'
p142
F0.0094728469159
sS'MensRights'
p143
F0.0084194653011199997
sS'MilitaryPorn'
p144
F0.0158928014958
sS'Frisson'
p145
F0.014006873743600001
sS'childfree'
p146
F0.0090033222591400005
sS'GunsAreCool'
p147
F0.0075513914137899998
sS'food'
p148
F0.00702779723235
sS'NoStupidQuestions'
p149
F0.014691109995
sS'Liberal'
p150
F0.0082344393315599996
sS'creepyPMs'
p151
F0.0098071808510600007
sS'WatchItForThePlot'
p152
F0.0117203365245
sS'freebies'
p153
F0.0118797766602
sS'PropagandaPosters'
p154
F0.0333173307729
sS'SubredditDrama'
p155
F0.0118662142511
sS'minimalism'
p156
F0.0125603864734
sS'economy'
p157
F0.0087108013937300006
sS'mildlyinteresting'
p158
F0.0071535228102600004
sS'TrueAtheism'
p159
F0.010624559755799999
sS'badhistory'
p160
F0.016340658456099999
sS'MST3K'
p161
F0.0086979441223000008
sS'malegrooming'
p162
F0.0075107296137299998
sS'Cinemagraphs'
p163
F0.016296165087199999
sS'canada'
p164
F0.0071167613456400002
sS'DunderMifflin'
p165
F0.0076238106855299999
sS'psychology'
p166
F0.010118754831
sS'space'
p167
F0.0088051422030500006
sS'shittyfoodporn'
p168
F0.0145007640537
sS'LearnUselessTalents'
p169
F0.014140597945299999
sS'RoomPorn'
p170
F0.019984287538099998
sS'memes'
p171
F0.0073153464957100003
sS'Astronomy'
p172
F0.011464655753800001
sS'LetsTalkMusic'
p173
F0.0086232239098500002
sS'AutoDetailing'
p174
F0.0070320952037499999
sS'LadyBoners'
p175
F0.0093173911304799996
sS'Roadcam'
p176
F0.0141794916133
sS'GamePhysics'
p177
F0.0105092966855
sS'youtubehaiku'
p178
F0.0092136910268299996
sS'PoliticalHumor'
p179
F0.01340429726
sS'recipes'
p180
F0.0110644183201
sS'lego'
p181
F0.0078605740601100007
sS'howtonotgiveafuck'
p182
F0.0095946406267700002
sS'whatstheword'
p183
F0.011719148068900001
sS'classicalmusic'
p184
F0.0091320636902899998
sS'misc'
p185
F0.0136618141097
sS'patientgamers'
p186
F0.0085487379230100007
sS'rant'
p187
F0.0081068192656199994
sS'conspiratard'
p188
F0.015787099684300001
sS'projectcar'
p189
F0.00761585129728
sS'OldSchoolCool'
p190
F0.019804834774899999
sS'modelmakers'
p191
F0.0072409111479899996
sS'ANormalDayInRussia'
p192
F0.022079869156299999
sS'onetruegod'
p193
F0.010308362214500001
sS'TheFacebookDelusion'
p194
F0.0107777777778
sS'Autos'
p195
F0.0096899224806200005
sS'PenmanshipPorn'
p196
F0.0134135570766
sS'shittyreactiongifs'
p197
F0.0118253756557
sS'alternativeart'
p198
F0.0116633965555
sS'shittyadvice'
p199
F0.00778372949448
sS'dogs'
p200
F0.0076229246487899997
sS'ObscureMedia'
p201
F0.022945247056000002
sS'CombatFootage'
p202
F0.013932081104599999
sS'TrollYChromosome'
p203
F0.0108921161826
sS'collapse'
p204
F0.0117540687161
sS'Genealogy'
p205
F0.010695970696
sS'mildlyinfuriating'
p206
F0.012838604779600001
sS'DumpsterDiving'
p207
F0.0089738587592700005
sS'madmen'
p208
F0.014087814040899999
sS'Psychonaut'
p209
F0.0075369458128099996
sS'vintageaudio'
p210
F0.0079365079365100004
sS'worldpolitics'
p211
F0.0118020081029
sS'typography'
p212
F0.00753885409418
sS'nononono'
p213
F0.018614320939899998
sS'AskMen'
p214
F0.0073752662346500001
sS'russia'
p215
F0.0071757129714799996
sS'Cartalk'
p216
F0.0092140052880400006
sS'FoodPorn'
p217
F0.010597551519099999
sS'boston'
p218
F0.0075467849676199997
sS'urbanplanning'
p219
F0.0094684160692500002
sS'conspiracy'
p220
F0.0098783366624299995
sS'AnythingGoesNews'
p221
F0.010770400405499999
sS'DaystromInstitute'
p222
F0.0078326180257500006
sS'HighQualityGifs'
p223
F0.013465258146099999
sS'self'
p224
F0.012723611637999999
sS'Parenting'
p225
F0.0077376922332900002
sS'britishproblems'
p226
F0.0079472897704099994
sS'UnresolvedMysteries'
p227
F0.015063249001300001
sS'nonononoyes'
p228
F0.016258467952100002
sS'startrek'
p229
F0.011134426791100001
sS'FutureWhatIf'
p230
F0.0130749474667
sS'firefly'
p231
F0.0074443336656700001
sS'MovieSuggestions'
p232
F0.0088723272114299995
sS'Futurology'
p233
F0.0082883318556699996
sS'sewing'
p234
F0.0083266183185600005
sS'EnoughLibertarianSpam'
p235
F0.0082452676808699998
sS'progresspics'
p236
F0.0081336959932999994
sS'cableporn'
p237
F0.0070101075969999996
sS'TumblrInAction'
p238
F0.0086490248901099995
sS'HailCorporate'
p239
F0.014385390645200001
sS'Heavymind'
p240
F0.0129000653168
sS'Awwducational'
p241
F0.017983170466900001
sS'Justrolledintotheshop'
p242
F0.0129545895864
sS'PanicHistory'
p243
F0.010201064458900001
sS'fffffffuuuuuuuuuuuu'
p244
F0.0071612049505700003
sS'PoliticalDiscussion'
p245
F0.0108961802155
sS'Foodforthought'
p246
F0.0196656833825
sS'languagelearning'
p247
F0.0076370856880999998
sS'TheoryOfReddit'
p248
F0.012740205966700001
sS'TheBluePill'
p249
F0.0084217092950700009
sS'harrypotter'
p250
F0.0070639534883700002
sS'wicked_edge'
p251
F0.0092689023120200009
sS'booksuggestions'
p252
F0.0084727112676099992
sS'shittybattlestations'
p253
F0.0080920347080000003
sS'beatles'
p254
F0.0138400702988
sS'arresteddevelopment'
p255
F0.010356131724
sS'shutupandtakemymoney'
p256
F0.013362708942
sS'photography'
p257
F0.0072552333896799999
sS'JusticePorn'
p258
F0.010809297115700001
sS'geek'
p259
F0.011750280985
sS'lostgeneration'
p260
F0.0098649554640400008
sS'mycology'
p261
F0.0071533768146399999
sS'PrettyGirlsUglyFaces'
p262
F0.0093415563214200008
sS'homestead'
p263
F0.011619230359200001
sS'AbandonedPorn'
p264
F0.0272460831494
sS'progressive'
p265
F0.011613175675699999
sS'dadjokes'
p266
F0.0104155286063
sS'progun'
p267
F0.0079399141630899991
sS'Marijuana'
p268
F0.0080249244713
sS'vexillology'
p269
F0.014789198734500001
sS'privacy'
p270
F0.0089392133492300005
sS'futurama'
p271
F0.0109011257705
sS'architecture'
p272
F0.0103662750518
sS'whitepeoplegifs'
p273
F0.0173657718121
sS'cringe'
p274
F0.0090528119284100008
sS'spotted'
p275
F0.0073566717402300001
sS'StarWars'
p276
F0.0079249141771999994
sS'AskWomen'
p277
F0.0074007125641799999
sS'TheSimpsons'
p278
F0.011992879228000001
sS'see'
p279
F0.0073512694202299998
sS'glitch_art'
p280
F0.0086553945249599994
sS'changemyview'
p281
F0.0102628235668
sS'firstworldanarchists'
p282
F0.0134742896706
sS'PerfectTiming'
p283
F0.0201913875598
sS'truegaming'
p284
F0.0080862533692699998
sS'camping'
p285
F0.0079916886438100004
sS'wikipedia'
p286
F0.021836865767500001
sS'breakingbad'
p287
F0.00913416353383
sS'outside'
p288
F0.01022969453
sS'AskCulinary'
p289
F0.0106573993629
sS'foodhacks'
p290
F0.0118138712529
sS'europe'
p291
F0.0096397618065000006
sS'StandUpComedy'
p292
F0.0105158565869
sS'jobs'
p293
F0.0076578936761899996
sS'tonightsdinner'
p294
F0.0102333707725
sS'casualiama'
p295
F0.0106793664538
sS'facepalm'
p296
F0.0115325557842
sS'NotTimAndEric'
p297
F0.0133908644547
sS'pinkfloyd'
p298
F0.0085898353614899999
sS'Unexpected'
p299
F0.0124827540897
sS'RedditDayOf'
p300
F0.019542324827899998
sS'itookapicture'
p301
F0.012787316256999999
sS'GunPorn'
p302
F0.0099945484281299991
sS'GetMotivated'
p303
F0.0072344799049600004
sS'drunk'
p304
F0.0103639348748
sS'reactiongifs'
p305
F0.0087027262235799992
sS'MMFB'
p306
F0.0072951099965800001
sS'EarthPorn'
p307
F0.0080015033726999994
sS'beer'
p308
F0.0086302895322899996
sS'California'
p309
F0.0086741016109000008
sS'crappymusic'
p310
F0.0075385494003400002
sS'HomeImprovement'
p311
F0.0077815879715099996
sS'confessions'
p312
F0.0085756897837399992
sS'fatlogic'
p313
F0.0086823003908399997
sS'somethingimade'
p314
F0.016257620759700001
sS'MapPorn'
p315
F0.017498504813500002
sS'aviation'
p316
F0.0105793702281
sS'Flipping'
p317
F0.0078189678962400002
sS'Perfectfit'
p318
F0.012970389965000001
sS'offbeat'
p319
F0.019213062427100001
sS'softwaregore'
p320
F0.0079351238228099995
sS'socialism'
p321
F0.012098783004800001
sS'Cooking'
p322
F0.010723466764600001
sS'IASIP'
p323
F0.0096612449553600006
sS'gamecollecting'
p324
F0.0074656448203000002
sS'LosAngeles'
p325
F0.0076906365413900004
sS'DIY'
p326
F0.00776673926231
sS'ShitRedditSays'
p327
F0.0070063694267500001
sS'shorthairedhotties'
p328
F0.0081393147832700009
sS'southpark'
p329
F0.00775896450455
sS'Jazz'
p330
F0.0081315030165299996
sS'daddit'
p331
F0.0091943063406700002
sS'watchpeopledie'
p332
F0.0108013937282
sS'Whatcouldgowrong'
p333
F0.016387912860199999
sS'fifthworldproblems'
p334
F0.0075523880438299997
sS'literature'
p335
F0.011174758193299999
sS'notinteresting'
p336
F0.011468489670900001
sS'AnimalsBeingJerks'
p337
F0.015694490388500001
sS'catpictures'
p338
F0.010481133958899999
sS'TrueFilm'
p339
F0.012777732562899999
sS'HumanPorn'
p340
F0.031664212076600001
sS'Graffiti'
p341
F0.0081932326026799996
sS'FancyFollicles'
p342
F0.0092775188239500005
sS'awwwtf'
p343
F0.0149063806581
sS'circlebroke'
p344
F0.0104290116141
sS'PublicFreakout'
p345
F0.0135271262052
sS'ArtisanVideos'
p346
F0.010655396154500001
sS'Conservative'
p347
F0.010725552050499999
sS'quotes'
p348
F0.0122908842608
sS'woodworking'
p349
F0.0097920604914899997
sS'perfectloops'
p350
F0.015036527413299999
sS'InternetIsBeautiful'
p351
F0.0093725913365200007
sS'carporn'
p352
F0.011219792865399999
sS'TalesFromRetail'
p353
F0.0094276594165200005
sS'WouldYouRather'
p354
F0.0077448048462499999
sS'quityourbullshit'
p355
F0.016010095035300001
sS'ProtectAndServe'
p356
F0.00894263217098
sS'woahdude'
p357
F0.010882930019599999
sS'offmychest'
p358
F0.0074935126833700003
sS'confession'
p359
F0.010297963004799999
sS'slowcooking'
p360
F0.011714362128900001
sS'howto'
p361
F0.014304471011
sS'cringepics'
p362
F0.0084832577852499997
sS'toosoon'
p363
F0.014023545706399999
sS'grammar'
p364
F0.0075232863625500001
sS'Art'
p365
F0.0071649595419700004
sS'ConfusedBoners'
p366
F0.0090316573556799996
sS'Paranormal'
p367
F0.0083026406142699995
sS'Enhancement'
p368
F0.0101216454638
sS'ArcherFX'
p369
F0.0097908979089800004
sS'getdisciplined'
p370
F0.0075970079476399997
sS'gardening'
p371
F0.0125762669655
sS'whatisthisthing'
p372
F0.018455673841300001
sS'NetflixBestOf'
p373
F0.0140250467502
sS'tumblr'
p374
F0.0090324900013500006
sS'interestingasfuck'
p375
F0.0145397170099
sS'MarkMyWords'
p376
F0.0139882204459
sS'Coffee'
p377
F0.0082083086323999997
sS'humor'
p378
F0.0131603222434
sS'AMA'
p379
F0.0073857883137800001
sS'ExpectationVsReality'
p380
F0.0211781713047
sS'lifehacks'
p381
F0.0120400872268
sS'blackpeoplegifs'
p382
F0.015901755490800001
sS'FloridaMan'
p383
F0.019434839632799999
sS'delusionalartists'
p384
F0.0193341121495
sS'Frugal'
p385
F0.011542588672
sS'shittyaskscience'
p386
F0.0077993254637399997
sS'whatsthisplant'
p387
F0.0085409810374499993
sS'lewronggeneration'
p388
F0.0131967355444
sS'worldbuilding'
p389
F0.0078369905956100008
sS'calvinandhobbes'
p390
F0.0123594541241
sS'netflix'
p391
F0.0083281605628000004
sS'bayarea'
p392
F0.0070679796696300002
sS'sixwordstories'
p393
F0.0076300578034699997
sS'AnimalsBeingBros'
p394
F0.0183056072966
sS'classic4chan'
p395
F0.010771840542800001
sS'NSFWFunny'
p396
F0.0082754054948700004
sS'ShitAmericansSay'
p397
F0.0095582235691799994
sS'weather'
p398
F0.0091592296853000004
sS'marijuanaenthusiasts'
p399
F0.0116536534203
sS'TrollXChromosomes'
p400
F0.0094384223145200005
sS'Damnthatsinteresting'
p401
F0.017569483225200001
sS'CrazyIdeas'
p402
F0.014324138362400001
sS'TinyHouses'
p403
F0.0137342242019
sS'Bad_Cop_No_Donut'
p404
F0.012023603531700001
sS'MorbidReality'
p405
F0.014876756283700001
sS'gif'
p406
F0.011009393885
sS'cats'
p407
F0.0099926835842699992
sS'introvert'
p408
F0.010902923598799999
sS'Standup'
p409
F0.0082611724893000005
sS'happy'
p410
F0.015636634400600001
sS'explainlikeIAmA'
p411
F0.0108593012276
sS'misleadingthumbnails'
p412
F0.016605294240300002
sS'occupywallstreet'
p413
F0.0089605734767000001
sS'snackexchange'
p414
F0.0075717741087400004
sS'blunderyears'
p415
F0.021982098965800001
sS'webcomics'
p416
F0.0094478889873000002
sS'rage'
p417
F0.012501769118299999
sS'comics'
p418
F0.0106918565423
sS'behindthegifs'
p419
F0.0111377484767
sS'BritishTV'
p420
F0.0085258865686399996
sS'findareddit'
p421
F0.0140813755281
sS'lookatmydog'
p422
F0.0090232898427000004
sS'fullmoviesonyoutube'
p423
F0.016336512594799998
sS'Design'
p424
F0.0095651140684399998
sS'TrueAskReddit'
p425
F0.018856493752399998
sS'bestofworldstar'
p426
F0.010140470451299999
sS'DAE'
p427
F0.0085340823160899998
sS'ForeverAlone'
p428
F0.0071094600653299998
sS'eatsandwiches'
p429
F0.0115517905275
sS'bicycling'
p430
F0.0080908226954000007
sS'Survival'
p431
F0.0084988540870900003
sS'shittyama'
p432
F0.0072932206199200003
sS'AskSocialScience'
p433
F0.0129792332268
sS'ImaginaryLandscapes'
p434
F0.0127957753631
sS'badtattoos'
p435
F0.015418840135
sS'popping'
p436
F0.0081304485297400003
sS'nottheonion'
p437
F0.0092200201317899997
sS'Frugal_Jerk'
p438
F0.0126393197748
sS'Baking'
p439
F0.0086403884604399992
sS'oddlysatisfying'
p440
F0.013885898815899999
sS'cosplaygirls'
p441
F0.0077600946994599998
sS'entertainment'
p442
F0.0113811838719
sS'terriblefacebookmemes'
p443
F0.0114476293492
sS'PrettyGirls'
p444
F0.0080040020010000001
sS'urbanexploration'
p445
F0.0187711899446
sS'Michigan'
p446
F0.0073968705547699997
s.