(dp1
S'redheads'
p2
F0.0336417157275
sS'GWCouples'
p3
F0.0216049382716
sS'uglyduckling'
p4
F0.0093488422654600008
sS'milf'
p5
F0.034943538268500003
sS'perfectloops'
p6
F0.00756620428752
sS'everymanshouldknow'
p7
F0.0078969394810599995
sS'carporn'
p8
F0.0092569109814900005
sS'BDSMGW'
p9
F0.0114453411592
sS'Amateur'
p10
F0.039639778325100003
sS'hugeboobs'
p11
F0.0239073589839
sS'holdmybeer'
p12
F0.00822976848581
sS'AsianHotties'
p13
F0.0318705565089
sS'BigBoobsGW'
p14
F0.0211406558301
sS'MilitaryPorn'
p15
F0.0076628352490400002
sS'cumsluts'
p16
F0.034145264552200003
sS'NSFW_GIF'
p17
F0.0261805241753
sS'altgonewild'
p18
F0.017429452217199999
sS'PrettyGirlsUglyFaces'
p19
F0.0090221187427199992
sS'feet'
p20
F0.0135928328699
sS'AbandonedPorn'
p21
F0.0075029137529099999
sS'gonewildstories'
p22
F0.0125076266016
sS'Pegging'
p23
F0.0072962555066100002
sS'tipofmypenis'
p24
F0.016397349730699999
sS'WatchItForThePlot'
p25
F0.024024024024000001
sS'Celebs'
p26
F0.021168293196700001
sS'ConfusedBoners'
p27
F0.010293823705800001
sS'pornvids'
p28
F0.019503202018200001
sS'Whatcouldgowrong'
p29
F0.0093729523375399998
sS'whitepeoplegifs'
p30
F0.0079582633300900006
sS'anal'
p31
F0.019685497961600001
sS'gentlemanboners'
p32
F0.025942809780399999
sS'Rateme'
p33
F0.0081580197245299992
sS'burstingout'
p34
F0.051830522418799999
sS'interestingasfuck'
p35
F0.0070064780088600004
sS'AmISexy'
p36
F0.0120527784826
sS'PerfectTiming'
p37
F0.0090151886330199996
sS'Blowjobs'
p38
F0.034995425434599998
sS'RoomPorn'
p39
F0.0088072471061900002
sS'randomsexiness'
p40
F0.062468257999
sS'Hotwife'
p41
F0.017977063746299999
sS'ass'
p42
F0.0455783998018
sS'Damnthatsinteresting'
p43
F0.0076362678837899999
sS'blackpeoplegifs'
p44
F0.0098689666611400002
sS'pornID'
p45
F0.022381807300999999
sS'Bondage'
p46
F0.015756893641000001
sS'celebnsfw'
p47
F0.0218479383491
sS'TributeMe'
p48
F0.013362722138000001
sS'Unexpected'
p49
F0.0075921729493699996
sS'GWNerdy'
p50
F0.018726591760300001
sS'GoneWildPlus'
p51
F0.0086722853304000008
sS'watchpeopledie'
p52
F0.0090219489205099999
sS'AnimalsBeingBros'
p53
F0.0096115338406100002
sS'NSFWFunny'
p54
F0.0186733060644
sS'QuotesPorn'
p55
F0.0077220077220099999
sS'boltedontits'
p56
F0.039552760307499997
sS'TinyTits'
p57
F0.0302356602935
sS'pussy'
p58
F0.023650321941600001
sS'AsiansGoneWild'
p59
F0.0229500544578
sS'IdiotsFightingThings'
p60
F0.0082408874801899994
sS'incest'
p61
F0.0091709464416700002
sS'thick'
p62
F0.027233443874999999
sS'gonewildcurvy'
p63
F0.0138778396535
sS'gonewildaudio'
p64
F0.0102593883082
sS'FiftyFifty'
p65
F0.0083981588651699992
sS'ANormalDayInRussia'
p66
F0.0078395366904399997
sS'seduction'
p67
F0.0071323252066000003
sS'gif'
p68
F0.00848250483378
sS'bdsm'
p69
F0.0085788113695099994
sS'asstastic'
p70
F0.035303310129299999
sS'Boobies'
p71
F0.044446115665200001
sS'Stacked'
p72
F0.0338289455736
sS'treesgonewild'
p73
F0.0125513958018
sS'nsfw_gifs'
p74
F0.029438255510799999
sS'ginger'
p75
F0.031064412973999998
sS'ghettoglamourshots'
p76
F0.0075711070186200002
sS'gonewild'
p77
F0.0098928276999200003
sS'AmateurArchives'
p78
F0.0291082296904
sS'nsfw'
p79
F0.024332827316100002
sS'nononono'
p80
F0.0079785916051300001
sS'BustyPetite'
p81
F0.052199340508900002
sS'OnOff'
p82
F0.040549828178700002
sS'RandomActsOfBlowJob'
p83
F0.0093913671663400002
sS'wifesharing'
p84
F0.0217181467181
sS'Tgirls'
p85
F0.0090668681526299994
sS'hentai'
p86
F0.00772637331574
sS'shorthairedhotties'
p87
F0.014620181985500001
sS'hardbodies'
p88
F0.032114624505899997
sS'girlsinyogapants'
p89
F0.057042443903799998
sS'MURICA'
p90
F0.0073333020945600003
sS'RealGirls'
p91
F0.0334777950915
sS'GoneMild'
p92
F0.030826140567200001
sS'Hotchickswithtattoos'
p93
F0.034169278996899997
sS'nonononoyes'
p94
F0.0089130973013099996
sS'workgonewild'
p95
F0.023011707710900001
sS'JusticePorn'
p96
F0.0070316353131799998
sS'AnimalsBeingJerks'
p97
F0.0093787515006000001
sS'traps'
p98
F0.0081354441512799993
sS'cosplaygirls'
p99
F0.0242088274507
sS'Cuckold'
p100
F0.0130419031518
sS'HumanPorn'
p101
F0.0072717294367800004
sS'curvy'
p102
F0.034003967129499997
sS'PrettyGirls'
p103
F0.036574970941500001
sS'pantyselling'
p104
F0.0079262374635999996
sS'ImGoingToHellForThis'
p105
F0.0085653407086499992
sS'EmmaWatson'
p106
F0.018429092342600002
sS'rule34'
p107
F0.0125863482028
s.