(dp1
S'Heavymind'
p2
F0.0105811358188
sS'HipHopImages'
p3
F0.0085470085470099998
sS'PublicFreakout'
p4
F0.0128614253941
sS'rickandmorty'
p5
F0.011738273190000001
sS'DeepIntoYouTube'
p6
F0.026287339971600002
sS'quityourbullshit'
p7
F0.0088725896131600004
sS'JoeRogan'
p8
F0.0071292775665399996
sS'nostalgia'
p9
F0.0110433847257
sS'badtattoos'
p10
F0.0077184316146999997
sS'adventuretime'
p11
F0.0083453642733900008
sS'PerfectTiming'
p12
F0.0073378758278900003
sS'YMS'
p13
F0.0081496325985300003
sS'beatles'
p14
F0.0107226627946
sS'arresteddevelopment'
p15
F0.014481765107299999
sS'shutupandtakemymoney'
p16
F0.0072505521943699996
sS'horror'
p17
F0.0095953274926999996
sS'PandR'
p18
F0.011015224864899999
sS'progrockmusic'
p19
F0.0071318696685800003
sS'cringepics'
p20
F0.0073118308369099997
sS'toosoon'
p21
F0.0074248777078999998
sS'magicskyfairy'
p22
F0.00758334525683
sS'Braveryjerk'
p23
F0.0098399525785399997
sS'seinfeld'
p24
F0.014829080404399999
sS'CrappyDesign'
p25
F0.0092230604041600005
sS'WeAreTheMusicMakers'
p26
F0.0077653441844699996
sS'montageparodies'
p27
F0.0071107329524700003
sS'Cyberpunk'
p28
F0.0076840600428900001
sS'whitepeoplegifs'
p29
F0.010916476263
sS'cringe'
p30
F0.0117949493422
sS'NetflixBestOf'
p31
F0.0088681116305400001
sS'TheSimpsons'
p32
F0.0131964809384
sS'MST3K'
p33
F0.0090467188765900007
sS'offbeat'
p34
F0.0079040527343799995
sS'MarkMyWords'
p35
F0.0087438686287100009
sS'radiohead'
p36
F0.010308246597299999
sS'forwardsfromgrandma'
p37
F0.010653910963700001
sS'DunderMifflin'
p38
F0.0097015386516700001
sS'entertainment'
p39
F0.0072509639178199997
sS'shittyfoodporn'
p40
F0.0097978581426400001
sS'wikipedia'
p41
F0.0072248534960299999
sS'ExpectationVsReality'
p42
F0.0075856090160400002
sS'breakingbad'
p43
F0.0086468939058600008
sS'LetsTalkMusic'
p44
F0.0078740157480300006
sS'blackpeoplegifs'
p45
F0.0082408874801899994
sS'glitch_art'
p46
F0.011511974509199999
sS'FloridaMan'
p47
F0.0101498596931
sS'Metal'
p48
F0.0070893767859099999
sS'delusionalartists'
p49
F0.014211886304899999
sS'NotTimAndEric'
p50
F0.080292557466599995
sS'JonTron'
p51
F0.0079977149385900004
sS'vinyl'
p52
F0.011186145751299999
sS'drums'
p53
F0.0075235999716099997
sS'GamePhysics'
p54
F0.0096764059063799996
sS'lewronggeneration'
p55
F0.011928690028799999
sS'youtubehaiku'
p56
F0.0138457508513
sS'punk'
p57
F0.0081388588987599993
sS'progmetal'
p58
F0.0080906148867299996
sS'wheredidthesodago'
p59
F0.0112036219929
sS'classic4chan'
p60
F0.0087674058793199994
sS'KingOfTheHill'
p61
F0.017157431022499999
sS'IdiotsFightingThings'
p62
F0.0079647102070800006
sS'conspiratard'
p63
F0.0082537169992699996
sS'ContagiousLaughter'
p64
F0.010509721492400001
sS'ANormalDayInRussia'
p65
F0.0076849836779100001
sS'onetruegod'
p66
F0.0105681510252
sS'MorbidReality'
p67
F0.0084178351365799993
sS'shittyreactiongifs'
p68
F0.0090098207045699995
sS'misleadingthumbnails'
p69
F0.0076000557802300001
sS'trailerparkboys'
p70
F0.017310884515099999
sS'Standup'
p71
F0.0080040526849000006
sS'Pareidolia'
p72
F0.0081624527174999992
sS'howardstern'
p73
F0.0085315132771699997
sS'ifyoulikeblank'
p74
F0.0089790093357899996
sS'madmen'
p75
F0.0076504456187399998
sS'indieheads'
p76
F0.0085460474530499996
sS'Psychonaut'
p77
F0.0070041229943899998
sS'UFOs'
p78
F0.0070280242466800001
sS'ghettoglamourshots'
p79
F0.010990079751
sS'blunderyears'
p80
F0.010308325243799999
sS'rage'
p81
F0.0084225923653999998
sS'thatHappened'
p82
F0.0075249093258799998
sS'nononono'
p83
F0.0086440023179400003
sS'ObscureMedia'
p84
F0.0160197165742
sS'fullmoviesonyoutube'
p85
F0.0083712733147299993
sS'StandUpComedy'
p86
F0.0099118017639600008
sS'crappymusic'
p87
F0.014322610941500001
sS'IASIP'
p88
F0.019667832167799999
sS'Frisson'
p89
F0.0076276158810900004
sS'bestofworldstar'
p90
F0.0072354029951199996
sS'southpark'
p91
F0.0112055075436
sS'eatsandwiches'
p92
F0.0073156457276599999
sS'Jazz'
p93
F0.0079040852575500004
sS'DaftPunk'
p94
F0.00793937206785
sS'Frugal_Jerk'
p95
F0.0082934236654600008
sS'notinteresting'
p96
F0.0078695896571099998
sS'humor'
p97
F0.0072947576656799996
sS'synthesizers'
p98
F0.0073404856013599999
sS'TrueFilm'
p99
F0.0093834883529499997
sS'futurebeats'
p100
F0.011269138105199999
sS'terriblefacebookmemes'
p101
F0.0099716402890900006
sS'HailCorporate'
p102
F0.0083485520480000002
s.