(dp1
S'redheads'
p2
F0.051749028317599997
sS'GWCouples'
p3
F0.031131905704500001
sS'milf'
p4
F0.042004200419999999
sS'BBW'
p5
F0.0102352941176
sS'nsfw'
p6
F0.0306184536486
sS'BDSMGW'
p7
F0.019708316909699999
sS'Amateur'
p8
F0.060885608856099997
sS'hugeboobs'
p9
F0.017345568487000002
sS'AsianHotties'
p10
F0.0309759076274
sS'BigBoobsGW'
p11
F0.022210608832
sS'pornID'
p12
F0.0186187486469
sS'cumsluts'
p13
F0.044010635320500001
sS'NSFW_GIF'
p14
F0.0276504060549
sS'altgonewild'
p15
F0.035847401885599997
sS'PrettyGirlsUglyFaces'
p16
F0.0086824203365600001
sS'tightdresses'
p17
F0.0302356602935
sS'gonewildstories'
p18
F0.015478424015000001
sS'Pegging'
p19
F0.013873405177800001
sS'ConfusedBoners'
p20
F0.0161066370453
sS'Celebs'
p21
F0.019222917800799998
sS'WatchItForThePlot'
p22
F0.019015595106999999
sS'pornvids'
p23
F0.020270876311799999
sS'Whatcouldgowrong'
p24
F0.0078858221802600003
sS'anal'
p25
F0.0283210430694
sS'gentlemanboners'
p26
F0.014198025086699999
sS'Rateme'
p27
F0.0091485061991400003
sS'burstingout'
p28
F0.021289319459400002
sS'AmISexy'
p29
F0.012032246420399999
sS'Blowjobs'
p30
F0.032049947970900002
sS'randomsexiness'
p31
F0.0321859633438
sS'Hotwife'
p32
F0.019591060389900002
sS'AsiansGoneWild'
p33
F0.038373212830600002
sS'ass'
p34
F0.035826817598299997
sS'Damnthatsinteresting'
p35
F0.0070154678387299996
sS'Bondage'
p36
F0.024705435195699999
sS'celebnsfw'
p37
F0.028233355800200002
sS'TributeMe'
p38
F0.023267388329000001
sS'tipofmypenis'
p39
F0.0165834440423
sS'GWNerdy'
p40
F0.037065862438000002
sS'GoneWildPlus'
p41
F0.017798594847800001
sS'watchpeopledie'
p42
F0.0098615916955000008
sS'NSFWFunny'
p43
F0.022823470827500001
sS'boltedontits'
p44
F0.0213969503197
sS'pussy'
p45
F0.053268765133200002
sS'BBWGW'
p46
F0.0114590424325
sS'IdiotsFightingThings'
p47
F0.0071454305272000002
sS'incest'
p48
F0.0173093401885
sS'thick'
p49
F0.020708697652999999
sS'DirtySnapchat'
p50
F0.0072632944228300002
sS'gonewildcurvy'
p51
F0.022106330580899999
sS'gonewildaudio'
p52
F0.013354844492200001
sS'FiftyFifty'
p53
F0.0091619935234200003
sS'Bad_Cop_No_Donut'
p54
F0.0081707959936700002
sS'ANormalDayInRussia'
p55
F0.0077890952666300004
sS'gif'
p56
F0.0072720822986899998
sS'bdsm'
p57
F0.012096390132399999
sS'asstastic'
p58
F0.035678358259000002
sS'Boobies'
p59
F0.040400479447200002
sS'Stacked'
p60
F0.021526182126
sS'treesgonewild'
p61
F0.026397671384099999
sS'nsfw_gifs'
p62
F0.029165147648599999
sS'ginger'
p63
F0.055348192385600001
sS'penis'
p64
F0.0102791315906
sS'gonewild'
p65
F0.017008472225200001
sS'AmateurArchives'
p66
F0.035821253144800003
sS'BustyPetite'
p67
F0.041898622912399999
sS'feet'
p68
F0.0237025709644
sS'OnOff'
p69
F0.061064334178000002
sS'RandomActsOfBlowJob'
p70
F0.0104009394397
sS'wifesharing'
p71
F0.0363767984798
sS'Tgirls'
p72
F0.016830776276599999
sS'hentai'
p73
F0.014476223898899999
sS'shorthairedhotties'
p74
F0.020423600605100001
sS'hardbodies'
p75
F0.020094382706700002
sS'girlsinyogapants'
p76
F0.026899250081500001
sS'RealGirls'
p77
F0.038953251301199997
sS'GoneMild'
p78
F0.037640117994099997
sS'Hotchickswithtattoos'
p79
F0.034598750600700001
sS'Gore'
p80
F0.0099563068548100004
sS'nonononoyes'
p81
F0.0070579367526600002
sS'workgonewild'
p82
F0.034566996457800002
sS'AnimalsBeingJerks'
p83
F0.0071801566579599999
sS'traps'
p84
F0.017846278645300001
sS'cosplaygirls'
p85
F0.0150311782081
sS'Cuckold'
p86
F0.015021929824599999
sS'curvy'
p87
F0.029181184669
sS'PrettyGirls'
p88
F0.022686481441600001
sS'dirtypenpals'
p89
F0.012920249306199999
sS'pantyselling'
p90
F0.0102461932546
sS'MassiveCock'
p91
F0.0090347561537800006
sS'ImGoingToHellForThis'
p92
F0.0090806377369500001
sS'EmmaWatson'
p93
F0.016054421768699999
sS'rule34'
p94
F0.018274566959999999
s.