(dp1
S'redheads'
p2
F0.017585326652200001
sS'DoesAnybodyElse'
p3
F0.0070479804825200002
sS'GWCouples'
p4
F0.015854501468799999
sS'milf'
p5
F0.023517951572500001
sS'nsfw'
p6
F0.034523540358600002
sS'Amateur'
p7
F0.024259804681399998
sS'quityourbullshit'
p8
F0.0070301100941799997
sS'hugeboobs'
p9
F0.0148293900274
sS'whowouldwin'
p10
F0.0073483750776199997
sS'woahdude'
p11
F0.0071298865664099998
sS'AsianHotties'
p12
F0.0158511043412
sS'BigBoobsGW'
p13
F0.0124691463103
sS'pornID'
p14
F0.047124249963399999
sS'cumsluts'
p15
F0.043074781532799998
sS'NSFW_GIF'
p16
F0.047931071162600002
sS'altgonewild'
p17
F0.0095300690108399994
sS'NoStupidQuestions'
p18
F0.0084720806433300003
sS'cringepics'
p19
F0.0074001200353899996
sS'tightdresses'
p20
F0.016397349730699999
sS'gonewildstories'
p21
F0.0138248847926
sS'ConfusedBoners'
p22
F0.012173148758500001
sS'Celebs'
p23
F0.019585001820199999
sS'WatchItForThePlot'
p24
F0.020631694967799999
sS'pornvids'
p25
F0.039300922640199999
sS'Whatcouldgowrong'
p26
F0.0076900633544500002
sS'anal'
p27
F0.0216325761146
sS'cringe'
p28
F0.0079942376561099992
sS'gentlemanboners'
p29
F0.014449578469500001
sS'Rateme'
p30
F0.0088932806324099993
sS'sex'
p31
F0.010786472025699999
sS'burstingout'
p32
F0.017088107467399999
sS'interestingasfuck'
p33
F0.0074022248653200003
sS'AmISexy'
p34
F0.0093324012583
sS'firstworldanarchists'
p35
F0.0072960513128899999
sS'Blowjobs'
p36
F0.030821917808200001
sS'4chan'
p37
F0.0092623679273200008
sS'randomsexiness'
p38
F0.0154044257917
sS'Hotwife'
p39
F0.0114575006661
sS'ass'
p40
F0.029353869530699999
sS'Bondage'
p41
F0.010180541624899999
sS'casualiama'
p42
F0.0079339282548300007
sS'celebnsfw'
p43
F0.0186063048116
sS'Unexpected'
p44
F0.0090189808551599995
sS'GWNerdy'
p45
F0.010858439766799999
sS'GoneWildPlus'
p46
F0.0099488833236100003
sS'watchpeopledie'
p47
F0.010446099837300001
sS'NSFWFunny'
p48
F0.0208106523742
sS'amiugly'
p49
F0.0081421576717800002
sS'boltedontits'
p50
F0.0149543891132
sS'TinyTits'
p51
F0.0165834440423
sS'pussy'
p52
F0.0139241112015
sS'confession'
p53
F0.0075757575757600002
sS'reactiongifs'
p54
F0.0080762150377099995
sS'AsiansGoneWild'
p55
F0.012701495436
sS'incest'
p56
F0.013083241595400001
sS'thick'
p57
F0.017631023566699999
sS'DirtySnapchat'
p58
F0.0074498776613200002
sS'gonewildcurvy'
p59
F0.016929852830600001
sS'gonewildaudio'
p60
F0.0130968385446
sS'FiftyFifty'
p61
F0.0133746304378
sS'OutOfTheLoop'
p62
F0.0086827615417199994
sS'seduction'
p63
F0.0072398190045199996
sS'MorbidReality'
p64
F0.0085439724798099994
sS'asstastic'
p65
F0.0184444444444
sS'GrandTheftAutoV'
p66
F0.0070811395865099996
sS'Boobies'
p67
F0.0269659478301
sS'tipofmytongue'
p68
F0.0106997282609
sS'Stacked'
p69
F0.016107449075700001
sS'mildlyinfuriating'
p70
F0.0073789808507100001
sS'nsfw_gifs'
p71
F0.046179401993400003
sS'ginger'
p72
F0.0158267388588
sS'r4r'
p73
F0.0071061524929399997
sS'AskMen'
p74
F0.00782425819055
sS'gonewild'
p75
F0.017872502478599998
sS'rage'
p76
F0.0077889309418000003
sS'thatHappened'
p77
F0.0078856497775399992
sS'AmateurArchives'
p78
F0.017198172080000001
sS'BustyPetite'
p79
F0.030036250647299999
sS'feet'
p80
F0.0074788688763999999
sS'OnOff'
p81
F0.025226258241499998
sS'RandomActsOfBlowJob'
p82
F0.0101852628049
sS'wifesharing'
p83
F0.014368932038800001
sS'Tgirls'
p84
F0.0097424520111900007
sS'hentai'
p85
F0.014649654165099999
sS'hardbodies'
p86
F0.0106395648894
sS'girlsinyogapants'
p87
F0.018845311402199999
sS'RealGirls'
p88
F0.0291821561338
sS'GoneMild'
p89
F0.016494067622200001
sS'Hotchickswithtattoos'
p90
F0.0150794003825
sS'nonononoyes'
p91
F0.0071438985274799999
sS'workgonewild'
p92
F0.0079061088194900004
sS'JusticePorn'
p93
F0.0082922108181099994
sS'bigdickproblems'
p94
F0.0086848635235700009
sS'cosplaygirls'
p95
F0.010316469638
sS'Cuckold'
p96
F0.011437520763099999
sS'curvy'
p97
F0.018301267010799999
sS'PrettyGirls'
p98
F0.010994080110699999
sS'dirtypenpals'
p99
F0.0112856174677
sS'ImGoingToHellForThis'
p100
F0.0116390573682
sS'EmmaWatson'
p101
F0.0076253195268799999
sS'rule34'
p102
F0.022431234563700001
s.