(dp1
S'StarWars'
p2
F0.0101566438267
sS'gallifrey'
p3
F0.013052345343299999
sS'AskScienceFiction'
p4
F0.017635340988999999
sS'StarWarsEU'
p5
F0.0098487513190299997
sS'TrueReddit'
p6
F0.0070234686635799997
sS'totalwar'
p7
F0.0107297613316
sS'Catholicism'
p8
F0.0090272847144700005
sS'skyrim'
p9
F0.0076347330343899998
sS'literature'
p10
F0.0121351605817
sS'Christianity'
p11
F0.00704687966557
sS'truegaming'
p12
F0.0082367679298499998
sS'masseffect'
p13
F0.0076130130508799999
sS'teslore'
p14
F0.0110468174645
sS'ImaginaryLandscapes'
p15
F0.0098942340498099999
sS'rpg'
p16
F0.0096318300477100001
sS'polandball'
p17
F0.0074856171548099999
sS'ShitAmericansSay'
p18
F0.0075888696578400002
sS'Foodforthought'
p19
F0.0070825211176100003
sS'harrypotter'
p20
F0.0092653871608199996
sS'badhistory'
p21
F0.013800984528800001
sS'DnD'
p22
F0.0073764283597300001
sS'gameofthrones'
p23
F0.0074620577303000004
sS'mountandblade'
p24
F0.0083020359754900006
sS'AskHistorians'
p25
F0.013536520695499999
sS'badlinguistics'
p26
F0.0076460061818800001
sS'skeptic'
p27
F0.0071370722818399996
sS'WoT'
p28
F0.0093808630394000003
sS'classicalmusic'
p29
F0.0080913039775099994
sS'printSF'
p30
F0.0099451303154999993
sS'startrek'
p31
F0.0117721063983
sS'writing'
p32
F0.0072968708914000003
sS'HistoryPorn'
p33
F0.0084696781077700008
sS'booksuggestions'
p34
F0.0075403320084200002
sS'whowouldwin'
p35
F0.0096463940180900008
sS'scifi'
p36
F0.012121631918
sS'ImaginaryMonsters'
p37
F0.010173671770599999
sS'vexillology'
p38
F0.0076971909220799996
sS'FutureWhatIf'
p39
F0.0073041168658700001
sS'firefly'
p40
F0.0099095217578599997
sS'KingkillerChronicle'
p41
F0.0106781306338
sS'explainlikeIAmA'
p42
F0.0080624410326799994
sS'DaystromInstitute'
p43
F0.0104699293888
sS'linguistics'
p44
F0.010035978034499999
sS'rpg_gamers'
p45
F0.00739918608953
sS'CrusaderKings'
p46
F0.010272071071599999
sS'marvelstudios'
p47
F0.0072915822733500002
sS'badphilosophy'
p48
F0.0075994635672799998
sS'TrueAskReddit'
p49
F0.0079093281148100002
sS'MapPorn'
p50
F0.0083956498818799994
sS'asoiaf'
p51
F0.011932469517500001
sS'doctorwho'
p52
F0.0070790493847999996
sS'FanTheories'
p53
F0.0112417625016
sS'Marvel'
p54
F0.0073666849917499999
sS'Morrowind'
p55
F0.0106002554278
sS'webcomics'
p56
F0.00747581354442
sS'TheoryOfReddit'
p57
F0.00883898709986
sS'calvinandhobbes'
p58
F0.0087661419549400002
sS'TrueFilm'
p59
F0.0078131936429000001
sS'worldbuilding'
p60
F0.015150442477899999
sS'PropagandaPosters'
p61
F0.0083428928981100006
sS'fantasywriters'
p62
F0.010107105144099999
sS'Fantasy'
p63
F0.018335071254799998
sS'Frisson'
p64
F0.0085991678224699997
sS'Sherlock'
p65
F0.0095732196899500008
sS'lotr'
p66
F0.097211563059600006
sS'paradoxplaza'
p67
F0.00762131170466
sS'history'
p68
F0.0086895439290299997
s.