(dp1
S'Guitar'
p2
F0.0082072656169600005
sS'RedHotChiliPeppers'
p3
F0.0080200501253099993
sS'Heavymind'
p4
F0.0118430792006
sS'Psychonaut'
p5
F0.0118330579393
sS'postrock'
p6
F0.0082215491129399992
sS'JoeRogan'
p7
F0.00776219458411
sS'Metal'
p8
F0.013163417146799999
sS'Djent'
p9
F0.0094323732524799996
sS'progrockmusic'
p10
F0.016678129298499999
sS'progmetal'
p11
F0.0222277105458
sS'guitarpedals'
p12
F0.0073771422085999998
sS'drums'
p13
F0.0131093492425
sS'trailerparkboys'
p14
F0.00721864672117
sS'radiohead'
p15
F0.0142824234047
sS'pinkfloyd'
p16
F0.017210035147300001
sS'Bass'
p17
F0.011194602054899999
sS'MetalMemes'
p18
F0.0125108385978
sS'vinyl'
p19
F0.0076275988318899998
s.