(dp1
S'RandomActsOfGaming'
p2
F0.0105960264901
sS'circlebroke'
p3
F0.0100350687888
sS'CityPorn'
p4
F0.0085151209234999997
sS'skyrim'
p5
F0.022628412070499999
sS'Guildwars2'
p6
F0.0071491063617000004
sS'buildapc'
p7
F0.0095310170164599993
sS'Conservative'
p8
F0.0088230255268100001
sS'thatHappened'
p9
F0.0100358024004
sS'PoliticalDiscussion'
p10
F0.0091718370650099995
sS'teslore'
p11
F0.012107037215399999
sS'DeepIntoYouTube'
p12
F0.0070052539404600002
sS'everymanshouldknow'
p13
F0.0093721538325899998
sS'dataisbeautiful'
p14
F0.011195377392600001
sS'InternetIsBeautiful'
p15
F0.0070227888086600004
sS'Foodforthought'
p16
F0.0078754250939700003
sS'battlefield3'
p17
F0.0091086159486700007
sS'syriancivilwar'
p18
F0.0129260450161
sS'TopGear'
p19
F0.0090329617888699996
sS'quityourbullshit'
p20
F0.012166304764299999
sS'Documentaries'
p21
F0.0087171022126599999
sS'writing'
p22
F0.0082164650465700005
sS'HistoryPorn'
p23
F0.024522841051299999
sS'Bioshock'
p24
F0.0072358900144699999
sS'GrandTheftAutoV'
p25
F0.0083765291312499993
sS'Fallout'
p26
F0.020053869786599999
sS'ImaginaryMonsters'
p27
F0.0076522986787800002
sS'sweden'
p28
F0.0075187969924800004
sS'soccer'
p29
F0.0085702755255499998
sS'PublicFreakout'
p30
F0.0083842599493199992
sS'aoe2'
p31
F0.0111003501453
sS'MensRights'
p32
F0.0093420738342300004
sS'nononono'
p33
F0.0078011272442199998
sS'MilitaryPorn'
p34
F0.024478888295000001
sS'australia'
p35
F0.0078024949011100001
sS'AskScienceFiction'
p36
F0.015316740198100001
sS'skyrimmods'
p37
F0.017382179843999999
sS'reactiongifs'
p38
F0.0094971616131699996
sS'CrusaderKings'
p39
F0.059554202670900003
sS'JusticePorn'
p40
F0.0111830183795
sS'footballmanagergames'
p41
F0.0106651698007
sS'unitedkingdom'
p42
F0.016620026767200001
sS'nottheonion'
p43
F0.0099183150153600002
sS'Stargate'
p44
F0.0071452199801499998
sS'NoStupidQuestions'
p45
F0.00710788185121
sS'cringepics'
p46
F0.0092640943815899997
sS'Military'
p47
F0.015407071034699999
sS'Steam'
p48
F0.016363109997899999
sS'halo'
p49
F0.00790450442194
sS'photoshopbattles'
p50
F0.0075535667543299998
sS'AbandonedPorn'
p51
F0.0075148241648599996
sS'masseffect'
p52
F0.017232713434299999
sS'WatchItForThePlot'
p53
F0.0070240455054699997
sS'prisonarchitect'
p54
F0.0136711157185
sS'techsupportgore'
p55
F0.0073049184387299999
sS'woahdude'
p56
F0.0079824633964800003
sS'PropagandaPosters'
p57
F0.018113069463900001
sS'guns'
p58
F0.0085340845537199995
sS'comics'
p59
F0.0090158958562900002
sS'SteamGameSwap'
p60
F0.0070324322720399998
sS'montageparodies'
p61
F0.010606801740299999
sS'techsupport'
p62
F0.0090249537268500008
sS'Libertarian'
p63
F0.0090289404448699994
sS'eu4'
p64
F0.044421334125699999
sS'ArcherFX'
p65
F0.0087699229771999992
sS'cringe'
p66
F0.0104961521345
sS'firefly'
p67
F0.0076930428134599996
sS'pcgaming'
p68
F0.018709582906099999
sS'badhistory'
p69
F0.027290340437300002
sS'gentlemanboners'
p70
F0.0076156731012600003
sS'stalker'
p71
F0.0075769171896500004
sS'ShouldIbuythisgame'
p72
F0.0170491014121
sS'Christianity'
p73
F0.0075160086038499998
sS'interestingasfuck'
p74
F0.0095066961543199997
sS'books'
p75
F0.0070149215266900001
sS'changemyview'
p76
F0.011823151297199999
sS'ChivalryGame'
p77
F0.012603475277799999
sS'fatpeoplestories'
p78
F0.0076858314548799997
sS'notinteresting'
p79
F0.00732421875
sS'firstworldanarchists'
p80
F0.0098712150777100008
sS'forwardsfromgrandma'
p81
F0.0095619483491299999
sS'gameofthrones'
p82
F0.017540589243100001
sS'mountandblade'
p83
F0.065038639876400003
sS'movies'
p84
F0.0075436240313799998
sS'skeptic'
p85
F0.0075975897301499996
sS'lotr'
p86
F0.019177273876799999
sS'Warthunder'
p87
F0.030444964871199999
sS'oblivion'
p88
F0.0095478798090400004
sS'CompanyOfHeroes'
p89
F0.0211602472658
sS'outside'
p90
F0.011426451493200001
sS'socialism'
p91
F0.0100741780273
sS'facepalm'
p92
F0.0080967449599599998
sS'worldnews'
p93
F0.0102421243443
sS'pcmasterrace'
p94
F0.012881253837200001
sS'SimCity'
p95
F0.0130268679151
sS'DarkSouls2'
p96
F0.0080212492743899997
sS'vexillology'
p97
F0.0205412117763
sS'spaceengineers'
p98
F0.0115084038112
sS'SubredditDrama'
p99
F0.0163151820376
sS'europe'
p100
F0.0205216772915
sS'starbound'
p101
F0.0089698970255799992
sS'Warhammer'
p102
F0.0204200391472
sS'bestof'
p103
F0.013057146714499999
sS'Cyberpunk'
p104
F0.0078333552142100006
sS'TalesFromRetail'
p105
F0.0072212282554799997
sS'titanfall'
p106
F0.0093739069604800006
sS'FloridaMan'
p107
F0.0084504575506799996
sS'Metal'
p108
F0.0074170770782600003
sS'tf2'
p109
F0.0074609189957400004
sS'delusionalartists'
p110
F0.0077141872091000003
sS'Cynicalbrit'
p111
F0.014963975614300001
sS'promos'
p112
F0.0075280463182100001
sS'shittyaskscience'
p113
F0.00757161101989
sS'news'
p114
F0.0070219162376099998
sS'GamePhysics'
p115
F0.0118140765406
sS'gamingsuggestions'
p116
F0.0115354227021
sS'Morrowind'
p117
F0.0113059373096
sS'worldbuilding'
p118
F0.016365366317800001
sS'WritingPrompts'
p119
F0.0072279078278400001
sS'dayz'
p120
F0.0150993607359
sS'WarshipPorn'
p121
F0.016603385031199999
sS'4chan'
p122
F0.012836618142299999
sS'Planetside'
p123
F0.017721426483499999
sS'watchpeopledie'
p124
F0.0094221975890300003
sS'wheredidthesodago'
p125
F0.0081977394112500001
sS'AnimalsBeingBros'
p126
F0.0078645447816400003
sS'ukpolitics'
p127
F0.013312577164599999
sS'classic4chan'
p128
F0.0088170462894899999
sS'GameDeals'
p129
F0.0174024975342
sS'battlestations'
p130
F0.00726213592233
sS'thewalkingdead'
p131
F0.0083834459187100002
sS'OutOfTheLoop'
p132
F0.0109652172186
sS'paradoxplaza'
p133
F0.0674235633901
sS'QuotesPorn'
p134
F0.0100989068194
sS'ShitAmericansSay'
p135
F0.010595567867
sS'TrueReddit'
p136
F0.0103605209622
sS'StarWars'
p137
F0.0149764229262
sS'todayilearned'
p138
F0.0077290055134599999
sS'dragonage'
p139
F0.0158375036797
sS'Scotland'
p140
F0.0123030989396
sS'patientgamers'
p141
F0.012762292514900001
sS'IdiotsFightingThings'
p142
F0.0087170317389399996
sS'conspiratard'
p143
F0.014616786001800001
sS'startrek'
p144
F0.010086159737399999
sS'rpg'
p145
F0.0105664002196
sS'Warhammer40k'
p146
F0.0140869565217
sS'TrueAtheism'
p147
F0.0077050322131300003
sS'ContagiousLaughter'
p148
F0.0084395452979700008
sS'canada'
p149
F0.0081028745464499993
sS'TheLastAirbender'
p150
F0.010279563824
sS'Damnthatsinteresting'
p151
F0.0078257910853999999
sS'DnD'
p152
F0.011101255275099999
sS'FiftyFifty'
p153
F0.0090331137943699992
sS'CrazyIdeas'
p154
F0.0077226162332499999
sS'AskHistorians'
p155
F0.037910719417599999
sS'Bad_Cop_No_Donut'
p156
F0.0083850822720400002
sS'ANormalDayInRussia'
p157
F0.011599806669900001
sS'buildapcsales'
p158
F0.0070935644358900004
sS'MorbidReality'
p159
F0.0112616911624
sS'holdmybeer'
p160
F0.0074622002085499997
sS'Whatcouldgowrong'
p161
F0.0090621403912499992
sS'whowouldwin'
p162
F0.0187400893758
sS'battlefield_4'
p163
F0.0133770392406
sS'lewronggeneration'
p164
F0.0124515771998
sS'arma'
p165
F0.022554446226299998
sS'CombatFootage'
p166
F0.025742756966200001
sS'fatlogic'
p167
F0.0079798705966899995
sS'explainlikeIAmA'
p168
F0.0086480098834399999
sS'WorldofTanks'
p169
F0.014980937429900001
sS'Unexpected'
p170
F0.0093351854341199997
sS'swtor'
p171
F0.010573329687399999
sS'Eve'
p172
F0.0133809349788
sS'mildlyinfuriating'
p173
F0.0075605897260000001
sS'ftlgame'
p174
F0.0117794879849
sS'oddlysatisfying'
p175
F0.0075673233618899997
sS'youtubehaiku'
p176
F0.0086570881808000003
sS'MapPorn'
p177
F0.0251070149384
sS'asoiaf'
p178
F0.019138307836400002
sS'AskMen'
p179
F0.0073492709140899996
sS'rugbyunion'
p180
F0.0074272630814799998
sS'blunderyears'
p181
F0.0073473797947100003
sS'Battlefield'
p182
F0.0132926771166
sS'television'
p183
F0.0072370905951500003
sS'dwarffortress'
p184
F0.016699900299099998
sS'darksouls'
p185
F0.0096347273689800002
sS'rage'
p186
F0.0118465744346
sS'worldpolitics'
p187
F0.0125039403173
sS'science'
p188
F0.0093541645934900001
sS'offbeat'
p189
F0.0074127458045899998
sS'behindthegifs'
p190
F0.0085532652668100003
sS'standupshots'
p191
F0.0078141824334700006
sS'starcitizen'
p192
F0.0169167150815
sS'civ'
p193
F0.035150938264899997
sS'KerbalSpaceProgram'
p194
F0.020446413358300001
sS'russia'
p195
F0.0098713730182499997
sS'history'
p196
F0.026194904430099999
sS'fullmoviesonyoutube'
p197
F0.0075060350030200004
sS'gamernews'
p198
F0.0132348787475
sS'Economics'
p199
F0.0098847934287000002
sS'GTA'
p200
F0.0070048582081099998
sS'TrueAskReddit'
p201
F0.0085843608553100009
sS'FanTheories'
p202
F0.0104011394879
sS'conspiracy'
p203
F0.0090500704987399993
sS'polandball'
p204
F0.034891987968300002
sS'politics'
p205
F0.0095411362785499994
sS'assassinscreed'
p206
F0.016985138004199998
sS'technology'
p207
F0.0083838626298900001
sS'southpark'
p208
F0.0093069188412700007
sS'starcraft'
p209
F0.0098529231021300002
sS'HouseOfCards'
p210
F0.0088018917498700004
sS'asmr'
p211
F0.0070058116392
sS'AskUK'
p212
F0.0074720582694999997
sS'MURICA'
p213
F0.0141745470885
sS'HighQualityGifs'
p214
F0.0078338401278199993
sS'AskSocialScience'
p215
F0.0072672597418899998
sS'ImaginaryLandscapes'
p216
F0.0083048053759399998
sS'Frisson'
p217
F0.0079442964624500002
sS'scifi'
p218
F0.011016901879799999
sS'britishproblems'
p219
F0.0145299145299
sS'spaceporn'
p220
F0.0088641696358700006
sS'nonononoyes'
p221
F0.0090335531975899996
sS'tolkienfans'
p222
F0.0107297613316
sS'FutureWhatIf'
p223
F0.0084207620099400003
sS'wallpapers'
p224
F0.0090039392234099996
sS'talesfromtechsupport'
p225
F0.0076752171278500004
sS'gaming'
p226
F0.0091267345976300002
sS'paydaytheheist'
p227
F0.013228020397999999
sS'GiftofGames'
p228
F0.0077026875070300002
sS'AnimalsBeingJerks'
p229
F0.0081999219055099992
sS'askscience'
p230
F0.0077425459244900002
sS'Futurology'
p231
F0.0094474842022599995
sS'wargame'
p232
F0.025827463455300001
sS'Xcom'
p233
F0.022696215317000001
sS'Games'
p234
F0.018453648373300002
sS'EnoughLibertarianSpam'
p235
F0.0082097274922400005
sS'elderscrollsonline'
p236
F0.010342201586999999
sS'Gaming4Gamers'
p237
F0.0092327284304400004
sS'playrust'
p238
F0.0093285730738200002
sS'Minecraft'
p239
F0.0076068934331500002
sS'thesims'
p240
F0.0073869704521199999
sS'truegaming'
p241
F0.0189140036373
sS'oculus'
p242
F0.0070854719928600002
sS'space'
p243
F0.0098562300319500005
sS'HumanPorn'
p244
F0.0100326534475
sS'atheism'
p245
F0.00757532134334
sS'Fantasy'
p246
F0.0094439658029000003
sS'TumblrInAction'
p247
F0.014167309175
sS'HailCorporate'
p248
F0.00722370741141
sS'ImGoingToHellForThis'
p249
F0.00884452994874
sS'GifSound'
p250
F0.0083035003977699993
s.