(dp1
S'FancyFollicles'
p2
F0.012383594214400001
sS'ABraThatFits'
p3
F0.0076399790685499997
sS'crossdressing'
p4
F0.042637501981300001
sS'uglyduckling'
p5
F0.010445859872599999
sS'actuallesbians'
p6
F0.020692041522499999
sS'Tgirls'
p7
F0.0140073081608
sS'TrollXChromosomes'
p8
F0.0078245074752000005
sS'femalefashionadvice'
p9
F0.0078943723743099999
sS'shorthairedhotties'
p10
F0.0077601410934699999
sS'Sissies'
p11
F0.0098394614189500004
sS'TheBluePill'
p12
F0.0074273512208699998
sS'transpassing'
p13
F0.18231249000499999
sS'PrettyGirlsUglyFaces'
p14
F0.0088081168469200007
sS'RedditLaqueristas'
p15
F0.00881505339888
sS'ftm'
p16
F0.046485765124600002
sS'asktransgender'
p17
F0.125727590221
sS'TrollYChromosome'
p18
F0.00710051462445
sS'bigboobproblems'
p19
F0.0079942897930000006
sS'MakeupAddiction'
p20
F0.0074214245587100004
sS'BDSMcommunity'
p21
F0.0072248614410100002
sS'delusionalartists'
p22
F0.0074064363898500001
sS'lgbt'
p23
F0.025150845331299999
sS'LadyBoners'
p24
F0.0074824901031000004
sS'curlyhair'
p25
F0.0082731298065700006
sS'TheGirlSurvivalGuide'
p26
F0.0079699953117699993
sS'badtattoos'
p27
F0.010232726614099999
sS'ainbow'
p28
F0.034987212276199997
sS'blunderyears'
p29
F0.011711026616
sS'traps'
p30
F0.0282820310445
sS'creepyPMs'
p31
F0.0070472665148100001
sS'GoneWildCD'
p32
F0.0138939011187
sS'GirlGamers'
p33
F0.010643330179800001
sS'piercing'
p34
F0.0087634925724100008
sS'bisexual'
p35
F0.0129223473622
sS'LGBTeens'
p36
F0.0094353979607399996
sS'asexuality'
p37
F0.0076136610833200001
sS'MtF'
p38
F0.13426042983600001
sS'polyamory'
p39
F0.0072471606273699996
s.