(dp1
S'FancyFollicles'
p2
F0.014202593118600001
sS'progresspics'
p3
F0.0077631961131200003
sS'ABraThatFits'
p4
F0.0080092551392699999
sS'crossdressing'
p5
F0.071872571872600002
sS'uglyduckling'
p6
F0.0074267782426800004
sS'actuallesbians'
p7
F0.024031876478600001
sS'Tgirls'
p8
F0.026525850423699999
sS'TrollXChromosomes'
p9
F0.0100146223688
sS'femalefashionadvice'
p10
F0.010608142930800001
sS'ShitRedditSays'
p11
F0.0088000657948799996
sS'shorthairedhotties'
p12
F0.0118226600985
sS'Feminism'
p13
F0.00788680120622
sS'Rateme'
p14
F0.0070210354645199998
sS'Sissies'
p15
F0.023454446854699999
sS'TheBluePill'
p16
F0.0081131014539300005
sS'SkincareAddiction'
p17
F0.0077659484340999998
sS'PrettyGirlsUglyFaces'
p18
F0.0093923170846199992
sS'firstimpression'
p19
F0.0106737320212
sS'RedditLaqueristas'
p20
F0.010387060100299999
sS'raisedbynarcissists'
p21
F0.0074321813452199997
sS'ftm'
p22
F0.057638315441800002
sS'asktransgender'
p23
F0.16203703703700001
sS'happy'
p24
F0.00744680851064
sS'TrollYChromosome'
p25
F0.0084038551951099993
sS'popping'
p26
F0.0076248220109299998
sS'MakeupAddiction'
p27
F0.0103285162522
sS'transtimelines'
p28
F0.18231249000499999
sS'BDSMcommunity'
p29
F0.0096922292127199997
sS'lgbt'
p30
F0.028130622035699999
sS'LadyBoners'
p31
F0.007783994162
sS'curlyhair'
p32
F0.0086719282860800006
sS'TheGirlSurvivalGuide'
p33
F0.0094033049851299996
sS'ainbow'
p34
F0.037037037037000002
sS'ghettoglamourshots'
p35
F0.0074117995849400002
sS'blunderyears'
p36
F0.0089456273587100003
sS'traps'
p37
F0.060396701582299997
sS'creepyPMs'
p38
F0.0082697414865399999
sS'GoneWildCD'
p39
F0.034492507775
sS'GirlGamers'
p40
F0.0128366122506
sS'ConfusedBoners'
p41
F0.0073224780807400001
sS'RandomActsofMakeup'
p42
F0.0075869336143299998
sS'piercing'
p43
F0.0104327315613
sS'bisexual'
p44
F0.0158682931667
sS'LGBTeens'
p45
F0.011042349229500001
sS'MtF'
p46
F0.12823786939099999
sS'polyamory'
p47
F0.0097203117835900008
sS'Pegging'
p48
F0.0096179183135699994
s.