(dp1
S'crappymusic'
p2
F0.0074978204010500002
sS'FL_Studio'
p3
F0.0081261950286800003
sS'Hiphopcirclejerk'
p4
F0.0637126376508
sS'rapbattles'
p5
F0.0078740157480300006
sS'malefashion'
p6
F0.0101374570447
sS'supremeclothing'
p7
F0.0096458941490000002
sS'bestofworldstar'
p8
F0.017536021445300001
sS'hiphopheads'
p9
F0.016720121983300001
sS'indieheads'
p10
F0.012098110706
sS'blackpeoplegifs'
p11
F0.012525667351100001
sS'makinghiphop'
p12
F0.024905123339699999
sS'sneakermarket'
p13
F0.0077101002313000001
sS'Beatmatch'
p14
F0.0071499503475700001
sS'NotTimAndEric'
p15
F0.0075238095238099999
sS'realdubstep'
p16
F0.0108033240997
sS'OFWGKTA'
p17
F0.013852489704199999
sS'HipHopImages'
p18
F0.052097248196599999
sS'lewronggeneration'
p19
F0.0112600269045
sS'DJs'
p20
F0.0077940153096700002
sS'futurebeats'
p21
F0.014289997002099999
sS'trap'
p22
F0.027266845364600001
sS'Sneakers'
p23
F0.011358131022199999
sS'streetwear'
p24
F0.020199674947799999
sS'CannabisExtracts'
p25
F0.0070111659309300004
sS'Bombing'
p26
F0.0105048147067
s.