(dp1
S'delusionalartists'
p2
F0.0089053803339500005
sS'Heavymind'
p3
F0.0110748002905
sS'HipHopImages'
p4
F0.019150930762000001
sS'malehairadvice'
p5
F0.0078684466448599999
sS'PublicFreakout'
p6
F0.0086066711617000004
sS'electronic_cigarette'
p7
F0.0082933281809700003
sS'OFWGKTA'
p8
F0.010613020750799999
sS'rickandmorty'
p9
F0.0080118469015799994
sS'Hiphopcirclejerk'
p10
F0.010906189040599999
sS'whitepeoplegifs'
p11
F0.0098352594049699992
sS'mashups'
p12
F0.011348812940300001
sS'carporn'
p13
F0.011123548342
sS'Stance'
p14
F0.0123629577793
sS'MDMA'
p15
F0.0155811341943
sS'drunk'
p16
F0.0095766580148600004
sS'StonerEngineering'
p17
F0.010130401983
sS'GrandTheftAutoV'
p18
F0.0084316670242399992
sS'hiphopheads'
p19
F0.023963245073099999
sS'nononono'
p20
F0.0088682096556100005
sS'Frisson'
p21
F0.0085487379230100007
sS'electronicmusic'
p22
F0.066058251042699995
sS'jailbreak'
p23
F0.0076343387836199997
sS'JusticePorn'
p24
F0.0084772577455500004
sS'trees'
p25
F0.0093795219581899996
sS'realdubstep'
p26
F0.016552616978
sS'cringepics'
p27
F0.0080752212389400002
sS'DJs'
p28
F0.047848264961600002
sS'CrappyDesign'
p29
F0.00759264248451
sS'WeAreTheMusicMakers'
p30
F0.017826319861899999
sS'4chan'
p31
F0.0098831793213499993
sS'hardstyle'
p32
F0.0159264652348
sS'Monstercat'
p33
F0.015761094981299999
sS'montageparodies'
p34
F0.0123775696911
sS'minimalism'
p35
F0.0079486178630999993
sS'DeepIntoYouTube'
p36
F0.0115897758412
sS'cringe'
p37
F0.0111657730363
sS'perfectloops'
p38
F0.0070883610194299998
sS'see'
p39
F0.0094675235253600006
sS'dubstep'
p40
F0.054970375246900002
sS'skateboarding'
p41
F0.0090061549601699997
sS'festivals'
p42
F0.017581715016400001
sS'Cinemagraphs'
p43
F0.0072144544467900003
sS'firstworldanarchists'
p44
F0.0074680112258000003
sS'rawdenim'
p45
F0.0073089318600399996
sS'LSD'
p46
F0.011088709677399999
sS'frugalmalefashion'
p47
F0.0092300085157799999
sS'trapmuzik'
p48
F0.027266845364600001
sS'deadmau5'
p49
F0.017170162792599999
sS'breakingbad'
p50
F0.0079783073473399992
sS'malefashionadvice'
p51
F0.0099941271623899992
sS'LearnUselessTalents'
p52
F0.0073691967575499999
sS'glassheads'
p53
F0.0089550029603299997
sS'blackpeoplegifs'
p54
F0.0117010642677
sS'glitch_art'
p55
F0.0119400876077
sS'Beatmatch'
p56
F0.036310517529199997
sS'cars'
p57
F0.00852669581466
sS'FloridaMan'
p58
F0.00729549091594
sS'FiftyFifty'
p59
F0.0081377968635100006
sS'skrillex'
p60
F0.034246575342500002
sS'malelivingspace'
p61
F0.0076398535168600004
sS'NotTimAndEric'
p62
F0.010657494079200001
sS'GamePhysics'
p63
F0.0078465989897500005
sS'lewronggeneration'
p64
F0.011712602027699999
sS'youtubehaiku'
p65
F0.016515356384
sS'headphones'
p66
F0.0096255951769300008
sS'howtonotgiveafuck'
p67
F0.0078495801387400005
sS'wheredidthesodago'
p68
F0.0075146208383699998
sS'quityourbullshit'
p69
F0.0079114984914499999
sS'snowboarding'
p70
F0.0084796812010599996
sS'battlestations'
p71
F0.0082072480635700003
sS'holdmybeer'
p72
F0.0082627556289999998
sS'audioengineering'
p73
F0.010730253353200001
sS'shittyfoodporn'
p74
F0.0074057259597699997
sS'reactiongifs'
p75
F0.0085366740608699993
sS'Sneakers'
p76
F0.0143622389566
sS'malefashion'
p77
F0.0084655277608300002
sS'ContagiousLaughter'
p78
F0.0114659734472
sS'longboarding'
p79
F0.0084097178962399995
sS'CrazyIdeas'
p80
F0.0082896434355399992
sS'DnB'
p81
F0.0234146341463
sS'Drugs'
p82
F0.015745454545499998
sS'OutOfTheLoop'
p83
F0.0087024182484600008
sS'seduction'
p84
F0.0086201841318200006
sS'Autos'
p85
F0.00835708233844
sS'Techno'
p86
F0.0078520328040500003
sS'ifyoulikeblank'
p87
F0.0086048808012400002
sS'aves'
p88
F0.040970350404299999
sS'woahdude'
p89
F0.010625420309300001
sS'iOSthemes'
p90
F0.0075880991168699998
sS'makinghiphop'
p91
F0.020556690500500002
sS'ableton'
p92
F0.019578563132600001
sS'mildlyinfuriating'
p93
F0.0073619983385399997
sS'oddlysatisfying'
p94
F0.0084737330856999998
sS'Unexpected'
p95
F0.0084566919500900003
sS'Psychonaut'
p96
F0.0095020594592400004
sS'Shitty_Car_Mods'
p97
F0.0095077626669899992
sS'blunderyears'
p98
F0.0074204406364700003
sS'rage'
p99
F0.008219470538
sS'thatHappened'
p100
F0.0075926667811299997
sS'House'
p101
F0.018654230513000001
sS'interestingasfuck'
p102
F0.0077665629028700004
sS'EDM'
p103
F0.055790363482700001
sS'PerfectTiming'
p104
F0.0072329887181100004
sS'behindthegifs'
p105
F0.0070980182989399997
sS'CombatFootage'
p106
F0.0070876918564899997
sS'iphone'
p107
F0.0074749984724100001
sS'audiophile'
p108
F0.010413734871899999
sS'crappymusic'
p109
F0.0071379230946399998
sS'teenagers'
p110
F0.0087227312746600005
sS'FL_Studio'
p111
F0.0147446024223
sS'supremeclothing'
p112
F0.0097683321232900008
sS'bestofworldstar'
p113
F0.0124915389822
sS'southpark'
p114
F0.0074390282180900004
sS'asmr'
p115
F0.0074922310672199998
sS'trance'
p116
F0.014138158376700001
sS'bonnaroo'
p117
F0.0076000786214999996
sS'DaftPunk'
p118
F0.0127450346121
sS'saplings'
p119
F0.0071733459805499999
sS'nonononoyes'
p120
F0.0085665334094799997
sS'Whatcouldgowrong'
p121
F0.0079220746867300004
sS'wallpapers'
p122
F0.0085958280834399995
sS'notinteresting'
p123
F0.0078697160478000006
sS'edmproduction'
p124
F0.0508638446341
sS'CarAV'
p125
F0.0091607565011799993
sS'Frat'
p126
F0.0093766409121600006
sS'CannabisExtracts'
p127
F0.0102361677929
sS'futurebeats'
p128
F0.064694784249300002
sS'Graffiti'
p129
F0.0109341748
sS'listentothis'
p130
F0.0105519963504
sS'streetwear'
p131
F0.025530851861100001
sS'ImGoingToHellForThis'
p132
F0.0074270137873800003
sS'gainit'
p133
F0.0078274239388700009
sS'vaporents'
p134
F0.0086142322097400009
s.