(dp1
S'playstation'
p2
F0.0285749628897
sS'assassinscreed'
p3
F0.0082505563697599996
sS'PlayStationPlus'
p4
F0.052642980935900002
sS'thelastofusfactions'
p5
F0.0152229845626
sS'demonssouls'
p6
F0.0084057158868000009
sS'KingdomHearts'
p7
F0.0084010840108400004
sS'Megaten'
p8
F0.00818690095847
sS'gamecollecting'
p9
F0.0085066958645700005
sS'thelastofus'
p10
F0.020434990439799999
sS'PS3'
p11
F0.033208200981800003
sS'vita'
p12
F0.0277611344118
sS'JRPG'
p13
F0.0079740505473699999
sS'metalgearsolid'
p14
F0.0078898921714700004
sS'PS4'
p15
F0.013279932546399999
sS'gameswap'
p16
F0.0095926595301000003
s.