(dp1
S'TrueReddit'
p2
F0.0255055357306
sS'Heavymind'
p3
F0.0110586648685
sS'shield'
p4
F0.00803932909196
sS'photocritique'
p5
F0.00761315648605
sS'CityPorn'
p6
F0.011436814177500001
sS'PanicHistory'
p7
F0.00791697870975
sS'Poetry'
p8
F0.0093212933294499999
sS'inthenews'
p9
F0.0082119615742199999
sS'rickandmorty'
p10
F0.011156351791499999
sS'quotes'
p11
F0.0087272219507100006
sS'BuyItForLife'
p12
F0.010468300461
sS'london'
p13
F0.0073425870046299998
sS'everymanshouldknow'
p14
F0.0097024158364300006
sS'dataisbeautiful'
p15
F0.011323078645700001
sS'InternetIsBeautiful'
p16
F0.0087887006654500006
sS'japan'
p17
F0.0075606426546299997
sS'Foodforthought'
p18
F0.030185841658599999
sS'breakingbad'
p19
F0.012690494463299999
sS'DebateReligion'
p20
F0.0071965979718700002
sS'AskMen'
p21
F0.0075311319819899997
sS'literature'
p22
F0.038004196782499999
sS'TheoryOfReddit'
p23
F0.019761183989200001
sS'badlinguistics'
p24
F0.0083733278872700004
sS'quityourbullshit'
p25
F0.0089676523967099995
sS'audioengineering'
p26
F0.0074070069204199996
sS'editors'
p27
F0.017039825639
sS'Documentaries'
p28
F0.015477966776099999
sS'writing'
p29
F0.020149187197199998
sS'environment'
p30
F0.0095798707294600001
sS'Screenwriting'
p31
F0.0457001350743
sS'whowouldwin'
p32
F0.0080264278524800007
sS'woahdude'
p33
F0.0083897043182299992
sS'hiphopheads'
p34
F0.0105341354702
sS'ImaginaryMonsters'
p35
F0.0084340946409900003
sS'seinfeld'
p36
F0.011630558722899999
sS'PublicFreakout'
p37
F0.0097066712077999995
sS'scifi'
p38
F0.021038259844200002
sS'MensRights'
p39
F0.0075814791146199996
sS'nononono'
p40
F0.010422005809
sS'YMS'
p41
F0.016055949566599999
sS'beatles'
p42
F0.0082757443904099993
sS'arresteddevelopment'
p43
F0.0129210311736
sS'shutupandtakemymoney'
p44
F0.00806588554933
sS'moviescirclejerk'
p45
F0.029764705882399999
sS'horror'
p46
F0.020098649333900001
sS'JusticePorn'
p47
F0.0075451360819200003
sS'howto'
p48
F0.0078216203595599994
sS'AbandonedPorn'
p49
F0.0096802581402199994
sS'PandR'
p50
F0.0117196702002
sS'geek'
p51
F0.0096923461730899999
sS'spaceporn'
p52
F0.0091910831259799999
sS'lostgeneration'
p53
F0.0115544600216
sS'cringepics'
p54
F0.00723170378941
sS'Liberal'
p55
F0.0071052874411699999
sS'IndieGaming'
p56
F0.0070273342634199999
sS'VideoEditing'
p57
F0.0097817226700499995
sS'IWantToLearn'
p58
F0.0114312425633
sS'Sherlock'
p59
F0.010749974765299999
sS'Art'
p60
F0.0080543949671899994
sS'progressive'
p61
F0.0104616406509
sS'postrock'
p62
F0.0078452837073499995
sS'WatchItForThePlot'
p63
F0.0084097089334300001
sS'rage'
p64
F0.0085985284992500001
sS'conspiratard'
p65
F0.012780180888699999
sS'PropagandaPosters'
p66
F0.016059060811299999
sS'dvdcollection'
p67
F0.019884009942
sS'WeAreTheMusicMakers'
p68
F0.0093202435690300008
sS'comics'
p69
F0.012481107698299999
sS'Frisson'
p70
F0.016566265060200001
sS'architecture'
p71
F0.0076895943562599999
sS'Cyberpunk'
p72
F0.012393931602000001
sS'LearnUselessTalents'
p73
F0.0091104770486100002
sS'Libertarian'
p74
F0.0083236610844000004
sS'perfectloops'
p75
F0.0072118250089399996
sS'ArcherFX'
p76
F0.0085529760865800004
sS'cringe'
p77
F0.0106979572532
sS'MovieSuggestions'
p78
F0.031859846244799997
sS'YouShouldKnow'
p79
F0.012816028779900001
sS'StarWars'
p80
F0.0111463017726
sS'TrueAtheism'
p81
F0.012163336229399999
sS'whatisthisthing'
p82
F0.0077529480747899997
sS'glitch_art'
p83
F0.0101738364175
sS'EatCheapAndHealthy'
p84
F0.00757434424089
sS'NetflixBestOf'
p85
F0.0233320889553
sS'gentlemanboners'
p86
F0.0080494430184199998
sS'TheSimpsons'
p87
F0.0109917666235
sS'askphilosophy'
p88
F0.015441542731100001
sS'ShouldIbuythisgame'
p89
F0.0072307903528400002
sS'MST3K'
p90
F0.0084679007483300008
sS'Psychonaut'
p91
F0.0091538192011199997
sS'DCcomics'
p92
F0.0093075386189799998
sS'interestingasfuck'
p93
F0.00905753149918
sS'MarkMyWords'
p94
F0.010410641989599999
sS'xmen'
p95
F0.0074922873512599996
sS'changemyview'
p96
F0.017387334259099999
sS'classicalmusic'
p97
F0.013189683317
sS'OneY'
p98
F0.0085910652921000006
sS'radiohead'
p99
F0.011559330030699999
sS'CrappyDesign'
p100
F0.0093443588233800001
sS'HipHopImages'
p101
F0.0070832090665099998
sS'Cinemagraphs'
p102
F0.017288773148100001
sS'MorbidReality'
p103
F0.0108061280321
sS'firstworldanarchists'
p104
F0.0074354970629799998
sS'offbeat'
p105
F0.0154605543105
sS'no_sob_story'
p106
F0.0078861649237100002
sS'gameofthrones'
p107
F0.0099557120557599993
sS'humor'
p108
F0.011943943093699999
sS'psychology'
p109
F0.0130793119924
sS'movies'
p110
F0.011947095278400001
sS'skeptic'
p111
F0.014718540196199999
sS'lotr'
p112
F0.0098381312396999994
sS'tipofmytongue'
p113
F0.011167053077800001
sS'boardgames'
p114
F0.0074731285378100004
sS'wikipedia'
p115
F0.016863630328
sS'standupshots'
p116
F0.0118330982766
sS'socialskills'
p117
F0.0087176357771800005
sS'malefashionadvice'
p118
F0.0093902617954699993
sS'firstworldproblems'
p119
F0.0075485407500099997
sS'outside'
p120
F0.0075400168492000003
sS'GuessTheMovie'
p121
F0.0213356598985
sS'RoomPorn'
p122
F0.011386267209299999
sS'Astronomy'
p123
F0.0084006974163899992
sS'books'
p124
F0.010295935814799999
sS'vexillology'
p125
F0.0089313212195899997
sS'metalgearsolid'
p126
F0.0073111291632800002
sS'LetsTalkMusic'
p127
F0.032959101844399999
sS'StandUpComedy'
p128
F0.015724781981699999
sS'graphic_design'
p129
F0.0080705907672399997
sS'linguistics'
p130
F0.012918254976699999
sS'casualiama'
p131
F0.0074769246635400001
sS'FloridaMan'
p132
F0.00948572014562
sS'Metal'
p133
F0.0072387470386900002
sS'malelivingspace'
p134
F0.0076389871268900001
sS'answers'
p135
F0.0127898637342
sS'delusionalartists'
p136
F0.012479789814100001
sS'Frugal'
p137
F0.0082223089358400003
sS'baseball'
p138
F0.0074807480748099999
sS'vinyl'
p139
F0.0127450249683
sS'GamePhysics'
p140
F0.0079186730872100007
sS'Harmontown'
p141
F0.0088186839810099997
sS'lewronggeneration'
p142
F0.0144768761249
sS'worldbuilding'
p143
F0.0089585666293399997
sS'youtubehaiku'
p144
F0.012957937584799999
sS'sanfrancisco'
p145
F0.0078218669711700006
sS'RedditDayOf'
p146
F0.0140201890723
sS'netflix'
p147
F0.013866568713
sS'minimalism'
p148
F0.0130560194322
sS'privacy'
p149
F0.0073955208260699998
sS'punk'
p150
F0.0079102156716900004
sS'space'
p151
F0.0084213362976399992
sS'DeepIntoYouTube'
p152
F0.0119649805447
sS'4chan'
p153
F0.0074853393970400004
sS'howtonotgiveafuck'
p154
F0.0084154249789599993
sS'wheredidthesodago'
p155
F0.0083440085863699994
sS'bestof'
p156
F0.013320580645800001
sS'ukpolitics'
p157
F0.0083089905874700002
sS'whatstheword'
p158
F0.010332579916
sS'SubredditDrama'
p159
F0.0153295766293
sS'ANormalDayInRussia'
p160
F0.0076782030712799999
sS'QuotesPorn'
p161
F0.0146514375738
sS'circlebroke2'
p162
F0.0077274706138399998
sS'itookapicture'
p163
F0.0091141611729500006
sS'misc'
p164
F0.0071817945833699999
sS'Anticonsumption'
p165
F0.0085719668425000006
sS'confession'
p166
F0.0085124114530600002
sS'reactiongifs'
p167
F0.0078154555939999992
sS'patientgamers'
p168
F0.0117224343139
sS'community'
p169
F0.0156168662155
sS'printSF'
p170
F0.010985460420000001
sS'NotTimAndEric'
p171
F0.014075695964999999
sS'IdiotsFightingThings'
p172
F0.0080239144115799993
sS'Buddhism'
p173
F0.0086169216359700002
sS'startrek'
p174
F0.011622519113400001
sS'rpg'
p175
F0.0070186263545600003
sS'introvert'
p176
F0.0071342845712800002
sS'holdmybeer'
p177
F0.0073800738007400004
sS'AskScienceFiction'
p178
F0.0134321891098
sS'ContagiousLaughter'
p179
F0.0096560048279999994
sS'nostalgia'
p180
F0.0084014458302100001
sS'badhistory'
p181
F0.020183732314099999
sS'Damnthatsinteresting'
p182
F0.0079791315022200004
sS'HistoryPorn'
p183
F0.014835812865999999
sS'CrazyIdeas'
p184
F0.0130170668209
sS'OldSchoolCool'
p185
F0.0089634419617100006
sS'AskHistorians'
p186
F0.019500382360400002
sS'booksuggestions'
p187
F0.011851206888199999
sS'Bad_Cop_No_Donut'
p188
F0.0074173971679000004
sS'OutOfTheLoop'
p189
F0.0143570270501
sS'AskSocialScience'
p190
F0.016443167305199999
sS'onetruegod'
p191
F0.0084537572254300003
sS'TheWire'
p192
F0.013789505068599999
sS'analog'
p193
F0.010046367851599999
sS'Enhancement'
p194
F0.0079341317365300007
sS'Guitar'
p195
F0.0073140620996499997
sS'beer'
p196
F0.0086839390118100008
sS'IASIP'
p197
F0.0098873790514500005
sS'ifyoulikeblank'
p198
F0.019052044609699999
sS'alternativeart'
p199
F0.0083255458329799994
sS'Whatcouldgowrong'
p200
F0.0089315938858900001
sS'Standup'
p201
F0.012418404712600001
sS'California'
p202
F0.0074969400244800002
sS'Pareidolia'
p203
F0.0076297335203399999
sS'ObscureMedia'
p204
F0.0232255667038
sS'ArtisanVideos'
p205
F0.0099623186909600005
sS'truegaming'
p206
F0.022051282051300001
sS'explainlikeIAmA'
p207
F0.010144642973999999
sS'Infographics'
p208
F0.0074493675797300003
sS'DaystromInstitute'
p209
F0.0096064717283199999
sS'GODZILLA'
p210
F0.0084342892194400002
sS'batman'
p211
F0.011215334420899999
sS'mildlyinfuriating'
p212
F0.00700008805142
sS'cordcutters'
p213
F0.0094186146074200002
sS'madmen'
p214
F0.0209510048601
sS'Unexpected'
p215
F0.0083358189039399993
sS'indieheads'
p216
F0.0154857686651
sS'Awwducational'
p217
F0.0072152551108100003
sS'asoiaf'
p218
F0.0101435094586
sS'PoliticalHumor'
p219
F0.00751526538281
sS'polandball'
p220
F0.0074164914739499998
sS'NeutralPolitics'
p221
F0.013295171267700001
sS'Scotch'
p222
F0.0070907048581899997
sS'blunderyears'
p223
F0.0083947583947599994
sS'Marvel'
p224
F0.010603112840500001
sS'television'
p225
F0.0121603727147
sS'videography'
p226
F0.013050570962500001
sS'getdisciplined'
p227
F0.0088522588522600004
sS'calvinandhobbes'
p228
F0.0082719943918699995
sS'trackers'
p229
F0.0075204600752000004
sS'worldpolitics'
p230
F0.0121550461258
sS'science'
p231
F0.0085929894261799998
sS'typography'
p232
F0.0073260073260100001
sS'PerfectTiming'
p233
F0.00809511763218
sS'behindthegifs'
p234
F0.0083465818759899998
sS'BritishTV'
p235
F0.0113839495719
sS'socialism'
p236
F0.012773392781799999
sS'findareddit'
p237
F0.0084913846535300003
sS'acting'
p238
F0.0077664176169900002
sS'TheBluePill'
p239
F0.00759592287217
sS'Meditation'
p240
F0.0087014044372100002
sS'history'
p241
F0.0130291605021
sS'fullmoviesonyoutube'
p242
F0.022312639453999999
sS'gallifrey'
p243
F0.010549785197699999
sS'gamernews'
p244
F0.011148789891799999
sS'Design'
p245
F0.0115720411221
sS'Economics'
p246
F0.013222292390300001
sS'whitepeoplegifs'
p247
F0.0077386659361699996
sS'audiophile'
p248
F0.0081867181938400004
sS'badphilosophy'
p249
F0.011232691004199999
sS'Cooking'
p250
F0.0093640714154200003
sS'DecidingToBeBetter'
p251
F0.0092529342358600008
sS'TrueAskReddit'
p252
F0.027213933534
sS'FanTheories'
p253
F0.020018027491900001
sS'NoStupidQuestions'
p254
F0.011766069669
sS'PoliticalDiscussion'
p255
F0.015037993517199999
sS'conspiracy'
p256
F0.0082807844224199994
sS'photography'
p257
F0.010169657263000001
sS'politics'
p258
F0.0087805052516099994
sS'electronicmusic'
p259
F0.0090557663397500005
sS'AskCulinary'
p260
F0.010285887157799999
sS'ShitRedditSays'
p261
F0.0092739798622200002
sS'southpark'
p262
F0.0092343464540800002
sS'Ask_Politics'
p263
F0.0088961510530100006
sS'HouseOfCards'
p264
F0.0152077533766
sS'asmr'
p265
F0.0078038927653299997
sS'HighQualityGifs'
p266
F0.0080840743734800005
sS'entertainment'
p267
F0.0185399186052
sS'technology'
p268
F0.00703992689442
sS'travel'
p269
F0.00881085878813
sS'Jazz'
p270
F0.011970468066799999
sS'unitedkingdom'
p271
F0.0092962184873900001
sS'ImaginaryLandscapes'
p272
F0.0089156626506000005
sS'TheWayWeWere'
p273
F0.012777732562899999
sS'LosAngeles'
p274
F0.0105840846727
sS'animation'
p275
F0.0094629569718499996
sS'Feminism'
p276
F0.00901525658807
sS'britishproblems'
p277
F0.0081549757850299994
sS'UnresolvedMysteries'
p278
F0.0093528126706700007
sS'nottheonion'
p279
F0.0088805389568500006
sS'nyc'
p280
F0.0105613425926
sS'nonononoyes'
p281
F0.0088077812628700007
sS'tolkienfans'
p282
F0.0078131936429000001
sS'FutureWhatIf'
p283
F0.0072418417523499997
sS'wallpapers'
p284
F0.0073106283029899998
sS'BasicIncome'
p285
F0.0097362772155799998
sS'europe'
p286
F0.0092881801742600006
sS'Anarchism'
p287
F0.00982488972063
sS'MapPorn'
p288
F0.0115362816974
sS'notinteresting'
p289
F0.0070271921784299998
sS'forwardsfromgrandma'
p290
F0.0094509025611899996
sS'AnimalsBeingJerks'
p291
F0.0072321279786699997
sS'askscience'
p292
F0.00769046190762
sS'Futurology'
p293
F0.0099765868886600006
sS'philosophy'
p294
F0.0142119257924
sS'circlebroke'
p295
F0.020913557296500001
sS'Coffee'
p296
F0.0084524295630900009
sS'Games'
p297
F0.0103516292362
sS'EnoughLibertarianSpam'
p298
F0.0094043887147300005
sS'Gaming4Gamers'
p299
F0.0095311695002599991
sS'comicbookmovies'
p300
F0.0138116591928
sS'comicbooks'
p301
F0.015706112935700001
sS'marvelstudios'
p302
F0.011042790814400001
sS'Physics'
p303
F0.0085124723883399991
sS'frugalmalefashion'
p304
F0.0081455257174100001
sS'oddlysatisfying'
p305
F0.0077926506948600002
sS'futurebeats'
p306
F0.0116674145779
sS'HumanPorn'
p307
F0.012545004500499999
sS'TimAndEric'
p308
F0.0093834883529499997
sS'IWantOut'
p309
F0.0087319665907399993
sS'Fantasy'
p310
F0.0078415341162499999
sS'TumblrInAction'
p311
F0.00937706801184
sS'thatHappened'
p312
F0.0089634748272500002
sS'listentothis'
p313
F0.0117540687161
sS'HailCorporate'
p314
F0.0105529759392
sS'urbanexploration'
p315
F0.0077739471371600002
sS'Filmmakers'
p316
F0.044929337568499997
sS'self'
p317
F0.0118850568475
s.