(dp1
S'TrueAtheism'
p2
F0.011730205278599999
sS'badhistory'
p3
F0.0092451391536399995
sS'Catholicism'
p4
F0.0319770773639
sS'Christianity'
p5
F0.055509047588400001
sS'POLITIC'
p6
F0.0071637039002400002
sS'ShitPoliticsSays'
p7
F0.0084910237748700001
sS'askphilosophy'
p8
F0.0079423137213899993
sS'Reformed'
p9
F0.091196626251999993
sS'islam'
p10
F0.011129324475899999
sS'OrthodoxChristianity'
p11
F0.029395138496299999
sS'Israel'
p12
F0.00734629294756
sS'pornfree'
p13
F0.0112002212389
sS'ShitRConservativeSays'
p14
F0.0085127691537300008
sS'DebateReligion'
p15
F0.026594223620199999
sS'religion'
p16
F0.022085336538499999
sS'Republican'
p17
F0.0122734138973
sS'Judaism'
p18
F0.0152862267977
sS'badphilosophy'
p19
F0.0112984529811
sS'DebateAChristian'
p20
F0.057396523696399998
sS'DebateAnAtheist'
p21
F0.018644293514400001
sS'conservatives'
p22
F0.010477894198800001
sS'magicskyfairy'
p23
F0.0099318403115899994
sS'Conservative'
p24
F0.0182281458252
sS'Sidehugs'
p25
F0.0523486134692
sS'TheoryOfReddit'
p26
F0.0075208165458000003
sS'Libertarian'
p27
F0.0082518576456800004
s.