(dp1
S'breastfeeding'
p2
F0.042713955281399998
sS'weddingplanning'
p3
F0.011889562719400001
sS'ABraThatFits'
p4
F0.00986984815618
sS'wedding'
p5
F0.0108846981395
sS'Dogtraining'
p6
F0.0074579160451699999
sS'CrossStitch'
p7
F0.0074270557029200001
sS'breakingmom'
p8
F0.034214366790999998
sS'BabyBumps'
p9
F0.092871257029899998
sS'clothdiaps'
p10
F0.042194092826999999
sS'Parenting'
p11
F0.0145187372566
sS'xxfitness'
p12
F0.0081212777477000005
sS'daddit'
p13
F0.0072175817046499996
sS'InfertilityBabies'
p14
F0.032089291942799997
sS'TheGirlSurvivalGuide'
p15
F0.0088190491461599997
sS'bigboobproblems'
p16
F0.0074693755602000004
sS'knitting'
p17
F0.0087483845312699999
sS'quilting'
p18
F0.0079503105590100001
sS'birthcontrol'
p19
F0.0085409252668999999
sS'sewing'
p20
F0.0085333940152500006
sS'Mommit'
p21
F0.036028602860299998
sS'xxketo'
p22
F0.0122093023256
sS'namenerds'
p23
F0.085659081150700006
sS'curlyhair'
p24
F0.0076151335670299998
sS'crochet'
p25
F0.0118383060635
sS'beyondthebump'
p26
F0.047946076561099997
sS'infertility'
p27
F0.076748152359300006
sS'predaddit'
p28
F0.033422185769899998
sS'crafts'
p29
F0.0081440697407699995
s.