(dp1
S'occult'
p2
F0.0173913043478
sS'LucidDreaming'
p3
F0.0115120033694
sS'Wicca'
p4
F0.0079455164585699994
sS'furry'
p5
F0.0096082779009599995
sS'mylittlepony'
p6
F0.0085688121402400005
sS'conlangs'
p7
F0.0076809453471200001
sS'MLPLounge'
p8
F0.0120866907474
sS'ploungeafterdark'
p9
F0.00905349794239
sS'SCP'
p10
F0.0072090628218300003
s.