(dp1
S'wisconsin'
p2
F0.0091845254661799998
sS'minnesotavikings'
p3
F0.039918533604899997
sS'minnesota'
p4
F0.14983277591999999
sS'Minneapolis'
p5
F0.220048899756
sS'GreenBayPackers'
p6
F0.0089585666293399997
sS'wildhockey'
p7
F0.037549407114600003
s.