(dp1
S'yiff'
p2
F0.0095426719481500003
sS'bisexual'
p3
F0.0106872126258
sS'crossdressing'
p4
F0.0088336332406300008
sS'gaybears'
p5
F0.0182481751825
sS'Tgirls'
p6
F0.014283395552699999
sS'gaybrosgonemild'
p7
F0.039379474940300002
sS'Sissies'
p8
F0.023715415019799999
sS'AsianLadyboners'
p9
F0.014425694066399999
sS'gaymers'
p10
F0.0260291959527
sS'gay'
p11
F0.033542440148499997
sS'dirtykikpals'
p12
F0.0071720457009399998
sS'lgbt'
p13
F0.013309940105300001
sS'ladybonersgw'
p14
F0.020200847506799999
sS'bigdickproblems'
p15
F0.0077388365059600003
sS'penis'
p16
F0.051312792231100003
sS'gaybros'
p17
F0.021780503277600002
sS'ainbow'
p18
F0.014741244119199999
sS'traps'
p19
F0.0189873417722
sS'GoneWildCD'
p20
F0.0227808326787
sS'askgaybros'
p21
F0.022801302931600001
sS'GaybrosGoneWild'
p22
F0.095453973051300003
sS'LGBTeens'
p23
F0.0201672405312
sS'MassiveCock'
p24
F0.049356223175999997
sS'gaymersgonewild'
p25
F0.120320855615
sS'Pegging'
p26
F0.00762112139358
s.