(dp1
S'FancyFollicles'
p2
F0.019741871655299999
sS'awwwtf'
p3
F0.013062539142900001
sS'Heavymind'
p4
F0.0072155856650399997
sS'curlyhair'
p5
F0.010765661252900001
sS'DoesAnybodyElse'
p6
F0.0095978985653699996
sS'pettyrevenge'
p7
F0.011900793386200001
sS'malehairadvice'
p8
F0.0160666630358
sS'PublicFreakout'
p9
F0.0106832534068
sS'Shitty_Car_Mods'
p10
F0.00757186418611
sS'dadjokes'
p11
F0.0097347374516000007
sS'futurama'
p12
F0.0079621044144300001
sS'perfectloops'
p13
F0.0088557283313600004
sS'everymanshouldknow'
p14
F0.0080770316027100001
sS'breakingbad'
p15
F0.0084436263768399994
sS'carporn'
p16
F0.0076093591047800002
sS'BeardPorn'
p17
F0.0103620910467
sS'TalesFromRetail'
p18
F0.0078509549123799999
sS'NSFWFunny'
p19
F0.0080869139029599996
sS'TheBluePill'
p20
F0.0084752292164299997
sS'WouldYouRather'
p21
F0.0083402835696400005
sS'quityourbullshit'
p22
F0.014519979648500001
sS'LearnUselessTalents'
p23
F0.0104879160967
sS'MMFB'
p24
F0.0085220901547399999
sS'harrypotter'
p25
F0.0084033613445400005
sS'HistoryPorn'
p26
F0.0080880603793200001
sS'shittybattlestations'
p27
F0.0070996833925000002
sS'badtattoos'
p28
F0.013698630137
sS'woahdude'
p29
F0.0079101147010000004
sS'ImaginaryMonsters'
p30
F0.0073643058459900001
sS'MensRights'
p31
F0.0072760203603699997
sS'nononono'
p32
F0.0118224722315
sS'offmychest'
p33
F0.0096790424235999994
sS'Frisson'
p34
F0.0089434010476599993
sS'arresteddevelopment'
p35
F0.0072692561862099997
sS'childfree'
p36
F0.0081569300881700006
sS'whitepeoplegifs'
p37
F0.0131134020619
sS'foodhacks'
p38
F0.0090239848017099993
sS'AbandonedPorn'
p39
F0.0091915013964000009
sS'PandR'
p40
F0.0079967192946499999
sS'NoStupidQuestions'
p41
F0.011050239681300001
sS'cringepics'
p42
F0.0106848635568
sS'toosoon'
p43
F0.0091813312930399994
sS'beards'
p44
F0.011310299869600001
sS'PrettyGirlsUglyFaces'
p45
F0.025347506132499999
sS'tightdresses'
p46
F0.0093488422654600008
sS'IWantToLearn'
p47
F0.0070213467791299996
sS'firstimpression'
p48
F0.020498126515299999
sS'creepyPMs'
p49
F0.0151615906371
sS'IdiotsFightingThings'
p50
F0.0109585741811
sS'WatchItForThePlot'
p51
F0.011672704272299999
sS'Celebs'
p52
F0.011132100931
sS'freebies'
p53
F0.0075635850609399998
sS'redditgetsdrawn'
p54
F0.0105588631953
sS'CrappyDesign'
p55
F0.0112344194183
sS'ConfusedBoners'
p56
F0.010942528735599999
sS'SubredditDrama'
p57
F0.0078170125919400004
sS'minimalism'
p58
F0.0086475699496899993
sS'DeepIntoYouTube'
p59
F0.010114891979599999
sS'cringe'
p60
F0.0110458855813
sS'whatisthisthing'
p61
F0.0085550458715600002
sS'AskWomen'
p62
F0.010410111180999999
sS'NetflixBestOf'
p63
F0.0077093437245900004
sS'gentlemanboners'
p64
F0.012220447284300001
sS'Rateme'
p65
F0.020340573510300001
sS'tumblr'
p66
F0.011542074889299999
sS'interestingasfuck'
p67
F0.010346803275900001
sS'MarkMyWords'
p68
F0.0093746780673699993
sS'malegrooming'
p69
F0.0082692307692299998
sS'fatpeoplestories'
p70
F0.0122782642412
sS'EatCheapAndHealthy'
p71
F0.0072965771674500003
sS'Cinemagraphs'
p72
F0.0094593421851899995
sS'firstworldanarchists'
p73
F0.0104973690473
sS'offbeat'
p74
F0.0077016007248599996
sS'no_sob_story'
p75
F0.0094155844155800004
sS'DunderMifflin'
p76
F0.0079777589749799992
sS'Glitch_in_the_Matrix'
p77
F0.0084033613445400005
sS'shittyfoodporn'
p78
F0.012135295636499999
sS'ExpectationVsReality'
p79
F0.0177400968937
sS'socialskills'
p80
F0.011180548774500001
sS'malefashionadvice'
p81
F0.0071986439514200003
sS'firstworldproblems'
p82
F0.0101331659418
sS'outside'
p83
F0.0080690561080900003
sS'RandomActsofMakeup'
p84
F0.0086878370281600007
sS'RoomPorn'
p85
F0.011306532663299999
sS'randomsexiness'
p86
F0.0085013623978199993
sS'catpictures'
p87
F0.00833742030407
sS'lifehacks'
p88
F0.0089878318584099993
sS'disney'
p89
F0.0076970067196100002
sS'AsianLadyboners'
p90
F0.00710788185121
sS'tattoos'
p91
F0.0086717165445600007
sS'blackpeoplegifs'
p92
F0.0125581395349
sS'FloridaMan'
p93
F0.0082968156587800001
sS'casualiama'
p94
F0.0095777178796
sS'LetsNotMeet'
p95
F0.0095495694413799993
sS'transtimelines'
p96
F0.010445859872599999
sS'loseit'
p97
F0.0089739694115299994
sS'OkCupid'
p98
F0.0071066978193100004
sS'delusionalartists'
p99
F0.016100178890899999
sS'LadyBoners'
p100
F0.016815470232600001
sS'shittyaskscience'
p101
F0.0070537025382799998
sS'GamePhysics'
p102
F0.0088544548976200003
sS'lewronggeneration'
p103
F0.0117986478922
sS'youtubehaiku'
p104
F0.0088635527767600003
sS'ThriftStoreHauls'
p105
F0.013035901010800001
sS'SkincareAddiction'
p106
F0.0107421875
sS'4chan'
p107
F0.0077450070968000002
sS'piercing'
p108
F0.0082894395993400004
sS'Hair'
p109
F0.011267872360599999
sS'howtonotgiveafuck'
p110
F0.010021393987200001
sS'sixwordstories'
p111
F0.0072652968554900001
sS'AnimalsBeingBros'
p112
F0.0139319865746
sS'classic4chan'
p113
F0.0086883876357600007
sS'OnOff'
p114
F0.0082227910945600006
sS'OutOfTheLoop'
p115
F0.0096900525903499991
sS'amiugly'
p116
F0.021944543615399999
sS'QuotesPorn'
p117
F0.00973773045962
sS'bigdickproblems'
p118
F0.0074960357503200004
sS'drunk'
p119
F0.0084901175032299995
sS'confession'
p120
F0.0132074863898
sS'reactiongifs'
p121
F0.0088136938162400001
sS'AntiJokes'
p122
F0.0070928604759699998
sS'findareddit'
p123
F0.0097030714233600004
sS'NotTimAndEric'
p124
F0.0074577758280300003
sS'rant'
p125
F0.0087195600942699993
sS'TrollXChromosomes'
p126
F0.0119013454429
sS'holdmybeer'
p127
F0.010408712775799999
sS'ContagiousLaughter'
p128
F0.0109430503037
sS'femalefashionadvice'
p129
F0.0101137269713
sS'nostalgia'
p130
F0.0124893556628
sS'Damnthatsinteresting'
p131
F0.0119249702937
sS'FiftyFifty'
p132
F0.011260251575600001
sS'CrazyIdeas'
p133
F0.0104489644053
sS'OldSchoolCool'
p134
F0.0076456947847400002
sS'Bad_Cop_No_Donut'
p135
F0.0070595457335800001
sS'ANormalDayInRussia'
p136
F0.0091895851368399995
sS'seduction'
p137
F0.0077271516120400001
sS'onetruegod'
p138
F0.0083107339690299993
sS'TheFacebookDelusion'
p139
F0.0079512035726000008
sS'MorbidReality'
p140
F0.0118797537124
sS'gif'
p141
F0.011206640972399999
sS'wheredidthesodago'
p142
F0.010600840495199999
sS'PenmanshipPorn'
p143
F0.013409227737900001
sS'shittyreactiongifs'
p144
F0.0123727623728
sS'misleadingthumbnails'
p145
F0.0139869729174
sS'shittyadvice'
p146
F0.0071003963011900002
sS'raisedbynarcissists'
p147
F0.0072495446265899996
sS'confessions'
p148
F0.0091009376723699999
sS'Pareidolia'
p149
F0.011462810993900001
sS'happy'
p150
F0.0141124586549
sS'fatlogic'
p151
F0.0131784677239
sS'TrollYChromosome'
p152
F0.012471395881
sS'explainlikeIAmA'
p153
F0.0072817414207100003
sS'alternativeart'
p154
F0.0097357440890100001
sS'MakeupAddiction'
p155
F0.0118171362852
sS'batman'
p156
F0.0073366760064899998
sS'snackexchange'
p157
F0.0071362085014000003
sS'mildlyinfuriating'
p158
F0.011523061405399999
sS'somethingimade'
p159
F0.0090848431966299992
sS'Unexpected'
p160
F0.012119028512499999
sS'ladybonersgw'
p161
F0.00802472212531
sS'Awwducational'
p162
F0.013235294117600001
sS'TheGirlSurvivalGuide'
p163
F0.0090654579389399994
sS'shittyaskreddit'
p164
F0.0070130698119200002
sS'AskMen'
p165
F0.0093140254266099991
sS'ghettoglamourshots'
p166
F0.0158054135908
sS'blunderyears'
p167
F0.036715246636800002
sS'Random_Acts_Of_Amazon'
p168
F0.00704427832087
sS'showerbeer'
p169
F0.010211393765700001
sS'rage'
p170
F0.013527501999700001
sS'comics'
p171
F0.0078612299603100008
sS'popping'
p172
F0.012067723342900001
sS'Perfectfit'
p173
F0.010671372153599999
sS'PerfectTiming'
p174
F0.013590675286700001
sS'behindthegifs'
p175
F0.011602538675099999
sS'standupshots'
p176
F0.010144873282699999
sS'introvert'
p177
F0.0077926208651399997
sS'cats'
p178
F0.0078344986112400001
sS'BustyPetite'
p179
F0.0083857442347999994
sS'AmISexy'
p180
F0.023274185707299999
sS'ICanDrawThat'
p181
F0.0070195255768899997
sS'fullmoviesonyoutube'
p182
F0.0081864586343099992
sS'watchpeopledie'
p183
F0.00985434585296
sS'FoodPorn'
p184
F0.0084102324494800002
sS'crappymusic'
p185
F0.007066741447
sS'awesome'
p186
F0.0101447847927
sS'teenagers'
p187
F0.010202653039800001
sS'bigboobproblems'
p188
F0.0082402688929799992
sS'celebnsfw'
p189
F0.0082881032712300001
sS'YouShouldKnow'
p190
F0.0075346992729699996
sS'bestofworldstar'
p191
F0.0083551769331599995
sS'shorthairedhotties'
p192
F0.0137872819358
sS'Pizza'
p193
F0.0072530220925400004
sS'TalesFromYourServer'
p194
F0.0070971333147800001
sS'hardbodies'
p195
F0.0096305770822400008
sS'ForeverAlone'
p196
F0.0109491374371
sS'MURICA'
p197
F0.0084574370288700001
sS'eatsandwiches'
p198
F0.0070821529745000002
sS'HighQualityGifs'
p199
F0.0088586280108399994
sS'self'
p200
F0.0091769678371900008
sS'shittyama'
p201
F0.0092638137399600005
sS'RealGirls'
p202
F0.0079084480833599997
sS'ImaginaryLandscapes'
p203
F0.0075591804257
sS'Hotchickswithtattoos'
p204
F0.0072869955157000002
sS'TheWayWeWere'
p205
F0.0104955091331
sS'transpassing'
p206
F0.0074267782426800004
sS'Gore'
p207
F0.0074935769340600004
sS'RedditLaqueristas'
p208
F0.0121920499773
sS'itookapicture'
p209
F0.0097497434278000002
sS'nonononoyes'
p210
F0.0114523506552
sS'Frugal_Jerk'
p211
F0.0072992700729900004
sS'Whatcouldgowrong'
p212
F0.010855949895600001
sS'wallpapers'
p213
F0.0075221238938100003
sS'JusticePorn'
p214
F0.0092064333440300006
sS'Baking'
p215
F0.00726426405247
sS'notinteresting'
p216
F0.011176295856200001
sS'facepalm'
p217
F0.0114371364799
sS'forwardsfromgrandma'
p218
F0.010731446876699999
sS'AnimalsBeingJerks'
p219
F0.012164475361499999
sS'girlsinyogapants'
p220
F0.0086351643079900006
sS'progresspics'
p221
F0.020998206183399998
sS'dogpictures'
p222
F0.0083315830007700004
sS'cosplay'
p223
F0.0097691709172599995
sS'thesims'
p224
F0.0080100424412699999
sS'oddlysatisfying'
p225
F0.0110613548376
sS'short'
p226
F0.0111283143023
sS'cosplaygirls'
p227
F0.0117639369976
sS'HumanPorn'
p228
F0.017449839879699999
sS'GetMotivated'
p229
F0.0071120345213400004
sS'terriblefacebookmemes'
p230
F0.015258320692400001
sS'PrettyGirls'
p231
F0.017623974313200001
sS'TumblrInAction'
p232
F0.0086964352334299999
sS'thatHappened'
p233
F0.0127127460364
sS'EmmaWatson'
p234
F0.0084494382022499998
sS'tall'
p235
F0.012731481481500001
sS'ImGoingToHellForThis'
p236
F0.0089799902391399997
sS'gainit'
p237
F0.0071996313788700002
sS'drawing'
p238
F0.0087298659781100008
sS'shutupandtakemymoney'
p239
F0.0074679775015400003
s.