(dp1
S'hcfactions'
p2
F0.0088137208194400008
sS'mindcrackcirclejerk'
p3
F0.035752979414999997
sS'mindcrack'
p4
F0.019548431238399999
sS'playmindcrack'
p5
F0.027067033199400001
sS'FreeKarma'
p6
F0.00853503184713
sS'ultrahardcore'
p7
F0.149718449818
s.