(dp1
S'uhccourtroom'
p2
F0.149718449818
sS'mcservers'
p3
F0.016862359695900001
sS'hcfactions'
p4
F0.0092656142759099999
sS'feedthebeast'
p5
F0.0075063320285500001
sS'mindcrackcirclejerk'
p6
F0.0261547572049
sS'mindcrack'
p7
F0.052297998517400003
sS'playmindcrack'
p8
F0.037961954244500003
sS'minecraftsuggestions'
p9
F0.015223660385000001
sS'admincraft'
p10
F0.0093773760243299996
sS'Minecraft'
p11
F0.012889808609000001
s.