(dp1
S'madmen'
p2
F0.0085041861691600006
sS'FancyFollicles'
p3
F0.0077425108435699996
sS'awwwtf'
p4
F0.010700389105099999
sS'NoStupidQuestions'
p5
F0.013863297359
sS'Justrolledintotheshop'
p6
F0.0086177806619099993
sS'DoesAnybodyElse'
p7
F0.0087098009188400008
sS'pettyrevenge'
p8
F0.0150990485104
sS'AskSocialScience'
p9
F0.0078288942695699994
sS'CityPorn'
p10
F0.00758835758836
sS'Shitty_Car_Mods'
p11
F0.0073658365485799997
sS'inthenews'
p12
F0.0096480822459500005
sS'Conservative'
p13
F0.0084360476863999997
sS'dadjokes'
p14
F0.0084805416820299996
sS'BuyItForLife'
p15
F0.0110889565187
sS'futurama'
p16
F0.0078589924135699998
sS'perfectloops'
p17
F0.0089675230247200002
sS'everymanshouldknow'
p18
F0.010942429022100001
sS'Pets'
p19
F0.0080783353733200006
sS'InternetIsBeautiful'
p20
F0.0090311253942699996
sS'Foodforthought'
p21
F0.0115403109473
sS'relationships'
p22
F0.0072176230295599997
sS'TalesFromRetail'
p23
F0.013010497639800001
sS'AskMen'
p24
F0.0072736504012099997
sS'TrueReddit'
p25
F0.0138718333561
sS'TheoryOfReddit'
p26
F0.0095173351461600008
sS'TheBluePill'
p27
F0.011256041846000001
sS'IASIP'
p28
F0.0085054028030399995
sS'quityourbullshit'
p29
F0.022073529946500001
sS'LearnUselessTalents'
p30
F0.0097875145798500002
sS'ProtectAndServe'
p31
F0.010463378176399999
sS'writing'
p32
F0.0104364326376
sS'HistoryPorn'
p33
F0.0178757665512
sS'booksuggestions'
p34
F0.0091290763522699995
sS'whowouldwin'
p35
F0.00739760161969
sS'woahdude'
p36
F0.0085621695377800008
sS'Fallout'
p37
F0.0076329022988499999
sS'ImaginaryMonsters'
p38
F0.0075199392328100002
sS'seinfeld'
p39
F0.0071714990746500002
sS'PublicFreakout'
p40
F0.014129542410200001
sS'Gore'
p41
F0.0099752168525400007
sS'MensRights'
p42
F0.0095857884091100007
sS'nononono'
p43
F0.0132450331126
sS'MilitaryPorn'
p44
F0.0079317389736800002
sS'Anxiety'
p45
F0.0099264415091400004
sS'arresteddevelopment'
p46
F0.0076035990368799999
sS'childfree'
p47
F0.0120347739999
sS'popping'
p48
F0.0098280098280099995
sS'Random_Acts_Of_Amazon'
p49
F0.0074654721911199999
sS'reactiongifs'
p50
F0.0075165030232400001
sS'horror'
p51
F0.016538139923799999
sS'JusticePorn'
p52
F0.0124565311889
sS'UpliftingNews'
p53
F0.010727988074600001
sS'AbandonedPorn'
p54
F0.017852411234800001
sS'PandR'
p55
F0.0071377587437500001
sS'geek'
p56
F0.00741881739021
sS'spaceporn'
p57
F0.0106070748159
sS'tipofmytongue'
p58
F0.0115252743621
sS'lostgeneration'
p59
F0.0083737674127399991
sS'cringepics'
p60
F0.0102904169666
sS'toosoon'
p61
F0.0086837950337300008
sS'Military'
p62
F0.0075619864756800003
sS'thewalkingdead'
p63
F0.0081912546813299996
sS'homestead'
p64
F0.0076654458734300001
sS'occult'
p65
F0.0089216110870500003
sS'IWantToLearn'
p66
F0.0088662354906399992
sS'creepyPMs'
p67
F0.015457197839699999
sS'progressive'
p68
F0.0079465719841099996
sS'IdiotsFightingThings'
p69
F0.0125406905384
sS'WatchItForThePlot'
p70
F0.0080530071355799995
sS'techsupportgore'
p71
F0.0083939953328000007
sS'freebies'
p72
F0.011458408876600001
sS'PropagandaPosters'
p73
F0.0110339506173
sS'SCP'
p74
F0.0100874843778
sS'NewsOfTheWeird'
p75
F0.0123186966024
sS'comics'
p76
F0.0075406315583999997
sS'Frisson'
p77
F0.0096596652813699998
sS'Enhancement'
p78
F0.0081604636973800007
sS'Cyberpunk'
p79
F0.0083514887436499999
sS'Libertarian'
p80
F0.0081227436823100001
sS'DeepIntoYouTube'
p81
F0.012309813383200001
sS'cringe'
p82
F0.0105109851649
sS'secretsanta'
p83
F0.0076528957779399996
sS'YouShouldKnow'
p84
F0.0148599637316
sS'StarWars'
p85
F0.0073177990581399996
sS'TrueAtheism'
p86
F0.0087162824281800007
sS'whatisthisthing'
p87
F0.019999116061200001
sS'AskWomen'
p88
F0.0086161913125399996
sS'NetflixBestOf'
p89
F0.0140957446809
sS'TheSimpsons'
p90
F0.0084660096032300007
sS'Christianity'
p91
F0.0074282925771299996
sS'tumblr'
p92
F0.0073944663389300001
sS'RandomKindness'
p93
F0.0083338889259300004
sS'interestingasfuck'
p94
F0.0131081257337
sS'MarkMyWords'
p95
F0.011651469098299999
sS'changemyview'
p96
F0.0119762755684
sS'TwoXChromosomes'
p97
F0.0077773884428500003
sS'fatpeoplestories'
p98
F0.011163744983899999
sS'watchpeopledie'
p99
F0.015339983308799999
sS'Baking'
p100
F0.0075878105494999997
sS'KarmaCourt'
p101
F0.00807722616233
sS'tifu'
p102
F0.0072502097057700002
sS'Feminism'
p103
F0.0074159314665599996
sS'firstworldanarchists'
p104
F0.0088398341906800008
sS'offbeat'
p105
F0.0155116265783
sS'no_sob_story'
p106
F0.0078802206461800004
sS'femalefashionadvice'
p107
F0.0078310940498999993
sS'humor'
p108
F0.0086844644580300005
sS'psychology'
p109
F0.0098471576149299998
sS'space'
p110
F0.0090367562445000001
sS'skeptic'
p111
F0.017399267399299999
sS'shittyfoodporn'
p112
F0.011031406353600001
sS'wikipedia'
p113
F0.0174881836597
sS'ExpectationVsReality'
p114
F0.013913685895500001
sS'breakingbad'
p115
F0.0090734121528700008
sS'firstworldproblems'
p116
F0.0085703791372500008
sS'outside'
p117
F0.0084778255868399998
sS'AskCulinary'
p118
F0.00774009573276
sS'RoomPorn'
p119
F0.010006554511699999
sS'foodhacks'
p120
F0.0100798268164
sS'catpictures'
p121
F0.0072733150153499997
sS'lifehacks'
p122
F0.0113086332835
sS'beermoney'
p123
F0.0072169811320799996
sS'Astronomy'
p124
F0.0084038111551200008
sS'books'
p125
F0.0081902148485799992
sS'vexillology'
p126
F0.0101433848851
sS'SubredditDrama'
p127
F0.016535858764800002
sS'europe'
p128
F0.0071843430867899998
sS'LosAngeles'
p129
F0.0078550564458800005
sS'bestof'
p130
F0.012675789242500001
sS'jobs'
p131
F0.0071831141562599997
sS'linguistics'
p132
F0.0075016074873199999
sS'casualiama'
p133
F0.0115773236971
sS'Whatisthis'
p134
F0.0085728693898100006
sS'LetsNotMeet'
p135
F0.029311211664200001
sS'legaladvice'
p136
F0.0097743808333900003
sS'loseit'
p137
F0.0088677597749100001
sS'Random_Acts_Of_Pizza'
p138
F0.0071556350626100001
sS'delusionalartists'
p139
F0.0170606372045
sS'nostalgia'
p140
F0.011657775143300001
sS'lgbt'
p141
F0.0076100658294000001
sS'promos'
p142
F0.0085593815881899998
sS'LadyBoners'
p143
F0.0094795402972000006
sS'shittyaskscience'
p144
F0.0087230975694600008
sS'news'
p145
F0.0077861117305700004
sS'doctorwho'
p146
F0.0073225016692600002
sS'whatsthisplant'
p147
F0.0071504237288099997
sS'lewronggeneration'
p148
F0.011062992125999999
sS'howto'
p149
F0.0087724497658699992
sS'worldbuilding'
p150
F0.0081111741349999995
sS'Unexpected'
p151
F0.0108214849921
sS'LifeProTips'
p152
F0.0085259053809799996
sS'ThriftStoreHauls'
p153
F0.0106408706167
sS'RedditDayOf'
p154
F0.0085331166192599995
sS'Frugal'
p155
F0.010950952073800001
sS'WarshipPorn'
p156
F0.00717881013285
sS'minimalism'
p157
F0.0087736028990999994
sS'recipes'
p158
F0.0093139804264600005
sS'privacy'
p159
F0.0070247640672699996
sS'Roadcam'
p160
F0.0093974175035899995
sS'creepy'
p161
F0.013466743368
sS'Paranormal'
p162
F0.030882434918299999
sS'PanicHistory'
p163
F0.0071357997584800001
sS'nosleep'
p164
F0.0105419367484
sS'4chan'
p165
F0.0080003492649100005
sS'howtonotgiveafuck'
p166
F0.0083174666800300001
sS'wheredidthesodago'
p167
F0.011524450049000001
sS'AnimalsBeingBros'
p168
F0.011507671781199999
sS'confession'
p169
F0.014354211272300001
sS'classic4chan'
p170
F0.0103458049887
sS'whatstheword'
p171
F0.0082176021037099999
sS'OutOfTheLoop'
p172
F0.017225436012099998
sS'AskUK'
p173
F0.0071977355438699996
sS'slowcooking'
p174
F0.0116611137554
sS'whatsthisbug'
p175
F0.0094061799481300005
sS'QuotesPorn'
p176
F0.0096153846153799998
sS'ShitAmericansSay'
p177
F0.0084326306141199996
sS'misc'
p178
F0.0079624878350899996
sS'drunk'
p179
F0.0073306370070799999
sS'Assistance'
p180
F0.010434485118000001
sS'AmIFreeToGo'
p181
F0.00789497028298
sS'Scotland'
p182
F0.0081535373808300001
sS'patientgamers'
p183
F0.0078715222800299998
sS'findareddit'
p184
F0.011743907059000001
sS'NotTimAndEric'
p185
F0.0092943854324699995
sS'rant'
p186
F0.0085923340269900006
sS'conspiratard'
p187
F0.021168798595399999
sS'Health'
p188
F0.0079452775585399996
sS'Documentaries'
p189
F0.0134471888592
sS'EarthPorn'
p190
F0.0070027334807900004
sS'TrollXChromosomes'
p191
F0.0083425306758399993
sS'holdmybeer'
p192
F0.011324944485599999
sS'gardening'
p193
F0.0084486855504799993
sS'ContagiousLaughter'
p194
F0.010034637326799999
sS'harrypotter'
p195
F0.0076560499141799998
sS'ainbow'
p196
F0.0073442804683699998
sS'badhistory'
p197
F0.014849471114700001
sS'Damnthatsinteresting'
p198
F0.0111098162607
sS'FiftyFifty'
p199
F0.0077573346593699999
sS'CrazyIdeas'
p200
F0.0137014255313
sS'OldSchoolCool'
p201
F0.0098839201576300002
sS'AskHistorians'
p202
F0.014963485011
sS'TinyHouses'
p203
F0.0098203410475000003
sS'Bad_Cop_No_Donut'
p204
F0.014726055031099999
sS'ANormalDayInRussia'
p205
F0.0126737530662
sS'EatCheapAndHealthy'
p206
F0.0113391540991
sS'TheFacebookDelusion'
p207
F0.0074870078393399998
sS'GamePhysics'
p208
F0.0090642640034699993
sS'MorbidReality'
p209
F0.029466016017199999
sS'cats'
p210
F0.0093757483099700008
sS'PenmanshipPorn'
p211
F0.0073973136071600002
sS'ifyoulikeblank'
p212
F0.0070790058388900002
sS'misleadingthumbnails'
p213
F0.0079577172041099993
sS'ketorecipes'
p214
F0.0071818795653999998
sS'raisedbynarcissists'
p215
F0.0124206739743
sS'confessions'
p216
F0.0091243674283099999
sS'Pareidolia'
p217
F0.0114771883744
sS'dogs'
p218
F0.0098096632503700005
sS'ObscureMedia'
p219
F0.013460090361399999
sS'CombatFootage'
p220
F0.010899034811800001
sS'fatlogic'
p221
F0.011569204880099999
sS'explainlikeIAmA'
p222
F0.0095054506780099992
sS'collapse'
p223
F0.0074041034790399999
sS'FloridaMan'
p224
F0.016150951285799998
sS'MakeupAddiction'
p225
F0.0080011112654500005
sS'shortscarystories'
p226
F0.0079656862745099994
sS'bestofworldstar'
p227
F0.0091909204846099997
sS'snackexchange'
p228
F0.0073510773130500001
sS'mildlyinfuriating'
p229
F0.010358942530800001
sS'cordcutters'
p230
F0.0080362929358399997
sS'somethingimade'
p231
F0.0090073444500900005
sS'Awwducational'
p232
F0.0106649571653
sS'TheGirlSurvivalGuide'
p233
F0.0089701770736300007
sS'UFOs'
p234
F0.020132759501099998
sS'ghettoglamourshots'
p235
F0.0113529595991
sS'blunderyears'
p236
F0.0137225548902
sS'EDC'
p237
F0.0070863024544699999
sS'television'
p238
F0.0086228373702399996
sS'rage'
p239
F0.0151151577673
sS'worldpolitics'
p240
F0.0099732716320300001
sS'science'
p241
F0.0097657572270000003
sS'AMA'
p242
F0.0084204656350200004
sS'Flipping'
p243
F0.0080357819725600001
sS'Perfectfit'
p244
F0.00730030477
sS'PerfectTiming'
p245
F0.0111961027307
sS'behindthegifs'
p246
F0.0088890874167999994
sS'standupshots'
p247
F0.0084359009818800006
sS'socialism'
p248
F0.0072371221796500001
sS'happy'
p249
F0.0071847230100200001
sS'TrueFilm'
p250
F0.0093528126706700007
sS'Glitch_in_the_Matrix'
p251
F0.030312960838900001
sS'history'
p252
F0.012838972882199999
sS'fullmoviesonyoutube'
p253
F0.0143465098934
sS'gallifrey'
p254
F0.0079155672823200008
sS'C25K'
p255
F0.0071163366336600004
sS'AskScienceFiction'
p256
F0.0105411444671
sS'NewsOfTheStupid'
p257
F0.012117287947499999
sS'Economics'
p258
F0.0071304072254800002
sS'Cooking'
p259
F0.0083210059171600001
sS'DecidingToBeBetter'
p260
F0.0095244102434699999
sS'TrueAskReddit'
p261
F0.012694748990200001
sS'FanTheories'
p262
F0.017928738936399999
sS'oddlysatisfying'
p263
F0.0098834914806399995
sS'PoliticalDiscussion'
p264
F0.0100171416327
sS'conspiracy'
p265
F0.018040331646999998
sS'TheWayWeWere'
p266
F0.015063249001300001
sS'DIY'
p267
F0.0076879713863599996
sS'AmericanHorrorStory'
p268
F0.0107128380335
sS'politics'
p269
F0.0086429185369100003
sS'ShitRedditSays'
p270
F0.0074606801989499996
sS'SkincareAddiction'
p271
F0.0089841595082400007
sS'SRSsucks'
p272
F0.0083355740790499993
sS'TalesFromYourServer'
p273
F0.011537527325700001
sS'asmr'
p274
F0.0078465967127899997
sS'techsupportmacgyver'
p275
F0.0071223120120500003
sS'MURICA'
p276
F0.0082959395863000003
sS'HighQualityGifs'
p277
F0.0070653545293999998
sS'technology'
p278
F0.0070779275603000003
sS'Survival'
p279
F0.0088357181953200008
sS'unitedkingdom'
p280
F0.0092235318991499993
sS'answers'
p281
F0.0115088739475
sS'Parenting'
p282
F0.0100408850409
sS'guns'
p283
F0.0080693832845299997
sS'badtattoos'
p284
F0.0107708279263
sS'scifi'
p285
F0.0112401300511
sS'britishproblems'
p286
F0.0089173178724500004
sS'RedditLaqueristas'
p287
F0.0088315217391300004
sS'nottheonion'
p288
F0.010667286986599999
sS'nyc'
p289
F0.0077510917030599999
sS'nonononoyes'
p290
F0.0115259012614
sS'Frugal_Jerk'
p291
F0.00749706440249
sS'FutureWhatIf'
p292
F0.0102686348217
sS'Sherlock'
p293
F0.00738477209065
sS'talesfromtechsupport'
p294
F0.0086488606161000004
sS'TalesFromThePizzaGuy'
p295
F0.0091933079343999996
sS'MapPorn'
p296
F0.010623463359099999
sS'notinteresting'
p297
F0.0079492890183300007
sS'facepalm'
p298
F0.0118560272075
sS'forwardsfromgrandma'
p299
F0.0145589083221
sS'AnimalsBeingJerks'
p300
F0.0122927290534
sS'askscience'
p301
F0.0080893682588600007
sS'Futurology'
p302
F0.0084953353833299994
sS'CrappyDesign'
p303
F0.0126127523197
sS'circlebroke'
p304
F0.010553032327
sS'budgetfood'
p305
F0.0088352796558099998
sS'netflix'
p306
F0.0095713691219300005
sS'Whatcouldgowrong'
p307
F0.014493135524
sS'CampingandHiking'
p308
F0.0070311731733699997
sS'law'
p309
F0.0082366423148500009
sS'whitepeoplegifs'
p310
F0.0078718216649299993
sS'startrek'
p311
F0.0084320963668199998
sS'thesims'
p312
F0.0076711459104900001
sS'truegaming'
p313
F0.0086634013759499997
sS'Thetruthishere'
p314
F0.0296170533862
sS'urbanexploration'
p315
F0.0143914758182
sS'offmychest'
p316
F0.0114896580183
sS'dataisbeautiful'
p317
F0.0087837269900000008
sS'entertainment'
p318
F0.0087653014961499992
sS'HumanPorn'
p319
F0.0112218741099
sS'IWantOut'
p320
F0.0083520719563100008
sS'atheism'
p321
F0.0070082908538899999
sS'preppers'
p322
F0.0079386558412299999
sS'TumblrInAction'
p323
F0.0114583333333
sS'thatHappened'
p324
F0.0148059463235
sS'crafts'
p325
F0.0072220981311900004
sS'HailCorporate'
p326
F0.0112464183381
sS'ImGoingToHellForThis'
p327
F0.0082234395076799995
sS'self'
p328
F0.011550749569899999
sS'shutupandtakemymoney'
p329
F0.0092338086239500006
s.