(dp1
S'canada'
p2
F0.0087403598971699994
sS'toronto'
p3
F0.031479625918500002
sS'ontario'
p4
F0.0137584978958
sS'CanadaPolitics'
p5
F0.0088349805330900002
sS'uwaterloo'
p6
F0.011794592632899999
sS'torontoraptors'
p7
F0.011713735558399999
sS'Torontobluejays'
p8
F0.0106477373558
sS'leafs'
p9
F0.010685884691800001
sS'PersonalFinanceCanada'
p10
F0.0073696145124699996
s.