(dp1
S'badhistory'
p2
F0.0080780218697700003
sS'TrueReddit'
p3
F0.0095252571312799995
sS'wikipedia'
p4
F0.0085878793793299994
sS'CityPorn'
p5
F0.029004845845900001
sS'TrueAskReddit'
p6
F0.0081115566897599998
sS'SelfDrivingCars'
p7
F0.0154650402962
sS'PoliticalDiscussion'
p8
F0.0092195540308700006
sS'dataisbeautiful'
p9
F0.0078349712368200007
sS'Infographics'
p10
F0.010225981568
sS'spacex'
p11
F0.0072696770585799998
sS'BasicIncome'
p12
F0.0134884296498
sS'Foodforthought'
p13
F0.0132733889959
sS'oakland'
p14
F0.0089864158829700003
sS'SimCity'
p15
F0.0125112859538
sS'linguistics'
p16
F0.011117107393399999
sS'NeutralPolitics'
p17
F0.011304201113499999
sS'gis'
p18
F0.026229508196699999
sS'AskHistorians'
p19
F0.0080612656187000007
sS'badlinguistics'
p20
F0.0080329557157599995
sS'AskSocialScience'
p21
F0.016120576671
sS'InteriorDesign'
p22
F0.0088637435172100008
sS'Anticonsumption'
p23
F0.0120183810534
sS'RoomPorn'
p24
F0.0085601404740999996
sS'environment'
p25
F0.016821062896100001
sS'TheWayWeWere'
p26
F0.0094684160692500002
sS'Brooklyn'
p27
F0.0073664825046000004
sS'energy'
p28
F0.017629509086
sS'California'
p29
F0.012738065792699999
sS'bikecommuting'
p30
F0.021282885013300001
sS'collapse'
p31
F0.0109432799014
sS'TinyHouses'
p32
F0.011141400971900001
sS'nyc'
p33
F0.0083889669711899994
sS'Ask_Politics'
p34
F0.0072261455082900002
sS'vexillology'
p35
F0.012344582593299999
sS'FutureWhatIf'
p36
F0.0089902070958399992
sS'economy'
p37
F0.0131918944648
sS'europe'
p38
F0.00708143651998
sS'MapPorn'
p39
F0.0139565795304
sS'sanfrancisco'
p40
F0.0103659995216
sS'business'
p41
F0.0072035613112100003
sS'China'
p42
F0.0072698803265900001
sS'occupywallstreet'
p43
F0.0097498160412100004
sS'Economics'
p44
F0.015360455415399999
sS'teslamotors'
p45
F0.0073213834890199997
sS'MLS'
p46
F0.0071097568717100003
sS'ontario'
p47
F0.0084639498432600001
sS'EnoughLibertarianSpam'
p48
F0.0093082972235600005
sS'lostgeneration'
p49
F0.011415808413
sS'cycling'
p50
F0.0082966687617899992
sS'law'
p51
F0.0075487975843799996
sS'GunsAreCool'
p52
F0.0079597821533300001
sS'TheoryOfReddit'
p53
F0.0091794944216900005
sS'Liberal'
p54
F0.0081563296516600006
sS'CanadaPolitics'
p55
F0.0130517671213
sS'progressive'
p56
F0.014106361969199999
sS'worldpolitics'
p57
F0.0078836548819900005
sS'bicycling'
p58
F0.0099750623441399993
sS'typography'
p59
F0.0070400000000000003
sS'PropagandaPosters'
p60
F0.0100168959691
sS'bicycletouring'
p61
F0.0117551020408
sS'bayarea'
p62
F0.00842971966281
sS'socialism'
p63
F0.0103356965918
sS'Design'
p64
F0.0093328724507399999
sS'architecture'
p65
F0.038281250000000003
sS'bikewrench'
p66
F0.010487764275
sS'urbanexploration'
p67
F0.0078172588832499997
sS'IWantOut'
p68
F0.0078153732990099995
s.