(dp1
S'inthenews'
p2
F0.00710993046332
sS'AndroidGaming'
p3
F0.0070479163710299997
sS'KitchenConfidential'
p4
F0.0072500315218799998
sS'BuyItForLife'
p5
F0.015995799790000001
sS'everymanshouldknow'
p6
F0.016754995227
sS'AskMen'
p7
F0.0077747634486899997
sS'Showerthoughts'
p8
F0.00705836390077
sS'HistoryPorn'
p9
F0.019824477288399998
sS'holdmybeer'
p10
F0.018969485485199999
sS'ImaginaryMonsters'
p11
F0.0107973421927
sS'YouShouldKnow'
p12
F0.0148650345261
sS'Jeep'
p13
F0.0095677430377600001
sS'horror'
p14
F0.0085709047575400002
sS'UpliftingNews'
p15
F0.0087296955549100008
sS'PandR'
p16
F0.0072643515237399998
sS'geocaching'
p17
F0.0099364884244999997
sS'Military'
p18
F0.0110412958995
sS'Steam'
p19
F0.0077591153304500003
sS'photoshopbattles'
p20
F0.0109503835248
sS'IWantToLearn'
p21
F0.011318981718799999
sS'Celebs'
p22
F0.0070817994634100002
sS'beermoney'
p23
F0.0074115770710199997
sS'CrappyDesign'
p24
F0.01942780069
sS'NewsOfTheWeird'
p25
F0.0098903251077199997
sS'techsupport'
p26
F0.00795414337273
sS'Libertarian'
p27
F0.0094000000000000004
sS'Whatisthis'
p28
F0.0087136633097600006
sS'pcgaming'
p29
F0.0081168469171599995
sS'EatCheapAndHealthy'
p30
F0.0091984231274599999
sS'tea'
p31
F0.0079340288623699993
sS'polandball'
p32
F0.010048184275499999
sS'AutoDetailing'
p33
F0.0094772693617699993
sS'MechanicAdvice'
p34
F0.010263624049200001
sS'fatpeoplestories'
p35
F0.0089387485752000003
sS'4x4'
p36
F0.0099812318716899998
sS'forwardsfromgrandma'
p37
F0.0135051300406
sS'no_sob_story'
p38
F0.0098958333333300005
sS'frugalmalefashion'
p39
F0.0070692789335500003
sS'findareddit'
p40
F0.0114632924079
sS'skeptic'
p41
F0.012694300518100001
sS'InteriorDesign'
p42
F0.0088851417082799998
sS'socialskills'
p43
F0.010447761194
sS'Anticonsumption'
p44
F0.0086732748760999998
sS'vexillology'
p45
F0.0113226328232
sS'tattoos'
p46
F0.0085155987592099996
sS'Economics'
p47
F0.0076917008520000002
sS'ExposurePorn'
p48
F0.016254289326399999
sS'classiccars'
p49
F0.0107984941549
sS'LetsNotMeet'
p50
F0.0096573361439300006
sS'legaladvice'
p51
F0.0071376370280100002
sS'malelivingspace'
p52
F0.011894525652
sS'answers'
p53
F0.012275845468799999
sS'netsec'
p54
F0.0093060520152799999
sS'lgbt'
p55
F0.0074263170109100003
sS'gentlemanboners'
p56
F0.009765625
sS'doctorwho'
p57
F0.0073248690402200004
sS'TopGear'
p58
F0.0128279657404
sS'ThriftStoreHauls'
p59
F0.016540899486900001
sS'WarshipPorn'
p60
F0.0151502675998
sS'creepy'
p61
F0.0090314835829599996
sS'IWantOut'
p62
F0.0079011087039600001
sS'HalfLife'
p63
F0.0096367047586600005
sS'QuotesPorn'
p64
F0.0114806485975
sS'TrueReddit'
p65
F0.012409701306599999
sS'AmIFreeToGo'
p66
F0.0095815752461300002
sS'KingOfTheHill'
p67
F0.0076773738086800001
sS'IdiotsFightingThings'
p68
F0.017421417155
sS'Firearms'
p69
F0.0106021204241
sS'gamernews'
p70
F0.0075884543761600004
sS'ContagiousLaughter'
p71
F0.0130489972074
sS'GamePhysics'
p72
F0.015905759730699999
sS'environment'
p73
F0.0089451672862499998
sS'FiftyFifty'
p74
F0.010463786846900001
sS'eldertrees'
p75
F0.0080730826428700008
sS'AskHistorians'
p76
F0.0102619976689
sS'Drugs'
p77
F0.00800373134328
sS'OutOfTheLoop'
p78
F0.016199190040500001
sS'ifyoulikeblank'
p79
F0.0097302306425000006
sS'firstimpression'
p80
F0.00727611940299
sS'trailerparkboys'
p81
F0.0075329566855
sS'Pareidolia'
p82
F0.017280711760000001
sS'Filmmakers'
p83
F0.0092542918454900005
sS'cordcutters'
p84
F0.0102950678441
sS'LifeProTips'
p85
F0.0092265332327300005
sS'Shitty_Car_Mods'
p86
F0.019479893278499999
sS'UFOs'
p87
F0.0074264495858299999
sS'ghettoglamourshots'
p88
F0.0108527131783
sS'EDC'
p89
F0.0177981286084
sS'showerbeer'
p90
F0.0082380881698100004
sS'techsupportgore'
p91
F0.021214569210800002
sS'science'
p92
F0.00865579014355
sS'firstworldproblems'
p93
F0.012846131887
sS'Glitch_in_the_Matrix'
p94
F0.0109147055692
sS'standupshots'
p95
F0.011324793702300001
sS'history'
p96
F0.0094438614900300005
sS'TalesFromThePizzaGuy'
p97
F0.0090178717822600001
sS'AskScienceFiction'
p98
F0.0093088313316900002
sS'NewsOfTheStupid'
p99
F0.011241089380400001
sS'audiophile'
p100
F0.0091682032370400002
sS'awesome'
p101
F0.0116765984861
sS'solotravel'
p102
F0.0078130401714699999
sS'DecidingToBeBetter'
p103
F0.0077480629842500001
sS'gadgets'
p104
F0.0086471852854500004
sS'Infographics'
p105
F0.0116434584218
sS'TalesFromYourServer'
p106
F0.0099301877708199999
sS'CampingandHiking'
p107
F0.014325801211
sS'Pizza'
p108
F0.0082685165720700008
sS'asmr'
p109
F0.0079881793415499999
sS'techsupportmacgyver'
p110
F0.0189651618223
sS'MURICA'
p111
F0.0116526119812
sS'backpacking'
p112
F0.0110393276046
sS'travel'
p113
F0.0112931653502
sS'scifi'
p114
F0.011072728394299999
sS'spaceporn'
p115
F0.0150588477155
sS'nyc'
p116
F0.0101685066822
sS'wheredidthesodago'
p117
F0.016580783117700001
sS'BasicIncome'
p118
F0.0075681519808499997
sS'Hammocks'
p119
F0.0076254826254799997
sS'askscience'
p120
F0.0078714608469899992
sS'wallpaper'
p121
F0.0096153846153799998
sS'budgetfood'
p122
F0.0076022502660799997
sS'Images'
p123
F0.010384850336
sS'mac'
p124
F0.00711540459125
sS'MachinePorn'
p125
F0.0214350180505
sS'futurebeats'
p126
F0.0079181151023600006
sS'FanTheories'
p127
F0.010050063513399999
sS'listentothis'
p128
F0.0082115289867000004
sS'tall'
p129
F0.0095409540954100001
sS'ImGoingToHellForThis'
p130
F0.0102013204892
sS'cableporn'
p131
F0.013404459034300001
sS'DoesAnybodyElse'
p132
F0.010106077981700001
sS'pettyrevenge'
p133
F0.014127363616600001
sS'malehairadvice'
p134
F0.0087094601097100002
sS'CityPorn'
p135
F0.020612084750199999
sS'DeepIntoYouTube'
p136
F0.0161646931656
sS'dataisbeautiful'
p137
F0.010223803254800001
sS'LucidDreaming'
p138
F0.0079709413782699991
sS'beards'
p139
F0.0096011145773399996
sS'nostalgia'
p140
F0.0155745801778
sS'Documentaries'
p141
F0.0094363935531200007
sS'writing'
p142
F0.0074521354933699997
sS'AndroidQuestions'
p143
F0.0080572560316900001
sS'StonerEngineering'
p144
F0.0101559232929
sS'texas'
p145
F0.0077833954230999997
sS'Gore'
p146
F0.0092171562000699994
sS'MensRights'
p147
F0.0085203233054199998
sS'MilitaryPorn'
p148
F0.015992927750499999
sS'Frisson'
p149
F0.0136073468474
sS'electronicmusic'
p150
F0.0080813159974100005
sS'childfree'
p151
F0.0096863468634700006
sS'NoStupidQuestions'
p152
F0.011514305652499999
sS'creepyPMs'
p153
F0.0107728769737
sS'WatchItForThePlot'
p154
F0.0106647707074
sS'freebies'
p155
F0.015035142381
sS'PropagandaPosters'
p156
F0.016915269875399999
sS'SubredditDrama'
p157
F0.011194167931000001
sS'minimalism'
p158
F0.015479876161
sS'wallpapers'
p159
F0.013068990042700001
sS'mildlyinteresting'
p160
F0.0085754262470099998
sS'TrueAtheism'
p161
F0.0081963014189799996
sS'badhistory'
p162
F0.0088247091857200002
sS'energy'
p163
F0.0084849473770099992
sS'malegrooming'
p164
F0.0073228346456700004
sS'Cinemagraphs'
p165
F0.0156659865928
sS'canada'
p166
F0.0079382624248899997
sS'DunderMifflin'
p167
F0.0071618037135300003
sS'psychology'
p168
F0.0095929012530699999
sS'space'
p169
F0.010930071231600001
sS'shittyfoodporn'
p170
F0.0138830331868
sS'malefashionadvice'
p171
F0.0081224126185600008
sS'LearnUselessTalents'
p172
F0.0156131190754
sS'BMW'
p173
F0.0070800376127000001
sS'RoomPorn'
p174
F0.0192113689197
sS'electronics'
p175
F0.0084896617828299995
sS'Astronomy'
p176
F0.0099600532623200008
sS'bestof'
p177
F0.010836360017900001
sS'Cyberpunk'
p178
F0.020501851948499999
sS'cars'
p179
F0.0106034968979
sS'vinyl'
p180
F0.0093653221894699993
sS'Roadcam'
p181
F0.0153802131769
sS'knifeclub'
p182
F0.0084294950486900003
sS'youtubehaiku'
p183
F0.0114621951634
sS'PoliticalHumor'
p184
F0.0080670673837400005
sS'recipes'
p185
F0.0078389034923000006
sS'privacy'
p186
F0.0088090204369299999
sS'howtonotgiveafuck'
p187
F0.010329341317399999
sS'Bombing'
p188
F0.0096803241783000003
sS'misc'
p189
F0.01053001053
sS'patientgamers'
p190
F0.0103278762459
sS'rant'
p191
F0.0073817915807700002
sS'conspiratard'
p192
F0.0142128460358
sS'projectcar'
p193
F0.0090391039497000007
sS'longboarding'
p194
F0.0082300542215299997
sS'OldSchoolCool'
p195
F0.0106166655964
sS'lego'
p196
F0.011990843356
sS'ANormalDayInRussia'
p197
F0.0214682655747
sS'onetruegod'
p198
F0.0079422908772999994
sS'TheFacebookDelusion'
p199
F0.0073189857976800003
sS'Volkswagen'
p200
F0.0082696755203600005
sS'Autos'
p201
F0.0139941690962
sS'PenmanshipPorn'
p202
F0.012299465240600001
sS'shittyreactiongifs'
p203
F0.0097002406826600003
sS'alternativeart'
p204
F0.0084141839100200008
sS'shittyadvice'
p205
F0.0075715476521299998
sS'dogs'
p206
F0.0070867858700400001
sS'ObscureMedia'
p207
F0.0095485306387300007
sS'CombatFootage'
p208
F0.0144880527625
sS'GTA'
p209
F0.0075789473684200002
sS'TrollYChromosome'
p210
F0.0077070320370699998
sS'collapse'
p211
F0.0099079971691400006
sS'mildlyinfuriating'
p212
F0.014876057548400001
sS'DumpsterDiving'
p213
F0.011078140455
sS'Psychonaut'
p214
F0.0085376050697499994
sS'skyrim'
p215
F0.0081116413866999994
sS'toronto'
p216
F0.0076247924362099996
sS'worldpolitics'
p217
F0.0102454133905
sS'typography'
p218
F0.0074080766103500001
sS'nononono'
p219
F0.023219410383499998
sS'knives'
p220
F0.013104065456399999
sS'hacking'
p221
F0.0089197834645699994
sS'KerbalSpaceProgram'
p222
F0.00849702341927
sS'torrents'
p223
F0.0085208651955399999
sS'FoodPorn'
p224
F0.010197054184299999
sS'urbanplanning'
p225
F0.0078172588832499997
sS'teenagers'
p226
F0.0079247817327100008
sS'sysadmin'
p227
F0.0080946300802199993
sS'conspiracy'
p228
F0.011477037217599999
sS'AnythingGoesNews'
p229
F0.0076240108087200003
sS'HighQualityGifs'
p230
F0.013162866859800001
sS'self'
p231
F0.0116497455021
sS'britishproblems'
p232
F0.0079969893687099995
sS'UnresolvedMysteries'
p233
F0.0143914758182
sS'nonononoyes'
p234
F0.0189873417722
sS'FutureWhatIf'
p235
F0.00878225441376
sS'firefly'
p236
F0.0096837038734800002
sS'Futurology'
p237
F0.0106115318933
sS'Minecraft'
p238
F0.0073466669441600001
sS'windows'
p239
F0.0070273217422899999
sS'TumblrInAction'
p240
F0.0099473229814400002
sS'secretsanta'
p241
F0.0071345557851200002
sS'Fishing'
p242
F0.0070963351803199999
sS'HailCorporate'
p243
F0.012586219156699999
sS'Heavymind'
p244
F0.013426020582000001
sS'Awwducational'
p245
F0.0121703853955
sS'Justrolledintotheshop'
p246
F0.0211138471211
sS'photocritique'
p247
F0.013377523350399999
sS'adventuretime'
p248
F0.0084464360553200002
sS'fffffffuuuuuuuuuuuu'
p249
F0.0091673593115900003
sS'PoliticalDiscussion'
p250
F0.0074852683548300002
sS'Foodforthought'
p251
F0.010499522749
sS'Stance'
p252
F0.00784066330209
sS'wicked_edge'
p253
F0.0096593797661399996
sS'shittybattlestations'
p254
F0.0122539331172
sS'whowouldwin'
p255
F0.0075565446923000004
sS'GrandTheftAutoV'
p256
F0.0097925236987999997
sS'CCW'
p257
F0.0097196964946400007
sS'arresteddevelopment'
p258
F0.0074181178097700003
sS'shutupandtakemymoney'
p259
F0.014298595903599999
sS'photography'
p260
F0.015604585233599999
sS'JusticePorn'
p261
F0.0132739759494
sS'FixedGearBicycle'
p262
F0.0072740631888300001
sS'geek'
p263
F0.0141546609502
sS'Conservative'
p264
F0.0077262693156699997
sS'PrettyGirlsUglyFaces'
p265
F0.0070380797155100002
sS'homestead'
p266
F0.0082658569500700003
sS'AbandonedPorn'
p267
F0.050348936170199997
sS'motorcycles'
p268
F0.0093109481752999997
sS'progressive'
p269
F0.0071064292283299999
sS'dadjokes'
p270
F0.0111460704244
sS'progun'
p271
F0.0091914893617000004
sS'Marijuana'
p272
F0.00751360883232
sS'guns'
p273
F0.0127203099456
sS'WeAreTheMusicMakers'
p274
F0.0073142643717499997
sS'thatHappened'
p275
F0.012472195742
sS'futurama'
p276
F0.0094113388534499999
sS'architecture'
p277
F0.0115008214872
sS'whitepeoplegifs'
p278
F0.011157311157300001
sS'cringe'
p279
F0.011043553790799999
sS'spotted'
p280
F0.0090177445941999994
sS'StarWars'
p281
F0.0087117766426399994
sS'TheSimpsons'
p282
F0.0090989140005899999
sS'see'
p283
F0.0072236783225700001
sS'changemyview'
p284
F0.0098224762481500007
sS'skateboarding'
p285
F0.0090258939580800009
sS'Android'
p286
F0.0079506928066000009
sS'analog'
p287
F0.0106807919416
sS'firstworldanarchists'
p288
F0.017654445002500001
sS'PerfectTiming'
p289
F0.017452305586399999
sS'cosplay'
p290
F0.0078137270300000002
sS'truegaming'
p291
F0.0096303199751500007
sS'camping'
p292
F0.012286826910199999
sS'wikipedia'
p293
F0.0117882117882
sS'breakingbad'
p294
F0.0102331961591
sS'outside'
p295
F0.0155349750331
sS'AskCulinary'
p296
F0.0073350870093100004
sS'foodhacks'
p297
F0.0106747230614
sS'europe'
p298
F0.0081557557117800002
sS'glitch_art'
p299
F0.015452179570599999
sS'casualiama'
p300
F0.0112728655901
sS'facepalm'
p301
F0.011467529611400001
sS'NotTimAndEric'
p302
F0.0147615442846
sS'Unexpected'
p303
F0.0145918399645
sS'RedditDayOf'
p304
F0.011623214141600001
sS'watchpeopledie'
p305
F0.0133017564634
sS'GunPorn'
p306
F0.0115456238361
sS'Cartalk'
p307
F0.0087073007367700003
sS'drunk'
p308
F0.011153238546600001
sS'reactiongifs'
p309
F0.0093815920950399995
sS'community'
p310
F0.0075006860383600004
sS'startrek'
p311
F0.0084309858065500006
sS'EarthPorn'
p312
F0.010445304937100001
sS'linux'
p313
F0.0074931482885300001
sS'3Dprinting'
p314
F0.0072508295440599996
sS'chrome'
p315
F0.0071645259149300004
sS'Homebrewing'
p316
F0.0076864508175900001
sS'beer'
p317
F0.0104586838769
sS'HomeImprovement'
p318
F0.0088686753837399993
sS'fatlogic'
p319
F0.0088613550815599997
sS'Aquariums'
p320
F0.0075244924755100001
sS'somethingimade'
p321
F0.0154393750289
sS'MapPorn'
p322
F0.0146488503318
sS'aviation'
p323
F0.013067522968500001
sS'Flipping'
p324
F0.0090225563909799994
sS'Perfectfit'
p325
F0.0152985338905
sS'offbeat'
p326
F0.015630783247399999
sS'softwaregore'
p327
F0.015056098443700001
sS'socialism'
p328
F0.0083398803408500002
sS'Cooking'
p329
F0.0091347373763000003
sS'IASIP'
p330
F0.0072721482032000002
sS'hardware'
p331
F0.0079318448883699995
sS'gamecollecting'
p332
F0.0085406821158099996
sS'LosAngeles'
p333
F0.0077775159085600003
sS'DIY'
p334
F0.010622036588100001
sS'technology'
p335
F0.0085750306376900006
sS'southpark'
p336
F0.0076928200346299998
sS'astrophotography'
p337
F0.0075145894955599996
sS'itookapicture'
p338
F0.019894675248699999
sS'Whatcouldgowrong'
p339
F0.019157694743500001
sS'fifthworldproblems'
p340
F0.0072573839662400004
sS'talesfromtechsupport'
p341
F0.012078137263500001
sS'Anarchism'
p342
F0.0087512622012800006
sS'notinteresting'
p343
F0.0130315500686
sS'AnimalsBeingJerks'
p344
F0.014391156347899999
sS'MTB'
p345
F0.0070783932047399998
sS'climbing'
p346
F0.0076327728849700004
sS'TrueFilm'
p347
F0.0077739471371600002
sS'HumanPorn'
p348
F0.0167804323094
sS'preppers'
p349
F0.0076717216770700002
sS'Graffiti'
p350
F0.0177307987384
sS'AskEngineers'
p351
F0.0076744186046499999
sS'awwwtf'
p352
F0.012931034482800001
sS'whatsthisbug'
p353
F0.0107696348831
sS'Piracy'
p354
F0.0080324417063099996
sS'circlebroke'
p355
F0.0078630897317299997
sS'PublicFreakout'
p356
F0.0158887357906
sS'ArtisanVideos'
p357
F0.0114452190199
sS'rickandmorty'
p358
F0.0085714285714299995
sS'quotes'
p359
F0.0085193269027700001
sS'woodworking'
p360
F0.0112308918853
sS'perfectloops'
p361
F0.0150057481697
sS'InternetIsBeautiful'
p362
F0.0115685252736
sS'carporn'
p363
F0.014124082122
sS'TalesFromRetail'
p364
F0.0108662631739
sS'hiking'
p365
F0.0107927339059
sS'WouldYouRather'
p366
F0.0080744137975599997
sS'quityourbullshit'
p367
F0.014738128617099999
sS'audioengineering'
p368
F0.0084450256075000001
sS'ProtectAndServe'
p369
F0.0115016608002
sS'woahdude'
p370
F0.013301036522200001
sS'Fallout'
p371
F0.0114841783531
sS'mycology'
p372
F0.0084610873753899994
sS'offmychest'
p373
F0.0080192976378399995
sS'confession'
p374
F0.0084836898076199995
sS'slowcooking'
p375
F0.0091578549848899994
sS'howto'
p376
F0.014619709973399999
sS'cringepics'
p377
F0.0097489545268699997
sS'toosoon'
p378
F0.0118469882957
sS'bodyweightfitness'
p379
F0.0070846273291900004
sS'thewalkingdead'
p380
F0.0077441364605499996
sS'Art'
p381
F0.00754104620084
sS'ConfusedBoners'
p382
F0.0071174377224199996
sS'Paranormal'
p383
F0.0095444685466399993
sS'4chan'
p384
F0.0102911454635
sS'montageparodies'
p385
F0.0079993240007900004
sS'zombies'
p386
F0.0107621348561
sS'ArcherFX'
p387
F0.0105503780552
sS'google'
p388
F0.0085564562351599996
sS'gardening'
p389
F0.0089399744572199995
sS'whatisthisthing'
p390
F0.022378333002000001
sS'MechanicalKeyboards'
p391
F0.0079544399393400005
sS'NetflixBestOf'
p392
F0.011609456814900001
sS'tumblr'
p393
F0.0091118940590499999
sS'interestingasfuck'
p394
F0.0175688043407
sS'MarkMyWords'
p395
F0.0092546273136600004
sS'Coffee'
p396
F0.0085782301756700003
sS'humor'
p397
F0.0108887109688
sS'AMA'
p398
F0.0080835578766099998
sS'ExpectationVsReality'
p399
F0.015608740894900001
sS'lifehacks'
p400
F0.0150197106173
sS'SCP'
p401
F0.0073982737361300002
sS'Enhancement'
p402
F0.0102218520482
sS'blackpeoplegifs'
p403
F0.010985396658299999
sS'ProgrammerHumor'
p404
F0.0083625573239800004
sS'business'
p405
F0.0074513124470799996
sS'FloridaMan'
p406
F0.016417290108099999
sS'delusionalartists'
p407
F0.016330696606299999
sS'Frugal'
p408
F0.0116259524877
sS'promos'
p409
F0.0094368768431400008
sS'shittyaskscience'
p410
F0.0114280035775
sS'whatsthisplant'
p411
F0.0077544851153300001
sS'lewronggeneration'
p412
F0.0114059499079
sS'worldbuilding'
p413
F0.0088505552736900008
sS'calvinandhobbes'
p414
F0.010130348540699999
sS'netflix'
p415
F0.0090069390193499993
sS'sixwordstories'
p416
F0.0072979547707000001
sS'AnimalsBeingBros'
p417
F0.0134439834025
sS'classic4chan'
p418
F0.012461278513099999
sS'battlestations'
p419
F0.010816906114299999
sS'NSFWFunny'
p420
F0.0072199683696599999
sS'Design'
p421
F0.0100186877076
sS'subaru'
p422
F0.0086108854589800003
sS'marijuanaenthusiasts'
p423
F0.0096937851060000003
sS'ADHD'
p424
F0.0071924603174599996
sS'tifu'
p425
F0.0071755390997499998
sS'unitedkingdom'
p426
F0.0086887835703000002
sS'Damnthatsinteresting'
p427
F0.017350035011299999
sS'CrazyIdeas'
p428
F0.016516647732200001
sS'TinyHouses'
p429
F0.015319278022099999
sS'Bad_Cop_No_Donut'
p430
F0.0145718758781
sS'flying'
p431
F0.0082320658565299999
sS'gopro'
p432
F0.0099887133182799993
sS'MorbidReality'
p433
F0.014827396254099999
sS'gif'
p434
F0.0108599175064
sS'cats'
p435
F0.0083723492150900008
sS'introvert'
p436
F0.0096374174417
sS'happy'
p437
F0.0092755076460299991
sS'cablefail'
p438
F0.012575075075100001
sS'explainlikeIAmA'
p439
F0.0094949228537500006
sS'misleadingthumbnails'
p440
F0.014057773296199999
sS'lockpicking'
p441
F0.012301433552900001
sS'snackexchange'
p442
F0.0091320375335099992
sS'blunderyears'
p443
F0.0167655724779
sS'Welding'
p444
F0.0070103824651699996
sS'webcomics'
p445
F0.0082428469525200002
sS'rage'
p446
F0.0144156627852
sS'comics'
p447
F0.010813581663299999
sS'nsfw'
p448
F0.0070848768243599999
sS'behindthegifs'
p449
F0.0137493861881
sS'fullmoviesonyoutube'
p450
F0.0135618349904
sS'iphone'
p451
F0.0074031770205399998
sS'TrueAskReddit'
p452
F0.011437285550899999
sS'engineering'
p453
F0.0082202505219200004
sS'tipofmytongue'
p454
F0.0094382330749699997
sS'politics'
p455
F0.00790315947575
sS'airsoft'
p456
F0.0073693336636099999
sS'bestofworldstar'
p457
F0.0105081230557
sS'eatsandwiches'
p458
F0.0100443821537
sS'bicycling'
p459
F0.0120341614907
sS'Survival'
p460
F0.0154361892882
sS'shittyama'
p461
F0.0073737164909400002
sS'AskSocialScience'
p462
F0.0073494168397499997
sS'ImaginaryLandscapes'
p463
F0.010234749411100001
sS'TheWayWeWere'
p464
F0.0187711899446
sS'badtattoos'
p465
F0.0097106109324799992
sS'popping'
p466
F0.0095319564951699999
sS'nottheonion'
p467
F0.0097345793152600005
sS'Frugal_Jerk'
p468
F0.011662330671899999
sS'raspberry_pi'
p469
F0.0078330354326600002
sS'Trucks'
p470
F0.0084344068032900007
sS'GTAV'
p471
F0.0084361957197400007
sS'TheoryOfReddit'
p472
F0.0107789473684
sS'oddlysatisfying'
p473
F0.016283838505700001
sS'cosplaygirls'
p474
F0.0089047700073699998
sS'entertainment'
p475
F0.0082570184657000008
sS'atheism'
p476
F0.0070224076265700004
sS'terriblefacebookmemes'
p477
F0.0096650435295900002
sS'PrettyGirls'
p478
F0.00864430510745
s.