(dp1
S'canada'
p2
F0.0095522519159400004
sS'toronto'
p3
F0.0126813030039
sS'ontario'
p4
F0.0158571428571
sS'CanadaPolitics'
p5
F0.0078394897687999992
sS'torontoraptors'
p6
F0.0110247349823
sS'UofT'
p7
F0.011794592632899999
sS'Torontobluejays'
p8
F0.00723522167488
sS'leafs'
p9
F0.010007871359500001
sS'PersonalFinanceCanada'
p10
F0.0088764899822499996
s.