(dp1
S'EDC'
p2
F0.0119555935098
sS'electronic_cigarette'
p3
F0.059400609150700001
sS'Vaping101'
p4
F0.074052044609699996
sS'Stance'
p5
F0.0094292803970200002
sS'glassheads'
p6
F0.0092282846925800001
sS'drunkvapes'
p7
F0.090511969246899998
sS'StonerEngineering'
p8
F0.0093199359254400004
sS'Coilporn'
p9
F0.16769376629499999
sS'knives'
p10
F0.0085079565148899992
sS'Shitty_Car_Mods'
p11
F0.0078751230488
sS'DIY_eJuice'
p12
F0.089647550042999999
sS'hookah'
p13
F0.0103192207542
sS'knifeclub'
p14
F0.0092491838955399992
sS'CannabisExtracts'
p15
F0.0103847295025
sS'vaporents'
p16
F0.020645714635799998
sS'RBA'
p17
F0.15458692346700001
sS'ecigclassifieds'
p18
F0.12467484206600001
s.