(dp1
S'electronic_cigarette'
p2
F0.037333198373699999
sS'stopsmoking'
p3
F0.0082691992795200005
sS'vaporents'
p4
F0.0131368364897
sS'Coilporn'
p5
F0.060311038057900002
sS'VapePorn'
p6
F0.074052044609699996
sS'DIY_eJuice'
p7
F0.065151733064900005
sS'drunkvapes'
p8
F0.052701212789400001
sS'RBA'
p9
F0.077215724954199996
sS'ecigclassifieds'
p10
F0.061988420842500003
s.