(dp1
S'triathlon'
p2
F0.037267080745300003
sS'cycling'
p3
F0.074709384746199994
sS'bicycling'
p4
F0.042245055668500002
sS'FixedGearBicycle'
p5
F0.032907662082499997
sS'peloton'
p6
F0.157022619674
sS'bikecommuting'
p7
F0.031897926634799997
sS'bikewrench'
p8
F0.075248281130600003
sS'MTB'
p9
F0.0288310326752
sS'bmx'
p10
F0.0100146555936
sS'bicycletouring'
p11
F0.037671232876700003
sS'Swimming'
p12
F0.011209239130399999
s.