(dp1
S'asoiaf'
p2
F0.011652627036
sS'BuyItForLife'
p3
F0.0084647687068100004
sS'SampleSize'
p4
F0.0118029858364
sS'everymanshouldknow'
p5
F0.0147063434825
sS'askphilosophy'
p6
F0.0086540945492099997
sS'RandomActsOfGaming'
p7
F0.0082458034750200002
sS'Cricket'
p8
F0.0071658018285099996
sS'AskMen'
p9
F0.0073772714944399997
sS'syriancivilwar'
p10
F0.0183608499297
sS'Showerthoughts'
p11
F0.0094213175144000003
sS'duolingo'
p12
F0.018222879838
sS'HistoryPorn'
p13
F0.032600454890100002
sS'holdmybeer'
p14
F0.0123564827779
sS'ImaginaryMonsters'
p15
F0.010472628357699999
sS'seinfeld'
p16
F0.0077700611978299998
sS'dwarffortress'
p17
F0.0110451697989
sS'fountainpens'
p18
F0.0075430295549600004
sS'YouShouldKnow'
p19
F0.0137215042834
sS'skyrimmods'
p20
F0.0072427820220299999
sS'UpliftingNews'
p21
F0.010468125147000001
sS'PandR'
p22
F0.0090409019116599997
sS'Jokes'
p23
F0.0079960947034399994
sS'3amjokes'
p24
F0.0079976303317499994
sS'Military'
p25
F0.012960530863300001
sS'magicskyfairy'
p26
F0.011787106718699999
sS'Steam'
p27
F0.010211019177700001
sS'photoshopbattles'
p28
F0.011833408201199999
sS'IWantToLearn'
p29
F0.0084609832384299997
sS'Astronomy'
p30
F0.012185456706999999
sS'CrappyDesign'
p31
F0.0255546053624
sS'Cyberpunk'
p32
F0.0154975136388
sS'Libertarian'
p33
F0.012822148507300001
sS'Anarcho_Capitalism'
p34
F0.011086057873
sS'Whatisthis'
p35
F0.0073638653833699996
sS'pcgaming'
p36
F0.0089916783745800002
sS'totalwar'
p37
F0.0205412117763
sS'tea'
p38
F0.0087086054772499994
sS'POLITIC'
p39
F0.0076511662457299998
sS'fatpeoplestories'
p40
F0.0092856116142000008
sS'OneY'
p41
F0.0087868043779899992
sS'Norway'
p42
F0.0081872312272600004
sS'forwardsfromgrandma'
p43
F0.029325114445000001
sS'no_sob_story'
p44
F0.013376633418399999
sS'findareddit'
p45
F0.012702609495300001
sS'skeptic'
p46
F0.0150676005864
sS'Warthunder'
p47
F0.0112032061208
sS'DebateReligion'
p48
F0.0095266807356000002
sS'mindcrack'
p49
F0.00870185449358
sS'GuessTheMovie'
p50
F0.0073649174987599998
sS'worldnews'
p51
F0.0090836503068799992
sS'guns'
p52
F0.0082485802509099995
sS'Economics'
p53
F0.012326714125100001
sS'iran'
p54
F0.0074224021592400003
sS'needamod'
p55
F0.010886580333000001
sS'Finland'
p56
F0.0079561527581300008
sS'answers'
p57
F0.016728727838600001
sS'lgbt'
p58
F0.011212914485199999
sS'baseball'
p59
F0.0095652683155400004
sS'doctorwho'
p60
F0.010002155637
sS'TopGear'
p61
F0.016009716241600001
sS'ThriftStoreHauls'
p62
F0.0071503217644800004
sS'Frugal'
p63
F0.0070512995709100003
sS'WarshipPorn'
p64
F0.022069169814099999
sS'IWantOut'
p65
F0.0134818288394
sS'HalfLife'
p66
F0.0078746119482100002
sS'QuotesPorn'
p67
F0.015584026373
sS'TrueReddit'
p68
F0.015950191402300001
sS'Yogscast'
p69
F0.0090016717390400004
sS'todayilearned'
p70
F0.0076861846085300002
sS'Catholicism'
p71
F0.0114127498649
sS'confession'
p72
F0.0076073900360400003
sS'AntiJokes'
p73
F0.0120866907474
sS'IdiotsFightingThings'
p74
F0.012054713639
sS'gamernews'
p75
F0.0080680331443499995
sS'ContagiousLaughter'
p76
F0.011424794637
sS'graphic_design'
p77
F0.0083847969071599998
sS'HIMYM'
p78
F0.00722974884481
sS'FiftyFifty'
p79
F0.011452581032399999
sS'AskHistorians'
p80
F0.037595683272699999
sS'OutOfTheLoop'
p81
F0.021795461194500002
sS'coins'
p82
F0.0105087174588
sS'france'
p83
F0.0087560806115400003
sS'ifyoulikeblank'
p84
F0.0089965066755999992
sS'misleadingthumbnails'
p85
F0.017313171159299999
sS'WebGames'
p86
F0.0120511864828
sS'Pareidolia'
p87
F0.0163166482446
sS'GrandTheftAutoV'
p88
F0.0079097510373400005
sS'tipofmytongue'
p89
F0.010447098103099999
sS'ftlgame'
p90
F0.0095537690784100009
sS'LifeProTips'
p91
F0.0072953538737299999
sS'Shitty_Car_Mods'
p92
F0.010874200426399999
sS'NeutralPolitics'
p93
F0.011242409322199999
sS'EDC'
p94
F0.0105034949351
sS'showerbeer'
p95
F0.0074941451990600001
sS'techsupportgore'
p96
F0.0133355448665
sS'science'
p97
F0.0086860347553100008
sS'firstworldproblems'
p98
F0.012547148025600001
sS'Glitch_in_the_Matrix'
p99
F0.0080311391407199995
sS'standupshots'
p100
F0.0146777491919
sS'history'
p101
F0.0219318712086
sS'AskScienceFiction'
p102
F0.0172586065946
sS'NewsOfTheStupid'
p103
F0.0095015701747300004
sS'awesome'
p104
F0.0091314351452400008
sS'Infographics'
p105
F0.020145216400900001
sS'BasicIncome'
p106
F0.0114245907349
sS'counting'
p107
F0.0128531432935
sS'SRSsucks'
p108
F0.0110192837466
sS'HouseOfCards'
p109
F0.0115865384615
sS'asmr'
p110
F0.0089192933841399993
sS'techsupportmacgyver'
p111
F0.010664021328
sS'MURICA'
p112
F0.0211257043687
sS'technology'
p113
F0.0076976392506099998
sS'travel'
p114
F0.0136783577514
sS'scifi'
p115
F0.0119951546666
sS'spaceporn'
p116
F0.017012507787399999
sS'nyc'
p117
F0.0080539684725000008
sS'Pizza'
p118
F0.0082639374483500002
sS'wheredidthesodago'
p119
F0.0177348785946
sS'polandball'
p120
F0.083965772684699999
sS'JusticePorn'
p121
F0.010016849535
sS'askscience'
p122
F0.0100843916816
sS'philosophy'
p123
F0.0079687089523899999
sS'nerdcubed'
p124
F0.0097924154624799992
sS'law'
p125
F0.0076512569922200001
sS'MachinePorn'
p126
F0.0134652932068
sS'CFB'
p127
F0.0078487557230500007
sS'Shitstatistssay'
p128
F0.0080601340336900005
sS'FanTheories'
p129
F0.0167635624354
sS'listentothis'
p130
F0.0072481083233800004
sS'tall'
p131
F0.0096726504751799992
sS'ImGoingToHellForThis'
p132
F0.010632225865100001
sS'DoesAnybodyElse'
p133
F0.0095064491566500004
sS'pettyrevenge'
p134
F0.0099712992277399999
sS'malehairadvice'
p135
F0.0071377267013799997
sS'CityPorn'
p136
F0.029893972118599999
sS'london'
p137
F0.011162614700599999
sS'dataisbeautiful'
p138
F0.022433982969599999
sS'japan'
p139
F0.0086435517139799994
sS'MLPLounge'
p140
F0.0092990489608999992
sS'islam'
p141
F0.012185354691100001
sS'linguistics'
p142
F0.034807831762099999
sS'beards'
p143
F0.0083434729706200004
sS'badlinguistics'
p144
F0.022131147540999999
sS'nostalgia'
p145
F0.0101910031573
sS'Documentaries'
p146
F0.011018911617100001
sS'writing'
p147
F0.0091081379232299999
sS'Bioshock'
p148
F0.0073135617621700004
sS'soccer'
p149
F0.0122782369558
sS'wallpaper'
p150
F0.0089923626509000008
sS'texas'
p151
F0.0075775945683800002
sS'MensRights'
p152
F0.011650758001099999
sS'MilitaryPorn'
p153
F0.025055551298800001
sS'Frisson'
p154
F0.0150391536587
sS'Judaism'
p155
F0.0103610166748
sS'childfree'
p156
F0.0073406348180999996
sS'GunsAreCool'
p157
F0.0086917157084700006
sS'unitedkingdom'
p158
F0.023041711669999999
sS'NoStupidQuestions'
p159
F0.018167523095500002
sS'IndieGaming'
p160
F0.0073970218526400004
sS'Braveryjerk'
p161
F0.010638297872299999
sS'grammar'
p162
F0.0075732899022800003
sS'creepyPMs'
p163
F0.010395194063300001
sS'WatchItForThePlot'
p164
F0.0084457865433599996
sS'freebies'
p165
F0.0078263841421700002
sS'PropagandaPosters'
p166
F0.070346635595699994
sS'shittyadviceanimals'
p167
F0.00710377267927
sS'SubredditDrama'
p168
F0.0233206914157
sS'minimalism'
p169
F0.015316652786300001
sS'eu4'
p170
F0.040204837655300002
sS'wallpapers'
p171
F0.014193071278199999
sS'mildlyinteresting'
p172
F0.0097362835481600001
sS'TrueAtheism'
p173
F0.011089336073800001
sS'badhistory'
p174
F0.044196456717699999
sS'energy'
p175
F0.0076486013985999999
sS'perfectloops'
p176
F0.0154145798553
sS'literature'
p177
F0.0071232876712300002
sS'Cinemagraphs'
p178
F0.0141484601211
sS'canada'
p179
F0.0133275757159
sS'DunderMifflin'
p180
F0.0084294587400199992
sS'psychology'
p181
F0.0078155099344999999
sS'space'
p182
F0.014466096639499999
sS'shittyfoodporn'
p183
F0.0129140122798
sS'malefashionadvice'
p184
F0.0079053830911499992
sS'LearnUselessTalents'
p185
F0.0143854353363
sS'China'
p186
F0.0082845683476899992
sS'RoomPorn'
p187
F0.013785746522799999
sS'TheLastAirbender'
p188
F0.0099469078546999996
sS'math'
p189
F0.0099794540651599994
sS'LetsTalkMusic'
p190
F0.0076481835564099999
sS'bestof'
p191
F0.0132735531827
sS'Metal'
p192
F0.0092844059874900003
sS'Roadcam'
p193
F0.0096023715924500007
sS'GamePhysics'
p194
F0.017080667103300001
sS'paradoxplaza'
p195
F0.065263850073999999
sS'Morrowind'
p196
F0.0077084793272600002
sS'youtubehaiku'
p197
F0.017739516076400001
sS'PoliticalHumor'
p198
F0.0152088539807
sS'CanadaPolitics'
p199
F0.0097642840796399993
sS'privacy'
p200
F0.0070808879816299996
sS'programming'
p201
F0.0073925480144099998
sS'dogecoin'
p202
F0.00716900549115
sS'whatstheword'
p203
F0.010201107548799999
sS'classicalmusic'
p204
F0.0126088261783
sS'misc'
p205
F0.010346168805900001
sS'patientgamers'
p206
F0.010967605335599999
sS'rant'
p207
F0.0081892629663299996
sS'conspiratard'
p208
F0.030271741681100001
sS'tf2'
p209
F0.0098626639487700007
sS'OldSchoolCool'
p210
F0.0098667930290099997
sS'lego'
p211
F0.0134093658199
sS'ANormalDayInRussia'
p212
F0.024733452400300001
sS'onetruegod'
p213
F0.0089656536357000001
sS'TheFacebookDelusion'
p214
F0.0089804134086899998
sS'PenmanshipPorn'
p215
F0.015856381282199999
sS'shittyreactiongifs'
p216
F0.0140360169492
sS'alternativeart'
p217
F0.011247130834
sS'gentlemanboners'
p218
F0.0094916072938099998
sS'explainlikeimfive'
p219
F0.0077865946729200001
sS'ObscureMedia'
p220
F0.0079908675799100007
sS'CombatFootage'
p221
F0.0174450756624
sS'GTA'
p222
F0.0078309034188600007
sS'TrollYChromosome'
p223
F0.0097794912783899998
sS'DaystromInstitute'
p224
F0.0110748691497
sS'belgium'
p225
F0.0070725957239200004
sS'mildlyinfuriating'
p226
F0.016947428089700001
sS'Awwducational'
p227
F0.013758029978599999
sS'skyrim'
p228
F0.0121346091419
sS'northernireland'
p229
F0.0079717365703399993
sS'toronto'
p230
F0.0070674799109299996
sS'worldpolitics'
p231
F0.019162311595800001
sS'typography'
p232
F0.0119448452782
sS'newzealand'
p233
F0.0076804915514600003
sS'nononono'
p234
F0.016092327698300001
sS'sweden'
p235
F0.0095587374663499997
sS'KerbalSpaceProgram'
p236
F0.016367986966699999
sS'russia'
p237
F0.018824012594999998
sS'gallifrey'
p238
F0.011007405904400001
sS'formula1'
p239
F0.010124772937100001
sS'FoodPorn'
p240
F0.0089408528198100003
sS'crappymusic'
p241
F0.0086179633143599992
sS'urbanplanning'
p242
F0.012344582593299999
sS'teenagers'
p243
F0.011412596612399999
sS'conspiracy'
p244
F0.0115680578913
sS'HighQualityGifs'
p245
F0.0143847487002
sS'self'
p246
F0.0118894854
sS'DaftPunk'
p247
F0.0071141558527100003
sS'britishproblems'
p248
F0.020306571558699998
sS'UnresolvedMysteries'
p249
F0.0101433848851
sS'nonononoyes'
p250
F0.015668513021399998
sS'FutureWhatIf'
p251
F0.024861878452999999
sS'firefly'
p252
F0.0093038008140800006
sS'badphilosophy'
p253
F0.012016135953999999
sS'Futurology'
p254
F0.0119001870212
sS'translator'
p255
F0.00989749027925
sS'MLS'
p256
F0.013841304645700001
sS'germany'
p257
F0.013892273945900001
sS'mylittlepony'
p258
F0.0093924141650199994
sS'Gaming4Gamers'
p259
F0.0081127494522399996
sS'Minecraft'
p260
F0.0119236392842
sS'TumblrInAction'
p261
F0.0200186161961
sS'HailCorporate'
p262
F0.0132851799303
sS'Heavymind'
p263
F0.0093885114268099992
sS'adventuretime'
p264
F0.0080017234481300006
sS'PanicHistory'
p265
F0.015081534546099999
sS'fffffffuuuuuuuuuuuu'
p266
F0.0080877151615199993
sS'PoliticalDiscussion'
p267
F0.0150898441378
sS'teslore'
p268
F0.0111314303888
sS'Foodforthought'
p269
F0.014078940868399999
sS'languagelearning'
p270
F0.025441484585499999
sS'TheoryOfReddit'
p271
F0.0163674762408
sS'TheBluePill'
p272
F0.01108913265
sS'French'
p273
F0.0096317700229700005
sS'harrypotter'
p274
F0.0094193987283799994
sS'wicked_edge'
p275
F0.0073440470019000004
sS'shittybattlestations'
p276
F0.0097609279954700007
sS'whowouldwin'
p277
F0.014920124585600001
sS'hockey'
p278
F0.0086151797603200003
sS'MetalMemes'
p279
F0.0077922077922099996
sS'arresteddevelopment'
p280
F0.0095782124516799998
sS'shutupandtakemymoney'
p281
F0.010388146239300001
sS'CrusaderKings'
p282
F0.039433181190999998
sS'de'
p283
F0.0099301784328899995
sS'geek'
p284
F0.0115460941728
sS'lostgeneration'
p285
F0.0094109445799899997
sS'Conservative'
p286
F0.0139215501834
sS'AbandonedPorn'
p287
F0.017949363899700001
sS'progressive'
p288
F0.00963477481515
sS'dadjokes'
p289
F0.013792
sS'books'
p290
F0.0071402902988900001
sS'thatHappened'
p291
F0.016945209197700001
sS'architecture'
p292
F0.011190892036999999
sS'DeepIntoYouTube'
p293
F0.017638952687200001
sS'cringe'
p294
F0.011907406584599999
sS'StarWars'
p295
F0.0130368492282
sS'rpg'
p296
F0.0089279153501400001
sS'TheSimpsons'
p297
F0.0130107100357
sS'Christianity'
p298
F0.012144162966799999
sS'Justrolledintotheshop'
p299
F0.0082500436180599993
sS'latin'
p300
F0.0074366939659199997
sS'changemyview'
p301
F0.018539503260199999
sS'Android'
p302
F0.0070570925142100002
sS'KarmaCourt'
p303
F0.0087838990277999997
sS'firstworldanarchists'
p304
F0.020137977942999999
sS'PerfectTiming'
p305
F0.014499738924400001
sS'truegaming'
p306
F0.0114124232379
sS'lotr'
p307
F0.012921194411499999
sS'wikipedia'
p308
F0.020578147966699999
sS'breakingbad'
p309
F0.0092504743832999992
sS'outside'
p310
F0.020600234277200001
sS'foodhacks'
p311
F0.00700749497288
sS'pcmasterrace'
p312
F0.0080876993498399993
sS'CollegeBasketball'
p313
F0.0071719641401799998
sS'europe'
p314
F0.045791909730800003
sS'glitch_art'
p315
F0.011595883461399999
sS'PixelArt'
p316
F0.0070047205725600001
sS'casualiama'
p317
F0.0148258470704
sS'facepalm'
p318
F0.0134022680761
sS'NotTimAndEric'
p319
F0.0133317943095
sS'environment'
p320
F0.0092126405998899999
sS'Unexpected'
p321
F0.016082550897099999
sS'RedditDayOf'
p322
F0.0216661803327
sS'watchpeopledie'
p323
F0.0088456106444700002
sS'Sherlock'
p324
F0.0099697599697599996
sS'ukpolitics'
p325
F0.021852300242100001
sS'GunPorn'
p326
F0.0108118998053
sS'drunk'
p327
F0.010383024961500001
sS'reactiongifs'
p328
F0.0118693547354
sS'community'
p329
F0.0106289529164
sS'startrek'
p330
F0.0133161670039
sS'EarthPorn'
p331
F0.0104335707058
sS'linux'
p332
F0.00755096904103
sS'ainbow'
p333
F0.0128060263653
sS'beer'
p334
F0.0094751381215500002
sS'ireland'
p335
F0.0125486604076
sS'fatlogic'
p336
F0.0110525120493
sS'somethingimade'
p337
F0.0073491490459000001
sS'WritingPrompts'
p338
F0.0088160193522400006
sS'MapPorn'
p339
F0.069681413256799996
sS'aviation'
p340
F0.0145553691275
sS'Perfectfit'
p341
F0.014635085692299999
sS'offbeat'
p342
F0.015029786303800001
sS'softwaregore'
p343
F0.017199501083200001
sS'socialism'
p344
F0.029191701621099998
sS'Ask_Politics'
p345
F0.0107875740125
sS'Cooking'
p346
F0.0070822476114099997
sS'IASIP'
p347
F0.0080851902977700004
sS'assassinscreed'
p348
F0.0098691940158199994
sS'ShitRedditSays'
p349
F0.0104185706452
sS'southpark'
p350
F0.011024374701300001
sS'Israel'
p351
F0.015693231440999999
sS'itookapicture'
p352
F0.0110192837466
sS'tolkienfans'
p353
F0.0076971909220799996
sS'Whatcouldgowrong'
p354
F0.013344790982200001
sS'fifthworldproblems'
p355
F0.0128418190059
sS'talesfromtechsupport'
p356
F0.0099744838784499995
sS'Anarchism'
p357
F0.015801493735000002
sS'notinteresting'
p358
F0.018824534314499999
sS'AnimalsBeingJerks'
p359
F0.011729265478800001
sS'wargame'
p360
F0.0079427424282099996
sS'Physics'
p361
F0.0091018807201000002
sS'TrueFilm'
p362
F0.0089313212195899997
sS'HumanPorn'
p363
F0.0224606278406
sS'Fantasy'
p364
F0.0073604869245199999
sS'chemistry'
p365
F0.0075308710338300002
sS'GifSound'
p366
F0.00994310335304
sS'awwwtf'
p367
F0.0084808013355599995
sS'whatsthisbug'
p368
F0.0085413929040699995
sS'circlebroke'
p369
F0.023875114784199999
sS'PublicFreakout'
p370
F0.010970838543100001
sS'ArtisanVideos'
p371
F0.010142967542500001
sS'rickandmorty'
p372
F0.0084739234265499997
sS'quotes'
p373
F0.0084913490391400007
sS'futurama'
p374
F0.012948843549
sS'whitepeoplegifs'
p375
F0.0104422218029
sS'InternetIsBeautiful'
p376
F0.0146020609515
sS'carporn'
p377
F0.0084090025792299995
sS'TalesFromRetail'
p378
F0.0095014556862000003
sS'WouldYouRather'
p379
F0.0094573826693499993
sS'quityourbullshit'
p380
F0.0183083621901
sS'ProtectAndServe'
p381
F0.0087153001936700007
sS'woahdude'
p382
F0.0128273379471
sS'Fallout'
p383
F0.0132766514061
sS'offmychest'
p384
F0.0072617893955199998
sS'australia'
p385
F0.0104036724714
sS'howto'
p386
F0.0083969879191700004
sS'footballmanagergames'
p387
F0.0113715332617
sS'cringepics'
p388
F0.010870276139000001
sS'toosoon'
p389
F0.012289780077599999
sS'Liberal'
p390
F0.0070630749014499996
sS'4chan'
p391
F0.0150284146157
sS'oblivion'
p392
F0.0074025868380400003
sS'montageparodies'
p393
F0.014043491277300001
sS'ArcherFX'
p394
F0.013801964603999999
sS'google'
p395
F0.0090051789441099993
sS'blunderyears'
p396
F0.0153238731871
sS'whatisthisthing'
p397
F0.015697451822899999
sS'MechanicalKeyboards'
p398
F0.0082943302328299991
sS'NetflixBestOf'
p399
F0.00976080933377
sS'circlebroke2'
p400
F0.0091332889354000003
sS'ShouldIbuythisgame'
p401
F0.0083318943187699994
sS'tumblr'
p402
F0.0132074022883
sS'interestingasfuck'
p403
F0.0166044597569
sS'MarkMyWords'
p404
F0.018376837683799999
sS'Coffee'
p405
F0.0071539056457800001
sS'gameofthrones'
p406
F0.0111862246043
sS'humor'
p407
F0.0092963457449399996
sS'mountandblade'
p408
F0.0164842498665
sS'ExpectationVsReality'
p409
F0.011875420120999999
sS'religion'
p410
F0.0090033170115299994
sS'lifehacks'
p411
F0.0102595692255
sS'SCP'
p412
F0.0112007519386
sS'Enhancement'
p413
F0.0111255204423
sS'blackpeoplegifs'
p414
F0.0108643457383
sS'ProgrammerHumor'
p415
F0.011383352376099999
sS'FloridaMan'
p416
F0.0159374094465
sS'delusionalartists'
p417
F0.017169219062100002
sS'Cynicalbrit'
p418
F0.0090912053178699992
sS'promos'
p419
F0.0098292951541899994
sS'JonTron'
p420
F0.0081590675351400008
sS'shittyaskscience'
p421
F0.0148435056656
sS'lewronggeneration'
p422
F0.027731725697100001
sS'worldbuilding'
p423
F0.039000053645199997
sS'calvinandhobbes'
p424
F0.0105351063146
sS'masseffect'
p425
F0.0090414527622400005
sS'sixwordstories'
p426
F0.0090923592279500004
sS'AnimalsBeingBros'
p427
F0.0121726677578
sS'classic4chan'
p428
F0.013748561197100001
sS'Games'
p429
F0.0097012059297899994
sS'battlestations'
p430
F0.0078196035642800008
sS'EnoughLibertarianSpam'
p431
F0.019636363636399999
sS'ShitAmericansSay'
p432
F0.027655408712699999
sS'Scotland'
p433
F0.025062365840899999
sS'marijuanaenthusiasts'
p434
F0.010572687224700001
sS'sports'
p435
F0.00702514951294
sS'SimCity'
p436
F0.0112688110691
sS'Damnthatsinteresting'
p437
F0.016559947008200002
sS'DnD'
p438
F0.0081797854575300002
sS'CrazyIdeas'
p439
F0.021056769049400001
sS'Bad_Cop_No_Donut'
p440
F0.0098927654432899997
sS'MorbidReality'
p441
F0.013577672272299999
sS'gif'
p442
F0.0087642843308200005
sS'Calligraphy'
p443
F0.0084745762711900003
sS'happy'
p444
F0.0086657101865100002
sS'explainlikeIAmA'
p445
F0.018757967583299999
sS'batman'
p446
F0.0078418664938399996
sS'gamegrumps'
p447
F0.0076211548507999997
sS'russian'
p448
F0.0070648683365400001
sS'rugbyunion'
p449
F0.0098187311178199992
sS'shittyaskreddit'
p450
F0.0075245116667900002
sS'webcomics'
p451
F0.0072386629763700003
sS'rage'
p452
F0.0181423139598
sS'comics'
p453
F0.0147184098438
sS'behindthegifs'
p454
F0.0167773946682
sS'BritishTV'
p455
F0.0114538918151
sS'conlangs'
p456
F0.021798631476099999
sS'civ'
p457
F0.0289759476077
sS'fullmoviesonyoutube'
p458
F0.013117442098799999
sS'Design'
p459
F0.012236409363499999
sS'arabs'
p460
F0.0118502558578
sS'Civcraft'
p461
F0.0080222658808100002
sS'TrueAskReddit'
p462
F0.016542935640399999
sS'politics'
p463
F0.0085256330666900002
sS'AskUK'
p464
F0.0133439122908
sS'eatsandwiches'
p465
F0.0085183633570699996
sS'bicycling'
p466
F0.0085242532520600003
sS'shittyama'
p467
F0.0118860449028
sS'AskSocialScience'
p468
F0.014407145944400001
sS'ImaginaryLandscapes'
p469
F0.0150332044078
sS'TheWayWeWere'
p470
F0.014789198734500001
sS'Feminism'
p471
F0.0086607765635899996
sS'nottheonion'
p472
F0.0135110687148
sS'Frugal_Jerk'
p473
F0.0100617968626
sS'football'
p474
F0.0099345224655700004
sS'oddlysatisfying'
p475
F0.0165814610521
sS'youtube'
p476
F0.0087406747578199998
sS'atheism'
p477
F0.0085230036777300001
sS'terriblefacebookmemes'
p478
F0.016225276567199999
sS'PrettyGirls'
p479
F0.0081023692445199996
sS'Spanish'
p480
F0.00722231446123
sS'minecraftsuggestions'
p481
F0.0073721600428899997
sS'urbanexploration'
p482
F0.0113226328232
s.