(dp1
S'canada'
p2
F0.017976476877800001
sS'CanadaPolitics'
p3
F0.0144324174299
sS'canadaguns'
p4
F0.0100250626566
sS'CanadianForces'
p5
F0.0090439276485800007
sS'vancouver'
p6
F0.0217504898759
sS'Calgary'
p7
F0.0086511299435000008
sS'PersonalFinanceCanada'
p8
F0.0098606363397300001
sS'canucks'
p9
F0.026009254826899999
s.