(dp1
S'photoshop'
p2
F0.010330578512399999
sS'Cinema4D'
p3
F0.0101311084625
sS'livesound'
p4
F0.0079311508606099996
sS'Filmmakers'
p5
F0.082610444074199998
sS'Multicopter'
p6
F0.0096759675967599997
sS'analog'
p7
F0.0155367231638
sS'graphic_design'
p8
F0.0124498265188
sS'astrophotography'
p9
F0.0071509648127100001
sS'freelance'
p10
F0.0118729593351
sS'audioengineering'
p11
F0.0123296116172
sS'editors'
p12
F0.091590057882199996
sS'Screenwriting'
p13
F0.0214814064242
sS'gopro'
p14
F0.022371364653199999
sS'animation'
p15
F0.011134552273800001
sS'Cinemagraphs'
p16
F0.0087944664031599992
sS'photocritique'
p17
F0.020588005926900001
sS'AfterEffects'
p18
F0.046511627907000003
sS'Design'
p19
F0.0091113249919800004
sS'ObscureMedia'
p20
F0.0071740047826700003
sS'ExposurePorn'
p21
F0.012106537530300001
sS'photography'
p22
F0.026914432933199998
sS'mac'
p23
F0.0070735000964599996
sS'VideoEditing'
p24
F0.093703148425800006
sS'TrueFilm'
p25
F0.013050570962500001
sS'youtube'
p26
F0.0078021377857499996
sS'Entrepreneur'
p27
F0.00706160531697
sS'itookapicture'
p28
F0.011302746148699999
sS'vfx'
p29
F0.029646724658300001
sS'audio'
p30
F0.0070330389270500003
sS'AskPhotography'
p31
F0.016172057352500002
s.