(dp1
S'Pokemongiveaway'
p2
F0.036317768575399999
sS'ShinyPokemon'
p3
F0.034096540787000001
sS'CasualPokemonTrades'
p4
F0.048719550281099998
sS'stunfisk'
p5
F0.018856629751600001
sS'SVExchange'
p6
F0.049710024855
sS'friendsafari'
p7
F0.0076647221624900003
sS'pokemontrades'
p8
F0.031525285481199997
sS'pokemon'
p9
F0.0076660908539100004
sS'GiveMeTheVirus'
p10
F0.0086659064994300001
s.