(dp1
S'netsec'
p2
F0.019559486350900001
sS'linuxquestions'
p3
F0.0116810563738
sS'PleX'
p4
F0.014414014857500001
sS'sysadmin'
p5
F0.050775661345999999
sS'homelab'
p6
F0.072102052135299993
sS'linux'
p7
F0.013471746287700001
sS'techsupportmacgyver'
p8
F0.0116267803507
sS'24hoursupport'
p9
F0.00721113533456
sS'privacy'
p10
F0.0074081591231999998
sS'linux4noobs'
p11
F0.0107638888889
sS'linuxadmin'
p12
F0.037529853292400002
sS'usenet'
p13
F0.0123503947033
sS'Ubuntu'
p14
F0.010028912179299999
sS'electronics'
p15
F0.0074030781219599998
sS'talesfromtechsupport'
p16
F0.0095590354500900004
sS'cablefail'
p17
F0.018615751789999999
sS'raspberry_pi'
p18
F0.0096987910661800007
sS'HomeNetworking'
p19
F0.0148724015548
sS'cordcutters'
p20
F0.010119205298000001
sS'geek'
p21
F0.0080917304691800005
sS'networking'
p22
F0.0534074074074
sS'htpc'
p23
F0.0094485483593899997
sS'AskNetsec'
p24
F0.018266303477
sS'hardware'
p25
F0.0110873524986
sS'techsupportgore'
p26
F0.011347808275300001
sS'windows'
p27
F0.01552124834
sS'cableporn'
p28
F0.024658610865499999
sS'hacking'
p29
F0.0080557187211500007
sS'hometheater'
p30
F0.0077572663000800004
sS'DataHoarder'
p31
F0.0228000753721
sS'microsoft'
p32
F0.0148965517241
sS'xbmc'
p33
F0.0101414464905
sS'software'
p34
F0.00828729281768
s.