(dp1
S'CanadianForces'
p2
F0.0074999999999999997
sS'badhistory'
p3
F0.0093330740812800003
sS'totalwar'
p4
F0.025827463455300001
sS'stalker'
p5
F0.0080824408971499999
sS'hoggit'
p6
F0.033775914279099997
sS'paydaytheheist'
p7
F0.00784183786172
sS'Military'
p8
F0.0108386871203
sS'polandball'
p9
F0.011764705882400001
sS'airsoft'
p10
F0.0075836820083699996
sS'SimCity'
p11
F0.0081925888580800001
sS'Xcom'
p12
F0.012775972206699999
sS'mountandblade'
p13
F0.01185019564
sS'AskHistorians'
p14
F0.0077668233405899997
sS'modelmakers'
p15
F0.0100250626566
sS'Warthunder'
p16
F0.028696154586899999
sS'CompanyOfHeroes'
p17
F0.024363715466599999
sS'WorldofTanks'
p18
F0.017029061994200002
sS'dwarffortress'
p19
F0.0077525773195900004
sS'mwo'
p20
F0.0095272335071000004
sS'vexillology'
p21
F0.0079427424282099996
sS'spaceengineers'
p22
F0.0104618284637
sS'arma'
p23
F0.031319512412100001
sS'CombatFootage'
p24
F0.020766773162900001
sS'MilitaryPorn'
p25
F0.0274129924602
sS'flightsim'
p26
F0.0145167217935
sS'CrusaderKings'
p27
F0.012003623735499999
sS'Eve'
p28
F0.0077370837701999998
sS'Warhammer'
p29
F0.0088053740014499993
sS'aviation'
p30
F0.0085695082334500006
sS'syriancivilwar'
p31
F0.010673782521700001
sS'starcitizen'
p32
F0.0098268600842299995
sS'WarshipPorn'
p33
F0.023640026863699998
sS'prisonarchitect'
p34
F0.0078262042909199997
sS'PropagandaPosters'
p35
F0.0104389086595
sS'Planetside'
p36
F0.0090769230769200005
sS'FutureWhatIf'
p37
F0.0070433557677299996
sS'eu4'
p38
F0.012942191544399999
sS'KerbalSpaceProgram'
p39
F0.0099658825641900008
sS'paradoxplaza'
p40
F0.021099645772399998
s.