(dp1
S'asoiaf'
p2
F0.015674789839499999
sS'uglyduckling'
p3
F0.011672704272299999
sS'AndroidGaming'
p4
F0.0081316331984399998
sS'milf'
p5
F0.024448666061000001
sS'KitchenConfidential'
p6
F0.0079801213743000005
sS'BuyItForLife'
p7
F0.013806823243
sS'everymanshouldknow'
p8
F0.0226078559459
sS'wiiu'
p9
F0.0078295438018099999
sS'thelastofus'
p10
F0.0077418684402000004
sS'RandomActsOfGaming'
p11
F0.0106170811825
sS'relationships'
p12
F0.00769723668402
sS'AskMen'
p13
F0.0147533570985
sS'SourceFed'
p14
F0.0072061657032799998
sS'JoeRogan'
p15
F0.0095153576887000001
sS'Showerthoughts'
p16
F0.0137586044722
sS'MachinePorn'
p17
F0.0108119796735
sS'HistoryPorn'
p18
F0.026752294275200001
sS'swoleacceptance'
p19
F0.0073454506460800002
sS'holdmybeer'
p20
F0.0305370083225
sS'ImaginaryMonsters'
p21
F0.0125861880267
sS'seinfeld'
p22
F0.0135688967656
sS'DeepIntoYouTube'
p23
F0.0149893776064
sS'pornID'
p24
F0.0131673881674
sS'YouShouldKnow'
p25
F0.022179320253200002
sS'skyrimmods'
p26
F0.0071915215745599996
sS'horror'
p27
F0.011524260619799999
sS'UpliftingNews'
p28
F0.015139962967000001
sS'PandR'
p29
F0.0209983422361
sS'Jokes'
p30
F0.0145025199077
sS'Scrubs'
p31
F0.010462826194
sS'3amjokes'
p32
F0.0087683404454299996
sS'Military'
p33
F0.0139692307692
sS'Steam'
p34
F0.0143792780814
sS'AlienBlue'
p35
F0.0094810379241500008
sS'photoshopbattles'
p36
F0.0193660013595
sS'IWantToLearn'
p37
F0.0091473031227000002
sS'gonewildstories'
p38
F0.0081686720388600004
sS'Celebs'
p39
F0.074099603653299997
sS'techsupportgore'
p40
F0.020504402328
sS'CrappyDesign'
p41
F0.0234792626728
sS'Patriots'
p42
F0.0086960157197200003
sS'techsupport'
p43
F0.011354452349700001
sS'Libertarian'
p44
F0.0147050392708
sS'anal'
p45
F0.0094657753061599993
sS'Seattle'
p46
F0.0075991794042
sS'pcgaming'
p47
F0.015292123950900001
sS'EatCheapAndHealthy'
p48
F0.0101338552848
sS'totalwar'
p49
F0.0070240455054699997
sS'gentlemanboners'
p50
F0.066336587197299998
sS'redditgetsdrawn'
p51
F0.0085131133671700002
sS'DCcomics'
p52
F0.016409648082199999
sS'AmISexy'
p53
F0.0123080774366
sS'fatpeoplestories'
p54
F0.0153801813132
sS'Naruto'
p55
F0.0091039366096299992
sS'nba'
p56
F0.0140225188332
sS'fantasyfootball'
p57
F0.0084900164842700004
sS'forwardsfromgrandma'
p58
F0.017999922747100001
sS'no_sob_story'
p59
F0.0123897014384
sS'Design'
p60
F0.00890914316213
sS'frugalmalefashion'
p61
F0.0081114441897400004
sS'Glitch_in_the_Matrix'
p62
F0.0089999581397300008
sS'skeptic'
p63
F0.0124379872431
sS'socialskills'
p64
F0.0100883176564
sS'GuessTheMovie'
p65
F0.010289461781999999
sS'worldnews'
p66
F0.0119647822462
sS'guns'
p67
F0.0139182629363
sS'disney'
p68
F0.0084742189805599999
sS'tattoos'
p69
F0.013425483154999999
sS'Economics'
p70
F0.0091821622511099998
sS'Justrolledintotheshop'
p71
F0.0186417186417
sS'legaladvice'
p72
F0.0077872497342800001
sS'malelivingspace'
p73
F0.0089679043423499995
sS'answers'
p74
F0.011107014471400001
sS'baseball'
p75
F0.0148482182138
sS'doctorwho'
p76
F0.0163832142498
sS'TopGear'
p77
F0.0203741796454
sS'ThriftStoreHauls'
p78
F0.0103073808209
sS'Cynicalbrit'
p79
F0.0097435747834000008
sS'WarshipPorn'
p80
F0.0090225563909799994
sS'creepy'
p81
F0.014866373721399999
sS'pics'
p82
F0.0090655026325300002
sS'howtonotgiveafuck'
p83
F0.0099546069921200003
sS'vinyl'
p84
F0.0081797668296400006
sS'whatsthisbug'
p85
F0.0084018591347899997
sS'Dexter'
p86
F0.0125259818401
sS'apple'
p87
F0.0115092669192
sS'TrueReddit'
p88
F0.015055515941699999
sS'Enhancement'
p89
F0.013395553115599999
sS'todayilearned'
p90
F0.0117928839005
sS'PlayStationPlus'
p91
F0.0079365079365100004
sS'AmIFreeToGo'
p92
F0.0075251850952800002
sS'AntiJokes'
p93
F0.0073553810419199998
sS'KingOfTheHill'
p94
F0.0076782449725799999
sS'IdiotsFightingThings'
p95
F0.027410047522099999
sS'FinalFantasy'
p96
F0.0092004821213299993
sS'AskScienceFiction'
p97
F0.0149655091781
sS'ContagiousLaughter'
p98
F0.021515015687999999
sS'hugeboobs'
p99
F0.0123078807177
sS'gonewildaudio'
p100
F0.0071451595573199999
sS'HIMYM'
p101
F0.0206778206778
sS'FiftyFifty'
p102
F0.037913832199500001
sS'eldertrees'
p103
F0.0080216689238499991
sS'AskHistorians'
p104
F0.0119896524575
sS'Drugs'
p105
F0.0095758299906099995
sS'OutOfTheLoop'
p106
F0.023871231755599999
sS'sports'
p107
F0.014720138782599999
sS'ifyoulikeblank'
p108
F0.0091406186240099996
sS'firstimpression'
p109
F0.0094723879890099994
sS'trailerparkboys'
p110
F0.011868563021100001
sS'eagles'
p111
F0.0072751322751299996
sS'battlefield_4'
p112
F0.0115035317861
sS'Pareidolia'
p113
F0.019815176826000001
sS'GrandTheftAutoV'
p114
F0.019752986270300001
sS'Filmmakers'
p115
F0.00837520938023
sS'QuotesPorn'
p116
F0.024722620197899999
sS'cordcutters'
p117
F0.013335697818800001
sS'LifeProTips'
p118
F0.0152614219084
sS'Shitty_Car_Mods'
p119
F0.018274308147400001
sS'PoliticalHumor'
p120
F0.0124121514396
sS'UFOs'
p121
F0.0074939733780500003
sS'ghettoglamourshots'
p122
F0.0135648096461
sS'popping'
p123
F0.0149699582471
sS'EDC'
p124
F0.0114734100425
sS'showerbeer'
p125
F0.0147585458492
sS'trackers'
p126
F0.0073970088008199998
sS'science'
p127
F0.0142874446671
sS'firstworldproblems'
p128
F0.020023837902300001
sS'movies'
p129
F0.016185627551
sS'standupshots'
p130
F0.032281291251699998
sS'MMA'
p131
F0.0141520086317
sS'history'
p132
F0.0118146339383
sS'TalesFromThePizzaGuy'
p133
F0.0071672157678699996
sS'gamernews'
p134
F0.0130607609313
sS'NewsOfTheStupid'
p135
F0.0086642149224000001
sS'audiophile'
p136
F0.00828729281768
sS'awesome'
p137
F0.0123683005039
sS'gadgets'
p138
F0.012438252432899999
sS'learnprogramming'
p139
F0.0071261903260399998
sS'Infographics'
p140
F0.0076798026795199996
sS'TalesFromYourServer'
p141
F0.0083344845052299998
sS'SRSsucks'
p142
F0.0098597587114900003
sS'HouseOfCards'
p143
F0.016554109701900001
sS'asmr'
p144
F0.0114101264873
sS'techsupportmacgyver'
p145
F0.013310302784
sS'MURICA'
p146
F0.0274773692221
sS'travel'
p147
F0.0094502054392500007
sS'RealGirls'
p148
F0.0458685349268
sS'Hotchickswithtattoos'
p149
F0.0210307890752
sS'scifi'
p150
F0.019037375638600001
sS'spaceporn'
p151
F0.019473597900999999
sS'nyc'
p152
F0.012264092948899999
sS'Pizza'
p153
F0.011145093566899999
sS'wheredidthesodago'
p154
F0.030413772274200002
sS'polandball'
p155
F0.0168378775006
sS'gaming'
p156
F0.012204512686000001
sS'GiftofGames'
p157
F0.0077750888213799999
sS'hardbodies'
p158
F0.025889649062399999
sS'askscience'
p159
F0.0103895808968
sS'wallpaper'
p160
F0.0141793690181
sS'Images'
p161
F0.011744596382899999
sS'CHIBears'
p162
F0.0074503701607999996
sS'dogpictures'
p163
F0.0079431051999600006
sS'short'
p164
F0.0075539771125799999
sS'oculus'
p165
F0.0092231192856800006
sS'CFB'
p166
F0.0104499231406
sS'FanTheories'
p167
F0.022874049565700001
sS'listentothis'
p168
F0.010152000596100001
sS'tall'
p169
F0.0143972310185
sS'ImGoingToHellForThis'
p170
F0.031721194879100002
sS'cableporn'
p171
F0.010543924570399999
sS'shield'
p172
F0.0155811214784
sS'DoesAnybodyElse'
p173
F0.015186240280999999
sS'pettyrevenge'
p174
F0.018109790605500001
sS'malehairadvice'
p175
F0.010382767704900001
sS'CityPorn'
p176
F0.0152121037226
sS'electronic_cigarette'
p177
F0.0074366819649800001
sS'nsfw'
p178
F0.044070634799800001
sS'dataisbeautiful'
p179
F0.016420836567899999
sS'battlefield3'
p180
F0.0082168838645500005
sS'beards'
p181
F0.0173029605524
sS'nostalgia'
p182
F0.025056298281099999
sS'Documentaries'
p183
F0.0121378513113
sS'writing'
p184
F0.0076625406832200003
sS'AndroidQuestions'
p185
F0.0101336466441
sS'StonerEngineering'
p186
F0.0088398296157199997
sS'Bioshock'
p187
F0.0099866207951100003
sS'WTF'
p188
F0.012144367878799999
sS'soccer'
p189
F0.013715201865599999
sS'texas'
p190
F0.0075068356947600003
sS'Gore'
p191
F0.011314553990599999
sS'MensRights'
p192
F0.0194748471302
sS'MilitaryPorn'
p193
F0.019039318875099999
sS'Frisson'
p194
F0.0144180356519
sS'electronicmusic'
p195
F0.0090309240733399999
sS'childfree'
p196
F0.012134304077699999
sS'food'
p197
F0.0146761907675
sS'whitepeoplegifs'
p198
F0.0294071559154
sS'NoStupidQuestions'
p199
F0.0153944020356
sS'reddevils'
p200
F0.0077321522408200002
sS'halo'
p201
F0.0109198839347
sS'Braveryjerk'
p202
F0.0075504394108200003
sS'tightdresses'
p203
F0.024024024024000001
sS'creepyPMs'
p204
F0.0178600160901
sS'nfl'
p205
F0.013410301324
sS'freebies'
p206
F0.0159129235015
sS'Watches'
p207
F0.0077696358213399999
sS'mashups'
p208
F0.00886096342839
sS'AdviceAnimals'
p209
F0.010193639202200001
sS'SubredditDrama'
p210
F0.0220945345099
sS'arrow'
p211
F0.017529665587899999
sS'minimalism'
p212
F0.013887555598199999
sS'wallpapers'
p213
F0.0224511563776
sS'mildlyinteresting'
p214
F0.015087359124099999
sS'TrueAtheism'
p215
F0.011213962402599999
sS'Rateme'
p216
F0.0134228187919
sS'opieandanthony'
p217
F0.00750039064535
sS'books'
p218
F0.0111780012009
sS'xmen'
p219
F0.0093417737078199999
sS'malegrooming'
p220
F0.0073682434332599999
sS'TwoXChromosomes'
p221
F0.0075010072153200002
sS'Cinemagraphs'
p222
F0.017188000427
sS'canada'
p223
F0.0135145047127
sS'Blowjobs'
p224
F0.0156213433185
sS'psychology'
p225
F0.0076181734740700001
sS'space'
p226
F0.017059174009800001
sS'shittyfoodporn'
p227
F0.021545593425700001
sS'malefashionadvice'
p228
F0.013323330832700001
sS'LearnUselessTalents'
p229
F0.018547015469300002
sS'RoomPorn'
p230
F0.022945378454399999
sS'randomsexiness'
p231
F0.0264664245707
sS'memes'
p232
F0.011410428139100001
sS'TheLastAirbender'
p233
F0.0130713838447
sS'ass'
p234
F0.0302621355253
sS'bestof'
p235
F0.0214531878231
sS'Cyberpunk'
p236
F0.013969349603500001
sS'cars'
p237
F0.011094890510900001
sS'Metal'
p238
F0.0103288782952
sS'LadyBoners'
p239
F0.0118695276853
sS'corgi'
p240
F0.0084498541394199995
sS'Roadcam'
p241
F0.012106918239
sS'GamePhysics'
p242
F0.020905624812599999
sS'youtubehaiku'
p243
F0.016743968962400001
sS'dayz'
p244
F0.0088335252647199995
sS'Borderlands'
p245
F0.0071511543487699997
sS'headphones'
p246
F0.0096794081381000006
sS'programming'
p247
F0.0079758981592700003
sS'dogecoin'
p248
F0.0098406536360800007
sS'gamingpc'
p249
F0.00864509605662
sS'nhl'
p250
F0.0089606529743199992
sS'dragonage'
p251
F0.0070185210973400004
sS'patientgamers'
p252
F0.015049242005099999
sS'AsiansGoneWild'
p253
F0.014226969797199999
sS'rant'
p254
F0.0076073985680200004
sS'conspiratard'
p255
F0.0154718927282
sS'GreenBayPackers'
p256
F0.0072448143516299999
sS'gtaonline'
p257
F0.0075589970501500001
sS'thick'
p258
F0.017515923566899998
sS'pokemon'
p259
F0.011341702963500001
sS'tf2'
p260
F0.0082472254113999995
sS'OldSchoolCool'
p261
F0.0204820141672
sS'lego'
p262
F0.0146809885815
sS'ANormalDayInRussia'
p263
F0.022599637681200001
sS'seduction'
p264
F0.0117609150959
sS'onetruegod'
p265
F0.014888603256200001
sS'TheFacebookDelusion'
p266
F0.0088923840058099998
sS'futurama'
p267
F0.0226713401447
sS'Autos'
p268
F0.013623696976000001
sS'PenmanshipPorn'
p269
F0.0162187573455
sS'shittyreactiongifs'
p270
F0.0216606498195
sS'alternativeart'
p271
F0.0127327327327
sS'shittyadvice'
p272
F0.0094140645094900003
sS'explainlikeimfive'
p273
F0.011098550706799999
sS'dogs'
p274
F0.0070865417062899996
sS'ObscureMedia'
p275
F0.0085690882742099992
sS'CombatFootage'
p276
F0.015779176590700002
sS'GTA'
p277
F0.0098522167487699996
sS'TrollYChromosome'
p278
F0.019520311675700001
sS'DaystromInstitute'
p279
F0.0071199715201100003
sS'GODZILLA'
p280
F0.010300668151400001
sS'3DS'
p281
F0.00741583449206
sS'Spiderman'
p282
F0.0082739600091899998
sS'mildlyinfuriating'
p283
F0.029423281311199999
sS'madmen'
p284
F0.012322555205
sS'nsfw_gifs'
p285
F0.035094977074500003
sS'Awwducational'
p286
F0.0171613891266
sS'skyrim'
p287
F0.017278172693399999
sS'sex'
p288
F0.013849290177700001
sS'toronto'
p289
F0.0086536235239599996
sS'Battlefield'
p290
F0.0075178053284100004
sS'television'
p291
F0.019893137711899999
sS'worldpolitics'
p292
F0.016465970327999999
sS'TheRedPill'
p293
F0.0115543928494
sS'PerfectTiming'
p294
F0.029309116809099998
sS'knives'
p295
F0.0097770071762300001
sS'Supernatural'
p296
F0.0111721264912
sS'KerbalSpaceProgram'
p297
F0.0098968594275100005
sS'torrents'
p298
F0.0106581401545
sS'Boobies'
p299
F0.033235581622700003
sS'gallifrey'
p300
F0.010501050105
sS'ShingekiNoKyojin'
p301
F0.0076135105204899996
sS'FoodPorn'
p302
F0.021277884324200001
sS'teenagers'
p303
F0.014355333426799999
sS'wifesharing'
p304
F0.0073576455534200003
sS'sysadmin'
p305
F0.0078547514808099995
sS'conspiracy'
p306
F0.020739448563300001
sS'hentai'
p307
F0.0092941738807199997
sS'superman'
p308
F0.0089395607954899994
sS'HighQualityGifs'
p309
F0.030070439640500001
sS'self'
p310
F0.0129117259552
sS'IAmA'
p311
F0.0098446729380900003
sS'DaftPunk'
p312
F0.0079855195911399997
sS'britishproblems'
p313
F0.013464258513800001
sS'UnresolvedMysteries'
p314
F0.0080530071355799995
sS'nonononoyes'
p315
F0.033646695664399998
sS'firefly'
p316
F0.020419153614900001
sS'MovieSuggestions'
p317
F0.00808510638298
sS'aww'
p318
F0.0115460706223
sS'Futurology'
p319
F0.015370627480400001
sS'Games'
p320
F0.016171736318
sS'progresspics'
p321
F0.0174022364851
sS'Gaming4Gamers'
p322
F0.00863751707984
sS'Minecraft'
p323
F0.0107901183144
sS'windows'
p324
F0.0082552638901799997
sS'chicago'
p325
F0.0085546248440599992
sS'investing'
p326
F0.00767291461142
sS'TumblrInAction'
p327
F0.022296066030700001
sS'secretsanta'
p328
F0.0072393420797199999
sS'HailCorporate'
p329
F0.0123953974895
sS'GifSound'
p330
F0.0095764272559900002
sS'wow'
p331
F0.0086562063611800005
sS'Heavymind'
p332
F0.00959741374956
sS'Psychonaut'
p333
F0.0075474410580800002
sS'redheads'
p334
F0.021996615905199999
sS'GWCouples'
p335
F0.0116142153714
sS'adventuretime'
p336
F0.013194521768200001
sS'fffffffuuuuuuuuuuuu'
p337
F0.019624217119
sS'PoliticalDiscussion'
p338
F0.0078216496570199991
sS'dbz'
p339
F0.0134913793103
sS'bodybuilding'
p340
F0.0094016148656099995
sS'Foodforthought'
p341
F0.0099014037433200006
sS'Amateur'
p342
F0.025814642403699999
sS'TheoryOfReddit'
p343
F0.0082449941107199994
sS'harrypotter'
p344
F0.017249686807400001
sS'wicked_edge'
p345
F0.0099636663295499996
sS'shittybattlestations'
p346
F0.0096338028168999994
sS'whowouldwin'
p347
F0.018543781359099999
sS'hockey'
p348
F0.0134286443707
sS'AsianHotties'
p349
F0.015912541755199999
sS'ipad'
p350
F0.0074114993325
sS'buildapcsales'
p351
F0.0092906696005600007
sS'arresteddevelopment'
p352
F0.018793369313800001
sS'shutupandtakemymoney'
p353
F0.019366509417200001
sS'gonewild'
p354
F0.017514544716500002
sS'photography'
p355
F0.0087337195626599994
sS'JusticePorn'
p356
F0.028466447495600001
sS'trees'
p357
F0.0116469392326
sS'smashbros'
p358
F0.0090108751941999996
sS'geek'
p359
F0.021645614708099999
sS'Fitness'
p360
F0.0098891720429499994
sS'Conservative'
p361
F0.010910111908900001
sS'PrettyGirlsUglyFaces'
p362
F0.0154681139756
sS'AbandonedPorn'
p363
F0.021207131501199999
sS'motorcycles'
p364
F0.0123587437167
sS'progressive'
p365
F0.0070410139060000003
sS'dadjokes'
p366
F0.020245487364599999
sS'vexillology'
p367
F0.0084457865433599996
sS'WeAreTheMusicMakers'
p368
F0.0071476555152499999
sS'thatHappened'
p369
F0.0271918259723
sS'pornvids'
p370
F0.0165865254741
sS'GTAV'
p371
F0.0111179740581
sS'cringe'
p372
F0.024104199319
sS'FIFA'
p373
F0.0073261049098199997
sS'StarWars'
p374
F0.025147373405799998
sS'AskWomen'
p375
F0.0095228991671899993
sS'TheSimpsons'
p376
F0.021027219928599999
sS'AmateurArchives'
p377
F0.0164918488563
sS'see'
p378
F0.010260877982699999
sS'changemyview'
p379
F0.0129402186152
sS'roosterteeth'
p380
F0.011716355214500001
sS'skateboarding'
p381
F0.0074053649505699997
sS'PS3'
p382
F0.0130034887409
sS'Android'
p383
F0.015013737481199999
sS'PS4'
p384
F0.012323943662
sS'firstworldanarchists'
p385
F0.031389121149799998
sS'nononono'
p386
F0.027398242782900002
sS'cosplay'
p387
F0.016476803698199999
sS'truegaming'
p388
F0.0146737511173
sS'lotr'
p389
F0.0138158411178
sS'AmericanHorrorStory'
p390
F0.00768171928422
sS'wikipedia'
p391
F0.0095441666252400002
sS'breakingbad'
p392
F0.026306129939999999
sS'outside'
p393
F0.018386755899999999
sS'AskCulinary'
p394
F0.0071624014163799996
sS'foodhacks'
p395
F0.0115340253749
sS'pcmasterrace'
p396
F0.014383073599
sS'CollegeBasketball'
p397
F0.0093512565750999994
sS'europe'
p398
F0.011632687610300001
sS'StandUpComedy'
p399
F0.0123311502251
sS'jobs'
p400
F0.00754530273981
sS'LucidDreaming'
p401
F0.0077902260771800002
sS'casualiama'
p402
F0.013835094598300001
sS'facepalm'
p403
F0.027101712698200001
sS'celebnsfw'
p404
F0.066925364108200006
sS'NotTimAndEric'
p405
F0.0126564141752
sS'news'
p406
F0.012086577381800001
sS'environment'
p407
F0.0083404331644300004
sS'Unexpected'
p408
F0.035294997382800002
sS'RedditDayOf'
p409
F0.0086290645179700007
sS'WWE'
p410
F0.0089082245701299998
sS'watchpeopledie'
p411
F0.021736244773299999
sS'Sherlock'
p412
F0.0141461635118
sS'GunPorn'
p413
F0.010757919775099999
sS'GetMotivated'
p414
F0.016836665972800001
sS'buildapc'
p415
F0.0094520476969400004
sS'drunk'
p416
F0.020902090209
sS'reactiongifs'
p417
F0.031277369956000001
sS'community'
p418
F0.027435987184000001
sS'incest'
p419
F0.0074595722482999997
sS'formula1'
p420
F0.0098930050002699992
sS'Music'
p421
F0.0113409315516
sS'startrek'
p422
F0.016059155021299999
sS'EarthPorn'
p423
F0.0130826594623
sS'linux'
p424
F0.0072870382125199999
sS'chrome'
p425
F0.0092051431911200007
sS'Homebrewing'
p426
F0.00759292143776
sS'TheWire'
p427
F0.0085154851657000003
sS'Gunners'
p428
F0.0072818095472599997
sS'Guitar'
p429
F0.0075611997660600004
sS'beer'
p430
F0.010942570372000001
sS'Astronomy'
p431
F0.011127907953300001
sS'Diablo'
p432
F0.0083843634292200004
sS'fatlogic'
p433
F0.0208552278194
sS'hiphopheads'
p434
F0.0123476679824
sS'androidapps'
p435
F0.0092589256764100004
sS'marvelstudios'
p436
F0.015491941303799999
sS'somethingimade'
p437
F0.0111252146644
sS'WritingPrompts'
p438
F0.0081847525361200008
sS'ginger'
p439
F0.023496074148399999
sS'MapPorn'
p440
F0.020193820082200001
sS'aviation'
p441
F0.0103092783505
sS'darksouls'
p442
F0.0080812686831799995
sS'Chromecast'
p443
F0.0094705443698700001
sS'Perfectfit'
p444
F0.015081145958400001
sS'offbeat'
p445
F0.023460631304300001
sS'softwaregore'
p446
F0.0081643402686299993
sS'socialism'
p447
F0.0072999445573799998
sS'BigBoobsGW'
p448
F0.0096346214594100008
sS'OnOff'
p449
F0.037072774363900003
sS'Cooking'
p450
F0.0111327235856
sS'IASIP'
p451
F0.0213225943196
sS'hardware'
p452
F0.0078284085252699996
sS'gamecollecting'
p453
F0.00857041880191
sS'LosAngeles'
p454
F0.0100768069323
sS'DIY'
p455
F0.0125783240057
sS'assassinscreed'
p456
F0.010298307644799999
sS'technology'
p457
F0.0156431821507
sS'shorthairedhotties'
p458
F0.016558876003599999
sS'southpark'
p459
F0.026343274921700001
sS'starcraft'
p460
F0.0078933312231699998
sS'funny'
p461
F0.0083394035478600009
sS'deadpool'
p462
F0.0084127180502300003
sS'GoneMild'
p463
F0.016323547326099998
sS'daddit'
p464
F0.0089639639639600005
sS'itookapicture'
p465
F0.0142277671932
sS'Whatcouldgowrong'
p466
F0.034556979989600001
sS'talesfromtechsupport'
p467
F0.014866887208600001
sS'notinteresting'
p468
F0.0205842511338
sS'AnimalsBeingJerks'
p469
F0.03139735817
sS'girlsinyogapants'
p470
F0.0335241631853
sS'running'
p471
F0.0082429600976300001
sS'comicbookmovies'
p472
F0.012110296857499999
sS'TrueFilm'
p473
F0.0084097089334300001
sS'HumanPorn'
p474
F0.022184679678099999
sS'Fantasy'
p475
F0.0084160281371700001
sS'titanfall'
p476
F0.0095935653463299995
sS'EmmaWatson'
p477
F0.038375849392900001
sS'Sonsofanarchy'
p478
F0.0130316418976
sS'awwwtf'
p479
F0.0136253041363
sS'DestinyTheGame'
p480
F0.0075984651939899998
sS'Piracy'
p481
F0.0081577918086800007
sS'PublicFreakout'
p482
F0.019314066605099999
sS'ArtisanVideos'
p483
F0.014373631820199999
sS'Bitcoin'
p484
F0.0090707990496099993
sS'rickandmorty'
p485
F0.0176390310474
sS'quotes'
p486
F0.0084552339454299994
sS'woodworking'
p487
F0.0097470479107199994
sS'perfectloops'
p488
F0.021940061618900001
sS'InternetIsBeautiful'
p489
F0.016317502712600001
sS'carporn'
p490
F0.018963497641399998
sS'TalesFromRetail'
p491
F0.0144486851487
sS'WouldYouRather'
p492
F0.010138922739499999
sS'quityourbullshit'
p493
F0.030469715698399999
sS'ProtectAndServe'
p494
F0.010053035700200001
sS'woahdude'
p495
F0.0254145114286
sS'Fallout'
p496
F0.015786807173999998
sS'offmychest'
p497
F0.01235210143
sS'australia'
p498
F0.0132439690592
sS'slowcooking'
p499
F0.010989430304900001
sS'cumsluts'
p500
F0.021189149694000001
sS'NSFW_GIF'
p501
F0.043620552620499999
sS'howto'
p502
F0.010257341260799999
sS'altgonewild'
p503
F0.010771992818699999
sS'cringepics'
p504
F0.0230739880879
sS'toosoon'
p505
F0.0226309094764
sS'bodyweightfitness'
p506
F0.0074376947040499996
sS'thewalkingdead'
p507
F0.0223432548214
sS'gifs'
p508
F0.0148459032824
sS'Art'
p509
F0.0113177996779
sS'lost'
p510
F0.0080584381703299995
sS'tipofmypenis'
p511
F0.020631694967799999
sS'ConfusedBoners'
p512
F0.023449655478999999
sS'4chan'
p513
F0.0267108516122
sS'montageparodies'
p514
F0.012801148884499999
sS'zombies'
p515
F0.0104122170013
sS'ArcherFX'
p516
F0.0257673637724
sS'gonewildcurvy'
p517
F0.0134994068802
sS'ExpectationVsReality'
p518
F0.0209273890143
sS'google'
p519
F0.0095005428881700001
sS'gardening'
p520
F0.00772091264339
sS'whatisthisthing'
p521
F0.016896503966900001
sS'MechanicalKeyboards'
p522
F0.0097266881028899993
sS'NetflixBestOf'
p523
F0.026654672852900001
sS'ShouldIbuythisgame'
p524
F0.0101002543768
sS'tumblr'
p525
F0.0226421518556
sS'burstingout'
p526
F0.019522776572700001
sS'interestingasfuck'
p527
F0.028623769177900001
sS'MarkMyWords'
p528
F0.0095550735681999999
sS'PropagandaPosters'
p529
F0.0098546575644100007
sS'Coffee'
p530
F0.0074994061556199997
sS'gameofthrones'
p531
F0.023186645899900001
sS'humor'
p532
F0.016092925026400001
sS'AMA'
p533
F0.010247151535899999
sS'TaylorSwift'
p534
F0.0086962081974600001
sS'lifehacks'
p535
F0.0242224222422
sS'metalgearsolid'
p536
F0.0099855412976700003
sS'blackpeoplegifs'
p537
F0.027742938845099999
sS'ProgrammerHumor'
p538
F0.010529019003599999
sS'business'
p539
F0.0078635443769900001
sS'FloridaMan'
p540
F0.021902947996
sS'delusionalartists'
p541
F0.018057589067800001
sS'OkCupid'
p542
F0.0109789949041
sS'Frugal'
p543
F0.0139229387627
sS'promos'
p544
F0.013451439251400001
sS'DunderMifflin'
p545
F0.015890410958900002
sS'shittyaskscience'
p546
F0.019804624045899999
sS'lewronggeneration'
p547
F0.019183229506600001
sS'calvinandhobbes'
p548
F0.013919413919400001
sS'netflix'
p549
F0.015833708539699998
sS'masseffect'
p550
F0.0145158015835
sS'anime'
p551
F0.0101159830269
sS'AnimalsBeingBros'
p552
F0.026905043600200001
sS'classic4chan'
p553
F0.019823212511099999
sS'GameDeals'
p554
F0.0149377323873
sS'battlestations'
p555
F0.015713065755800001
sS'NSFWFunny'
p556
F0.026806587355200001
sS'amiugly'
p557
F0.0096026622829899991
sS'ShitAmericansSay'
p558
F0.0078183172003000005
sS'boltedontits'
p559
F0.0146916682776
sS'TinyTits'
p560
F0.019015595106999999
sS'pussy'
p561
F0.0081498601143399994
sS'subaru'
p562
F0.0075357443229600004
sS'Sneakers'
p563
F0.0081233933161999998
sS'marijuanaenthusiasts'
p564
F0.0071220660184599998
sS'TrollXChromosomes'
p565
F0.020681504825700001
sS'confession'
p566
F0.012711974784400001
sS'tifu'
p567
F0.0142428667892
sS'unitedkingdom'
p568
F0.011741956526800001
sS'Damnthatsinteresting'
p569
F0.026795389616799999
sS'DnD'
p570
F0.0083202793970399997
sS'loseit'
p571
F0.0097032567658199998
sS'CrazyIdeas'
p572
F0.026290140556099999
sS'Bad_Cop_No_Donut'
p573
F0.019455905538200001
sS'SquaredCircle'
p574
F0.0153454212527
sS'MorbidReality'
p575
F0.0229978018332
sS'gif'
p576
F0.026632554628200002
sS'cats'
p577
F0.014789648936
sS'introvert'
p578
F0.0080754376285300002
sS'Standup'
p579
F0.0071079267599199998
sS'asstastic'
p580
F0.018062105169499999
sS'happy'
p581
F0.011342515369600001
sS'explainlikeIAmA'
p582
F0.012892348886799999
sS'Stacked'
p583
F0.0160516723157
sS'misleadingthumbnails'
p584
F0.0224155389855
sS'batman'
p585
F0.025378463717600001
sS'gamegrumps'
p586
F0.0070204532891100001
sS'WebGames'
p587
F0.00849815367495
sS'rule34'
p588
F0.022603833865800001
sS'HipHopImages'
p589
F0.0096048897620600003
sS'xbox360'
p590
F0.010839414500900001
sS'blunderyears'
p591
F0.0242417954836
sS'Marvel'
p592
F0.023376917416700001
sS'webcomics'
p593
F0.0085943684269999994
sS'rage'
p594
F0.0267330758284
sS'comics'
p595
F0.025072154046100002
sS'behindthegifs'
p596
F0.0290680473373
sS'civ'
p597
F0.0111533695141
sS'findareddit'
p598
F0.010358262852800001
sS'BustyPetite'
p599
F0.044088425235999998
sS'fullmoviesonyoutube'
p600
F0.026420557365199999
sS'iphone'
p601
F0.012652395123400001
sS'videos'
p602
F0.011149205835699999
sS'keto'
p603
F0.0110603351215
sS'TrueAskReddit'
p604
F0.0076164016095
sS'tipofmytongue'
p605
F0.012492120058199999
sS'politics'
p606
F0.016434568016499999
sS'xboxone'
p607
F0.010815490952799999
sS'bestofworldstar'
p608
F0.016482950448100001
sS'atheism'
p609
F0.016649203955899999
sS'ForeverAlone'
p610
F0.0098362076436400003
sS'eatsandwiches'
p611
F0.010954004359199999
sS'bicycling'
p612
F0.011425485961100001
sS'Survival'
p613
F0.0071055845453500003
sS'shittyama'
p614
F0.0081736909323100009
sS'circlebroke'
p615
F0.0090652400059400007
sS'zelda'
p616
F0.0106909643128
sS'ImaginaryLandscapes'
p617
F0.0089085579631
sS'TheWayWeWere'
p618
F0.0117203365245
sS'badtattoos'
p619
F0.0110242338886
sS'Seahawks'
p620
F0.0089714834988800004
sS'nottheonion'
p621
F0.0191228084266
sS'Frugal_Jerk'
p622
F0.0106651871031
sS'workgonewild'
p623
F0.0078545638816699993
sS'bigdickproblems'
p624
F0.0112932949015
sS'nintendo'
p625
F0.0074703760948000002
sS'comicbooks'
p626
F0.021903661613199999
sS'oddlysatisfying'
p627
F0.030118448755199999
sS'cosplaygirls'
p628
F0.038492927094700001
sS'entertainment'
p629
F0.019160951996799999
sS'youtube'
p630
F0.0079659133012200001
sS'curvy'
p631
F0.0215384615385
sS'terriblefacebookmemes'
p632
F0.0139128559103
sS'PrettyGirls'
p633
F0.037061833484800001
sS'urbanexploration'
p634
F0.0106647707074
sS'GWNerdy'
p635
F0.0118508580692
s.