(dp1
S'buildapc'
p2
F0.0117360158512
sS'headphones'
p3
F0.010919875971800001
sS'pcgaming'
p4
F0.011358473421199999
sS'softwareswap'
p5
F0.013741584432400001
sS'audiophile'
p6
F0.0094274227090000006
sS'hardware'
p7
F0.030979147000800001
sS'homelab'
p8
F0.0086717733776599994
sS'gamingpc'
p9
F0.057956777996100002
sS'razer'
p10
F0.0086262669829600003
sS'techsupportmacgyver'
p11
F0.012753501986200001
sS'MechanicalKeyboards'
p12
F0.018380987745999999
sS'CableManagement'
p13
F0.075464320625600004
sS'shittybattlestations'
p14
F0.013490279063599999
sS'Rainmeter'
p15
F0.0102219357215
sS'buildapcforme'
p16
F0.0109828361259
sS'cablefail'
p17
F0.0073109843081300002
sS'buildapcsales'
p18
F0.022638458428799999
sS'HomeNetworking'
p19
F0.0078679715985400002
sS'htpc'
p20
F0.0104536489152
sS'overclocking'
p21
F0.065163856791099997
sS'battlestations'
p22
F0.019775609296200002
sS'hardwareswap'
p23
F0.039262343843000001
sS'simracing'
p24
F0.0076234038498199999
sS'techsupportgore'
p25
F0.011281531246000001
sS'computers'
p26
F0.00881676463072
sS'hackintosh'
p27
F0.0117239101717
sS'starcitizen'
p28
F0.0071438776968100002
sS'DataHoarder'
p29
F0.014319809069199999
sS'cableporn'
p30
F0.010336187095400001
s.