(dp1
S'IDAP'
p2
F0.0134711415631
sS'awwwtf'
p3
F0.013848715926
sS'Heavymind'
p4
F0.0113717128643
sS'NoStupidQuestions'
p5
F0.0093455061378099995
sS'DoesAnybodyElse'
p6
F0.011265338966
sS'pettyrevenge'
p7
F0.0098679867986799993
sS'AskScienceFiction'
p8
F0.015778136779800001
sS'kickstarter'
p9
F0.0073580332410000003
sS'fffffffuuuuuuuuuuuu'
p10
F0.012208026842199999
sS'rickandmorty'
p11
F0.011207358456899999
sS'quotes'
p12
F0.0098006918135399995
sS'BuyItForLife'
p13
F0.00845238985713
sS'dbz'
p14
F0.0070287933904700003
sS'perfectloops'
p15
F0.0149006622517
sS'everymanshouldknow'
p16
F0.0106942496494
sS'dataisbeautiful'
p17
F0.0087531132578
sS'InternetIsBeautiful'
p18
F0.0088822187169800004
sS'Foodforthought'
p19
F0.0135393057378
sS'TalesFromRetail'
p20
F0.0095576522484999999
sS'TheoryOfReddit'
p21
F0.012116892373500001
sS'TheBluePill'
p22
F0.0071002341566599996
sS'WouldYouRather'
p23
F0.0092406289589399993
sS'quityourbullshit'
p24
F0.012616099071199999
sS'rpg'
p25
F0.014114355953
sS'drunk'
p26
F0.00780934428437
sS'LearnUselessTalents'
p27
F0.013134900501700001
sS'holdmybeer'
p28
F0.0105087174588
sS'writing'
p29
F0.0107236076606
sS'HistoryPorn'
p30
F0.010066390757000001
sS'badtattoos'
p31
F0.0076843505246000001
sS'whowouldwin'
p32
F0.010607389540600001
sS'woahdude'
p33
F0.0092838426432099996
sS'Fallout'
p34
F0.0079331549546999992
sS'ImaginaryMonsters'
p35
F0.017796153154800001
sS'dwarffortress'
p36
F0.0086177648096600005
sS'adventuretime'
p37
F0.013177058048399999
sS'scifi'
p38
F0.019549271465999999
sS'MensRights'
p39
F0.0085650446871900002
sS'nononono'
p40
F0.012402150334799999
sS'Frisson'
p41
F0.011350737798000001
sS'arresteddevelopment'
p42
F0.0091796169136200007
sS'childfree'
p43
F0.0075306135812999997
sS'misc'
p44
F0.012966138019700001
sS'horror'
p45
F0.0079353045236299994
sS'JusticePorn'
p46
F0.0076343294976599996
sS'UpliftingNews'
p47
F0.00746268656716
sS'AbandonedPorn'
p48
F0.0101041995579
sS'PandR'
p49
F0.0075268817204300004
sS'patientgamers'
p50
F0.0121926943366
sS'geek'
p51
F0.0210262149422
sS'Jokes'
p52
F0.0076807244135899998
sS'tipofmytongue'
p53
F0.0073665084440200004
sS'lostgeneration'
p54
F0.00940699068523
sS'3amjokes'
p55
F0.0084058841188800002
sS'toosoon'
p56
F0.0111843752608
sS'Liberal'
p57
F0.0072714681440400001
sS'firstworldproblems'
p58
F0.0127184595544
sS'AndroidGaming'
p59
F0.0079685452162499993
sS'nonononoyes'
p60
F0.0127732240437
sS'PrettyGirlsUglyFaces'
p61
F0.0077790402936799997
sS'linux'
p62
F0.0074101633956499997
sS'photoshopbattles'
p63
F0.0084909198050000002
sS'IWantToLearn'
p64
F0.010236036457100001
sS'Frugal_Jerk'
p65
F0.0085376532399300004
sS'Art'
p66
F0.0082447421255300007
sS'creepyPMs'
p67
F0.0095125631437400007
sS'progressive'
p68
F0.0115513223224
sS'dadjokes'
p69
F0.011427339370400001
sS'WatchItForThePlot'
p70
F0.0085943684269999994
sS'rage'
p71
F0.0098361419947299994
sS'freebies'
p72
F0.0082355683319099999
sS'PropagandaPosters'
p73
F0.0141727991278
sS'vexillology'
p74
F0.0072386629763700003
sS'NewsOfTheWeird'
p75
F0.0075720566683000002
sS'comics'
p76
F0.045711855848199999
sS'compsci'
p77
F0.0079740314727300005
sS'Enhancement'
p78
F0.0086746556966600004
sS'zombies'
p79
F0.011368529842399999
sS'Libertarian'
p80
F0.0072818133142999999
sS'DeepIntoYouTube'
p81
F0.0094881804380799999
sS'ArcherFX'
p82
F0.010918401855200001
sS'thatHappened'
p83
F0.010201763624699999
sS'talesfromtechsupport'
p84
F0.010294486072800001
sS'gamemusic'
p85
F0.0078307075603600007
sS'google'
p86
F0.00776855076346
sS'pcgaming'
p87
F0.0071193482878599999
sS'whatisthisthing'
p88
F0.010397148210799999
sS'glitch_art'
p89
F0.0093937633159
sS'EatCheapAndHealthy'
p90
F0.0071016962908899998
sS'NetflixBestOf'
p91
F0.010188415910700001
sS'gentlemanboners'
p92
F0.0071595904293100003
sS'TheSimpsons'
p93
F0.010702802021099999
sS'TrollXChromosomes'
p94
F0.00871518117521
sS'ShouldIbuythisgame'
p95
F0.0070107701686600004
sS'Marijuana'
p96
F0.00745725718443
sS'tumblr'
p97
F0.0119100327637
sS'POLITIC'
p98
F0.0071292298423499996
sS'interestingasfuck'
p99
F0.011730698127799999
sS'MarkMyWords'
p100
F0.0078281814532300004
sS'xmen'
p101
F0.0076310912460500003
sS'changemyview'
p102
F0.0096250369058200006
sS'fatpeoplestories'
p103
F0.00778831114941
sS'OneY'
p104
F0.0101512107434
sS'CrappyDesign'
p105
F0.013416426277700001
sS'Cinemagraphs'
p106
F0.012792085962799999
sS'MorbidReality'
p107
F0.0070479740061199997
sS'firstworldanarchists'
p108
F0.012371676757000001
sS'offbeat'
p109
F0.018300257536700001
sS'no_sob_story'
p110
F0.0076858285954899998
sS'humor'
p111
F0.030343732828599999
sS'psychology'
p112
F0.0120547945205
sS'space'
p113
F0.0086023009406599998
sS'skeptic'
p114
F0.0132632277012
sS'lotr'
p115
F0.0082716116126899993
sS'shittyfoodporn'
p116
F0.0086168379396200003
sS'boardgames'
p117
F0.0087212284961899998
sS'wikipedia'
p118
F0.019965817277799999
sS'ExpectationVsReality'
p119
F0.0139577081443
sS'socialskills'
p120
F0.0082759948034499993
sS'religion'
p121
F0.0070836965998300003
sS'outside'
p122
F0.013761253906800001
sS'gamedev'
p123
F0.00752929953666
sS'DaystromInstitute'
p124
F0.0082355363392999995
sS'foodhacks'
p125
F0.0086963273546099996
sS'lifehacks'
p126
F0.0101413362702
sS'memes'
p127
F0.0094779484827600003
sS'Astronomy'
p128
F0.0084740705376900004
sS'SCP'
p129
F0.0096930533117900002
sS'math'
p130
F0.0076435261013800002
sS'SubredditDrama'
p131
F0.0103556264289
sS'europe'
p132
F0.0071796064296699999
sS'blackpeoplegifs'
p133
F0.0098664238008500001
sS'StandUpComedy'
p134
F0.0091265711312099995
sS'ProgrammerHumor'
p135
F0.010820469548799999
sS'Cyberpunk'
p136
F0.0124978302378
sS'business'
p137
F0.0072041915296200002
sS'DnD'
p138
F0.0092796476879499993
sS'casualiama'
p139
F0.0073551727215899997
sS'FloridaMan'
p140
F0.0101004271038
sS'delusionalartists'
p141
F0.012879432624100001
sS'answers'
p142
F0.013319601785099999
sS'BasicIncome'
p143
F0.0099301213681500002
sS'nostalgia'
p144
F0.0112083201574
sS'Frugal'
p145
F0.0078723190300399992
sS'NotTimAndEric'
p146
F0.0097206221198199994
sS'shittyaskscience'
p147
F0.0091386198073100007
sS'doctorwho'
p148
F0.0105678159847
sS'worldbuilding'
p149
F0.0117579398045
sS'gamingsuggestions'
p150
F0.0072933549432699996
sS'RoomPorn'
p151
F0.0094874851013100007
sS'spaceporn'
p152
F0.010685714285700001
sS'PoliticalHumor'
p153
F0.0144335770582
sS'RedditDayOf'
p154
F0.012768427161899999
sS'lgbt'
p155
F0.011119118706899999
sS'minimalism'
p156
F0.0080213903743300008
sS'recipes'
p157
F0.0074750830564799999
sS'privacy'
p158
F0.00723446234791
sS'badhistory'
p159
F0.010001550628000001
sS'4chan'
p160
F0.0089271765572300002
sS'itookapicture'
p161
F0.0096567362577200007
sS'sixwordstories'
p162
F0.010081985375600001
sS'AnimalsBeingBros'
p163
F0.0149859506712
sS'classic4chan'
p164
F0.0134935000823
sS'learnart'
p165
F0.0074795203609200004
sS'whatstheword'
p166
F0.0087899208907100002
sS'history'
p167
F0.0084401923462199997
sS'OutOfTheLoop'
p168
F0.012002498661399999
sS'PixelArt'
p169
F0.0091638029782399998
sS'QuotesPorn'
p170
F0.0152448214978
sS'firefox'
p171
F0.0077809514429199996
sS'TrueReddit'
p172
F0.0136198331392
sS'StarWars'
p173
F0.0098443431353000006
sS'confession'
p174
F0.0089766035333400003
sS'reactiongifs'
p175
F0.0087173687682600004
sS'AntiJokes'
p176
F0.0096065873742000006
sS'community'
p177
F0.010437051532899999
sS'findareddit'
p178
F0.0089547961888400002
sS'IdiotsFightingThings'
p179
F0.012542352731399999
sS'conspiratard'
p180
F0.0105904302019
sS'startrek'
p181
F0.013934633899199999
sS'cosplay'
p182
F0.0125257378174
sS'comicbooks'
p183
F0.0176445757704
sS'TrueAtheism'
p184
F0.0104381738931
sS'drawing'
p185
F0.0108049046983
sS'harrypotter'
p186
F0.0091283439398700001
sS'ainbow'
p187
F0.011480411046900001
sS'homestuck'
p188
F0.0072955719931100003
sS'TheLastAirbender'
p189
F0.0088459537114499998
sS'Damnthatsinteresting'
p190
F0.0135055536856
sS'environment'
p191
F0.011698612029100001
sS'FiftyFifty'
p192
F0.0079134999608199991
sS'CrazyIdeas'
p193
F0.0149304482226
sS'truegaming'
p194
F0.0121687398594
sS'AskHistorians'
p195
F0.0083477797039599993
sS'lego'
p196
F0.0095521453178799998
sS'chrome'
p197
F0.0071402008181500002
sS'Bad_Cop_No_Donut'
p198
F0.0103160094019
sS'ANormalDayInRussia'
p199
F0.010698346022599999
sS'Whatcouldgowrong'
p200
F0.0122940606396
sS'onetruegod'
p201
F0.0071880883107999999
sS'TheFacebookDelusion'
p202
F0.00924450111572
sS'urbanexploration'
p203
F0.0082428469525200002
sS'futurama'
p204
F0.0164164867714
sS'gif'
p205
F0.0172900494001
sS'wheredidthesodago'
p206
F0.015188060601500001
sS'PenmanshipPorn'
p207
F0.00795185901569
sS'ifyoulikeblank'
p208
F0.0085047695667199996
sS'alternativeart'
p209
F0.0217391304348
sS'shittyadvice'
p210
F0.0092472420506200005
sS'web_design'
p211
F0.0078188993968300001
sS'fifthworldproblems'
p212
F0.010749385749400001
sS'lewronggeneration'
p213
F0.0090101576777600004
sS'Pareidolia'
p214
F0.015711526078600001
sS'energy'
p215
F0.0084214649432000008
sS'happy'
p216
F0.0138638168821
sS'fatlogic'
p217
F0.0074458110418599999
sS'TrollYChromosome'
p218
F0.011215690694900001
sS'explainlikeIAmA'
p219
F0.0140079608083
sS'misleadingthumbnails'
p220
F0.0132785117282
sS'Unexpected'
p221
F0.0136581221716
sS'Spiderman'
p222
F0.0075801749271100002
sS'batman'
p223
F0.0131946486328
sS'occupywallstreet'
p224
F0.0086458840720900001
sS'WebGames'
p225
F0.016818109357599999
sS'mildlyinfuriating'
p226
F0.010833840535599999
sS'cordcutters'
p227
F0.0085337105139099995
sS'roguelikes'
p228
F0.0072000929044199998
sS'youtubehaiku'
p229
F0.0098153688973199992
sS'collapse'
p230
F0.00786637931034
sS'Awwducational'
p231
F0.013889803172900001
sS'DoctorWhumour'
p232
F0.010133524082
sS'IndieGaming'
p233
F0.011872039300500001
sS'polandball'
p234
F0.0098437500000000001
sS'NeutralPolitics'
p235
F0.0089552238805999992
sS'blunderyears'
p236
F0.0095383784756599994
sS'KillLaKill'
p237
F0.0073780245934200002
sS'hardware'
p238
F0.0080822924320400006
sS'oddlysatisfying'
p239
F0.011318810192299999
sS'calvinandhobbes'
p240
F0.0143890875821
sS'DCcomics'
p241
F0.010417802989
sS'worldpolitics'
p242
F0.0126489062162
sS'netflix'
p243
F0.0073931537370899997
sS'Justrolledintotheshop'
p244
F0.0070103655210000003
sS'Perfectfit'
p245
F0.0120402441036
sS'PerfectTiming'
p246
F0.0148563419762
sS'behindthegifs'
p247
F0.0181477463261
sS'standupshots'
p248
F0.016994733500200001
sS'socialism'
p249
F0.0075799338478499999
sS'skyrim'
p250
F0.0082855840604199992
sS'cats'
p251
F0.0073563043146800001
sS'ObscureMedia'
p252
F0.0073034348967199996
sS'introvert'
p253
F0.0079588014981300005
sS'bestof'
p254
F0.0091360778746700008
sS'ICanDrawThat'
p255
F0.0094399492305299992
sS'fullmoviesonyoutube'
p256
F0.011413017525400001
sS'gallifrey'
p257
F0.0081780729262699997
sS'gamernews'
p258
F0.012723699182800001
sS'NewsOfTheStupid'
p259
F0.0085144521622200001
sS'Economics'
p260
F0.0095868621297500005
sS'FoodPorn'
p261
F0.0072628550213500002
sS'awesome'
p262
F0.0106843777072
sS'Cooking'
p263
F0.0087848793591599993
sS'DecidingToBeBetter'
p264
F0.0070886438493500004
sS'TrueAskReddit'
p265
F0.0118308624845
sS'FanTheories'
p266
F0.014379722154500001
sS'gadgets'
p267
F0.0075804913342300004
sS'PoliticalDiscussion'
p268
F0.0085261149534900001
sS'conspiracy'
p269
F0.0073009764606399999
sS'Infographics'
p270
F0.0086891525740399999
sS'YouShouldKnow'
p271
F0.014039076752199999
sS'Portal'
p272
F0.0087321388069899995
sS'southpark'
p273
F0.010355824703499999
sS'SRSsucks'
p274
F0.0071397663349200002
sS'DAE'
p275
F0.0075538079470199998
sS'ForeverAlone'
p276
F0.0083797135888899997
sS'MURICA'
p277
F0.0076963482312100004
sS'deadpool'
p278
F0.0100764034991
sS'whitepeoplegifs'
p279
F0.010974822466099999
sS'Marvel'
p280
F0.010989010989
sS'Fantasy'
p281
F0.0120971015669
sS'softwaregore'
p282
F0.0088570223534400003
sS'self'
p283
F0.012255255341799999
sS'circlebroke'
p284
F0.00763941940413
sS'zelda'
p285
F0.0086186905774100001
sS'ImaginaryLandscapes'
p286
F0.0136798905609
sS'masseffect'
p287
F0.0071996466431099998
sS'TheWayWeWere'
p288
F0.0094478889873000002
sS'animation'
p289
F0.0142871218839
sS'Feminism'
p290
F0.0070694555790399996
sS'rpg_gamers'
p291
F0.0076120959332599998
sS'nottheonion'
p292
F0.0078464387944100003
sS'Design'
p293
F0.0103979088005
sS'Sherlock'
p294
F0.0079096045197700002
sS'Pizza'
p295
F0.0070261437908500004
sS'tolkienfans'
p296
F0.00747581354442
sS'FutureWhatIf'
p297
F0.0083296312749900001
sS'wallpapers'
p298
F0.012194737671300001
sS'firefly'
p299
F0.015535248041800001
sS'awwnime'
p300
F0.0076762699014400002
sS'Anarchism'
p301
F0.0070921985815599999
sS'mylittlepony'
p302
F0.0087410723803399999
sS'notinteresting'
p303
F0.0087374720070500008
sS'facepalm'
p304
F0.0105555015079
sS'forwardsfromgrandma'
p305
F0.013370679632200001
sS'AnimalsBeingJerks'
p306
F0.0130813428251
sS'howto'
p307
F0.0135098803603
sS'Futurology'
p308
F0.0081226954523599994
sS'wallpaper'
p309
F0.0143703118831
sS'techsupportmacgyver'
p310
F0.0092497430626900003
sS'Images'
p311
F0.012601994560299999
sS'Games'
p312
F0.0076806125583899999
sS'shittyreactiongifs'
p313
F0.010637385262100001
sS'Gaming4Gamers'
p314
F0.0092024539877299995
sS'comicbookmovies'
p315
F0.0074033149171299998
sS'eatsandwiches'
p316
F0.0072015511033099999
sS'GamePhysics'
p317
F0.013451004260500001
sS'marvelstudios'
p318
F0.0070137382501800002
sS'Physics'
p319
F0.0096494442408699994
sS'catpictures'
p320
F0.0091092146898099999
sS'HighQualityGifs'
p321
F0.0120516706358
sS'somethingimade'
p322
F0.012874662867
sS'MapPorn'
p323
F0.0094791231336199995
sS'MachinePorn'
p324
F0.0086697609247700005
sS'GirlGamers'
p325
F0.0084360376985400005
sS'cosplaygirls'
p326
F0.0106041131105
sS'ConfusedBoners'
p327
F0.0092501122586399996
sS'entertainment'
p328
F0.0151557676116
sS'HumanPorn'
p329
F0.013459812844499999
sS'NSFWFunny'
p330
F0.0079288803459899998
sS'terriblefacebookmemes'
p331
F0.0099939167463299998
sS'PrettyGirls'
p332
F0.0072911603360900001
sS'TumblrInAction'
p333
F0.0093164115133400009
sS'Graffiti'
p334
F0.0074466999898
sS'techsupportgore'
p335
F0.0113066267316
sS'HailCorporate'
p336
F0.0084472049689399992
sS'ImGoingToHellForThis'
p337
F0.0070183225376899997
sS'manga'
p338
F0.0080804837587600004
sS'shutupandtakemymoney'
p339
F0.016023375276899999
sS'GifSound'
p340
F0.0071018847309500003
s.