(dp1
S'TagPro'
p2
F0.019407632703299999
sS'awwwtf'
p3
F0.0079657766632200006
sS'Heavymind'
p4
F0.0083203679902599994
sS'MapPorn'
p5
F0.0110919939964
sS'DoesAnybodyElse'
p6
F0.0093264001526599995
sS'pettyrevenge'
p7
F0.010538677874999999
sS'circlebroke'
p8
F0.0123154340197
sS'PublicFreakout'
p9
F0.0099589673448500001
sS'ArtisanVideos'
p10
F0.0147962905075
sS'LucidDreaming'
p11
F0.00790573543482
sS'fffffffuuuuuuuuuuuu'
p12
F0.0097265329064699993
sS'rickandmorty'
p13
F0.0127276447718
sS'dadjokes'
p14
F0.011843029674500001
sS'BuyItForLife'
p15
F0.0079769708320300003
sS'SampleSize'
p16
F0.0095191432771100006
sS'perfectloops'
p17
F0.015218310284400001
sS'everymanshouldknow'
p18
F0.0113483991235
sS'dataisbeautiful'
p19
F0.0131259388205
sS'InternetIsBeautiful'
p20
F0.020200504262199999
sS'RandomActsOfGaming'
p21
F0.010978043912199999
sS'Foodforthought'
p22
F0.0124622156228
sS'TalesFromRetail'
p23
F0.0091371031653499999
sS'TheoryOfReddit'
p24
F0.017752979964499999
sS'WouldYouRather'
p25
F0.00935664967413
sS'quityourbullshit'
p26
F0.0142821258119
sS'LearnUselessTalents'
p27
F0.0173864557989
sS'Documentaries'
p28
F0.0075932846888500001
sS'writing'
p29
F0.0075628273791999998
sS'HistoryPorn'
p30
F0.0079262141519000004
sS'Piracy'
p31
F0.0076964938194799999
sS'whowouldwin'
p32
F0.0122077922078
sS'woahdude'
p33
F0.0119634601745
sS'Fallout'
p34
F0.0075832140300600001
sS'ImaginaryMonsters'
p35
F0.011453545324400001
sS'dwarffortress'
p36
F0.0134424662445
sS'Physics'
p37
F0.010138798525300001
sS'adventuretime'
p38
F0.010943250048399999
sS'scifi'
p39
F0.014185054700500001
sS'MensRights'
p40
F0.0079237917674099996
sS'nononono'
p41
F0.0154681373605
sS'Frisson'
p42
F0.013523330539300001
sS'YouShouldKnow'
p43
F0.0138850597759
sS'shutupandtakemymoney'
p44
F0.0154955573679
sS'AskScienceFiction'
p45
F0.0125102642129
sS'linguistics'
p46
F0.0088426711941100005
sS'misc'
p47
F0.010143406785600001
sS'whitepeoplegifs'
p48
F0.0089673725598400002
sS'JusticePorn'
p49
F0.010238723202800001
sS'UpliftingNews'
p50
F0.0076938012717799997
sS'AbandonedPorn'
p51
F0.0083567278187600003
sS'patientgamers'
p52
F0.0152022441408
sS'geek'
p53
F0.0163148095554
sS'Jokes'
p54
F0.0081497252067099998
sS'tipofmytongue'
p55
F0.0115556899063
sS'NoStupidQuestions'
p56
F0.0131502385663
sS'3amjokes'
p57
F0.0083643892339499998
sS'toosoon'
p58
F0.00865739426625
sS'AndroidGaming'
p59
F0.0142680490821
sS'Steam'
p60
F0.0100594421582
sS'IndieGaming'
p61
F0.0253144487898
sS'AskGames'
p62
F0.0072727272727299997
sS'photoshopbattles'
p63
F0.0107604110895
sS'IWantToLearn'
p64
F0.0084201573463699997
sS'Astronomy'
p65
F0.0089219330854999994
sS'creepyPMs'
p66
F0.0082500153345999999
sS'WatchItForThePlot'
p67
F0.00849815367495
sS'prisonarchitect'
p68
F0.0079227531567199992
sS'techsupportgore'
p69
F0.010728421637399999
sS'freebies'
p70
F0.011793983986199999
sS'PropagandaPosters'
p71
F0.0093614430321899995
sS'vexillology'
p72
F0.0120511864828
sS'mashups'
p73
F0.0089075382803300001
sS'comics'
p74
F0.021315393903599999
sS'compsci'
p75
F0.0086190974573700004
sS'montageparodies'
p76
F0.010493357028
sS'techsupport'
p77
F0.0075795070492199997
sS'minimalism'
p78
F0.00753645142965
sS'DeepIntoYouTube'
p79
F0.018283692126199999
sS'ArcherFX'
p80
F0.0084975908891799998
sS'cringe'
p81
F0.010833906406800001
sS'talesfromtechsupport'
p82
F0.0119143560367
sS'mildlyinteresting'
p83
F0.00768776298346
sS'google'
p84
F0.0073496386427699999
sS'pcgaming'
p85
F0.0081552619265099994
sS'whatisthisthing'
p86
F0.012659334893
sS'glitch_art'
p87
F0.0114701130856
sS'starbound'
p88
F0.0099402765278600001
sS'NetflixBestOf'
p89
F0.011544964599
sS'TheSimpsons'
p90
F0.0084518828451900004
sS'ShouldIbuythisgame'
p91
F0.010510302862700001
sS'polandball'
p92
F0.0126530131827
sS'tumblr'
p93
F0.0093843540166699997
sS'SelfDrivingCars'
p94
F0.00716770317276
sS'interestingasfuck'
p95
F0.013618170576900001
sS'StandUpComedy'
p96
F0.0097514077736600008
sS'javascript'
p97
F0.0092149136101800002
sS'changemyview'
p98
F0.0110012875862
sS'fatpeoplestories'
p99
F0.0078419634839899995
sS'Android'
p100
F0.0076974780631099997
sS'KarmaCourt'
p101
F0.0072688505524299996
sS'torrents'
p102
F0.0080592463515600007
sS'Cinemagraphs'
p103
F0.012681159420300001
sS'notinteresting'
p104
F0.0135709389993
sS'firstworldanarchists'
p105
F0.0130379399056
sS'offbeat'
p106
F0.018221221021399999
sS'no_sob_story'
p107
F0.0109147609148
sS'gameofthrones'
p108
F0.0072830704845400001
sS'humor'
p109
F0.018901358535099999
sS'mountandblade'
p110
F0.0081116632563600008
sS'space'
p111
F0.0098305829096500003
sS'skeptic'
p112
F0.011453668618699999
sS'shittyfoodporn'
p113
F0.0095252358843799997
sS'boardgames'
p114
F0.0098449736295299992
sS'wikipedia'
p115
F0.017098584023500001
sS'ExpectationVsReality'
p116
F0.011128002432399999
sS'breakingbad'
p117
F0.0073242054056999999
sS'firstworldproblems'
p118
F0.0097024316973199996
sS'outside'
p119
F0.015770853757299998
sS'gamedev'
p120
F0.016822909978200001
sS'RoomPorn'
p121
F0.00823116579301
sS'foodhacks'
p122
F0.0087572698709799997
sS'lifehacks'
p123
F0.010670932118
sS'tf2'
p124
F0.010720730283399999
sS'SCP'
p125
F0.0106579758654
sS'math'
p126
F0.011592292482500001
sS'Enhancement'
p127
F0.013868889731000001
sS'europe'
p128
F0.0088672925932000001
sS'iosgaming'
p129
F0.0087794432548199998
sS'bindingofisaac'
p130
F0.0093416510972499991
sS'bestof'
p131
F0.012887856708599999
sS'ProgrammerHumor'
p132
F0.0143134510317
sS'Cyberpunk'
p133
F0.0099458902344800003
sS'business'
p134
F0.0076126674786800002
sS'needamod'
p135
F0.0095652173913000002
sS'casualiama'
p136
F0.010707007909400001
sS'FloridaMan'
p137
F0.0095287149111499998
sS'delusionalartists'
p138
F0.0121245941558
sS'answers'
p139
F0.0131618486688
sS'BasicIncome'
p140
F0.0075471698113200002
sS'nostalgia'
p141
F0.0074714518760200001
sS'Frugal'
p142
F0.0079370614738699993
sS'promos'
p143
F0.0101552075286
sS'JonTron'
p144
F0.0084365736870100003
sS'NotTimAndEric'
p145
F0.011417816813
sS'shittyaskscience'
p146
F0.013379756279500001
sS'doctorwho'
p147
F0.0082806082806100006
sS'wallpaper'
p148
F0.0078219824679699995
sS'gamingsuggestions'
p149
F0.00973111395647
sS'howto'
p150
F0.012973227975
sS'Unity3D'
p151
F0.0086035267349300008
sS'WritingPrompts'
p152
F0.0081191724742299999
sS'LifeProTips'
p153
F0.0081436239126399992
sS'RedditDayOf'
p154
F0.014774745680600001
sS'Cynicalbrit'
p155
F0.0082622055308999992
sS'recipes'
p156
F0.0071649339702199999
sS'gamedesign'
p157
F0.0093018795550400008
sS'programming'
p158
F0.012366983031300001
sS'badhistory'
p159
F0.0095441500367100009
sS'4chan'
p160
F0.0116238381629
sS'dogecoin'
p161
F0.0075082961300600003
sS'sixwordstories'
p162
F0.0095409540954100001
sS'AnimalsBeingBros'
p163
F0.010070992240399999
sS'classic4chan'
p164
F0.0138537271449
sS'whatstheword'
p165
F0.0090938616433899992
sS'OutOfTheLoop'
p166
F0.018673134296299999
sS'PixelArt'
p167
F0.011583011583
sS'software'
p168
F0.00736067297581
sS'whatsthisbug'
p169
F0.0075377979172999996
sS'QuotesPorn'
p170
F0.0088015717092300005
sS'TrueReddit'
p171
F0.015017808125899999
sS'drunk'
p172
F0.0076107808912799996
sS'Design'
p173
F0.0104712041885
sS'reactiongifs'
p174
F0.0092757858523499995
sS'AntiJokes'
p175
F0.010152284264
sS'community'
p176
F0.0101074874802
sS'findareddit'
p177
F0.012070043777399999
sS'incremental_games'
p178
F0.0422144780611
sS'IdiotsFightingThings'
p179
F0.0131321154355
sS'conspiratard'
p180
F0.0125357812654
sS'Showerthoughts'
p181
F0.0072539894771599996
sS'rpg'
p182
F0.0108758982327
sS'linux'
p183
F0.00769073906837
sS'holdmybeer'
p184
F0.011184283139
sS'TrueAtheism'
p185
F0.0085421994884900005
sS'ContagiousLaughter'
p186
F0.0138987521558
sS'ainbow'
p187
F0.0070572113737600002
sS'homestuck'
p188
F0.0080375083724000002
sS'TheLastAirbender'
p189
F0.0079659772894100003
sS'Damnthatsinteresting'
p190
F0.014016882211699999
sS'environment'
p191
F0.0075248900208400001
sS'FiftyFifty'
p192
F0.0098525835111899999
sS'CrazyIdeas'
p193
F0.016203636363600001
sS'AskHistorians'
p194
F0.0101247880123
sS'lego'
p195
F0.0074055342822100002
sS'chrome'
p196
F0.0099444659692599999
sS'Bad_Cop_No_Donut'
p197
F0.0075636942675200002
sS'ANormalDayInRussia'
p198
F0.0111528459983
sS'GamePhysics'
p199
F0.019021739130399999
sS'futurama'
p200
F0.0095784575068900007
sS'gif'
p201
F0.0086318964172399995
sS'SubredditDrama'
p202
F0.015769530814699999
sS'wheredidthesodago'
p203
F0.017272185824900001
sS'PenmanshipPorn'
p204
F0.0083631441554699992
sS'ifyoulikeblank'
p205
F0.0088827274594399999
sS'alternativeart'
p206
F0.0090792291220600004
sS'shittyadvice'
p207
F0.0086009572032999995
sS'CookieClicker'
p208
F0.01227154047
sS'web_design'
p209
F0.0105675282378
sS'fifthworldproblems'
p210
F0.0098692534795399994
sS'lewronggeneration'
p211
F0.013730874852899999
sS'Pareidolia'
p212
F0.0130363316896
sS'happy'
p213
F0.0091284231586799998
sS'truegaming'
p214
F0.0154073149278
sS'explainlikeIAmA'
p215
F0.014947089947099999
sS'misleadingthumbnails'
p216
F0.016434292494799999
sS'unitedkingdom'
p217
F0.0077792378449400004
sS'Unexpected'
p218
F0.0157403008709
sS'rpg_gamers'
p219
F0.00710677284014
sS'androidapps'
p220
F0.0075125208681099996
sS'GameDeals'
p221
F0.0097940954089100005
sS'mildlyinfuriating'
p222
F0.0131127668382
sS'ftlgame'
p223
F0.0135833173905
sS'roguelikes'
p224
F0.0132630984856
sS'youtubehaiku'
p225
F0.019064243419899998
sS'DnD'
p226
F0.0074860005894499997
sS'Awwducational'
p227
F0.0096924940864200008
sS'skyrim'
p228
F0.0084404132023200001
sS'Roadcam'
p229
F0.0084331372687999999
sS'worldbuilding'
p230
F0.0135654533122
sS'blunderyears'
p231
F0.0084251191846099992
sS'webcomics'
p232
F0.016818109357599999
sS'oddlysatisfying'
p233
F0.015137441084400001
sS'calvinandhobbes'
p234
F0.0079678465660700006
sS'rage'
p235
F0.0120535614821
sS'worldpolitics'
p236
F0.0092302816622400006
sS'science'
p237
F0.0090574199871600002
sS'netflix'
p238
F0.0075590984057200003
sS'Perfectfit'
p239
F0.0128982238511
sS'PerfectTiming'
p240
F0.0125818243645
sS'behindthegifs'
p241
F0.019223875246499999
sS'standupshots'
p242
F0.0134775546878
sS'MarkMyWords'
p243
F0.0103187151535
sS'civ'
p244
F0.0097767366257100006
sS'KerbalSpaceProgram'
p245
F0.0111913831604
sS'Glitch_in_the_Matrix'
p246
F0.0083218488285799995
sS'history'
p247
F0.0071319893495599999
sS'ICanDrawThat'
p248
F0.0076813268982400002
sS'fullmoviesonyoutube'
p249
F0.0138054176465
sS'gallifrey'
p250
F0.0087264794109599992
sS'gamernews'
p251
F0.0119970124171
sS'watchpeopledie'
p252
F0.0081173287322099993
sS'Economics'
p253
F0.0088729395062699997
sS'spaceporn'
p254
F0.0095413031277099998
sS'awesome'
p255
F0.0080812930068799999
sS'Cooking'
p256
F0.0082208814995600003
sS'teenagers'
p257
F0.0070075440067099998
sS'TrueAskReddit'
p258
F0.0115394369769
sS'FanTheories'
p259
F0.013553483844399999
sS'gadgets'
p260
F0.0083373110580700002
sS'PoliticalDiscussion'
p261
F0.0070974576271199998
sS'conspiracy'
p262
F0.0076989769377499998
sS'learnprogramming'
p263
F0.0093085733138500003
sS'Infographics'
p264
F0.0089984350547700001
sS'webdev'
p265
F0.0091344509066000005
sS'Portal'
p266
F0.0071454745328
sS'counting'
p267
F0.0153544135175
sS'technology'
p268
F0.0078783656349799992
sS'southpark'
p269
F0.0092277966553399992
sS'MorbidReality'
p270
F0.0091220068415100008
sS'asmr'
p271
F0.0105837223275
sS'techsupportmacgyver'
p272
F0.0097133541638399993
sS'MURICA'
p273
F0.0077176306437900001
sS'HighQualityGifs'
p274
F0.010783023007999999
sS'eFreebies'
p275
F0.0078059425885500001
sS'Python'
p276
F0.0089496513479399992
sS'softwaregore'
p277
F0.0126044367617
sS'self'
p278
F0.0129604922809
sS'shittyama'
p279
F0.0080484281488600005
sS'AskSocialScience'
p280
F0.0073283415644400003
sS'ImaginaryLandscapes'
p281
F0.010123096857799999
sS'economy'
p282
F0.00701639879253
sS'slowcooking'
p283
F0.0071962748694800001
sS'nottheonion'
p284
F0.0095559349566500008
sS'howtonotgiveafuck'
p285
F0.0071002979146000001
sS'nonononoyes'
p286
F0.014634925707
sS'Frugal_Jerk'
p287
F0.0081090714667599994
sS'gamegrumps'
p288
F0.0081350482315099993
sS'Whatcouldgowrong'
p289
F0.0134486826583
sS'wallpapers'
p290
F0.010392984735300001
sS'firefly'
p291
F0.0074746091521199999
sS'GiftofGames'
p292
F0.0089117872310799998
sS'facepalm'
p293
F0.0094483007160699999
sS'forwardsfromgrandma'
p294
F0.0107373622197
sS'AnimalsBeingJerks'
p295
F0.0108688359611
sS'askscience'
p296
F0.0102709211318
sS'Futurology'
p297
F0.0099617157590400005
sS'CrappyDesign'
p298
F0.0157246507785
sS'netsec'
p299
F0.0073651261277799997
sS'hardware'
p300
F0.0082697947214099999
sS'Games'
p301
F0.0115850242749
sS'shittyreactiongifs'
p302
F0.0112195832726
sS'gamemusic'
p303
F0.0088301945768499996
sS'Gaming4Gamers'
p304
F0.010239792611800001
sS'Sherlock'
p305
F0.0076818112902399998
sS'cordcutters'
p306
F0.0077220077220099999
sS'Minecraft'
p307
F0.0109087113106
sS'startrek'
p308
F0.0084192638937200005
sS'psychology'
p309
F0.0076431599689500002
sS'somethingimade'
p310
F0.0085254617958500003
sS'MachinePorn'
p311
F0.0082932247315799998
sS'oculus'
p312
F0.0087692212684500007
sS'windows'
p313
F0.00707290533188
sS'Terraria'
p314
F0.00921839756791
sS'entertainment'
p315
F0.011019835704300001
sS'youtube'
p316
F0.0080971659918999996
sS'HumanPorn'
p317
F0.0095254199075599996
sS'terriblefacebookmemes'
p318
F0.0086004116436300005
sS'TumblrInAction'
p319
F0.0113341766128
sS'thatHappened'
p320
F0.0109785581229
sS'cringepics'
p321
F0.0081577024117600004
sS'listentothis'
p322
F0.0081847832776100003
sS'minecraftsuggestions'
p323
F0.0075594752834800003
sS'HailCorporate'
p324
F0.0124104673427
sS'ImGoingToHellForThis'
p325
F0.0076618016024999997
sS'speedrun'
p326
F0.0091495241019300001
sS'GifSound'
p327
F0.0115280696488
s.