(dp1
S'breastfeeding'
p2
F0.0070718386780600001
sS'FancyFollicles'
p3
F0.026948989412899998
sS'Awwducational'
p4
F0.0084771117981499999
sS'DoesAnybodyElse'
p5
F0.0073586973540000003
sS'pettyrevenge'
p6
F0.0090015667283900001
sS'ABraThatFits'
p7
F0.022155146393000001
sS'BuyItForLife'
p8
F0.0079594101791700001
sS'Pets'
p9
F0.016171374566800002
sS'entwives'
p10
F0.0090160721285800008
sS'RandomActsofMakeup'
p11
F0.018534685380399998
sS'relationships'
p12
F0.0142375944791
sS'TalesFromRetail'
p13
F0.0115627266932
sS'BabyBumps'
p14
F0.0212124025251
sS'Advice'
p15
F0.0071356128658399999
sS'harrypotter'
p16
F0.0151769798829
sS'booksuggestions'
p17
F0.0070118431741400004
sS'teaching'
p18
F0.0070374053392499997
sS'offmychest'
p19
F0.0096845085111899997
sS'Anxiety'
p20
F0.0098070568169700001
sS'YouShouldKnow'
p21
F0.0071848465055500002
sS'childfree'
p22
F0.0154627410704
sS'food'
p23
F0.0072655881648199996
sS'recipes'
p24
F0.0169989506821
sS'vegan'
p25
F0.0073019859541400001
sS'xxketo'
p26
F0.018211300985400001
sS'wedding'
p27
F0.194825078466
sS'Rabbits'
p28
F0.0077160493827199998
sS'makeupexchange'
p29
F0.014560476770999999
sS'creepyPMs'
p30
F0.0093855445600699999
sS'freebies'
p31
F0.0086523335081299998
sS'corgi'
p32
F0.0088384558362300004
sS'Paleo'
p33
F0.0100734324986
sS'gardening'
p34
F0.0113706207744
sS'AskWomen'
p35
F0.0187041079579
sS'tea'
p36
F0.0083257725356200001
sS'redditgetsdrawn'
p37
F0.0091075708444899994
sS'sex'
p38
F0.0084773004208700004
sS'TwoXChromosomes'
p39
F0.0163220810465
sS'fatpeoplestories'
p40
F0.0092900721020500003
sS'Baking'
p41
F0.022081352350799999
sS'LongDistance'
p42
F0.0135113986123
sS'Feminism'
p43
F0.0081670182270500002
sS'AmericanHorrorStory'
p44
F0.0080301378011300006
sS'InteriorDesign'
p45
F0.0139511709018
sS'ExpectationVsReality'
p46
F0.0083372414152499998
sS'AskCulinary'
p47
F0.0117363559284
sS'foodhacks'
p48
F0.0076366104762999997
sS'disney'
p49
F0.0164521755527
sS'tattoos'
p50
F0.0091531463940699997
sS'jobs'
p51
F0.0092496744248199998
sS'facepalm'
p52
F0.0071697490587800004
sS'legaladvice'
p53
F0.00733194764852
sS'Frugal'
p54
F0.015026194311700001
sS'LadyBoners'
p55
F0.015941303985300002
sS'doctorwho'
p56
F0.0074289540869700004
sS'keto'
p57
F0.0109143375765
sS'ThriftStoreHauls'
p58
F0.0078165175357399995
sS'glutenfree'
p59
F0.0082905355832699999
sS'vegetarian'
p60
F0.0086350814576000006
sS'personalfinance'
p61
F0.0089784950562000008
sS'relationship_advice'
p62
F0.0131610673525
sS'Hair'
p63
F0.014300438031399999
sS'MakeupAddicts'
p64
F0.018864083599099999
sS'progresspics'
p65
F0.0119529281206
sS'xxfitness'
p66
F0.029605541008499998
sS'puppy101'
p67
F0.00844665934623
sS'confession'
p68
F0.0080046371691199995
sS'TrollXChromosomes'
p69
F0.018487184307800001
sS'femalefashionadvice'
p70
F0.034732580439000002
sS'BeautyBoxes'
p71
F0.016312481292999999
sS'CrossStitch'
p72
F0.01093062092
sS'HIMYM'
p73
F0.0080450036293200008
sS'loseit'
p74
F0.0193943897455
sS'EatCheapAndHealthy'
p75
F0.0172638660077
sS'cats'
p76
F0.013708260105399999
sS'PenmanshipPorn'
p77
F0.0075194394599699997
sS'catpictures'
p78
F0.0079474548440100004
sS'Indiemakeupandmore'
p79
F0.0128148799063
sS'ketorecipes'
p80
F0.0127047459051
sS'raisedbynarcissists'
p81
F0.015804508476700001
sS'dogs'
p82
F0.017328302894699998
sS'happy'
p83
F0.0102292202228
sS'fatlogic'
p84
F0.0085357526094999997
sS'TrollYChromosome'
p85
F0.0089978281104599999
sS'MakeupAddiction'
p86
F0.031372602627399999
sS'snackexchange'
p87
F0.0083094946192599998
sS'breakingmom'
p88
F0.0079925115207400005
sS'somethingimade'
p89
F0.0126551173363
sS'HomeImprovement'
p90
F0.0078148038926600001
sS'namenerds'
p91
F0.0139966408062
sS'sailormoon'
p92
F0.0080904877857199999
sS'curlyhair'
p93
F0.016887586031100001
sS'TheGirlSurvivalGuide'
p94
F0.030080554705800001
sS'AskMen'
p95
F0.0083761782347899997
sS'Random_Acts_Of_Amazon'
p96
F0.0097395723057399994
sS'fitmeals'
p97
F0.010026929467700001
sS'WaltDisneyWorld'
p98
F0.010668563300099999
sS'lookatmydog'
p99
F0.00783991637423
sS'RealEstate'
p100
F0.0084289998965800007
sS'TryingForABaby'
p101
F0.011889562719400001
sS'C25K'
p102
F0.010356439417999999
sS'nursing'
p103
F0.0109186968007
sS'FoodPorn'
p104
F0.0087845893204500005
sS'boston'
p105
F0.0070544604345500004
sS'Cooking'
p106
F0.014860883797100001
sS'piercing'
p107
F0.0074007220216600004
sS'bigboobproblems'
p108
F0.0179280045351
sS'DIY'
p109
F0.0076690307328600004
sS'RandomActsOfPolish'
p110
F0.0094621089421200004
sS'Dogtraining'
p111
F0.016004283674399999
sS'SkincareAddiction'
p112
F0.025073856160500001
sS'TalesFromYourServer'
p113
F0.012068161806599999
sS'yoga'
p114
F0.00971539604526
sS'travel'
p115
F0.0109856262834
sS'pitbulls'
p116
F0.0088267745494699998
sS'Parenting'
p117
F0.0130237982839
sS'popping'
p118
F0.0075727089811599996
sS'slowcooking'
p119
F0.014841910528099999
sS'RedditLaqueristas'
p120
F0.027319503430299999
sS'knitting'
p121
F0.0159528846704
sS'birthcontrol'
p122
F0.012726718487999999
sS'sewing'
p123
F0.019354439772399999
sS'budgetfood'
p124
F0.010857900385100001
sS'Mommit'
p125
F0.010333333333300001
sS'running'
p126
F0.0087161882501900004
sS'Teachers'
p127
F0.0110744448795
sS'GradSchool'
p128
F0.0077961215932900001
sS'crochet'
p129
F0.014092383402300001
sS'dogpictures'
p130
F0.011902905556400001
sS'beyondthebump'
p131
F0.0110919869956
sS'thesims'
p132
F0.010785895367599999
sS'GirlGamers'
p133
F0.0094812882512299995
sS'secretsanta'
p134
F0.014793341502
sS'crafts'
p135
F0.018685207027100002
sS'AsianBeauty'
p136
F0.0075590101975299999
sS'self'
p137
F0.0071641188638300003
s.