(dp1
S'slowcooking'
p2
F0.0116551329414
sS'TryingForABaby'
p3
F0.0108846981395
sS'C25K'
p4
F0.0088208820882100004
sS'gardening'
p5
F0.0080074412585400007
sS'nursing'
p6
F0.0083715688642000009
sS'AskWomen'
p7
F0.010768407450399999
sS'ABraThatFits'
p8
F0.015096217651000001
sS'puppy101'
p9
F0.0087719298245599996
sS'crochet'
p10
F0.0115911485774
sS'bigboobproblems'
p11
F0.0142632406922
sS'Pets'
p12
F0.0124309392265
sS'entwives'
p13
F0.0076411141237400001
sS'knitting'
p14
F0.010902342843900001
sS'AskCulinary'
p15
F0.0081875280394800003
sS'LongDistance'
p16
F0.0084873374401099998
sS'BeautyBoxes'
p17
F0.011149032991999999
sS'SkincareAddiction'
p18
F0.0144136153228
sS'RandomActsofMakeup'
p19
F0.0134507451132
sS'relationships'
p20
F0.0081152432450800008
sS'TalesFromRetail'
p21
F0.0076322848085800003
sS'loseit'
p22
F0.0117751431567
sS'crafts'
p23
F0.015339284166699999
sS'femalefashionadvice'
p24
F0.020244604917099999
sS'Dogtraining'
p25
F0.0113524991833
sS'travel'
p26
F0.0079657833397499996
sS'pitbulls'
p27
F0.0070193460024000004
sS'InteriorDesign'
p28
F0.0100852799407
sS'TwoXChromosomes'
p29
F0.0092036164798900005
sS'harrypotter'
p30
F0.0097031635758200001
sS'TrollXChromosomes'
p31
F0.010894341646599999
sS'Parenting'
p32
F0.0097525334349899996
sS'GirlGamers'
p33
F0.0077068774083999996
sS'cats'
p34
F0.0086423513287099997
sS'progresspics'
p35
F0.0080747104197299996
sS'Indiemakeupandmore'
p36
F0.010171365395199999
sS'RedditLaqueristas'
p37
F0.017705276769300001
sS'raisedbynarcissists'
p38
F0.010421174094899999
sS'Cooking'
p39
F0.00956152211706
sS'dogs'
p40
F0.011736075676099999
sS'disney'
p41
F0.012971414845099999
sS'happy'
p42
F0.00897244178594
sS'CrossStitch'
p43
F0.0087729559012799992
sS'Anxiety'
p44
F0.00725991339051
sS'TalesFromYourServer'
p45
F0.0082173174872700004
sS'childfree'
p46
F0.0105634954377
sS'MakeupAddiction'
p47
F0.0163176190066
sS'Baking'
p48
F0.015523215523200001
sS'birthcontrol'
p49
F0.0104632024453
sS'sewing'
p50
F0.015327650047400001
sS'snackexchange'
p51
F0.0071727435744199999
sS'budgetfood'
p52
F0.0105347736809
sS'Mommit'
p53
F0.010822301671700001
sS'somethingimade'
p54
F0.0088638195003999994
sS'Frugal'
p55
F0.0096966040337899996
sS'namenerds'
p56
F0.014743263853599999
sS'weddingplanning'
p57
F0.194825078466
sS'BabyBumps'
p58
F0.0163847780127
sS'LadyBoners'
p59
F0.0111438100844
sS'curlyhair'
p60
F0.012950804928500001
sS'TheGirlSurvivalGuide'
p61
F0.020394736842100001
sS'dogpictures'
p62
F0.0083953313767
sS'beyondthebump'
p63
F0.010222543875499999
sS'tonightsdinner'
p64
F0.00700607192901
sS'thesims'
p65
F0.0076590271281599996
sS'ketorecipes'
p66
F0.0086379655863500007
sS'xxfitness'
p67
F0.0182072104691
sS'makeupexchange'
p68
F0.0107093731578
sS'xxketo'
p69
F0.0132404181185
sS'vegetarian'
p70
F0.0074615142946899997
sS'fitmeals'
p71
F0.0082631743062099999
sS'relationship_advice'
p72
F0.0081126959282200005
sS'Hair'
p73
F0.012273310130099999
sS'secretsanta'
p74
F0.0092084842214199998
sS'EatCheapAndHealthy'
p75
F0.0114751439462
sS'FancyFollicles'
p76
F0.017212463588999999
sS'WaltDisneyWorld'
p77
F0.0098694683221899997
sS'MakeupAddicts'
p78
F0.0131540198292
sS'corgi'
p79
F0.00806576702342
sS'breakingmom'
p80
F0.0072526520891999999
sS'recipes'
p81
F0.011284812092299999
sS'catpictures'
p82
F0.0076624728029499999
sS'Teachers'
p83
F0.0096567333081900002
s.