(dp1
S'nutrition'
p2
F0.011764705882400001
sS'Paleo'
p3
F0.013523770095900001
sS'weightroom'
p4
F0.091321610890500005
sS'ketogains'
p5
F0.010957004160899999
sS'crossfit'
p6
F0.070320855614999997
sS'fitnesscirclejerk'
p7
F0.030195751770100001
sS'rugbyunion'
p8
F0.0070556826849699997
sS'steroids'
p9
F0.0198930747234
sS'bjj'
p10
F0.0071741428787200001
sS'powerlifting'
p11
F0.080805256535700004
sS'hardbodies'
p12
F0.011220438460200001
sS'swoleacceptance'
p13
F0.0247136190072
sS'Supplements'
p14
F0.021650499086199999
sS'xxfitness'
p15
F0.0094582975064499992
sS'bodybuilding'
p16
F0.0253558052434
sS'Fitness'
p17
F0.0105673145512
sS'leangains'
p18
F0.021658159746200001
sS'gainit'
p19
F0.016355441081799999
sS'bodyweightfitness'
p20
F0.015280135823399999
sS'fitmeals'
p21
F0.0104215129804
s.