(dp1
S'awwwtf'
p2
F0.010046728971999999
sS'MapPorn'
p3
F0.0074250567961399996
sS'Justrolledintotheshop'
p4
F0.011615934950800001
sS'DoesAnybodyElse'
p5
F0.0086522381910300004
sS'pettyrevenge'
p6
F0.0077468115257400003
sS'PublicFreakout'
p7
F0.0071146245059300001
sS'ArtisanVideos'
p8
F0.0074562815148599996
sS'inthenews'
p9
F0.0081615828524300004
sS'mycology'
p10
F0.0092255832520199994
sS'KitchenConfidential'
p11
F0.0076315789473700001
sS'BuyItForLife'
p12
F0.00871235020092
sS'woodworking'
p13
F0.0097747556311100006
sS'perfectloops'
p14
F0.0088905584773400007
sS'spiders'
p15
F0.0109268739971
sS'WouldYouRather'
p16
F0.0076186623516700004
sS'quityourbullshit'
p17
F0.0083025492849599994
sS'Advice'
p18
F0.0072284180090899999
sS'nostalgia'
p19
F0.0125469672571
sS'HistoryPorn'
p20
F0.0095598694669900008
sS'woahdude'
p21
F0.0078072833735700004
sS'AskCulinary'
p22
F0.0074306645735199997
sS'nononono'
p23
F0.010024730613000001
sS'MilitaryPorn'
p24
F0.0070344771175000001
sS'YouShouldKnow'
p25
F0.0087539011951000001
sS'shutupandtakemymoney'
p26
F0.0080783246257199997
sS'geology'
p27
F0.0070211490709799996
sS'howto'
p28
F0.011104294478500001
sS'AbandonedPorn'
p29
F0.010948905109499999
sS'geek'
p30
F0.0084170773859100004
sS'NoStupidQuestions'
p31
F0.0117699377409
sS'beards'
p32
F0.0075551992105600003
sS'IWantToLearn'
p33
F0.0075293293643799997
sS'holdmybeer'
p34
F0.0092303055419499999
sS'techsupportgore'
p35
F0.0106708401508
sS'freebies'
p36
F0.0077730705470599997
sS'PropagandaPosters'
p37
F0.0075374869697699999
sS'CrappyDesign'
p38
F0.010909376308100001
sS'NewsOfTheWeird'
p39
F0.010363236679599999
sS'Whatcouldgowrong'
p40
F0.0098159182804899991
sS'DeepIntoYouTube'
p41
F0.00744729029336
sS'everymanshouldknow'
p42
F0.0081715696084299991
sS'gardening'
p43
F0.0106859038654
sS'whatisthisthing'
p44
F0.029611573791999999
sS'gentlemanboners'
p45
F0.0074418368383599998
sS'POLITIC'
p46
F0.0082907038278399996
sS'interestingasfuck'
p47
F0.0105978082551
sS'MechanicAdvice'
p48
F0.0087246876346400003
sS'Cinemagraphs'
p49
F0.0072826581702300002
sS'firstworldanarchists'
p50
F0.010392375545000001
sS'PerfectTiming'
p51
F0.0096930533117900002
sS'camping'
p52
F0.0071258907363400004
sS'skeptic'
p53
F0.0079154506058199993
sS'shittyfoodporn'
p54
F0.0103155897028
sS'ExpectationVsReality'
p55
F0.0101452032211
sS'firstworldproblems'
p56
F0.0082579138340900006
sS'LearnUselessTalents'
p57
F0.0080649357406699998
sS'GuessTheMovie'
p58
F0.0081707520426900007
sS'RoomPorn'
p59
F0.0072276255911500002
sS'foodhacks'
p60
F0.0070668905681500003
sS'lifehacks'
p61
F0.011016402198800001
sS'memes'
p62
F0.010164569215899999
sS'vexillology'
p63
F0.0073638653833699996
sS'facepalm'
p64
F0.0090411045664700006
sS'casualiama'
p65
F0.0073861161919699997
sS'FloridaMan'
p66
F0.0084289143771699993
sS'delusionalartists'
p67
F0.0082211865738099996
sS'answers'
p68
F0.0099362579677500003
sS'Frugal'
p69
F0.00773108770349
sS'shittyaskscience'
p70
F0.00769908164549
sS'whatsthisplant'
p71
F0.0148696313715
sS'Unexpected'
p72
F0.0095630589059000001
sS'ThriftStoreHauls'
p73
F0.014930991217100001
sS'Roadcam'
p74
F0.0076693968726699998
sS'itookapicture'
p75
F0.0106533036377
sS'wheredidthesodago'
p76
F0.0089362005126700002
sS'AnimalsBeingBros'
p77
F0.00735965312643
sS'Images'
p78
F0.010368108021199999
sS'whatstheword'
p79
F0.010074048562100001
sS'ANormalDayInRussia'
p80
F0.0082818220008399994
sS'whatsthisbug'
p81
F0.019038531443099999
sS'QuotesPorn'
p82
F0.0070964880448400004
sS'drunk'
p83
F0.0075221807895099998
sS'misc'
p84
F0.0095796130952400006
sS'IdiotsFightingThings'
p85
F0.0091411680989700005
sS'conspiratard'
p86
F0.0073701331706799997
sS'marijuanaenthusiasts'
p87
F0.0073988661477900003
sS'TrollXChromosomes'
p88
F0.0077230185221500002
sS'Damnthatsinteresting'
p89
F0.0100645877085
sS'CrazyIdeas'
p90
F0.0093758292301800005
sS'OldSchoolCool'
p91
F0.00716418551696
sS'lego'
p92
F0.0078956147829599994
sS'Bad_Cop_No_Donut'
p93
F0.0073258574118000002
sS'OutOfTheLoop'
p94
F0.0092150980857599995
sS'coins'
p95
F0.010429623959399999
sS'MorbidReality'
p96
F0.0073085551726499998
sS'gif'
p97
F0.0080319120263099997
sS'cats'
p98
F0.0081004756242600007
sS'PenmanshipPorn'
p99
F0.0079992000799900004
sS'firstimpression'
p100
F0.012183204117500001
sS'HomeImprovement'
p101
F0.0091553455404600002
sS'confessions'
p102
F0.0071810420489899999
sS'Pareidolia'
p103
F0.0119005537881
sS'ObscureMedia'
p104
F0.0070887072954599999
sS'cablefail'
p105
F0.0081616402906300005
sS'tipofmytongue'
p106
F0.0095246006035900003
sS'misleadingthumbnails'
p107
F0.011882773057500001
sS'mildlyinfuriating'
p108
F0.012085223203600001
sS'DumpsterDiving'
p109
F0.00780014757036
sS'somethingimade'
p110
F0.0135096565503
sS'Awwducational'
p111
F0.0088856868395799996
sS'Shitty_Car_Mods'
p112
F0.012949734155299999
sS'ghettoglamourshots'
p113
F0.0104481266835
sS'blunderyears'
p114
F0.0082469866779400006
sS'EDC'
p115
F0.0083826030614699999
sS'whatsthisbird'
p116
F0.0088704244329700001
sS'rage'
p117
F0.0078415466774800005
sS'thatHappened'
p118
F0.0083967935871699997
sS'AMA'
p119
F0.0071802120141300002
sS'Flipping'
p120
F0.0081384323640999994
sS'Perfectfit'
p121
F0.0104189758368
sS'offbeat'
p122
F0.0084394262342299999
sS'findareddit'
p123
F0.011363636363600001
sS'softwaregore'
p124
F0.0076923076923099999
sS'knives'
p125
F0.0091023852235700003
sS'fullmoviesonyoutube'
p126
F0.0074503680570999998
sS'NewsOfTheStupid'
p127
F0.010980468370400001
sS'FoodPorn'
p128
F0.0074415467625900001
sS'TrollYChromosome'
p129
F0.0072376985160100002
sS'DIY'
p130
F0.0078563960249000003
sS'Infographics'
p131
F0.0071003963011900002
sS'DAE'
p132
F0.0073250135648400003
sS'techsupportmacgyver'
p133
F0.0105563480742
sS'MURICA'
p134
F0.0083501295709800007
sS'shittyama'
p135
F0.00707121725954
sS'TheWayWeWere'
p136
F0.0098744045041100001
sS'badtattoos'
p137
F0.010073875083899999
sS'popping'
p138
F0.011107850945200001
sS'UnresolvedMysteries'
p139
F0.0085728693898100006
sS'daddit'
p140
F0.00769976961319
sS'nonononoyes'
p141
F0.0089668615984400003
sS'Autos'
p142
F0.00722942802467
sS'firefly'
p143
F0.0073651698740799998
sS'notinteresting'
p144
F0.0096140399944100001
sS'forwardsfromgrandma'
p145
F0.0085775904323099998
sS'AnimalsBeingJerks'
p146
F0.0091532396297599999
sS'dogpictures'
p147
F0.00728094401205
sS'oddlysatisfying'
p148
F0.010430563978200001
sS'MachinePorn'
p149
F0.0091384831680099993
sS'medical'
p150
F0.0077308639877699996
sS'HumanPorn'
p151
F0.0080224863851999992
sS'terriblefacebookmemes'
p152
F0.0097689564273499997
sS'Fishing'
p153
F0.0083953348079600001
sS'urbanexploration'
p154
F0.0087136633097600006
sS'cableporn'
p155
F0.0073288743418200002
s.