(dp1
S'BackYardChickens'
p2
F0.0104347826087
sS'whatsthisbug'
p3
F0.021918588101299999
sS'biology'
p4
F0.010553824505
sS'gardening'
p5
F0.00919903363687
sS'snakes'
p6
F0.0095503967087899998
sS'parrots'
p7
F0.016933721777100001
sS'Whatisthis'
p8
F0.0088704244329700001
sS'mycology'
p9
F0.0121754437436
sS'environment'
p10
F0.0072463768115899998
sS'marijuanaenthusiasts'
p11
F0.0078859060402700007
sS'spiders'
p12
F0.010622329985
sS'Awwducational'
p13
F0.0097477064220200006
sS'reptiles'
p14
F0.0088659032138900008
sS'bettafish'
p15
F0.0070780800707800004
sS'whatsthisplant'
p16
F0.0252362758898
sS'whatisthisthing'
p17
F0.0083823529411799994
s.