(dp1
S'awwwtf'
p2
F0.0107933081489
sS'HomeworkHelp'
p3
F0.0076809453471200001
sS'Heavymind'
p4
F0.0102825682131
sS'help'
p5
F0.0085444902769600001
sS'DoesAnybodyElse'
p6
F0.0110773130545
sS'pettyrevenge'
p7
F0.0096057634580700001
sS'circlebroke'
p8
F0.0094976452119300003
sS'CityPorn'
p9
F0.0071193221934599997
sS'ArtisanVideos'
p10
F0.0075045795662699996
sS'LucidDreaming'
p11
F0.0076195932397600001
sS'Poetry'
p12
F0.0088936321593700001
sS'quotes'
p13
F0.013591573224599999
sS'BuyItForLife'
p14
F0.0096281414654499995
sS'SampleSize'
p15
F0.0117240215924
sS'perfectloops'
p16
F0.0129586590605
sS'everymanshouldknow'
p17
F0.0116085058043
sS'dataisbeautiful'
p18
F0.0089845049841600008
sS'InternetIsBeautiful'
p19
F0.0087098362673899993
sS'Foodforthought'
p20
F0.015292755742400001
sS'dadjokes'
p21
F0.0114537124573
sS'TalesFromRetail'
p22
F0.0075692201484299998
sS'AskMen'
p23
F0.0077571172966700002
sS'languagelearning'
p24
F0.0112051223416
sS'TheoryOfReddit'
p25
F0.015961945031699998
sS'badlinguistics'
p26
F0.0140553947912
sS'WouldYouRather'
p27
F0.013499002914599999
sS'quityourbullshit'
p28
F0.0111141548938
sS'LearnUselessTalents'
p29
F0.016009213936100001
sS'MMFB'
p30
F0.00974725150176
sS'duolingo'
p31
F0.00710693199213
sS'HistoryPorn'
p32
F0.0089117283549099997
sS'Screenwriting'
p33
F0.0071441171282400004
sS'whowouldwin'
p34
F0.0080829815994900005
sS'woahdude'
p35
F0.00760076441974
sS'ImaginaryMonsters'
p36
F0.0080682130741699994
sS'PublicFreakout'
p37
F0.00746055882912
sS'AskCulinary'
p38
F0.0123064478854
sS'nononono'
p39
F0.010902830910500001
sS'offmychest'
p40
F0.0072465684589100004
sS'Frisson'
p41
F0.013418489129699999
sS'YouShouldKnow'
p42
F0.014866019002900001
sS'RoomPorn'
p43
F0.00871037986934
sS'whitepeoplegifs'
p44
F0.0090157154673299999
sS'UnresolvedMysteries'
p45
F0.0082176021037099999
sS'howto'
p46
F0.0118680112506
sS'AbandonedPorn'
p47
F0.0079325731284099997
sS'patientgamers'
p48
F0.0083652489417499996
sS'geek'
p49
F0.0078521627292999999
sS'lostgeneration'
p50
F0.0077843174482600001
sS'3amjokes'
p51
F0.012463647694199999
sS'nonononoyes'
p52
F0.0107538000207
sS'IWantToLearn'
p53
F0.016475644699100001
sS'firstimpression'
p54
F0.00759068681118
sS'grammar'
p55
F0.029646660213000001
sS'creepyPMs'
p56
F0.0085127525670799994
sS'progressive'
p57
F0.0077244258872699997
sS'IdiotsFightingThings'
p58
F0.0093655589123899999
sS'holdmybeer'
p59
F0.0084111397295600007
sS'freebies'
p60
F0.0071136613739999997
sS'PropagandaPosters'
p61
F0.012523364485999999
sS'CrappyDesign'
p62
F0.0125366910817
sS'fantasywriters'
p63
F0.0075621635478099998
sS'shittyadviceanimals'
p64
F0.0071428571428599997
sS'futurama'
p65
F0.00763938075483
sS'MarkMyWords'
p66
F0.0151546822742
sS'Enhancement'
p67
F0.0104272400111
sS'minimalism'
p68
F0.00914137830279
sS'DeepIntoYouTube'
p69
F0.0099950300955300008
sS'fifthworldproblems'
p70
F0.010802796017799999
sS'Whatisthis'
p71
F0.010074048562100001
sS'getdisciplined'
p72
F0.0090331604405900004
sS'TrueAtheism'
p73
F0.0095176923975200008
sS'whatisthisthing'
p74
F0.016702573725299999
sS'shittyreactiongifs'
p75
F0.0088090204369299999
sS'AskWomen'
p76
F0.0082645710543500003
sS'NetflixBestOf'
p77
F0.0095718025956500006
sS'TheSimpsons'
p78
F0.007156133829
sS'askphilosophy'
p79
F0.0122287289011
sS'literature'
p80
F0.013747311325200001
sS'tumblr'
p81
F0.0077394533172300004
sS'offbeat'
p82
F0.012935626236500001
sS'interestingasfuck'
p83
F0.0104639584142
sS'AskScienceDiscussion'
p84
F0.0071645679548399998
sS'changemyview'
p85
F0.0130192804611
sS'classicalmusic'
p86
F0.0094727851541299996
sS'OneY'
p87
F0.0086386003280500001
sS'Cinemagraphs'
p88
F0.0086477987421400004
sS'firstworldanarchists'
p89
F0.00905025271905
sS'NewsOfTheWeird'
p90
F0.0112345206179
sS'no_sob_story'
p91
F0.0089519650655000005
sS'humor'
p92
F0.010195360195400001
sS'psychology'
p93
F0.0124036440084
sS'Glitch_in_the_Matrix'
p94
F0.0091213134691400001
sS'skeptic'
p95
F0.0110892419951
sS'shittyfoodporn'
p96
F0.0081555025465800002
sS'wikipedia'
p97
F0.015953647114900001
sS'ExpectationVsReality'
p98
F0.0119726339795
sS'socialskills'
p99
F0.011078431372499999
sS'DebateReligion'
p100
F0.0082987551867200002
sS'firstworldproblems'
p101
F0.0090365508249800001
sS'outside'
p102
F0.0103856866355
sS'conlangs'
p103
F0.0076464291175999998
sS'GuessTheMovie'
p104
F0.0107306604234
sS'DaystromInstitute'
p105
F0.0083093640140599993
sS'foodhacks'
p106
F0.0096483534008499992
sS'lifehacks'
p107
F0.0093084492077400004
sS'vexillology'
p108
F0.010201107548799999
sS'math'
p109
F0.0089967168379299998
sS'SubredditDrama'
p110
F0.0093286464771299999
sS'LetsTalkMusic'
p111
F0.0082684824902700006
sS'TheWayWeWere'
p112
F0.011719148068900001
sS'blackpeoplegifs'
p113
F0.0070619276734399999
sS'bestof'
p114
F0.0076494072471300001
sS'ProgrammerHumor'
p115
F0.0076443371555000002
sS'linguistics'
p116
F0.023793043779199999
sS'casualiama'
p117
F0.0103196758217
sS'FloridaMan'
p118
F0.0091678420310300004
sS'delusionalartists'
p119
F0.011662144217999999
sS'answers'
p120
F0.023259112182699999
sS'Frugal'
p121
F0.0083026496281900005
sS'slowcooking'
p122
F0.0071079991512800001
sS'NotTimAndEric'
p123
F0.0079493596349199998
sS'shittyaskscience'
p124
F0.0097230639508800003
sS'ainbow'
p125
F0.0084655214925599999
sS'whatsthisplant'
p126
F0.0091220957430199999
sS'gamingsuggestions'
p127
F0.00831192383255
sS'worldbuilding'
p128
F0.010559249120100001
sS'youtubehaiku'
p129
F0.0075902726602800003
sS'PoliticalHumor'
p130
F0.0086702386751099994
sS'ThriftStoreHauls'
p131
F0.0075319059906499997
sS'RedditDayOf'
p132
F0.015928671608899998
sS'recipes'
p133
F0.0089904278386000007
sS'Ask_Politics'
p134
F0.0087997184090099993
sS'howtonotgiveafuck'
p135
F0.0102981949867
sS'sixwordstories'
p136
F0.014780600461900001
sS'AnimalsBeingBros'
p137
F0.0088686177625700007
sS'classic4chan'
p138
F0.0085808025574199993
sS'ANormalDayInRussia'
p139
F0.0087689939085600008
sS'Whatcouldgowrong'
p140
F0.0093046579006
sS'whatsthisbug'
p141
F0.0093148012679800003
sS'QuotesPorn'
p142
F0.0119716163859
sS'TrueReddit'
p143
F0.012030039223199999
sS'Design'
p144
F0.0076169107227200003
sS'confession'
p145
F0.0092014670870599995
sS'misc'
p146
F0.0125402286095
sS'AntiJokes'
p147
F0.0116224133044
sS'printSF'
p148
F0.0086746015735300001
sS'rant'
p149
F0.0097364046544800003
sS'Buddhism'
p150
F0.0072383484747800004
sS'startrek'
p151
F0.0070159027128200002
sS'TrollXChromosomes'
p152
F0.0070663054999400001
sS'ContagiousLaughter'
p153
F0.0091954022988500004
sS'writing'
p154
F0.0136379568556
sS'nostalgia'
p155
F0.00868609515706
sS'badhistory'
p156
F0.010424126681
sS'Damnthatsinteresting'
p157
F0.0113650874729
sS'CrazyIdeas'
p158
F0.0165123842882
sS'AskHistorians'
p159
F0.012125303807699999
sS'booksuggestions'
p160
F0.013772587042800001
sS'Bad_Cop_No_Donut'
p161
F0.0079732170389000007
sS'OutOfTheLoop'
p162
F0.0171432443421
sS'EatCheapAndHealthy'
p163
F0.0101893486242
sS'GamePhysics'
p164
F0.0083400259467500005
sS'MorbidReality'
p165
F0.0080505206324700002
sS'PenmanshipPorn'
p166
F0.0116917334504
sS'ifyoulikeblank'
p167
F0.017308601134200002
sS'misleadingthumbnails'
p168
F0.013719407100999999
sS'shittyadvice'
p169
F0.0075694559973399998
sS'MeanJokes'
p170
F0.0070105157736599999
sS'musictheory'
p171
F0.0084275043095200005
sS'confessions'
p172
F0.0073060205308400003
sS'Pareidolia'
p173
F0.0137840498851
sS'ObscureMedia'
p174
F0.010704091341600001
sS'TrollYChromosome'
p175
F0.0071477584629500001
sS'explainlikeIAmA'
p176
F0.014847984916299999
sS'alternativeart'
p177
F0.0077577847214700003
sS'WebGames'
p178
F0.0090938616433899992
sS'mildlyinfuriating'
p179
F0.0099616507005200004
sS'somethingimade'
p180
F0.0088126159554699993
sS'Unexpected'
p181
F0.0097513089005200008
sS'Awwducational'
p182
F0.0112713854411
sS'TheGirlSurvivalGuide'
p183
F0.00810340208947
sS'shittyaskreddit'
p184
F0.0082662372517399996
sS'NeutralPolitics'
p185
F0.0094272076372299996
sS'blunderyears'
p186
F0.0092668675248800004
sS'webcomics'
p187
F0.0087899208907100002
sS'calvinandhobbes'
p188
F0.00815563673435
sS'rage'
p189
F0.0073331302860599997
sS'worldpolitics'
p190
F0.0076949982511400001
sS'typography'
p191
F0.0092176518031999999
sS'Perfectfit'
p192
F0.0110048251926
sS'PerfectTiming'
p193
F0.0114409984871
sS'behindthegifs'
p194
F0.0108463107617
sS'standupshots'
p195
F0.010860578729799999
sS'socialism'
p196
F0.0077557639427500002
sS'findareddit'
p197
F0.0308003597122
sS'introvert'
p198
F0.010190980581
sS'TheBluePill'
p199
F0.0074372482181600001
sS'Meditation'
p200
F0.0073923166472600003
sS'happy'
p201
F0.011060315587699999
sS'ICanDrawThat'
p202
F0.0078048780487800003
sS'fullmoviesonyoutube'
p203
F0.0099292841228299997
sS'gallifrey'
p204
F0.0079673776662500008
sS'AskScienceFiction'
p205
F0.0135622880892
sS'NewsOfTheStupid'
p206
F0.0120186697783
sS'StandUpComedy'
p207
F0.00804729840696
sS'Anticonsumption'
p208
F0.0078749846191699998
sS'badphilosophy'
p209
F0.00724269377382
sS'awesome'
p210
F0.0091278896715900008
sS'Cooking'
p211
F0.0076263339993199999
sS'DecidingToBeBetter'
p212
F0.0094062316284499996
sS'TrueAskReddit'
p213
F0.017451481871499998
sS'FanTheories'
p214
F0.011243793344000001
sS'NoStupidQuestions'
p215
F0.0219558359621
sS'PoliticalDiscussion'
p216
F0.0085740346609900001
sS'tipofmytongue'
p217
F0.0217728277406
sS'Infographics'
p218
F0.0144407830975
sS'AnythingGoesNews'
p219
F0.0086466165413500006
sS'Pizza'
p220
F0.0072202166065000002
sS'TalesFromYourServer'
p221
F0.0083391730904000001
sS'DAE'
p222
F0.0103092783505
sS'AskUK'
p223
F0.0087154600376299993
sS'eatsandwiches'
p224
F0.0073312386937100004
sS'HighQualityGifs'
p225
F0.0100302382182
sS'glitch_art'
p226
F0.0077875399361
sS'softwaregore'
p227
F0.0084099185018199994
sS'self'
p228
F0.0126379546315
sS'shittyama'
p229
F0.0089123617758700008
sS'AskSocialScience'
p230
F0.012585472203000001
sS'comics'
p231
F0.0088166093544000002
sS'FutureWhatIf'
p232
F0.00980957876515
sS'scifi'
p233
F0.0084622021636699997
sS'britishproblems'
p234
F0.0086455331412100007
sS'LifeProTips'
p235
F0.0072682124760900003
sS'spaceporn'
p236
F0.0077798420808200004
sS'itookapicture'
p237
F0.0074682894060899997
sS'conspiratard'
p238
F0.0092060480946299997
sS'Frugal_Jerk'
p239
F0.0073696145124699996
sS'Dreams'
p240
F0.00705601389492
sS'wheredidthesodago'
p241
F0.0100979424493
sS'BasicIncome'
p242
F0.0070888468809099997
sS'MovieSuggestions'
p243
F0.0098843879622300002
sS'MapPorn'
p244
F0.0090950779578099997
sS'notinteresting'
p245
F0.0106846357172
sS'facepalm'
p246
F0.0076881816556400003
sS'forwardsfromgrandma'
p247
F0.011757126751500001
sS'AnimalsBeingJerks'
p248
F0.0089217435635999993
sS'askscience'
p249
F0.0075683563558100004
sS'philosophy'
p250
F0.0072915982395100002
sS'budgetfood'
p251
F0.0085422469823600005
sS'translator'
p252
F0.0092000774743400005
sS'Images'
p253
F0.0075285807231199996
sS'INTP'
p254
F0.0074040632054200002
sS'Sherlock'
p255
F0.0074794315631999996
sS'Physics'
p256
F0.0072734054457299999
sS'lewronggeneration'
p257
F0.0076611861926499996
sS'truegaming'
p258
F0.0081905280019300003
sS'oddlysatisfying'
p259
F0.010680860184299999
sS'TrueFilm'
p260
F0.010332579916
sS'HumanPorn'
p261
F0.0095852895148699994
sS'IWantOut'
p262
F0.0072773651436700004
sS'terriblefacebookmemes'
p263
F0.0084836577960399999
sS'thatHappened'
p264
F0.0090756162904200004
sS'crafts'
p265
F0.0070661896243299997
sS'HailCorporate'
p266
F0.0094572718752700003
sS'needadvice'
p267
F0.0094368340943699995
sS'shutupandtakemymoney'
p268
F0.0095582291121799993
s.