(dp1
S'climateskeptics'
p2
F0.0088841506752000005
sS'MensRights'
p3
F0.0106316010352
sS'ShitAmericansSay'
p4
F0.00793797304781
sS'asatru'
p5
F0.0076004343105299998
sS'AmIFreeToGo'
p6
F0.0072689511941800003
sS'ShitPoliticsSays'
p7
F0.0077441077441100003
sS'Conservative'
p8
F0.013636044141399999
sS'POLITIC'
p9
F0.012761934772300001
sS'conspiratard'
p10
F0.0088525706503199998
sS'conspiracy'
p11
F0.0082525392428399996
sS'AnythingGoesNews'
p12
F0.0146590184831
sS'SRSsucks'
p13
F0.018194791294999998
sS'Israel'
p14
F0.0099048612016199994
sS'syriancivilwar'
p15
F0.0093030349245099998
sS'ShitRConservativeSays'
p16
F0.0095170955234399994
sS'Bad_Cop_No_Donut'
p17
F0.00750141293737
sS'circlebroke'
p18
F0.0077780113516899996
sS'911truth'
p19
F0.0095759233926100001
sS'Republican'
p20
F0.011325301204799999
sS'europe'
p21
F0.0076266510888299997
sS'collapse'
p22
F0.0101879501142
sS'HumanPorn'
p23
F0.0077583360845199997
sS'conservatives'
p24
F0.011969532100099999
sS'GunsAreCool'
p25
F0.0108558444837
sS'RedPillWomen'
p26
F0.0087385166928100003
sS'worldpolitics'
p27
F0.0088256300377500003
sS'progun'
p28
F0.0074833251992800004
sS'TheRedPill'
p29
F0.0096990607628900001
sS'PropagandaPosters'
p30
F0.0070591369206200001
sS'Shitstatistssay'
p31
F0.012420785804799999
sS'Libertarian'
p32
F0.010052519284399999
sS'Anarcho_Capitalism'
p33
F0.010774410774400001
sS'russia'
p34
F0.0083300793960700004
s.