(dp1
S'occult'
p2
F0.038945578231300002
sS'asatru'
p3
F0.0216275659824
sS'Paranormal'
p4
F0.0106100795756
sS'Tulpas'
p5
F0.0079455164585699994
sS'Thetruthishere'
p6
F0.00768365817091
sS'religion'
p7
F0.0142009706993
s.