(dp1
S'PoliticalDiscussion'
p2
F0.0073223827429200004
sS'Liberal'
p3
F0.0094070695552999992
sS'progressive'
p4
F0.010544176463499999
sS'Hunting'
p5
F0.0085964622251599992
sS'chicago'
p6
F0.0073762277009399996
sS'madisonwi'
p7
F0.101763299462
sS'minnesotavikings'
p8
F0.010864245864700001
sS'energy'
p9
F0.0075687005123399997
sS'CHIBears'
p10
F0.014152850788499999
sS'beer'
p11
F0.0073876593967799999
sS'Minneapolis'
p12
F0.0098312740799799993
sS'minnesota'
p13
F0.0139681061576
sS'environment'
p14
F0.0081912773964999998
sS'milwaukee'
p15
F0.11414790996800001
sS'detroitlions'
p16
F0.0099947943779299993
sS'GreenBayPackers'
p17
F0.063524590163899997
sS'AnythingGoesNews'
p18
F0.0073309395571499996
sS'TwinCities'
p19
F0.0091845254661799998
sS'Conservative'
p20
F0.0077528919517600003
sS'CollegeBasketball'
p21
F0.0076410658307199996
s.