(dp1
S'Boobies'
p2
F0.0262642101137
sS'wifesharing'
p3
F0.076204090609199998
sS'boltedontits'
p4
F0.0152905198777
sS'GWCouples'
p5
F0.064912471458100002
sS'pussy'
p6
F0.043156424580999997
sS'shorthairedhotties'
p7
F0.0135495335406
sS'RandomActsOfBlowJob'
p8
F0.023567695493500001
sS'ginger'
p9
F0.034569453174099998
sS'milf'
p10
F0.045067234722399999
sS'penis'
p11
F0.0132181515404
sS'incest'
p12
F0.0151183608514
sS'Tgirls'
p13
F0.010221226547200001
sS'nsfw'
p14
F0.012120407847300001
sS'AmISexy'
p15
F0.011411411411400001
sS'Swingers'
p16
F0.0123995808592
sS'DirtySnapchat'
p17
F0.0108624334767
sS'burstingout'
p18
F0.024903071875900001
sS'thick'
p19
F0.029832805157899999
sS'gonewild'
p20
F0.017805949722699999
sS'gonewildaudio'
p21
F0.027389960567
sS'hardbodies'
p22
F0.012247714335
sS'BDSMGW'
p23
F0.038330494037500003
sS'NSFWFunny'
p24
F0.013985348682299999
sS'Blowjobs'
p25
F0.017885777722999999
sS'redheads'
p26
F0.020261437908500001
sS'RealGirls'
p27
F0.020908912638500001
sS'GoneMild'
p28
F0.061254415783500001
sS'Hotchickswithtattoos'
p29
F0.014947016174000001
sS'TinyTits'
p30
F0.034566996457800002
sS'BBWGW'
p31
F0.049059334298099999
sS'bdsm'
p32
F0.0120862984299
sS'randomsexiness'
p33
F0.017336379518899998
sS'Hotwife'
p34
F0.049125246205500003
sS'tightdresses'
p35
F0.023011707710900001
sS'gonewildcurvy'
p36
F0.053337511751800001
sS'AsianHotties'
p37
F0.0088706474248600002
sS'AsiansGoneWild'
p38
F0.049095387751600002
sS'Rateme'
p39
F0.0080847903096800001
sS'BigBoobsGW'
p40
F0.076659895220799995
sS'ass'
p41
F0.024390243902400001
sS'pornID'
p42
F0.0072840790842900001
sS'treesgonewild'
p43
F0.040097205346299999
sS'Stacked'
p44
F0.023238267692800001
sS'cumsluts'
p45
F0.024897548905899999
sS'Bondage'
p46
F0.0132533922373
sS'dirtykikpals'
p47
F0.0140724615145
sS'NSFW_GIF'
p48
F0.012882998432399999
sS'celebnsfw'
p49
F0.013185521122000001
sS'girlsinyogapants'
p50
F0.018920682263000001
sS'altgonewild'
p51
F0.061077027948199997
sS'nsfw_gifs'
p52
F0.012487899322399999
sS'ladybonersgw'
p53
F0.0080465394443499996
sS'r4r'
p54
F0.00924953413519
sS'BBW'
p55
F0.025333333333300002
sS'Sissies'
p56
F0.010093045261
sS'hugeboobs'
p57
F0.022727272727300001
sS'Amateur'
p58
F0.041294551413400001
sS'feet'
p59
F0.0297131147541
sS'TributeMe'
p60
F0.056208729264000001
sS'gonewildstories'
p61
F0.025184687709900001
sS'traps'
p62
F0.015526443474
sS'GoneWildCD'
p63
F0.011799410029499999
sS'tipofmypenis'
p64
F0.0079061088194900004
sS'cosplaygirls'
p65
F0.0075945669636300001
sS'GoneWildPlus'
p66
F0.062888828780100006
sS'Cuckold'
p67
F0.026226848722500001
sS'ConfusedBoners'
p68
F0.0074659164682999999
sS'AmateurArchives'
p69
F0.027528337994999999
sS'BustyPetite'
p70
F0.020325460647099999
sS'curvy'
p71
F0.031088082901599999
sS'WatchItForThePlot'
p72
F0.0078545638816699993
sS'pornvids'
p73
F0.0078895463510799992
sS'asstastic'
p74
F0.063614606654799996
sS'dirtypenpals'
p75
F0.024061645538200001
sS'pantyselling'
p76
F0.0158937920718
sS'MassiveCock'
p77
F0.012549105194199999
sS'anal'
p78
F0.0137614678899
sS'GWNerdy'
p79
F0.069822766741999998
sS'Celebs'
p80
F0.0078372697801999992
sS'Pegging'
p81
F0.016687461010600001
sS'OnOff'
p82
F0.0346593507087
s.