(dp1
S'StarWarsEU'
p2
F0.0080409356725099999
sS'BuyItForLife'
p3
F0.00869374176135
sS'SampleSize'
p4
F0.0087041733917499996
sS'everymanshouldknow'
p5
F0.012326564640000001
sS'askphilosophy'
p6
F0.010835822643899999
sS'RandomActsOfGaming'
p7
F0.0094559706367200007
sS'AskMen'
p8
F0.0089906356443500007
sS'Showerthoughts'
p9
F0.0096931018784900003
sS'duolingo'
p10
F0.0093284861787499996
sS'HistoryPorn'
p11
F0.014980688955600001
sS'holdmybeer'
p12
F0.0077158967256900001
sS'ImaginaryMonsters'
p13
F0.032413491020599997
sS'dwarffortress'
p14
F0.0298591838832
sS'YouShouldKnow'
p15
F0.0127498196878
sS'skyrimmods'
p16
F0.0134860520968
sS'UpliftingNews'
p17
F0.00966763267524
sS'Jokes'
p18
F0.00750218533568
sS'Stargate'
p19
F0.0080005424096500008
sS'Military'
p20
F0.00715936086433
sS'Steam'
p21
F0.0103560521322
sS'photoshopbattles'
p22
F0.0110938010403
sS'IWantToLearn'
p23
F0.013046437755300001
sS'CrappyDesign'
p24
F0.0157095646343
sS'fantasywriters'
p25
F0.064092356687900004
sS'techsupport'
p26
F0.0080558757713399994
sS'Libertarian'
p27
F0.0096447467876
sS'starcitizen'
p28
F0.010552366548699999
sS'Anarcho_Capitalism'
p29
F0.0078780321922500007
sS'pcgaming'
p30
F0.0101599247413
sS'EatCheapAndHealthy'
p31
F0.0084734364492299995
sS'totalwar'
p32
F0.016365366317800001
sS'tea'
p33
F0.00716939661939
sS'DCcomics'
p34
F0.0084248149093700004
sS'fatpeoplestories'
p35
F0.0093108846713699997
sS'OneY'
p36
F0.0098738343389999997
sS'forwardsfromgrandma'
p37
F0.015048563925099999
sS'Glitch_in_the_Matrix'
p38
F0.010794492979
sS'skeptic'
p39
F0.016180239452199999
sS'Warthunder'
p40
F0.0070957932083099999
sS'boardgames'
p41
F0.018867370029700001
sS'socialskills'
p42
F0.0085687818434500001
sS'DebateReligion'
p43
F0.014402383842799999
sS'mindcrack'
p44
F0.0080851637245700006
sS'gamedev'
p45
F0.021489255372299999
sS'worldnews'
p46
F0.0083568319175900008
sS'vexillology'
p47
F0.039000053645199997
sS'Economics'
p48
F0.0112561750176
sS'answers'
p49
F0.0122892545196
sS'lgbt'
p50
F0.0099295975257400002
sS'doctorwho'
p51
F0.012591092272000001
sS'WritingPrompts'
p52
F0.022147007089200001
sS'Frugal'
p53
F0.0082848156327400002
sS'WarshipPorn'
p54
F0.0089519079979099997
sS'creepy'
p55
F0.0072058957328700003
sS'learnart'
p56
F0.0087874760005899992
sS'QuotesPorn'
p57
F0.0134658770446
sS'TrueReddit'
p58
F0.016171533001799999
sS'Yogscast'
p59
F0.0082085368783499993
sS'todayilearned'
p60
F0.0076549690609700001
sS'confession'
p61
F0.0082305652019399999
sS'AntiJokes'
p62
F0.0081472728403500002
sS'findareddit'
p63
F0.01320496633
sS'IdiotsFightingThings'
p64
F0.0094999999999999998
sS'FinalFantasy'
p65
F0.0072337458602100002
sS'gamernews'
p66
F0.012226038599899999
sS'ContagiousLaughter'
p67
F0.00755755537111
sS'environment'
p68
F0.0083197952050400002
sS'FiftyFifty'
p69
F0.0091537929444300004
sS'AskHistorians'
p70
F0.0283014354067
sS'OutOfTheLoop'
p71
F0.018049596099999999
sS'ifyoulikeblank'
p72
F0.0105389541089
sS'misleadingthumbnails'
p73
F0.0121712997746
sS'WebGames'
p74
F0.0135654533122
sS'Pareidolia'
p75
F0.010223272411599999
sS'tipofmytongue'
p76
F0.0107806054536
sS'custommagic'
p77
F0.010261991759299999
sS'rpg_gamers'
p78
F0.014772260976599999
sS'Eve'
p79
F0.00973153413109
sS'ftlgame'
p80
F0.014601272931500001
sS'LifeProTips'
p81
F0.0078311731213900008
sS'asoiaf'
p82
F0.0177435029311
sS'NeutralPolitics'
p83
F0.0097628001157099992
sS'KillLaKill'
p84
F0.0073836095141499997
sS'EDC'
p85
F0.0070593193551799997
sS'techsupportgore'
p86
F0.0096615326704100005
sS'science'
p87
F0.0121816414387
sS'EDH'
p88
F0.0081381500595500006
sS'firstworldproblems'
p89
F0.0071714296010700002
sS'movies'
p90
F0.0076378143133500002
sS'standupshots'
p91
F0.012087706146899999
sS'history'
p92
F0.014829372878300001
sS'AskScienceFiction'
p93
F0.037327924739999997
sS'Pathfinder_RPG'
p94
F0.042623305061899999
sS'DecidingToBeBetter'
p95
F0.0077519379845000002
sS'oddlysatisfying'
p96
F0.0125240533577
sS'learnprogramming'
p97
F0.010477888573400001
sS'Infographics'
p98
F0.0100556539337
sS'BasicIncome'
p99
F0.0146301645109
sS'counting'
p100
F0.0076327116212300001
sS'Ask_Politics'
p101
F0.0071418368804499997
sS'asmr'
p102
F0.00800193986421
sS'techsupportmacgyver'
p103
F0.0086580086580100007
sS'MURICA'
p104
F0.010287517675299999
sS'technology'
p105
F0.0093469999651400008
sS'scifi'
p106
F0.0306084359836
sS'spaceporn'
p107
F0.0144207303545
sS'wheredidthesodago'
p108
F0.0142126208073
sS'polandball'
p109
F0.0257743241764
sS'gaming'
p110
F0.0078048432158400001
sS'mylittlepony'
p111
F0.011881770089800001
sS'askscience'
p112
F0.0149715272591
sS'philosophy'
p113
F0.0111819300011
sS'nerdcubed'
p114
F0.0081904893558200006
sS'dragonage'
p115
F0.0091005791277599998
sS'MachinePorn'
p116
F0.0077271355267099998
sS'oculus'
p117
F0.0087481657071899997
sS'listentothis'
p118
F0.0070188970304700003
sS'ImGoingToHellForThis'
p119
F0.0076697846759800001
sS'manga'
p120
F0.0078485687903999991
sS'shield'
p121
F0.0085955638986300008
sS'DoesAnybodyElse'
p122
F0.0090028008713799994
sS'pettyrevenge'
p123
F0.010393718578800001
sS'CityPorn'
p124
F0.0123517565451
sS'DeepIntoYouTube'
p125
F0.0124244745128
sS'dataisbeautiful'
p126
F0.0148633702894
sS'japan'
p127
F0.00754134108668
sS'MLPLounge'
p128
F0.0092920353982299999
sS'linguistics'
p129
F0.021445825723200002
sS'beards'
p130
F0.0073242862275800001
sS'badlinguistics'
p131
F0.0137925598991
sS'Documentaries'
p132
F0.0071391291380899996
sS'writing'
p133
F0.044974656249099999
sS'Screenwriting'
p134
F0.0084619510160300008
sS'gamedesign'
p135
F0.017734211313999999
sS'wallpaper'
p136
F0.0094661961575099995
sS'MensRights'
p137
F0.0110022809607
sS'MilitaryPorn'
p138
F0.0105697711662
sS'Frisson'
p139
F0.016483779769
sS'childfree'
p140
F0.0086705202312100001
sS'unitedkingdom'
p141
F0.0099724477604700001
sS'DebateAnAtheist'
p142
F0.0087910635203900002
sS'NoStupidQuestions'
p143
F0.0154596361493
sS'occult'
p144
F0.0080601463018200002
sS'creepyPMs'
p145
F0.0103704120061
sS'conspiratard'
p146
F0.0171157577064
sS'PropagandaPosters'
p147
F0.018578553615999999
sS'SubredditDrama'
p148
F0.017850220264299999
sS'arrow'
p149
F0.0070143588050800001
sS'minimalism'
p150
F0.011209158120700001
sS'eu4'
p151
F0.019571203776599998
sS'wallpapers'
p152
F0.0126798805322
sS'mildlyinteresting'
p153
F0.0077148120828599998
sS'TrueAtheism'
p154
F0.015052326876
sS'badhistory'
p155
F0.025522564651500001
sS'energy'
p156
F0.0071600598841399998
sS'Warhammer40k'
p157
F0.011808466670599999
sS'Anarchism'
p158
F0.0101027014959
sS'Cinemagraphs'
p159
F0.0088752144843500004
sS'canada'
p160
F0.0084819569086299999
sS'psychology'
p161
F0.010330683141699999
sS'space'
p162
F0.0157383618531
sS'WoT'
p163
F0.0099793021880499998
sS'shittyfoodporn'
p164
F0.0070644286848700003
sS'LearnUselessTalents'
p165
F0.0128648317508
sS'RoomPorn'
p166
F0.0101594847416
sS'Astronomy'
p167
F0.0113625950701
sS'math'
p168
F0.0108823733278
sS'bestof'
p169
F0.0147026042121
sS'Cyberpunk'
p170
F0.0249525359371
sS'Metal'
p171
F0.0080100801007999996
sS'GamePhysics'
p172
F0.0144550313735
sS'paradoxplaza'
p173
F0.029095879711
sS'Morrowind'
p174
F0.0131313833113
sS'youtubehaiku'
p175
F0.011080332409999999
sS'PoliticalHumor'
p176
F0.0082014114056800005
sS'privacy'
p177
F0.00722459831233
sS'programming'
p178
F0.010927775365500001
sS'Planetside'
p179
F0.0091753220538000006
sS'howtonotgiveafuck'
p180
F0.0075917698313400003
sS'whatstheword'
p181
F0.010559249120100001
sS'classicalmusic'
p182
F0.0080623195511200004
sS'JRPG'
p183
F0.0076614148903299999
sS'misc'
p184
F0.0070218917802600004
sS'patientgamers'
p185
F0.014957434959
sS'rant'
p186
F0.0081713780918699994
sS'Buddhism'
p187
F0.0073680332614099999
sS'pokemon'
p188
F0.0092591789847800005
sS'tf2'
p189
F0.0098623259149999993
sS'lego'
p190
F0.014415358909700001
sS'ANormalDayInRussia'
p191
F0.0106100795756
sS'europe'
p192
F0.014597982268400001
sS'PenmanshipPorn'
p193
F0.01064054385
sS'shittyreactiongifs'
p194
F0.0095260776375300001
sS'alternativeart'
p195
F0.015793791877500001
sS'gentlemanboners'
p196
F0.0077487008166299996
sS'explainlikeimfive'
p197
F0.0083094467560500002
sS'CombatFootage'
p198
F0.0079705137065200007
sS'TrollYChromosome'
p199
F0.0081112903929200005
sS'collapse'
p200
F0.0082587271843999992
sS'GODZILLA'
p201
F0.0071134406589300004
sS'mildlyinfuriating'
p202
F0.011226910693100001
sS'dresdenfiles'
p203
F0.0100739697076
sS'Psychonaut'
p204
F0.0076652084704400001
sS'skyrim'
p205
F0.018838709677399999
sS'television'
p206
F0.0074861030336600002
sS'worldpolitics'
p207
F0.0111555760173
sS'nononono'
p208
F0.0098927339574699999
sS'MMORPG'
p209
F0.0078508341511300001
sS'KerbalSpaceProgram'
p210
F0.020249374110299999
sS'gallifrey'
p211
F0.0142944467955
sS'ShingekiNoKyojin'
p212
F0.0084409641004799998
sS'quityourbullshit'
p213
F0.013681350669500001
sS'teenagers'
p214
F0.0074026802807899998
sS'conspiracy'
p215
F0.00898672602853
sS'DaystromInstitute'
p216
F0.0129246176749
sS'HighQualityGifs'
p217
F0.011165534313
sS'self'
p218
F0.012442187814199999
sS'britishproblems'
p219
F0.0097092939997099996
sS'UnresolvedMysteries'
p220
F0.0081111741349999995
sS'nonononoyes'
p221
F0.0127947890314
sS'startrek'
p222
F0.0152353125326
sS'FutureWhatIf'
p223
F0.020110212552799999
sS'firefly'
p224
F0.015228674958399999
sS'badphilosophy'
p225
F0.0090909090909099995
sS'Futurology'
p226
F0.016886097659399999
sS'Games'
p227
F0.0145520795219
sS'INTP'
p228
F0.0085961619952800005
sS'Gaming4Gamers'
p229
F0.0122023970931
sS'Minecraft'
p230
F0.0168428979962
sS'TumblrInAction'
p231
F0.0186281062033
sS'HailCorporate'
p232
F0.0103056768559
sS'Heavymind'
p233
F0.011588658865899999
sS'Awwducational'
p234
F0.011950427854799999
sS'adventuretime'
p235
F0.0114100867519
sS'PanicHistory'
p236
F0.0078784925276200006
sS'LucidDreaming'
p237
F0.0110775427996
sS'fffffffuuuuuuuuuuuu'
p238
F0.0075807440023599997
sS'selfpublish'
p239
F0.0088120104438599994
sS'PoliticalDiscussion'
p240
F0.013163326147799999
sS'teslore'
p241
F0.0216323916601
sS'spacex'
p242
F0.0083061997474900007
sS'Foodforthought'
p243
F0.013347961236100001
sS'blender'
p244
F0.010437847363399999
sS'languagelearning'
p245
F0.0127333549153
sS'TheoryOfReddit'
p246
F0.0143614522515
sS'TheBluePill'
p247
F0.0104274717476
sS'printSF'
p248
F0.016789087093400001
sS'harrypotter'
p249
F0.011162790697700001
sS'booksuggestions'
p250
F0.0107390495518
sS'whowouldwin'
p251
F0.025062167828800001
sS'blunderyears'
p252
F0.0096160877513699998
sS'shutupandtakemymoney'
p253
F0.0090205699188500004
sS'CrusaderKings'
p254
F0.0286420471067
sS'JusticePorn'
p255
F0.00784054533909
sS'geek'
p256
F0.013471978858499999
sS'lostgeneration'
p257
F0.0103415857098
sS'elderscrollsonline'
p258
F0.0074872124342099996
sS'Conservative'
p259
F0.0079075425790799993
sS'AbandonedPorn'
p260
F0.012520121624
sS'progressive'
p261
F0.0082479712651299993
sS'dadjokes'
p262
F0.0121810449575
sS'books'
p263
F0.0116352054446
sS'thatHappened'
p264
F0.0126553841546
sS'cringe'
p265
F0.0078353383540399994
sS'StarWars'
p266
F0.0151502497202
sS'rpg'
p267
F0.078853710980899994
sS'Christianity'
p268
F0.0110629990239
sS'AskScienceDiscussion'
p269
F0.0100444140758
sS'changemyview'
p270
F0.020143079090900001
sS'firstworldanarchists'
p271
F0.013000580383100001
sS'PerfectTiming'
p272
F0.0083976906350800001
sS'cosplay'
p273
F0.010605049689199999
sS'truegaming'
p274
F0.023492230708500001
sS'lotr'
p275
F0.017988378055
sS'wikipedia'
p276
F0.0135666426712
sS'outside'
p277
F0.025849250829200001
sS'pcmasterrace'
p278
F0.00778989796331
sS'magicTCG'
p279
F0.0111282051282
sS'spaceengineers'
p280
F0.0109045308326
sS'TheLastAirbender'
p281
F0.017834134369600001
sS'glitch_art'
p282
F0.011018926626900001
sS'PixelArt'
p283
F0.0152291197159
sS'casualiama'
p284
F0.0127244032354
sS'facepalm'
p285
F0.0096477451200399997
sS'NotTimAndEric'
p286
F0.0078748425031500008
sS'gamingsuggestions'
p287
F0.0131699188303
sS'Unexpected'
p288
F0.0131428226925
sS'RedditDayOf'
p289
F0.0125558216297
sS'Xcom'
p290
F0.012128489943
sS'Design'
p291
F0.0086703910614500009
sS'Sherlock'
p292
F0.0093412858521200008
sS'ukpolitics'
p293
F0.0075617451855099996
sS'GetMotivated'
p294
F0.0073966335993599997
sS'reactiongifs'
p295
F0.0102274159569
sS'community'
p296
F0.0098315783593600006
sS'LearnJapanese'
p297
F0.0071373342056699996
sS'EarthPorn'
p298
F0.0090398768398900001
sS'linux'
p299
F0.0090005625351599998
sS'3Dprinting'
p300
F0.0072299111753799999
sS'ainbow'
p301
F0.011207828412099999
sS'fatlogic'
p302
F0.0094392138829100004
sS'marvelstudios'
p303
F0.0077020468453300002
sS'somethingimade'
p304
F0.0078768637222200004
sS'MapPorn'
p305
F0.026202333397899999
sS'IndieGaming'
p306
F0.017104846373099999
sS'KingkillerChronicle'
p307
F0.0094749023578800003
sS'darksouls'
p308
F0.0084329632792499998
sS'Perfectfit'
p309
F0.0079145002888499991
sS'offbeat'
p310
F0.012108559499000001
sS'softwaregore'
p311
F0.010616337363600001
sS'socialism'
p312
F0.014346467182499999
sS'ICanDrawThat'
p313
F0.011528028933099999
sS'Cooking'
p314
F0.0086314520642299993
sS'FanTheories'
p315
F0.023111382610500001
sS'assassinscreed'
p316
F0.0086425655547799993
sS'ShitRedditSays'
p317
F0.0076302112130900001
sS'southpark'
p318
F0.0071527735860399998
sS'Python'
p319
F0.00751455945895
sS'tolkienfans'
p320
F0.015150442477899999
sS'Whatcouldgowrong'
p321
F0.010508474576299999
sS'fifthworldproblems'
p322
F0.016001620417300001
sS'talesfromtechsupport'
p323
F0.0141888986712
sS'literature'
p324
F0.0100735430443
sS'notinteresting'
p325
F0.0119944211994
sS'AnimalsBeingJerks'
p326
F0.0097294010337499997
sS'DebateAChristian'
p327
F0.0095495382295699999
sS'Physics'
p328
F0.010567970204799999
sS'thesims'
p329
F0.0082352941176499998
sS'TrueFilm'
p330
F0.0089585666293399997
sS'HumanPorn'
p331
F0.013228407280499999
sS'Fantasy'
p332
F0.041224278056399999
sS'anime'
p333
F0.0092757511970600007
sS'drawing'
p334
F0.010135135135100001
sS'GifSound'
p335
F0.010294117647100001
sS'Terraria'
p336
F0.0093434020222700007
sS'circlebroke'
p337
F0.0127943528374
sS'ArtisanVideos'
p338
F0.0096696212731700003
sS'rickandmorty'
p339
F0.0100562715556
sS'quotes'
p340
F0.0076282940360600003
sS'futurama'
p341
F0.0100925815552
sS'perfectloops'
p342
F0.0121125757036
sS'InternetIsBeautiful'
p343
F0.012179660678900001
sS'TalesFromRetail'
p344
F0.0120034919249
sS'WouldYouRather'
p345
F0.0093286600161800008
sS'furry'
p346
F0.0075816369172000001
sS'ProtectAndServe'
p347
F0.00745469345786
sS'woahdude'
p348
F0.0110929880332
sS'Fallout'
p349
F0.015554429952300001
sS'offmychest'
p350
F0.0085824719989099994
sS'howto'
p351
F0.0070103912892199999
sS'Shadowrun'
p352
F0.015453241994600001
sS'cringepics'
p353
F0.0088421270191900003
sS'Art'
p354
F0.0075518621861000003
sS'4chan'
p355
F0.0114595898673
sS'oblivion'
p356
F0.0097926267281099998
sS'compsci'
p357
F0.0098079916969400008
sS'montageparodies'
p358
F0.0074329224075399998
sS'zombies'
p359
F0.0076235854675400002
sS'ArcherFX'
p360
F0.0090466249130100006
sS'getdisciplined'
p361
F0.0085303867403299996
sS'whatisthisthing'
p362
F0.0110744918221
sS'HPMOR'
p363
F0.0081047891936100007
sS'NetflixBestOf'
p364
F0.0091978139943400001
sS'ShouldIbuythisgame'
p365
F0.0109601229475
sS'tumblr'
p366
F0.010782157152599999
sS'interestingasfuck'
p367
F0.0141791160547
sS'MarkMyWords'
p368
F0.011096345515
sS'gameofthrones'
p369
F0.0138674474315
sS'humor'
p370
F0.00910671792056
sS'mountandblade'
p371
F0.017735416540999999
sS'ExpectationVsReality'
p372
F0.0073104647001700001
sS'religion'
p373
F0.0079709131590000003
sS'lifehacks'
p374
F0.0093133936447400006
sS'SCP'
p375
F0.017553675082200002
sS'Enhancement'
p376
F0.0095097858764299995
sS'starbound'
p377
F0.017368363196700001
sS'biology'
p378
F0.0072084961206200001
sS'FloridaMan'
p379
F0.0117342613662
sS'delusionalartists'
p380
F0.013735417125199999
sS'Cynicalbrit'
p381
F0.0116968136266
sS'promos'
p382
F0.0103603907039
sS'shittyaskscience'
p383
F0.0137404580153
sS'lewronggeneration'
p384
F0.014489702838300001
sS'Unity3D'
p385
F0.0101831801955
sS'lfg'
p386
F0.023206471290299999
sS'calvinandhobbes'
p387
F0.00894464773189
sS'masseffect'
p388
F0.015756607609600001
sS'sixwordstories'
p389
F0.0124681212808
sS'AnimalsBeingBros'
p390
F0.00908791260536
sS'classic4chan'
p391
F0.010396811644399999
sS'GameDeals'
p392
F0.0085176603937100002
sS'battlestations'
p393
F0.0074111734683899996
sS'EnoughLibertarianSpam'
p394
F0.0095588755929999995
sS'ShitAmericansSay'
p395
F0.0092868283000099999
sS'Scotland'
p396
F0.0084608554864999998
sS'gamemusic'
p397
F0.0097909165561199992
sS'intj'
p398
F0.0077886894683400001
sS'Animesuggest'
p399
F0.0081053263573199995
sS'TrollXChromosomes'
p400
F0.0072118718505799996
sS'homestuck'
p401
F0.0118481826093
sS'SimCity'
p402
F0.0088647959183699998
sS'Damnthatsinteresting'
p403
F0.0118598941945
sS'DnD'
p404
F0.052393729699200003
sS'CrazyIdeas'
p405
F0.019746726765399999
sS'TinyHouses'
p406
F0.0075105330646600002
sS'Bad_Cop_No_Donut'
p407
F0.00892127243647
sS'MorbidReality'
p408
F0.0094490540281100006
sS'introvert'
p409
F0.0093160772062899997
sS'raisedbynarcissists'
p410
F0.0078327390204499994
sS'happy'
p411
F0.0072862609425000001
sS'explainlikeIAmA'
p412
F0.020270270270300001
sS'gaymers'
p413
F0.0082160732836000002
sS'batman'
p414
F0.00874976893216
sS'gamegrumps'
p415
F0.0078747072599500006
sS'ProgrammerHumor'
p416
F0.010684606252499999
sS'Marvel'
p417
F0.0115803814714
sS'webcomics'
p418
F0.0117579398045
sS'rage'
p419
F0.012040147737
sS'comics'
p420
F0.0171342410673
sS'behindthegifs'
p421
F0.016174734356599999
sS'conlangs'
p422
F0.042410137057200002
sS'civ'
p423
F0.0247139691584
sS'fullmoviesonyoutube'
p424
F0.0105444785276
sS'Civcraft'
p425
F0.011672587544400001
sS'TrueAskReddit'
p426
F0.015420735286300001
sS'politics'
p427
F0.0094782007244900001
sS'shittyama'
p428
F0.0071002556092000001
sS'AskSocialScience'
p429
F0.0120373350499
sS'zelda'
p430
F0.0078638648962199992
sS'ImaginaryLandscapes'
p431
F0.033156146179399999
sS'TheWayWeWere'
p432
F0.0078369905956100008
sS'Feminism'
p433
F0.0084421790379100008
sS'nottheonion'
p434
F0.0114437047476
sS'tabletopgamedesign'
p435
F0.0242156074014
sS'Warhammer'
p436
F0.0146846026046
sS'comicbooks'
p437
F0.0141311547803
sS'roguelikes'
p438
F0.0130953251884
sS'GirlGamers'
p439
F0.0100631412786
sS'cosplaygirls'
p440
F0.0076173946581799996
sS'feedthebeast'
p441
F0.010488604972399999
sS'atheism'
p442
F0.0095023322154099994
sS'minecraftsuggestions'
p443
F0.0090793535500300008
sS'urbanexploration'
p444
F0.0088505552736900008
s.