(dp1
S'uglyduckling'
p2
F0.0083402835696400005
sS'BuyItForLife'
p3
F0.0076292070350699997
sS'SampleSize'
p4
F0.00848750082886
sS'everymanshouldknow'
p5
F0.0136819896426
sS'RandomActsOfGaming'
p6
F0.010756651698899999
sS'Showerthoughts'
p7
F0.011008433285000001
sS'HistoryPorn'
p8
F0.00959996752654
sS'holdmybeer'
p9
F0.011484794275500001
sS'ImaginaryMonsters'
p10
F0.010813118019500001
sS'YouShouldKnow'
p11
F0.0147391732283
sS'horror'
p12
F0.0074587342219099998
sS'UpliftingNews'
p13
F0.0070700818891599997
sS'PandR'
p14
F0.0081773065643999995
sS'Jokes'
p15
F0.0105891507994
sS'3amjokes'
p16
F0.0132895559725
sS'Steam'
p17
F0.0074688475529499998
sS'AlienBlue'
p18
F0.0071576188315900001
sS'photoshopbattles'
p19
F0.0116841778376
sS'IWantToLearn'
p20
F0.0116447123921
sS'Celebs'
p21
F0.0073336984967400003
sS'CrappyDesign'
p22
F0.015309091829200001
sS'NewsOfTheWeird'
p23
F0.0088792244269299998
sS'techsupport'
p24
F0.0074539199507699999
sS'Whatisthis'
p25
F0.0076186623516700004
sS'EatCheapAndHealthy'
p26
F0.0078218794339100003
sS'gentlemanboners'
p27
F0.0088755945667600006
sS'redditgetsdrawn'
p28
F0.0070805938178699996
sS'AmISexy'
p29
F0.0086886239644399996
sS'fatpeoplestories'
p30
F0.0095511543419700001
sS'depression'
p31
F0.0079140650205899998
sS'forwardsfromgrandma'
p32
F0.0145794048659
sS'no_sob_story'
p33
F0.0103009165382
sS'findareddit'
p34
F0.0207531280077
sS'skeptic'
p35
F0.0080139517501999994
sS'socialskills'
p36
F0.0105548726209
sS'DebateReligion'
p37
F0.0078912757562499998
sS'GuessTheMovie'
p38
F0.0104957570344
sS'vexillology'
p39
F0.0094573826693499993
sS'tattoos'
p40
F0.0081051138020199996
sS'needamod'
p41
F0.0096819840619600007
sS'answers'
p42
F0.0125681492109
sS'doctorwho'
p43
F0.0075889741800400003
sS'TopGear'
p44
F0.0076255980861199999
sS'ThriftStoreHauls'
p45
F0.0078178498059799997
sS'creepy'
p46
F0.0076775788671399996
sS'whatsthisbug'
p47
F0.0072881998567600002
sS'QuotesPorn'
p48
F0.012861736334399999
sS'TrueReddit'
p49
F0.0091541803351400004
sS'confession'
p50
F0.0144323848636
sS'AntiJokes'
p51
F0.0156135998833
sS'KingOfTheHill'
p52
F0.00707527766351
sS'IdiotsFightingThings'
p53
F0.0138443528274
sS'ContagiousLaughter'
p54
F0.0114908949265
sS'HIMYM'
p55
F0.0079303923457299998
sS'FiftyFifty'
p56
F0.019717271051000001
sS'AskHistorians'
p57
F0.0083256931882900002
sS'Drugs'
p58
F0.0075681037491500004
sS'OutOfTheLoop'
p59
F0.018750395912099999
sS'ifyoulikeblank'
p60
F0.0136408730159
sS'firstimpression'
p61
F0.0099098029907399993
sS'WebGames'
p62
F0.00935664967413
sS'Pareidolia'
p63
F0.013690443852900001
sS'tipofmytongue'
p64
F0.0126435842996
sS'FreeKarma'
p65
F0.0082366668954599997
sS'ftlgame'
p66
F0.0074897318192800001
sS'LifeProTips'
p67
F0.0090703246360000003
sS'Shitty_Car_Mods'
p68
F0.0091182582265900008
sS'AskMen'
p69
F0.013019116677699999
sS'ghettoglamourshots'
p70
F0.0096875227620399993
sS'EDC'
p71
F0.0077537145258
sS'techsupportgore'
p72
F0.0096585728276699992
sS'firstworldproblems'
p73
F0.014591324291199999
sS'Glitch_in_the_Matrix'
p74
F0.0097359567743900005
sS'standupshots'
p75
F0.0130189060082
sS'AskScienceFiction'
p76
F0.018355497284099999
sS'NewsOfTheStupid'
p77
F0.0109712536146
sS'awesome'
p78
F0.011104396434499999
sS'DecidingToBeBetter'
p79
F0.0071301247771799999
sS'Infographics'
p80
F0.0107121749409
sS'polandball'
p81
F0.0098691760385599993
sS'counting'
p82
F0.0079883805373999993
sS'Pizza'
p83
F0.0079517593267499995
sS'techsupportmacgyver'
p84
F0.0083107846926900007
sS'MURICA'
p85
F0.012557618575799999
sS'needadvice'
p86
F0.0090227863587699995
sS'Gore'
p87
F0.0078307620383399994
sS'spaceporn'
p88
F0.0078879035813999993
sS'Dreams'
p89
F0.0081517352703799999
sS'wheredidthesodago'
p90
F0.012872329586
sS'highdeas'
p91
F0.0098179071914099997
sS'wallpaper'
p92
F0.0098209127671900001
sS'Images'
p93
F0.0085396483674199993
sS'dating_advice'
p94
F0.0082204155374900004
sS'FanTheories'
p95
F0.019096396561200001
sS'tall'
p96
F0.0085877862595400006
sS'ImGoingToHellForThis'
p97
F0.0128674744059
sS'DoesAnybodyElse'
p98
F0.018334317779099999
sS'pettyrevenge'
p99
F0.013530284226800001
sS'malehairadvice'
p100
F0.0086115097921199996
sS'CityPorn'
p101
F0.00768239492466
sS'DeepIntoYouTube'
p102
F0.0148662041625
sS'dataisbeautiful'
p103
F0.0089758661226699999
sS'LucidDreaming'
p104
F0.0103453300306
sS'nostalgia'
p105
F0.0127614661293
sS'startrek'
p106
F0.0077179573639100003
sS'writing'
p107
F0.0078846651894900009
sS'StonerEngineering'
p108
F0.0084745762711900003
sS'MensRights'
p109
F0.0092410370497100006
sS'Frisson'
p110
F0.0119792502273
sS'childfree'
p111
F0.0082379725600599998
sS'NoStupidQuestions'
p112
F0.0230406803034
sS'creepyPMs'
p113
F0.0117827406895
sS'WatchItForThePlot'
p114
F0.010138922739499999
sS'freebies'
p115
F0.0104057178894
sS'PropagandaPosters'
p116
F0.0094129481928599996
sS'SubredditDrama'
p117
F0.011598008643799999
sS'minimalism'
p118
F0.0096579180182800005
sS'wallpapers'
p119
F0.010915706488799999
sS'mildlyinteresting'
p120
F0.0084086783024500001
sS'TrueAtheism'
p121
F0.0072214580467700002
sS'badhistory'
p122
F0.0074074074074100002
sS'Rateme'
p123
F0.0094909621872000006
sS'popping'
p124
F0.0088254993893099997
sS'DunderMifflin'
p125
F0.0093253159396700005
sS'psychology'
p126
F0.0082781456953599994
sS'shittyfoodporn'
p127
F0.0116449606946
sS'LearnUselessTalents'
p128
F0.017116941383
sS'RoomPorn'
p129
F0.0084671165695600001
sS'askscience'
p130
F0.0073030032708900003
sS'memes'
p131
F0.010740531373700001
sS'CatsStandingUp'
p132
F0.0071889671361500002
sS'bestof'
p133
F0.0100207121018
sS'Cyberpunk'
p134
F0.0076622670423599996
sS'Metal'
p135
F0.0070438390530999997
sS'GamePhysics'
p136
F0.0113895216401
sS'youtubehaiku'
p137
F0.011351226131
sS'TalesFromThePizzaGuy'
p138
F0.0080614203454899992
sS'howtonotgiveafuck'
p139
F0.0119110513424
sS'whatstheword'
p140
F0.013499002914599999
sS'misc'
p141
F0.010980006555199999
sS'patientgamers'
p142
F0.0097391304347800006
sS'rant'
p143
F0.0144191069047
sS'conspiratard'
p144
F0.0112508901021
sS'pokemon'
p145
F0.0075662599544399998
sS'TheLastAirbender'
p146
F0.0084967181426199995
sS'OldSchoolCool'
p147
F0.00738202508619
sS'lego'
p148
F0.0082281374169299992
sS'ANormalDayInRussia'
p149
F0.0115069705687
sS'seduction'
p150
F0.0075144857556700001
sS'onetruegod'
p151
F0.0085334801458899993
sS'TheFacebookDelusion'
p152
F0.0078131358346200004
sS'PenmanshipPorn'
p153
F0.0098441728095499999
sS'shittyreactiongifs'
p154
F0.0138255219135
sS'alternativeart'
p155
F0.010127803231299999
sS'shittyadvice'
p156
F0.015302066772700001
sS'MeanJokes'
p157
F0.0142944503898
sS'explainlikeimfive'
p158
F0.0078148025203399994
sS'GTA'
p159
F0.0076335877862599997
sS'TrollYChromosome'
p160
F0.0096470816366099992
sS'mildlyinfuriating'
p161
F0.0160058629535
sS'Awwducational'
p162
F0.012176897105200001
sS'skyrim'
p163
F0.010301566274400001
sS'worldpolitics'
p164
F0.0078286898457299997
sS'nononono'
p165
F0.0122194513716
sS'knives'
p166
F0.0079201934703700006
sS'gallifrey'
p167
F0.0075246903903399996
sS'FoodPorn'
p168
F0.0085619049693899992
sS'teenagers'
p169
F0.010175793894500001
sS'conspiracy'
p170
F0.0087343723240299997
sS'TalesFromYourServer'
p171
F0.00744005036342
sS'HighQualityGifs'
p172
F0.0113038277512
sS'self'
p173
F0.013526492716499999
sS'britishproblems'
p174
F0.0100193032448
sS'nonononoyes'
p175
F0.014750826420499999
sS'FutureWhatIf'
p176
F0.013554727211099999
sS'firefly'
p177
F0.0079243633183999993
sS'MovieSuggestions'
p178
F0.00880996627435
sS'RandomKindness'
p179
F0.0071450955813199997
sS'Futurology'
p180
F0.0077045764412299999
sS'Gaming4Gamers'
p181
F0.0086238758161900006
sS'Minecraft'
p182
F0.0080332066743800008
sS'TumblrInAction'
p183
F0.0118888061554
sS'HailCorporate'
p184
F0.0098558498156200002
sS'Heavymind'
p185
F0.0092616413686599994
sS'adventuretime'
p186
F0.0094013331656399995
sS'fffffffuuuuuuuuuuuu'
p187
F0.0095916360933300006
sS'PoliticalDiscussion'
p188
F0.0078387458006700002
sS'dbz'
p189
F0.0088188976377999995
sS'Foodforthought'
p190
F0.0081144132264899995
sS'TheoryOfReddit'
p191
F0.0083339885211099994
sS'TheBluePill'
p192
F0.0072666294019000004
sS'harrypotter'
p193
F0.0089646733347499997
sS'booksuggestions'
p194
F0.0070816250465900003
sS'shittybattlestations'
p195
F0.00761665310952
sS'whowouldwin'
p196
F0.025908340214699999
sS'GrandTheftAutoV'
p197
F0.0082876562157399997
sS'Anxiety'
p198
F0.00737979306147
sS'arresteddevelopment'
p199
F0.0081383519837199998
sS'shutupandtakemymoney'
p200
F0.010876307845000001
sS'webcomics'
p201
F0.0092406289589399993
sS'JusticePorn'
p202
F0.0107126596856
sS'geek'
p203
F0.0074200738953900001
sS'beards'
p204
F0.0082654386586400001
sS'PrettyGirlsUglyFaces'
p205
F0.0089591936725700004
sS'AbandonedPorn'
p206
F0.0082439443613300002
sS'dadjokes'
p207
F0.015046939910400001
sS'thatHappened'
p208
F0.015705574400500001
sS'GTAV'
p209
F0.0071899340922700001
sS'cringe'
p210
F0.0115186759114
sS'StarWars'
p211
F0.0087796463993100003
sS'AskWomen'
p212
F0.0108401084011
sS'TheSimpsons'
p213
F0.00981903757202
sS'sex'
p214
F0.0076998863205799996
sS'see'
p215
F0.0077198954470899996
sS'college'
p216
F0.0079360413849899995
sS'changemyview'
p217
F0.015538894095599999
sS'roosterteeth'
p218
F0.0073810893987500004
sS'firstworldanarchists'
p219
F0.017372474716400001
sS'PerfectTiming'
p220
F0.0135508052226
sS'cosplay'
p221
F0.0085284599276599996
sS'truegaming'
p222
F0.0094675536172700008
sS'lotr'
p223
F0.0077682624362399996
sS'wikipedia'
p224
F0.0077402303190499998
sS'breakingbad'
p225
F0.011119765786600001
sS'outside'
p226
F0.015636603680199999
sS'foodhacks'
p227
F0.0091533180777999996
sS'StandUpComedy'
p228
F0.0086605456794899994
sS'casualiama'
p229
F0.0175504812229
sS'facepalm'
p230
F0.013978946059
sS'NotTimAndEric'
p231
F0.0084093755591299994
sS'gamingsuggestions'
p232
F0.0101885180892
sS'Unexpected'
p233
F0.016357517414099999
sS'RedditDayOf'
p234
F0.0083050207625500003
sS'watchpeopledie'
p235
F0.0107969936286
sS'GetMotivated'
p236
F0.0073298027477200003
sS'drunk'
p237
F0.0109020356626
sS'reactiongifs'
p238
F0.0118658578122
sS'community'
p239
F0.0083971056784700009
sS'confessions'
p240
F0.011908177905300001
sS'fatlogic'
p241
F0.010355522518099999
sS'somethingimade'
p242
F0.0075603501635899996
sS'WritingPrompts'
p243
F0.010455421883100001
sS'MapPorn'
p244
F0.010278418926700001
sS'shittyaskreddit'
p245
F0.014894130907299999
sS'Perfectfit'
p246
F0.0123563986107
sS'offbeat'
p247
F0.010886125038100001
sS'softwaregore'
p248
F0.0096578929470200001
sS'ICanDrawThat'
p249
F0.011403395101699999
sS'IASIP'
p250
F0.0104113504134
sS'southpark'
p251
F0.012146671877
sS'itookapicture'
p252
F0.0077220077220099999
sS'Whatcouldgowrong'
p253
F0.014767172626699999
sS'fifthworldproblems'
p254
F0.010374594123700001
sS'talesfromtechsupport'
p255
F0.0083882948069400002
sS'notinteresting'
p256
F0.017800274881799999
sS'AnimalsBeingJerks'
p257
F0.011945671739499999
sS'HumanPorn'
p258
F0.0099935177182400008
sS'GifSound'
p259
F0.0086374556686899997
sS'awwwtf'
p260
F0.0111243265934
sS'PublicFreakout'
p261
F0.011098687207499999
sS'rickandmorty'
p262
F0.0092098501917100006
sS'quotes'
p263
F0.0104069379586
sS'futurama'
p264
F0.0124748314803
sS'perfectloops'
p265
F0.015524007386899999
sS'InternetIsBeautiful'
p266
F0.0103735049517
sS'carporn'
p267
F0.0072953158293900004
sS'TalesFromRetail'
p268
F0.0116356459275
sS'quityourbullshit'
p269
F0.016551193225599999
sS'Advice'
p270
F0.0101530771634
sS'woahdude'
p271
F0.012433648987200001
sS'Fallout'
p272
F0.00973847136845
sS'offmychest'
p273
F0.0129127749707
sS'howto'
p274
F0.0088167574549299996
sS'cringepics'
p275
F0.010803817129799999
sS'toosoon'
p276
F0.014198782961499999
sS'thewalkingdead'
p277
F0.0082476309100999994
sS'ConfusedBoners'
p278
F0.0113864222286
sS'4chan'
p279
F0.0122710702196
sS'montageparodies'
p280
F0.0088458994709000004
sS'zombies'
p281
F0.0080628488732700006
sS'ArcherFX'
p282
F0.010268160217199999
sS'whatisthisthing'
p283
F0.0130987460478
sS'NetflixBestOf'
p284
F0.0108914989393
sS'ShouldIbuythisgame'
p285
F0.0091551486600599998
sS'tumblr'
p286
F0.012230130952799999
sS'interestingasfuck'
p287
F0.014717709506199999
sS'MarkMyWords'
p288
F0.019238350548000001
sS'gameofthrones'
p289
F0.0076484932468300001
sS'humor'
p290
F0.0095019157088099999
sS'AMA'
p291
F0.011584484967399999
sS'ExpectationVsReality'
p292
F0.014979308736999999
sS'lifehacks'
p293
F0.012759067357500001
sS'SCP'
p294
F0.0072297075254700001
sS'blackpeoplegifs'
p295
F0.0113686051596
sS'FloridaMan'
p296
F0.012214498510400001
sS'delusionalartists'
p297
F0.0130434782609
sS'whitepeoplegifs'
p298
F0.0114844467778
sS'Frugal'
p299
F0.0075173450668299998
sS'promos'
p300
F0.0075806921019399998
sS'shittyaskscience'
p301
F0.015625382076000002
sS'lewronggeneration'
p302
F0.014053395285100001
sS'worldbuilding'
p303
F0.0093286600161800008
sS'calvinandhobbes'
p304
F0.0081556253760300002
sS'netflix'
p305
F0.0075191295501799999
sS'masseffect'
p306
F0.0074910773816500003
sS'sixwordstories'
p307
F0.0141106886354
sS'AnimalsBeingBros'
p308
F0.0103462837838
sS'classic4chan'
p309
F0.015225375625999999
sS'battlestations'
p310
F0.0076967166134400003
sS'NSFWFunny'
p311
F0.0084088390587299996
sS'amiugly'
p312
F0.0098206848173999998
sS'Animesuggest'
p313
F0.0072157607405600004
sS'TrollXChromosomes'
p314
F0.0076366366846100002
sS'tifu'
p315
F0.0097796774571799992
sS'unitedkingdom'
p316
F0.0073105436573300004
sS'Damnthatsinteresting'
p317
F0.0142126635584
sS'DnD'
p318
F0.00781002334361
sS'CrazyIdeas'
p319
F0.026113936051
sS'Bad_Cop_No_Donut'
p320
F0.0088919817521099995
sS'MorbidReality'
p321
F0.012454475967799999
sS'gif'
p322
F0.0104130162703
sS'introvert'
p323
F0.0091959895267900004
sS'happy'
p324
F0.0094227099236600005
sS'explainlikeIAmA'
p325
F0.020108764386000001
sS'misleadingthumbnails'
p326
F0.017952505397099999
sS'shortscarystories'
p327
F0.0086455331412100007
sS'batman'
p328
F0.0099830851381400004
sS'rule34'
p329
F0.0072789147799799999
sS'blunderyears'
p330
F0.0123530822739
sS'Marvel'
p331
F0.0091205624346800008
sS'Random_Acts_Of_Amazon'
p332
F0.0087698646262500003
sS'rage'
p333
F0.0150912725435
sS'comics'
p334
F0.0118114952443
sS'behindthegifs'
p335
F0.0146171093481
sS'civ'
p336
F0.0077521195372099996
sS'fullmoviesonyoutube'
p337
F0.011687055954899999
sS'TrueAskReddit'
p338
F0.0120918984281
sS'bestofworldstar'
p339
F0.0096128694742300003
sS'DAE'
p340
F0.014548669721099999
sS'ForeverAlone'
p341
F0.0099346544121599999
sS'eatsandwiches'
p342
F0.0080385852090000005
sS'shittyama'
p343
F0.0180667282078
sS'circlebroke'
p344
F0.0092290306378700008
sS'zelda'
p345
F0.0084905003827699995
sS'TheWayWeWere'
p346
F0.0077448048462499999
sS'badtattoos'
p347
F0.0092230637674100002
sS'Cinemagraphs'
p348
F0.0073705043335800004
sS'nottheonion'
p349
F0.0097435221638399998
sS'Frugal_Jerk'
p350
F0.0091750771540599994
sS'bigdickproblems'
p351
F0.0087864134921600001
sS'comicbooks'
p352
F0.0076905210456999998
sS'oddlysatisfying'
p353
F0.016090938439800001
sS'cosplaygirls'
p354
F0.0085081016636899993
sS'terriblefacebookmemes'
p355
F0.013412504366
sS'PrettyGirls'
p356
F0.0088757396449699998
sS'urbanexploration'
p357
F0.0080744137975599997
sS'gainit'
p358
F0.0072307992964600002
s.