(dp1
S'Miniswap'
p2
F0.026339691189800001
sS'StarWars'
p3
F0.0076338813575600002
sS'Heroclix'
p4
F0.0073406740073400003
sS'StarWarsEU'
p5
F0.0127883650953
sS'boardgames'
p6
F0.026745275652000002
sS'Netrunner'
p7
F0.035280728376300002
sS'Warhammer'
p8
F0.019893771125100001
sS'rpg'
p9
F0.010677718186300001
sS'Warhammer40k'
p10
F0.0185938407902
sS'Warmachine'
p11
F0.031596719729899997
sS'tabletopgamedesign'
p12
F0.0149010477299
s.