(dp1
S'breastfeeding'
p2
F0.0107808857809
sS'FancyFollicles'
p3
F0.0222814865795
sS'pettyrevenge'
p4
F0.0072069186418999998
sS'ABraThatFits'
p5
F0.0223309397933
sS'actuallesbians'
p6
F0.0070752089136499998
sS'Pets'
p7
F0.010447466982099999
sS'RandomActsofMakeup'
p8
F0.016809013265500002
sS'BabyBumps'
p9
F0.0142929491869
sS'ketogains'
p10
F0.045633685957300003
sS'bigboobproblems'
p11
F0.017033773862000001
sS'RandomActsOfPolish'
p12
F0.0089789635710599992
sS'childfree'
p13
F0.011937910065600001
sS'90daysgoal'
p14
F0.0086884567645800007
sS'wedding'
p15
F0.0132404181185
sS'makeupexchange'
p16
F0.012792195840200001
sS'creepyPMs'
p17
F0.0079046344106599997
sS'Paleo'
p18
F0.028111032698199999
sS'gardening'
p19
F0.0088519946494599999
sS'AskWomen'
p20
F0.011872240707400001
sS'TwoXChromosomes'
p21
F0.0097119506245000008
sS'fatpeoplestories'
p22
F0.011418587963699999
sS'knitting'
p23
F0.014863870493
sS'SkincareAddiction'
p24
F0.0216849656381
sS'InteriorDesign'
p25
F0.0080140597539500001
sS'AskCulinary'
p26
F0.0075990299110799998
sS'Frugal'
p27
F0.0107329433033
sS'LadyBoners'
p28
F0.014050535987699999
sS'keto'
p29
F0.121295638585
sS'ThriftStoreHauls'
p30
F0.0072211476466800002
sS'braswap'
p31
F0.0070115094589200001
sS'recipes'
p32
F0.0083138348185400005
sS'Hair'
p33
F0.0088283191908800004
sS'MakeupAddicts'
p34
F0.0174193548387
sS'weddingplanning'
p35
F0.018211300985400001
sS'xxfitness'
p36
F0.043578333589100002
sS'TrollXChromosomes'
p37
F0.013265153653299999
sS'femalefashionadvice'
p38
F0.0239713483375
sS'BeautyBoxes'
p39
F0.014468264864299999
sS'CrossStitch'
p40
F0.0071151358344100002
sS'loseit'
p41
F0.0267903974178
sS'EatCheapAndHealthy'
p42
F0.010871705991299999
sS'cats'
p43
F0.0083743287393399993
sS'Indiemakeupandmore'
p44
F0.014828544948999999
sS'ketorecipes'
p45
F0.145657215531
sS'raisedbynarcissists'
p46
F0.013220984346400001
sS'dogs'
p47
F0.00944905890421
sS'nutrition'
p48
F0.0097433287282799996
sS'TrollYChromosome'
p49
F0.0070754716981100002
sS'Cooking'
p50
F0.0077243863140900003
sS'MakeupAddiction'
p51
F0.021101507250500001
sS'breakingmom'
p52
F0.015090135709899999
sS'namenerds'
p53
F0.0083429895712599997
sS'curlyhair'
p54
F0.0169764875647
sS'TheGirlSurvivalGuide'
p55
F0.0271536173176
sS'Random_Acts_Of_Amazon'
p56
F0.0076743410076700004
sS'glutenfree'
p57
F0.0094047126911900002
sS'fitmeals'
p58
F0.011034584907099999
sS'TryingForABaby'
p59
F0.0122093023256
sS'C25K'
p60
F0.017142857142899998
sS'nursing'
p61
F0.0078374676609300007
sS'fatlogic'
p62
F0.0114463536734
sS'entwives'
p63
F0.0088475499092600003
sS'Anxiety'
p64
F0.0084161887866699998
sS'TalesFromYourServer'
p65
F0.0073134424956299996
sS'Dogtraining'
p66
F0.0092442801016900007
sS'yoga'
p67
F0.0083959346000899993
sS'Parenting'
p68
F0.0117661707029
sS'slowcooking'
p69
F0.0108297819002
sS'RedditLaqueristas'
p70
F0.019199307092699999
sS'getdisciplined'
p71
F0.0070809956969300003
sS'Baking'
p72
F0.0108502663247
sS'quilting'
p73
F0.0070606694560699998
sS'birthcontrol'
p74
F0.0093204725262800003
sS'sewing'
p75
F0.0142706559637
sS'budgetfood'
p76
F0.00888441874109
sS'Mommit'
p77
F0.014244238795100001
sS'Teachers'
p78
F0.0075741336191499998
sS'progresspics'
p79
F0.027127481093400001
sS'crochet'
p80
F0.0149831529142
sS'dogpictures'
p81
F0.0072821846553999996
sS'beyondthebump'
p82
F0.012178504513700001
sS'infertility'
p83
F0.0077277657266800002
sS'GirlGamers'
p84
F0.0087461735490700007
sS'secretsanta'
p85
F0.0093936231103300006
sS'crafts'
p86
F0.0131182270024
sS'AsianBeauty'
p87
F0.0111542675032
s.