(dp1
S'fullmoviesonyoutube'
p2
F0.0098548841238900002
sS'crappymusic'
p3
F0.0110288563227
sS'PublicFreakout'
p4
F0.0080110350681700006
sS'PanicHistory'
p5
F0.0072805139186299999
sS'FanTheories'
p6
F0.0077686469980699996
sS'conspiratard'
p7
F0.0095958312150499995
sS'MarkMyWords'
p8
F0.0089993284083299992
sS'DeepIntoYouTube'
p9
F0.013608013608
sS'TwoBestFriendsPlay'
p10
F0.0102469784551
sS'ContagiousLaughter'
p11
F0.0098625813662999995
sS'southpark'
p12
F0.0079327678290900001
sS'SRSsucks'
p13
F0.0089285714285700004
sS'forwardsfromgrandma'
p14
F0.0071398317903999999
sS'no_sob_story'
p15
F0.0093176605504600007
sS'truegaming'
p16
F0.0071763374818200002
sS'behindthegifs'
p17
F0.00823686553874
sS'quityourbullshit'
p18
F0.0096539940196499995
sS'circlebroke'
p19
F0.0084192602402800003
sS'SubredditDrama'
p20
F0.0086441395151999993
sS'DaftPunk'
p21
F0.0070968446336900004
sS'shittyreactiongifs'
p22
F0.0077342047930299999
sS'misleadingthumbnails'
p23
F0.0070070876288699999
sS'Standup'
p24
F0.0071752265861
sS'ObscureMedia'
p25
F0.0080038418440900004
sS'GODZILLA'
p26
F0.0074047533739399997
sS'moviescirclejerk'
p27
F0.018677435638599998
sS'gamegrumps'
p28
F0.0099773242630400005
sS'delusionalartists'
p29
F0.011353135313500001
sS'NotTimAndEric'
p30
F0.0137602540355
sS'JonTron'
p31
F0.018509785428000001
sS'indieheads'
p32
F0.0077508253193599996
sS'PKA'
p33
F0.0080418437397799993
sS'GamePhysics'
p34
F0.0106641855139
sS'rickandmorty'
p35
F0.0112094098723
sS'lewronggeneration'
p36
F0.013764756488099999
sS'youtubehaiku'
p37
F0.015795427001699999
sS'rage'
p38
F0.0093774742676199993
sS'thatHappened'
p39
F0.0072087721202899998
sS'TrueFilm'
p40
F0.016055949566599999
sS'youtube'
p41
F0.0081124027766200004
sS'TimAndEric'
p42
F0.0081496325985300003
sS'dvdcollection'
p43
F0.00825309491059
sS'nononono'
p44
F0.00712576442436
sS'terriblefacebookmemes'
p45
F0.0082058106010200003
sS'montageparodies'
p46
F0.0094492265872800005
sS'classic4chan'
p47
F0.0083444936643699997
sS'cringe'
p48
F0.0087786938727100004
s.