(dp1
S'QuotesPorn'
p2
F0.0101673780634
sS'Heavymind'
p3
F0.0150857818971
sS'Psychonaut'
p4
F0.032421479230000001
sS'TrueReddit'
p5
F0.00834170854271
sS'tea'
p6
F0.0101372017827
sS'DecidingToBeBetter'
p7
F0.014756258234500001
sS'literature'
p8
F0.0095626822157399999
sS'mycology'
p9
F0.00728843298691
sS'shrooms'
p10
F0.0097157250809600006
sS'quotes'
p11
F0.0112021574525
sS'Buddhism'
p12
F0.089922923208700004
sS'Frisson'
p13
F0.0075983313468400001
sS'DMT'
p14
F0.012500000000000001
sS'classicalmusic'
p15
F0.0071687924774199996
sS'askphilosophy'
p16
F0.017325680272099998
sS'TrueAtheism'
p17
F0.0082093038777299992
sS'Foodforthought'
p18
F0.0093399316930399996
sS'StonerPhilosophy'
p19
F0.013351829374
sS'DebateReligion'
p20
F0.010773010773
sS'LSD'
p21
F0.0096914995931000007
sS'yoga'
p22
F0.018931177282599999
sS'psychology'
p23
F0.014811750103400001
sS'TheoryOfReddit'
p24
F0.0071864406779700001
sS'TinyHouses'
p25
F0.0070849045823299997
sS'skeptic'
p26
F0.0082242990654200002
sS'selfimprovement'
p27
F0.0124487197623
sS'Survival'
p28
F0.0070313431057099996
sS'JoeRogan'
p29
F0.0085102403441500007
sS'wikipedia'
p30
F0.0075922938217700001
sS'environment'
p31
F0.0095471043080299998
sS'religion'
p32
F0.0100570399279
sS'Anticonsumption'
p33
F0.015722738799700001
sS'DrugNerds'
p34
F0.013660729725100001
sS'LucidDreaming'
p35
F0.010561532406199999
sS'Anarchy101'
p36
F0.0070638097480600001
sS'happy'
p37
F0.0071634489385900002
sS'getdisciplined'
p38
F0.0096756973175000007
sS'Anarchism'
p39
F0.013829372808700001
sS'BasicIncome'
p40
F0.012307324650500001
sS'collapse'
p41
F0.0094437066548599992
sS'badphilosophy'
p42
F0.0093129502723599995
sS'occupywallstreet'
p43
F0.0092689751661399998
sS'philosophy'
p44
F0.0131241997439
sS'vegan'
p45
F0.0081644144144099994
sS'Poetry'
p46
F0.0081435017057299997
sS'DebateAnAtheist'
p47
F0.0073138297872299999
sS'TrueAskReddit'
p48
F0.0088944231966599993
sS'INTP'
p49
F0.0095623804702400002
sS'lostgeneration'
p50
F0.010545236668699999
sS'martialarts'
p51
F0.0109828217404
sS'Nootropics'
p52
F0.0122564712339
sS'NeutralPolitics'
p53
F0.00738362760835
sS'bodyweightfitness'
p54
F0.0077234506384299996
sS'eldertrees'
p55
F0.0095098756400899993
sS'occult'
p56
F0.0260943961215
sS'IWantToLearn'
p57
F0.0074894514767900001
sS'progressive'
p58
F0.0074163969794999998
sS'askdrugs'
p59
F0.0072463768115899998
sS'leaves'
p60
F0.00857111858522
sS'privacy'
p61
F0.0077599586135499998
sS'productivity'
p62
F0.0098174778761100003
sS'socialism'
p63
F0.0093348891481899992
sS'howtonotgiveafuck'
p64
F0.0118801652893
sS'Cyberpunk'
p65
F0.00820719811638
sS'minimalism'
p66
F0.0119168123677
sS'Meditation'
p67
F0.052470424495499997
sS'Anarcho_Capitalism'
p68
F0.0073837557373799996
sS'vegetarian'
p69
F0.0079153062234099993
s.