(dp1
S'StarWarsEU'
p2
I2010
sS'exmormon'
p3
I2046
sS'NUFC'
p4
I1907
sS'Poetry'
p5
I2035
sS'uglyduckling'
p6
I2032
sS'everymanshouldknow'
p7
I2046
sS'relationships'
p8
I2046
sS'paris'
p9
I1947
sS'Honda'
p10
I2036
sS'unixporn'
p11
I2010
sS'MachinePorn'
p12
I2026
sS'sanantonio'
p13
I2037
sS'detroitlions'
p14
I2032
sS'2007scape'
p15
I2043
sS'teaching'
p16
I2012
sS'mwo'
p17
I1990
sS'fountainpens'
p18
I2043
sS'pornID'
p19
I1977
sS'geology'
p20
I2036
sS'skyrimmods'
p21
I2044
sS'moviescirclejerk'
p22
I1954
sS'PandR'
p23
I2039
sS'synthesizers'
p24
I2026
sS'Stargate'
p25
I2031
sS'Scrubs'
p26
I2026
sS'Military'
p27
I2045
sS'magicskyfairy'
p28
I2021
sS'Steam'
p29
I2047
sS'AlienBlue'
p30
I2043
sS'Pokemongiveaway'
p31
I2026
sS'gonewildstories'
p32
I2008
sS'askgaybros'
p33
I2042
sS'SteamGameSwap'
p34
I2041
sS'starcitizen'
p35
I2045
sS'polyamory'
p36
I2024
sS'spiders'
p37
I2041
sS'BackYardChickens'
p38
I2010
sS'totalwar'
p39
I2040
sS'askphilosophy'
p40
I2034
sS'entp'
p41
I2011
sS'electricians'
p42
I2031
sS'AskAcademia'
p43
I2002
sS'MechanicAdvice'
p44
I2046
sS'OneY'
p45
I2039
sS'kratom'
p46
I2007
sS'4x4'
p47
I2031
sS'razer'
p48
I1984
sS'LSD'
p49
I2044
sS'deadmau5'
p50
I2007
sS'socialskills'
p51
I2045
sS'bipolar'
p52
I2027
sS'metacanada'
p53
I2011
sS'gamedev'
p54
I2044
sS'chiliadmystery'
p55
I2012
sS'disney'
p56
I2047
sS'TeamRedditTeams'
p57
I1984
sS'Beatmatch'
p58
I2011
sS'TMNT'
p59
I2016
sS'iOSProgramming'
p60
I1992
sS'malelivingspace'
p61
I2040
sS'lgbt'
p62
I2045
sS'Ohio'
p63
I2016
sS'braswap'
p64
I1685
sS'WarshipPorn'
p65
I2036
sS'leaves'
p66
I2037
sS'personalfinance'
p67
I2046
sS'Hair'
p68
I2011
sS'learnart'
p69
I2034
sS'AnimeSketch'
p70
I1836
sS'Dexter'
p71
I2036
sS'Health'
p72
I2037
sS'Browns'
p73
I2039
sS'ContagiousLaughter'
p74
I2042
sS'cocaine'
p75
I1971
sS'ffxiv'
p76
I2045
sS'HistoryPorn'
p77
I2046
sS'FiftyFifty'
p78
I2046
sS'barstoolsports'
p79
I1408
sS'portugal'
p80
I1907
sS'army'
p81
I2039
sS'Drugs'
p82
I2046
sS'TeenMFA'
p83
I1993
sS'coins'
p84
I2038
sS'bdsm'
p85
I2024
sS'Dentistry'
p86
I2035
sS'admincraft'
p87
I2007
sS'arma'
p88
I2041
sS'kohi'
p89
I1719
sS'swtor'
p90
I2045
sS'CallOfDuty'
p91
I2034
sS'ftlgame'
p92
I2040
sS'berlin'
p93
I1970
sS'TheGirlSurvivalGuide'
p94
I2025
sS'NeutralPolitics'
p95
I2031
sS'ghettoglamourshots'
p96
I2033
sS'tampa'
p97
I2032
sS'EDC'
p98
I2045
sS'hardwareswap'
p99
I2044
sS'EDH'
p100
I2041
sS'EDM'
p101
I2044
sS'movies'
p102
I2047
sS'standupshots'
p103
I2047
sS'haskell'
p104
I1782
sS'Bravenewbies'
p105
I2031
sS'punk'
p106
I2039
sS'india'
p107
I2042
sS'DecidingToBeBetter'
p108
I2041
sS'gadgets'
p109
I2046
sS'kpics'
p110
I1933
sS'UofT'
p111
I1936
sS'Tgirls'
p112
I1954
sS'ploungeafterdark'
p113
I1860
sS'AnnArbor'
p114
I1983
sS'SRSsucks'
p115
I2041
sS'HouseOfCards'
p116
I2045
sS'travel'
p117
I2046
sS'RealGirls'
p118
I2046
sS'gats'
p119
I1984
sS'911truth'
p120
I1980
sS'horror'
p121
I2045
sS'wallpapers'
p122
I2047
sS'gaming'
p123
I2047
sS'poker'
p124
I2043
sS'MapPorn'
p125
I2046
sS'Hammocks'
p126
I2002
sS'askscience'
p127
I2045
sS'nerdcubed'
p128
I2039
sS'dogpictures'
p129
I2040
sS'italy'
p130
I2014
sS'law'
p131
I2044
sS'Cuckold'
p132
I1915
sS'CFB'
p133
I2047
sS'FortWorth'
p134
I1919
sS'ultimate'
p135
I2003
sS'vfx'
p136
I1968
sS'pantyselling'
p137
I1808
sS'Bombing'
p138
I1913
sS'wine'
p139
I2036
sS'EarthPorn'
p140
I2046
sS'CityPorn'
p141
I2042
sS'bleach'
p142
I2039
sS'zen'
p143
I2031
sS'randomactsofamazon'
p144
I2022
sS'london'
p145
I2043
sS'stencils'
p146
I2012
sS'oakland'
p147
I2008
sS'japan'
p148
I2044
sS'MLPLounge'
p149
I2045
sS'panthers'
p150
I2034
sS'GlobalOffensive'
p151
I2047
sS'BDSMGW'
p152
I1896
sS'badlinguistics'
p153
I2006
sS'cyanogenmod'
p154
I2024
sS'Dogtraining'
p155
I2037
sS'writing'
p156
I2047
sS'Screenwriting'
p157
I2036
sS'Rift'
p158
I2009
sS'LeagueofLegendsMeta'
p159
I2026
sS'Judaism'
p160
I2036
sS'hockeyplayers'
p161
I2007
sS'BDSMcommunity'
p162
I2037
sS'DJs'
p163
I2030
sS'Volvo'
p164
I1994
sS'Braveryjerk'
p165
I2034
sS'grammar'
p166
I2032
sS'dvdcollection'
p167
I1975
sS'shittyadviceanimals'
p168
I2011
sS'mead'
p169
I1994
sS'arrow'
p170
I2047
sS'MCFC'
p171
I1949
sS'Destiny'
p172
I2014
sS'Rateme'
p173
I2046
sS'indianapolis'
p174
I2036
sS'dubstep'
p175
I2036
sS'ChivalryGame'
p176
I2021
sS'navy'
p177
I2033
sS'USMC'
p178
I2040
sS'Cinemagraphs'
p179
I2039
sS'NewsOfTheWeird'
p180
I2034
sS'Blowjobs'
p181
I1985
sS'WoT'
p182
I2007
sS'shittyfoodporn'
p183
I2045
sS'Muse'
p184
I1985
sS'medicine'
p185
I2043
sS'gonewildcurvy'
p186
I2044
sS'AFL'
p187
I2023
sS'bestof'
p188
I2046
sS'Metal'
p189
I2047
sS'LadyBoners'
p190
I2038
sS'knifeclub'
p191
I2036
sS'Morrowind'
p192
I2027
sS'dayz'
p193
I2047
sS'CanadaPolitics'
p194
I2023
sS'GoneWildCD'
p195
I1807
sS'rocksmith'
p196
I2031
sS'dogecoin'
p197
I2046
sS'LawSchool'
p198
I2033
sS'ShinyPokemon'
p199
I2031
sS'steroids'
p200
I2027
sS'Luthier'
p201
I2024
sS'nhl'
p202
I2039
sS'Trophies'
p203
I1915
sS'BitcoinMining'
p204
I2011
sS'rant'
p205
I2045
sS'Buddhism'
p206
I2044
sS'thick'
p207
I2023
sS'TheLastAirbender'
p208
I2046
sS'ECE'
p209
I1995
sS'lego'
p210
I2046
sS'ANormalDayInRussia'
p211
I2043
sS'seduction'
p212
I2046
sS'TheFacebookDelusion'
p213
I2037
sS'Volkswagen'
p214
I2032
sS'PenmanshipPorn'
p215
I2045
sS'shittyadvice'
p216
I2045
sS'dogs'
p217
I2046
sS'asktransgender'
p218
I2042
sS'ObscureMedia'
p219
I2021
sS'CombatFootage'
p220
I2043
sS'makinghiphop'
p221
I2040
sS'collapse'
p222
I2036
sS'Genealogy'
p223
I1968
sS'Spiderman'
p224
I2040
sS'mildlyinfuriating'
p225
I2047
sS'dresdenfiles'
p226
I2026
sS'MeanJokes'
p227
I2039
sS'weightlifting'
p228
I2017
sS'Awwducational'
p229
I2045
sS'BBW'
p230
I1983
sS'Charleston'
p231
I1973
sS'northernireland'
p232
I2002
sS'BBQ'
p233
I2016
sS'Cubers'
p234
I2017
sS'Chargers'
p235
I2035
sS'worldpolitics'
p236
I2045
sS'VictoriaBC'
p237
I2015
sS'AmateurArchives'
p238
I1953
sS'newzealand'
p239
I2045
sS'PerfectTiming'
p240
I2043
sS'MMORPG'
p241
I2042
sS'hacking'
p242
I2042
sS'KerbalSpaceProgram'
p243
I2046
sS'TaylorSwift'
p244
I2040
sS'gallifrey'
p245
I2047
sS'NewSkaters'
p246
I1999
sS'boston'
p247
I2044
sS'ginger'
p248
I2011
sS'leafs'
p249
I2019
sS'hentai'
p250
I2007
sS'GalaxyNote3'
p251
I2007
sS'macgaming'
p252
I2012
sS'triangle'
p253
I2022
sS'LongDistance'
p254
I2042
sS'Parenting'
p255
I2046
sS'chess'
p256
I2045
sS'TexasRangers'
p257
I1939
sS'MuayThai'
p258
I2000
sS'translator'
p259
I2041
sS'germany'
p260
I2042
sS'EnoughLibertarianSpam'
p261
I2036
sS'Gaming4Gamers'
p262
I2041
sS'Minecraft'
p263
I2047
sS'frugalmalefashion'
p264
I2045
sS'Velo'
p265
I1953
sS'Texans'
p266
I2024
sS'medical'
p267
I2034
sS'investing'
p268
I2044
sS'Borderlands2'
p269
I2044
sS'WildStar'
p270
I2045
sS'mtgcube'
p271
I1695
sS'Heavymind'
p272
I2037
sS'GWCouples'
p273
I1998
sS'Hiphopcirclejerk'
p274
I2009
sS'Boise'
p275
I1922
sS'graffhelp'
p276
I1913
sS'crossfit'
p277
I2041
sS'Stance'
p278
I2010
sS'minnesota'
p279
I2033
sS'shittybattlestations'
p280
I2037
sS'Torontobluejays'
p281
I2014
sS'GrandTheftAutoV'
p282
I2045
sS'sneakermarket'
p283
I1863
sS'usenet'
p284
I2003
sS'CCW'
p285
I2045
sS'Anxiety'
p286
I2046
sS'de'
p287
I1998
sS'Bitcoin'
p288
I2047
sS'geek'
p289
I2044
sS'realdubstep'
p290
I1990
sS'wedding'
p291
I2025
sS'Swimming'
p292
I2029
sS'AskGames'
p293
I2030
sS'SkyrimPorn'
p294
I1981
sS'HuntsvilleAlabama'
p295
I1984
sS'hardstyle'
p296
I1993
sS'Monstercat'
p297
I2030
sS'architecture'
p298
I2038
sS'ems'
p299
I2031
sS'playstation'
p300
I2029
sS'EngineeringStudents'
p301
I2046
sS'Christianity'
p302
I2047
sS'RotMG'
p303
I1989
sS'AskScienceDiscussion'
p304
I2029
sS'DMT'
p305
I1990
sS'changemyview'
p306
I2046
sS'PS3'
p307
I2045
sS'Android'
p308
I2046
sS'startups'
p309
I2044
sS'PS4'
p310
I2047
sS'firstworldanarchists'
p311
I2047
sS'Dodgers'
p312
I2032
sS'comiccodes'
p313
I1322
sS'trapmuzik'
p314
I1972
sS'lotr'
p315
I2046
sS'Braves'
p316
I2023
sS'wikipedia'
p317
I2040
sS'pcmasterrace'
p318
I2047
sS'magicTCG'
p319
I2046
sS'spaceengineers'
p320
I2031
sS'AskFeminists'
p321
I2031
sS'Finland'
p322
I2013
sS'casualiama'
p323
I2047
sS'stunfisk'
p324
I2005
sS'mazda'
p325
I2015
sS'GameDealsMeta'
p326
I1963
sS'answers'
p327
I2040
sS'grandrapids'
p328
I1976
sS'news'
p329
I2047
sS'chicagobulls'
p330
I2032
sS'russia'
p331
I2037
sS'CasualPokemonTrades'
p332
I2019
sS'guitarpedals'
p333
I2032
sS'ukpolitics'
p334
I2041
sS'Cartalk'
p335
I2037
sS'AppHookup'
p336
I2041
sS'StockMarket'
p337
I1995
sS'ShingekiNoKyojin'
p338
I2045
sS'exmuslim'
p339
I2020
sS'ainbow'
p340
I2041
sS'Blink182'
p341
I1975
sS'chrome'
p342
I2039
sS'Gunners'
p343
I2045
sS'beer'
p344
I2044
sS'ak47'
p345
I1994
sS'goodyearwelt'
p346
I1995
sS'androiddev'
p347
I2032
sS'canucks'
p348
I2030
sS'fatlogic'
p349
I2047
sS'Fallout'
p350
I2047
sS'CarAV'
p351
I2022
sS'Aquariums'
p352
I2045
sS'Dota2Trade'
p353
I1984
sS'TopGear'
p354
I2045
sS'r4r'
p355
I2047
sS'aviation'
p356
I2045
sS'darksouls'
p357
I2047
sS'glutenfree'
p358
I2021
sS'rutgers'
p359
I2007
sS'DotA2'
p360
I2047
sS'Cleveland'
p361
I2035
sS'OnePiece'
p362
I2047
sS'windowsphone'
p363
I2044
sS'mexico'
p364
I2030
sS'sushi'
p365
I2034
sS'FanTheories'
p366
I2047
sS'Libraries'
p367
I1953
sS'gamecollecting'
p368
I2045
sS'PhotoshopRequest'
p369
I2042
sS'ShitRedditSays'
p370
I2039
sS'drunkvapes'
p371
I2000
sS'YGOBinders'
p372
I1487
sS'IndieGaming'
p373
I2041
sS'Python'
p374
I2039
sS'pitbulls'
p375
I2034
sS'GoneMild'
p376
I2039
sS'bicycletouring'
p377
I2004
sS'talesfromtechsupport'
p378
I2047
sS'PostHardcore'
p379
I2041
sS'playrust'
p380
I2045
sS'TwinCities'
p381
I2024
sS'thesims'
p382
I2044
sS'fireemblem'
p383
I2035
sS'preppers'
p384
I2036
sS'sixwordstories'
p385
I2035
sS'bikewrench'
p386
I2007
sS'Portland'
p387
I2043
sS'Audi'
p388
I2031
sS'Sonsofanarchy'
p389
I2043
sS'kpop'
p390
I2041
sS'Helicopters'
p391
I1984
sS'Cinema4D'
p392
I1817
sS'QuotesPorn'
p393
I2043
sS'rickandmorty'
p394
I2046
sS'quotes'
p395
I2043
sS'perfectloops'
p396
I2042
sS'Pets'
p397
I2043
sS'InternetIsBeautiful'
p398
I2047
sS'ShitRConservativeSays'
p399
I1990
sS'furry'
p400
I2037
sS'pharmacy'
p401
I2004
sS'Connecticut'
p402
I2033
sS'animation'
p403
I2030
sS'woahdude'
p404
I2046
sS'esports'
p405
I1970
sS'ketogains'
p406
I2030
sS'DenverBroncos'
p407
I2045
sS'footballmanagergames'
p408
I2027
sS'twinks'
p409
I1853
sS'caps'
p410
I1998
sS'toosoon'
p411
I2043
sS'amateurradio'
p412
I2015
sS'gifs'
p413
I2047
sS'Art'
p414
I2047
sS'fitnesscirclejerk'
p415
I2027
sS'orlando'
p416
I2036
sS'xbox'
p417
I2025
sS'Megaten'
p418
I2026
sS'zombies'
p419
I2039
sS'ArcherFX'
p420
I2046
sS'gaymersgonewild'
p421
I1828
sS'getdisciplined'
p422
I2045
sS'whatisthisthing'
p423
I2046
sS'NetflixBestOf'
p424
I2045
sS'NewYorkMets'
p425
I2009
sS'malaysia'
p426
I2001
sS'MarkMyWords'
p427
I2041
sS'radiohead'
p428
I2038
sS'Djent'
p429
I1999
sS'humor'
p430
I2040
sS'mountandblade'
p431
I2027
sS'AskNYC'
p432
I2025
sS'ExpectationVsReality'
p433
I2044
sS'edmproduction'
p434
I2044
sS'Cubs'
p435
I1983
sS'lifehacks'
p436
I2045
sS'letsplay'
p437
I2039
sS'SCP'
p438
I2042
sS'sewing'
p439
I2016
sS'marketing'
p440
I2037
sS'Random_Acts_Of_Pizza'
p441
I2044
sS'PlantedTank'
p442
I2033
sS'Frugal'
p443
I2046
sS'promos'
p444
I2047
sS'shittyaskscience'
p445
I2047
sS'htpc'
p446
I2002
sS'newtothenavy'
p447
I1991
sS'wildhockey'
p448
I2000
sS'BlackMetal'
p449
I1989
sS'anime'
p450
I2047
sS'AnimalsBeingBros'
p451
I2041
sS'AskPhysics'
p452
I2001
sS'Dallas'
p453
I2040
sS'TinyTits'
p454
I2012
sS'Scotland'
p455
I2042
sS'miamidolphins'
p456
I2029
sS'ADHD'
p457
I2045
sS'Korean'
p458
I1994
sS'PS2Cobalt'
p459
I1812
sS'Argentinacirclejerk'
p460
I1465
sS'crypto'
p461
I1915
sS'gis'
p462
I1965
sS'Bad_Cop_No_Donut'
p463
I2047
sS'tennis'
p464
I2044
sS'nova'
p465
I2027
sS'gif'
p466
I2039
sS'Ubuntu'
p467
I2039
sS'Standup'
p468
I2036
sS'Calligraphy'
p469
I2015
sS'happy'
p470
I2045
sS'Stacked'
p471
I1980
sS'firstimpression'
p472
I2043
sS'ChineseLanguage'
p473
I1995
sS'batman'
p474
I2045
sS'occupywallstreet'
p475
I2028
sS'trailerparkboys'
p476
I2030
sS'snackexchange'
p477
I2036
sS'bengals'
p478
I2033
sS'rule34'
p479
I2044
sS'lgg2'
p480
I2028
sS'webcomics'
p481
I2038
sS'BostonBruins'
p482
I2036
sS'mindcrackcirclejerk'
p483
I1888
sS'whiskey'
p484
I2025
sS'BritishTV'
p485
I2009
sS'TryingForABaby'
p486
I1846
sS'SanJoseSharks'
p487
I2015
sS'golang'
p488
I1929
sS'webdev'
p489
I2045
sS'ToolBand'
p490
I2018
sS'eatsandwiches'
p491
I2033
sS'excel'
p492
I2038
sS'snakes'
p493
I2039
sS'saplings'
p494
I2043
sS'nottheonion'
p495
I2047
sS'Trucks'
p496
I2027
sS'ClopClop'
p497
I1870
sS'football'
p498
I2026
sS'GTAV'
p499
I2045
sS'microgrowery'
p500
I2038
sS'Accounting'
p501
I2037
sS'fcbayern'
p502
I1977
sS'comicbooks'
p503
I2047
sS'allthingsprotoss'
p504
I1921
sS'AirForce'
p505
I2041
sS'guitarlessons'
p506
I2024
sS'TF2fashionadvice'
p507
I2000
sS'asheville'
p508
I1987
sS'ottawa'
p509
I2037
sS'terriblefacebookmemes'
p510
I2045
sS'PrettyGirls'
p511
I2032
sS'gainit'
p512
I2044
sS'OttawaSenators'
p513
I1839
sS'IDAP'
p514
I2012
sS'cincinnati'
p515
I2038
sS'ABraThatFits'
p516
I1967
sS'Shitty_Car_Mods'
p517
I2046
sS'spelunky'
p518
I1969
sS'milf'
p519
I2041
sS'wiiu'
p520
I2047
sS'skiing'
p521
I2041
sS'freelance'
p522
I1997
sS'editors'
p523
I1985
sS'ronandfez'
p524
I1951
sS'duolingo'
p525
I2035
sS'environment'
p526
I2042
sS'burlington'
p527
I1832
sS'Redskins'
p528
I2030
sS'Atlanta'
p529
I2045
sS'NewOrleans'
p530
I2013
sS'vegan'
p531
I2044
sS'Jokes'
p532
I2047
sS'vegas'
p533
I2027
sS'WhiteRights'
p534
I1996
sS'anonymous'
p535
I2036
sS'litecoin'
p536
I2033
sS'prisonarchitect'
p537
I2025
sS'Celebs'
p538
I2045
sS'predaddit'
p539
I2002
sS'fantasywriters'
p540
I2023
sS'dbz'
p541
I2046
sS'techsupport'
p542
I2047
sS'baconreader'
p543
I2023
sS'pcgaming'
p544
I2046
sS'Cumberbitches'
p545
I2005
sS'literature'
p546
I2034
sS'DCcomics'
p547
I2047
sS'fatpeoplestories'
p548
I2047
sS'Swingers'
p549
I1925
sS'marchingband'
p550
I2010
sS'Sissies'
p551
I1649
sS'boardgames'
p552
I2045
sS'InteriorDesign'
p553
I2036
sS'Kayaking'
p554
I1980
sS'Ford'
p555
I2001
sS'Nexus5'
p556
I2045
sS'RandomActsofMakeup'
p557
I2008
sS'Nexus7'
p558
I2031
sS'worldnews'
p559
I2047
sS'marvelheroes'
p560
I2020
sS'vexillology'
p561
I2043
sS'ExposurePorn'
p562
I2019
sS'OnceUponATime'
p563
I2027
sS'transtimelines'
p564
I1995
sS'baseball'
p565
I2046
sS'OkCupid'
p566
I2046
sS'Mustang'
p567
I2038
sS'ThriftStoreHauls'
p568
I2045
sS'Breadit'
p569
I2026
sS'lakers'
p570
I2031
sS'progmetal'
p571
I2043
sS'javahelp'
p572
I1960
sS'evangelion'
p573
I2024
sS'Maine'
p574
I2027
sS'montreal'
p575
I2039
sS'girlsinyogapants'
p576
I2036
sS'whatsthisbug'
p577
I2044
sS'yiff'
p578
I1896
sS'hiking'
p579
I2028
sS'beertrade'
p580
I2011
sS'AmIFreeToGo'
p581
I2040
sS'AntiJokes'
p582
I2036
sS'IdiotsFightingThings'
p583
I2043
sS'FinalFantasy'
p584
I2045
sS'chromeos'
p585
I2035
sS'Multicopter'
p586
I2035
sS'gonewildaudio'
p587
I2034
sS'HIMYM'
p588
I2046
sS'AskHistorians'
p589
I2045
sS'OutOfTheLoop'
p590
I2047
sS'france'
p591
I2023
sS'Techno'
p592
I1982
sS'ifyoulikeblank'
p593
I2045
sS'misleadingthumbnails'
p594
I2046
sS'discexchange'
p595
I1486
sS'Eve'
p596
I2046
sS'oregon'
p597
I2011
sS'cordcutters'
p598
I2046
sS'ladybonersgw'
p599
I2038
sS'UFOs'
p600
I2042
sS'baduk'
p601
I1853
sS'bourbon'
p602
I2038
sS'gameswap'
p603
I2022
sS'judo'
p604
I1968
sS'trackers'
p605
I2036
sS'netflix'
p606
I2042
sS'CoDCompetitive'
p607
I2039
sS'Entrepreneur'
p608
I2043
sS'WaltDisneyWorld'
p609
I2022
sS'MMA'
p610
I2047
sS'gamernews'
p611
I2045
sS'nursing'
p612
I2036
sS'audiophile'
p613
I2042
sS'awesome'
p614
I2037
sS'Pathfinder_RPG'
p615
I2042
sS'Kappa'
p616
I2040
sS'supremeclothing'
p617
I2022
sS'counting'
p618
I2040
sS'PersonalFinanceCanada'
p619
I1969
sS'Pizza'
p620
I2038
sS'asmr'
p621
I2046
sS'PowerMetal'
p622
I2005
sS'MURICA'
p623
I2046
sS'TheNarutoWorld'
p624
I1057
sS'NBA2k'
p625
I2040
sS'vancouver'
p626
I2044
sS'bikecommuting'
p627
I2027
sS'RedditLaqueristas'
p628
I2043
sS'spaceporn'
p629
I2046
sS'nyc'
p630
I2046
sS'economy'
p631
I2039
sS'GameSale'
p632
I1997
sS'techsupportmacgyver'
p633
I2037
sS'mac'
p634
I2045
sS'GradSchool'
p635
I2013
sS'smashbros'
p636
I2047
sS'gtaglitches'
p637
I2021
sS'BitcoinMarkets'
p638
I2043
sS'oculus'
p639
I2046
sS'Toonami'
p640
I1969
sS'drumcorps'
p641
I1955
sS'futurebeats'
p642
I2029
sS'eFreebies'
p643
I2042
sS'nl_Kripparrian'
p644
I1965
sS'tall'
p645
I2047
sS'ImGoingToHellForThis'
p646
I2047
sS'manga'
p647
I2045
sS'shield'
p648
I2043
sS'Hunting'
p649
I2038
sS'Guildwars2'
p650
I2045
sS'washingtondc'
p651
I2042
sS'PurplePillDebate'
p652
I2020
sS'dataisbeautiful'
p653
I2046
sS'battlefield3'
p654
I2033
sS'arduino'
p655
I2033
sS'MAA'
p656
I1444
sS'MMFB'
p657
I2028
sS'AndroidQuestions'
p658
I2044
sS'applehelp'
p659
I2046
sS'Bioshock'
p660
I2041
sS'WorldofTanks'
p661
I2039
sS'SoccerBetting'
p662
I1801
sS'texas'
p663
I2043
sS'MilitaryPorn'
p664
I2044
sS'electronicmusic'
p665
I2045
sS'childfree'
p666
I2046
sS'ft86'
p667
I1966
sS'halo'
p668
I2047
sS'occult'
p669
I2041
sS'creepyPMs'
p670
I2046
sS'asianamerican'
p671
I2011
sS'penpals'
p672
I2038
sS'GolfGTI'
p673
I1974
sS'Watches'
p674
I2042
sS'AdviceAnimals'
p675
I2047
sS'HogwartsRP'
p676
I1297
sS'aspergers'
p677
I2040
sS'mildlyinteresting'
p678
I2047
sS'TrueAtheism'
p679
I2044
sS'badhistory'
p680
I2044
sS'latin'
p681
I1956
sS'Archery'
p682
I2035
sS'CryptoCurrency'
p683
I2026
sS'malegrooming'
p684
I2037
sS'canada'
p685
I2047
sS'SNSD'
p686
I1950
sS'htcone'
p687
I2041
sS'space'
p688
I2045
sS'Michigan'
p689
I2039
sS'ACTrade'
p690
I2007
sS'Dreadlocks'
p691
I1949
sS'malefashionadvice'
p692
I2047
sS'penguins'
p693
I2016
sS'MCPE'
p694
I1990
sS'flashlight'
p695
I1985
sS'AutoDetailing'
p696
I2038
sS'Bondage'
p697
I1974
sS'StLouis'
p698
I2037
sS'cars'
p699
I2047
sS'loseit'
p700
I2046
sS'ontario'
p701
I2008
sS'vinyl'
p702
I2046
sS'freemasonry'
p703
I1998
sS'longrange'
p704
I1939
sS'youtubehaiku'
p705
I2046
sS'simracing'
p706
I2009
sS'headphones'
p707
I2046
sS'programming'
p708
I2044
sS'howtonotgiveafuck'
p709
I2046
sS'raleigh'
p710
I1994
sS'MakeupAddicts'
p711
I1962
sS'whatstheword'
p712
I2033
sS'Dachshund'
p713
I2017
sS'xbmc'
p714
I2022
sS'Adelaide'
p715
I1989
sS'Brazil'
p716
I2001
sS'FIFA'
p717
I2045
sS'flying'
p718
I2044
sS'pokemon'
p719
I2047
sS'JRPG'
p720
I2032
sS'granturismo'
p721
I2013
sS'modelmakers'
p722
I1982
sS'SEO'
p723
I2013
sS'explainlikeimfive'
p724
I2047
sS'nutrition'
p725
I2029
sS'Scholar'
p726
I1928
sS'HVAC'
p727
I2004
sS'3DS'
p728
I2046
sS'ableton'
p729
I1951
sS'MLPCCG'
p730
I1800
sS'nsfw_gifs'
p731
I2037
sS'indieheads'
p732
I2032
sS'VapePorn'
p733
I2012
sS'learnpython'
p734
I2039
sS'Battlefield'
p735
I2039
sS'television'
p736
I2047
sS'Colorado'
p737
I2022
sS'sailing'
p738
I2023
sS'TheRedPill'
p739
I2046
sS'knives'
p740
I2039
sS'scuba'
p741
I2031
sS'formula1'
p742
I2046
sS'BPD'
p743
I2008
sS'FoodPorn'
p744
I2046
sS'wifesharing'
p745
I1979
sS'conspiracy'
p746
I2046
sS'AnythingGoesNews'
p747
I2037
sS'superman'
p748
I2022
sS'Warframe'
p749
I2043
sS'warriors'
p750
I2000
sS'shortscarystories'
p751
I2040
sS'DaftPunk'
p752
I2042
sS'hookah'
p753
I2038
sS'britishproblems'
p754
I2047
sS'madisonwi'
p755
I2028
sS'Futurology'
p756
I2047
sS'MLS'
p757
I2045
sS'INTP'
p758
I2044
sS'crochet'
p759
I2024
sS'dayzlfg'
p760
I1985
sS'SVExchange'
p761
I1999
sS'GameTrade'
p762
I1897
sS'Amsterdam'
p763
I1978
sS'talesfromcallcenters'
p764
I2007
sS'fffffffuuuuuuuuuuuu'
p765
I2047
sS'PleX'
p766
I2037
sS'selfpublish'
p767
I1924
sS'sgsflair'
p768
I2010
sS'spacex'
p769
I2037
sS'PuzzleAndDragons'
p770
I2027
sS'TheoryOfReddit'
p771
I2038
sS'Sacramento'
p772
I2027
sS'booksuggestions'
p773
I2044
sS'VinylCollectors'
p774
I1991
sS'whowouldwin'
p775
I2047
sS'hockey'
p776
I2046
sS'AsianHotties'
p777
I1994
sS'alcoholism'
p778
I1885
sS'MetalMemes'
p779
I2033
sS'nononono'
p780
I2047
sS'thinkpad'
p781
I1996
sS'beatles'
p782
I2034
sS'arresteddevelopment'
p783
I2039
sS'gonewild'
p784
I2046
sS'mormon'
p785
I1974
sS'xxketo'
p786
I2001
sS'KerbalAcademy'
p787
I1979
sS'lostgeneration'
p788
I2041
sS'MonsterHunter'
p789
I2037
sS'elderscrollsonline'
p790
I2045
sS'Denmark'
p791
I2028
sS'homestead'
p792
I2009
sS'Netrunner'
p793
I1955
sS'HongKong'
p794
I2028
sS'WeAreTheMusicMakers'
p795
I2047
sS'pornvids'
p796
I1997
sS'nsfw'
p797
I2047
sS'truetf2'
p798
I2002
sS'asatru'
p799
I1970
sS'AskWomen'
p800
I2047
sS'TheSimpsons'
p801
I2045
sS'cocktails'
p802
I2032
sS'osugame'
p803
I2003
sS'college'
p804
I2043
sS'entwives'
p805
I1930
sS'pebble'
p806
I2039
sS'KarmaCourt'
p807
I2040
sS'vita'
p808
I2046
sS'camping'
p809
I2034
sS'behindthegifs'
p810
I2046
sS'breakingbad'
p811
I2046
sS'CompanyOfHeroes'
p812
I1904
sS'outside'
p813
I2046
sS'longisland'
p814
I2025
sS'jobs'
p815
I2045
sS'cscareerquestions'
p816
I2046
sS'Diablo3Monks'
p817
I2019
sS'giftcardexchange'
p818
I1999
sS'gamingsuggestions'
p819
I2043
sS'RedditDayOf'
p820
I2042
sS'fitmeals'
p821
I2038
sS'3dsFCswap'
p822
I1923
sS'relationship_advice'
p823
I2046
sS'lookatmydog'
p824
I2010
sS'WWE'
p825
I2040
sS'itookapicture'
p826
I2046
sS'GunPorn'
p827
I2034
sS'tulsa'
p828
I2004
sS'GetMotivated'
p829
I2047
sS'pakistan'
p830
I1969
sS'bikesgonewild'
p831
I2032
sS'cancer'
p832
I2005
sS'Divorce'
p833
I1985
sS'Delaware'
p834
I2008
sS'reactiongifs'
p835
I2047
sS'incremental_games'
p836
I2031
sS'Wordpress'
p837
I2024
sS'Cardinals'
p838
I2022
sS'mtgfinance'
p839
I2009
sS'Bonsai'
p840
I2008
sS'Heroclix'
p841
I1842
sS'cycling'
p842
I2031
sS'Charlotte'
p843
I1993
sS'thelastofusfactions'
p844
I2013
sS'RandomActsOfPizza'
p845
I2036
sS'snes'
p846
I2016
sS'confessions'
p847
I2035
sS'HunterXHunter'
p848
I2024
sS'MakeupAddiction'
p849
I2047
sS'androidapps'
p850
I2045
sS'marvelstudios'
p851
I2045
sS'Thetruthishere'
p852
I2017
sS'greenday'
p853
I1878
sS'emulation'
p854
I2035
sS'bmx'
p855
I1986
sS'Scotch'
p856
I2040
sS'ABDL'
p857
I1954
sS'GiveMeTheVirus'
p858
I1349
sS'KingkillerChronicle'
p859
I2024
sS'Shave_Bazaar'
p860
I1975
sS'sex'
p861
I2046
sS'engineering'
p862
I2045
sS'Perfectfit'
p863
I2043
sS'offbeat'
p864
I2045
sS'Musicthemetime'
p865
I1941
sS'titanfall'
p866
I2045
sS'LGBTeens'
p867
I2031
sS'latterdaysaints'
p868
I2012
sS'ICanDrawThat'
p869
I2041
sS'GNV'
p870
I1881
sS'Cooking'
p871
I2047
sS'IASIP'
p872
I2039
sS'DIY'
p873
I2046
sS'assassinscreed'
p874
I2047
sS'technology'
p875
I2047
sS'cheatatmathhomework'
p876
I2034
sS'Israel'
p877
I2040
sS'Jazz'
p878
I2033
sS'pokemonzetaomicron'
p879
I2041
sS'touhou'
p880
I2006
sS'daddit'
p881
I2043
sS'Design'
p882
I2043
sS'tolkienfans'
p883
I2030
sS'singapore'
p884
I2032
sS'Rowing'
p885
I1996
sS'Toyota'
p886
I1988
sS'DebateAChristian'
p887
I2037
sS'running'
p888
I2047
sS'climbing'
p889
I2042
sS'Physics'
p890
I2040
sS'PipeTobacco'
p891
I2033
sS'traps'
p892
I1971
sS'TrueFilm'
p893
I2034
sS'dfsports'
p894
I1964
sS'TimAndEric'
p895
I2023
sS'gtavcustoms'
p896
I1996
sS'Graffiti'
p897
I2033
sS'AskEngineers'
p898
I2044
sS'gmod'
p899
I1942
sS'awwwtf'
p900
I2041
sS'Barca'
p901
I1985
sS'brisbane'
p902
I2031
sS'Boxing'
p903
I2043
sS'rupaulsdragrace'
p904
I2032
sS'Conservative'
p905
I2041
sS'dadjokes'
p906
I2047
sS'woodworking'
p907
I2046
sS'whitepeoplegifs'
p908
I2039
sS'Greyhounds'
p909
I1968
sS'Miata'
p910
I2031
sS'MillerPlanetside'
p911
I1721
sS'UIUC'
p912
I2015
sS'Advice'
p913
I2046
sS'AsianLadyboners'
p914
I1815
sS'linuxadmin'
p915
I1971
sS'LearnJapanese'
p916
I2042
sS'fairytail'
p917
I2004
sS'perth'
p918
I2023
sS'offmychest'
p919
I2047
sS'robotics'
p920
I1979
sS'RandomActsOfPolish'
p921
I1876
sS'Attackontitangame'
p922
I1691
sS'dota2loungebets'
p923
I1759
sS'altgonewild'
p924
I2004
sS'Dualsport'
p925
I1989
sS'Shadowrun'
p926
I2014
sS'SmiteLFM'
p927
I1721
sS'Liberal'
p928
I2035
sS'bodyweightfitness'
p929
I2043
sS'oblivion'
p930
I2035
sS'compsci'
p931
I2036
sS'montageparodies'
p932
I2046
sS'malefashion'
p933
I2002
sS'HPMOR'
p934
I1881
sS'ShouldIbuythisgame'
p935
I2047
sS'freebies'
p936
I2046
sS'cowboys'
p937
I2042
sS'Berserk'
p938
I2008
sS'gameofthrones'
p939
I2047
sS'phoenix'
p940
I2036
sS'Wicca'
p941
I1945
sS'3Dprinting'
p942
I2041
sS'glassheads'
p943
I2016
sS'metalgearsolid'
p944
I2045
sS'transformers'
p945
I2021
sS'business'
p946
I2041
sS'FloridaMan'
p947
I2044
sS'skrillex'
p948
I2009
sS'Cynicalbrit'
p949
I2045
sS'JonTron'
p950
I2035
sS'drums'
p951
I2041
sS'whatsthisplant'
p952
I2033
sS'custommagic'
p953
I1956
sS'MvC3'
p954
I1918
sS'GoneWildPlus'
p955
I2027
sS'dontstarve'
p956
I2035
sS'wheredidthesodago'
p957
I2047
sS'classic4chan'
p958
I2041
sS'NSFWFunny'
p959
I2036
sS'Gunpla'
p960
I2031
sS'puppy101'
p961
I2006
sS'linuxquestions'
p962
I2029
sS'bjj'
p963
I2045
sS'snapchat'
p964
I2008
sS'marijuanaenthusiasts'
p965
I2030
sS'TrollXChromosomes'
p966
I2046
sS'homestuck'
p967
I2026
sS'mcservers'
p968
I2037
sS'DnD'
p969
I2047
sS'DnB'
p970
I2032
sS'philadelphia'
p971
I2039
sS'cats'
p972
I2046
sS'emacs'
p973
I1828
sS'raisedbynarcissists'
p974
I2046
sS'tf2'
p975
I2047
sS'cablefail'
p976
I2023
sS'explainlikeIAmA'
p977
I2046
sS'gamegrumps'
p978
I2045
sS'ketorecipes'
p979
I2036
sS'beerporn'
p980
I2027
sS'bindingofisaac'
p981
I2046
sS'itmejp'
p982
I1945
sS'rugbyunion'
p983
I2039
sS'blunderyears'
p984
I2046
sS'ecigclassifieds'
p985
I2039
sS'videography'
p986
I2007
sS'rage'
p987
I2047
sS'comics'
p988
I2047
sS'House'
p989
I1986
sS'xmen'
p990
I2024
sS'asexuality'
p991
I1979
sS'rust'
p992
I1710
sS'fullmoviesonyoutube'
p993
I2046
sS'rva'
p994
I2028
sS'videos'
p995
I2047
sS'SketchDaily'
p996
I1989
sS'arabs'
p997
I2010
sS'FL_Studio'
p998
I1960
sS'peloton'
p999
I2003
sS'politics'
p1000
I2047
sS'Veterans'
p1001
I2014
sS'ForeverAlone'
p1002
I2044
sS'24hoursupport'
p1003
I2013
sS'bicycling'
p1004
I2047
sS'Survival'
p1005
I2038
sS'shittyama'
p1006
I2044
sS'zelda'
p1007
I2046
sS'OrthodoxChristianity'
p1008
I1693
sS'Feminism'
p1009
I2038
sS'ScotchSwap'
p1010
I1511
sS'Frugal_Jerk'
p1011
I2037
sS'GalaxyS3'
p1012
I2013
sS'Omaha'
p1013
I2014
sS'ColoradoAvalanche'
p1014
I1999
sS'dawngate'
p1015
I2004
sS'alcohol'
p1016
I2025
sS'somethingimade'
p1017
I2044
sS'cosplaygirls'
p1018
I2043
sS'AdoptMyVillager'
p1019
I1915
sS'feedthebeast'
p1020
I2043
sS'Kikpals'
p1021
I2009
sS'curvy'
p1022
I2016
sS'minecraftsuggestions'
p1023
I2013
sS'AsianBeauty'
p1024
I1938
sS'livesound'
p1025
I1970
sS'learndota2'
p1026
I2025
sS'AndroidGaming'
p1027
I2043
sS'shrooms'
p1028
I2030
sS'KitchenConfidential'
p1029
I2043
sS'goldenretrievers'
p1030
I2006
sS'SampleSize'
p1031
I2042
sS'Transmogrification'
p1032
I2022
sS'shittyaskreddit'
p1033
I2037
sS'financialindependence'
p1034
I2031
sS'Miniswap'
p1035
I1765
sS'Cricket'
p1036
I2037
sS'SourceFed'
p1037
I2035
sS'Habs'
p1038
I2026
sS'acting'
p1039
I2010
sS'swoleacceptance'
p1040
I2036
sS'MaddenUltimateTeam'
p1041
I1960
sS'LucidDreaming'
p1042
I2044
sS'ImaginaryMonsters'
p1043
I2032
sS'leagueoflegends'
p1044
I2047
sS'InfertilityBabies'
p1045
I1678
sS'YouShouldKnow'
p1046
I2047
sS'Jeep'
p1047
I2042
sS'ploompax'
p1048
I1966
sS'progrockmusic'
p1049
I2006
sS'Bowling'
p1050
I1979
sS'finance'
p1051
I2033
sS'IWantToLearn'
p1052
I2047
sS'Pegging'
p1053
I1938
sS'DarkSouls2'
p1054
I2046
sS'yugioh'
p1055
I2034
sS'anal'
p1056
I1991
sS'LetsTalkMusic'
p1057
I2030
sS'tea'
p1058
I2044
sS'Denver'
p1059
I2039
sS'POLITIC'
p1060
I2036
sS'rapbattles'
p1061
I1930
sS'AmISexy'
p1062
I2045
sS'nba'
p1063
I2047
sS'fantasyfootball'
p1064
I2047
sS'cigars'
p1065
I2039
sS'forwardsfromgrandma'
p1066
I2046
sS'Scrolls'
p1067
I1955
sS'skeptic'
p1068
I2046
sS'AskPhotography'
p1069
I1997
sS'Anticonsumption'
p1070
I2024
sS'powerrangers'
p1071
I1999
sS'GuessTheMovie'
p1072
I2041
sS'guns'
p1073
I2046
sS'tattoos'
p1074
I2046
sS'iran'
p1075
I1998
sS'hcfactions'
p1076
I1924
sS'needamod'
p1077
I2043
sS'LetsNotMeet'
p1078
I2045
sS'legaladvice'
p1079
I2047
sS'AskElectronics'
p1080
I2040
sS'Ebay'
p1081
I2041
sS'Supplements'
p1082
I2023
sS'berkeley'
p1083
I2023
sS'doctorwho'
p1084
I2047
sS'WritingPrompts'
p1085
I2047
sS'sanfrancisco'
p1086
I2042
sS'vegetarian'
p1087
I2038
sS'creepy'
p1088
I2047
sS'pics'
p1089
I2047
sS'cripplingalcoholism'
p1090
I2037
sS'advertising'
p1091
I2031
sS'IWantOut'
p1092
I2039
sS'HalfLife'
p1093
I2033
sS'JoeRogan'
p1094
I2036
sS'Yogscast'
p1095
I2042
sS'todayilearned'
p1096
I2047
sS'jailbreak'
p1097
I2047
sS'vim'
p1098
I1944
sS'Louisville'
p1099
I2015
sS'Showerthoughts'
p1100
I2047
sS'AnimeFigures'
p1101
I1957
sS'Columbus'
p1102
I2033
sS'WebGames'
p1103
I2044
sS'musictheory'
p1104
I2019
sS'battlefield_4'
p1105
I2044
sS'pkmntcgtrades'
p1106
I1776
sS'Philippines'
p1107
I2039
sS'galaxys4'
p1108
I2023
sS'namenerds'
p1109
I1927
sS'KillLaKill'
p1110
I2043
sS'showerbeer'
p1111
I2042
sS'science'
p1112
I2047
sS'firstworldproblems'
p1113
I2044
sS'Meditation'
p1114
I2044
sS'history'
p1115
I2046
sS'Denton'
p1116
I1944
sS'gamemaker'
p1117
I1834
sS'AskScienceFiction'
p1118
I2046
sS'Glocks'
p1119
I1996
sS'oddlysatisfying'
p1120
I2047
sS'Infographics'
p1121
I2039
sS'BasicIncome'
p1122
I2042
sS'CampingandHiking'
p1123
I2044
sS'hardbodies'
p1124
I2041
sS'triathlon'
p1125
I1960
sS'backpacking'
p1126
I2042
sS'Hotchickswithtattoos'
p1127
I2023
sS'scifi'
p1128
I2046
sS'Dreams'
p1129
I2021
sS'awwnime'
p1130
I2019
sS'Chattanooga'
p1131
I1993
sS'blackops2'
p1132
I2027
sS'discgolf'
p1133
I2040
sS'budgetfood'
p1134
I2031
sS'oaklandraiders'
p1135
I2033
sS'comicbookmovies'
p1136
I2043
sS'CrazyIdeas'
p1137
I2046
sS'uwaterloo'
p1138
I1986
sS'short'
p1139
I2042
sS'GaybrosGoneWild'
p1140
I1930
sS'Shitstatistssay'
p1141
I2029
sS'crafts'
p1142
I2027
sS'streetwear'
p1143
I2045
sS'DataHoarder'
p1144
I2008
sS'Nerf'
p1145
I2028
sS'photoshop'
p1146
I2039
sS'help'
p1147
I2046
sS'softwareswap'
p1148
I2032
sS'DoesAnybodyElse'
p1149
I2047
sS'pettyrevenge'
p1150
I2046
sS'malehairadvice'
p1151
I2045
sS'SF4'
p1152
I2032
sS'DeepIntoYouTube'
p1153
I2045
sS'csharp'
p1154
I1996
sS'DIY_eJuice'
p1155
I2033
sS'milwaukee'
p1156
I1994
sS'islam'
p1157
I2045
sS'YGOSales'
p1158
I1718
sS'summonerschool'
p1159
I2046
sS'Documentaries'
p1160
I2046
sS'StonerEngineering'
p1161
I2038
sS'gamedesign'
p1162
I1992
sS'TrueChristian'
p1163
I2020
sS'argentina'
p1164
I2013
sS'soccer'
p1165
I2047
sS'askseddit'
p1166
I2035
sS'TheRedLion'
p1167
I1853
sS'Frisson'
p1168
I2046
sS'photoshopbattles'
p1169
I2047
sS'food'
p1170
I2047
sS'90daysgoal'
p1171
I1908
sS'shittydarksouls'
p1172
I1934
sS'starbucks'
p1173
I2026
sS'NoStupidQuestions'
p1174
I2047
sS'chicago'
p1175
I2046
sS'VideoEditing'
p1176
I2013
sS'makeupexchange'
p1177
I1902
sS'WatchItForThePlot'
p1178
I2045
sS'webhosting'
p1179
I1990
sS'radiocontrol'
p1180
I2032
sS'gamemusic'
p1181
I2037
sS'energy'
p1182
I2032
sS'Saints'
p1183
I2038
sS'MST3K'
p1184
I2017
sS'TwoXChromosomes'
p1185
I2047
sS'DunderMifflin'
p1186
I2045
sS'psychology'
p1187
I2043
sS'demonssouls'
p1188
I1879
sS'LearnUselessTalents'
p1189
I2042
sS'nyjets'
p1190
I2031
sS'randomsexiness'
p1191
I2028
sS'Astronomy'
p1192
I2044
sS'ftm'
p1193
I1886
sS'CatsStandingUp'
p1194
I2035
sS'ass'
p1195
I2039
sS'wisconsin'
p1196
I2032
sS'Cyberpunk'
p1197
I2044
sS'longboarding'
p1198
I2044
sS'Tucson'
p1199
I1981
sS'Roadcam'
p1200
I2044
sS'TributeMe'
p1201
I1802
sS'PoliticalHumor'
p1202
I2042
sS'computers'
p1203
I2041
sS'linux_gaming'
p1204
I2029
sS'ar15'
p1205
I2041
sS'snowboarding'
p1206
I2040
sS'NYKnicks'
p1207
I1993
sS'Turkey'
p1208
I1971
sS'hawks'
p1209
I2026
sS'gamingpc'
p1210
I2039
sS'churning'
p1211
I2027
sS'misc'
p1212
I2037
sS'patientgamers'
p1213
I2046
sS'feet'
p1214
I2021
sS'conspiratard'
p1215
I2046
sS'GreenBayPackers'
p1216
I2046
sS'cade'
p1217
I2016
sS'gtaonline'
p1218
I2045
sS'Tribes'
p1219
I1963
sS'freedonuts'
p1220
I2033
sS'projectcar'
p1221
I1991
sS'OldSchoolCool'
p1222
I2047
sS'OpiatesRecovery'
p1223
I1960
sS'onetruegod'
p1224
I2041
sS'rails'
p1225
I1917
sS'Autos'
p1226
I2045
sS'shittyreactiongifs'
p1227
I2037
sS'Everton'
p1228
I1943
sS'aves'
p1229
I2034
sS'SuggestALaptop'
p1230
I2046
sS'GTA'
p1231
I2036
sS'TrollYChromosome'
p1232
I2046
sS'Metroid'
p1233
I2006
sS'DaystromInstitute'
p1234
I2026
sS'GODZILLA'
p1235
I2040
sS'mylittlepony'
p1236
I2046
sS'DumpsterDiving'
p1237
I2029
sS'madmen'
p1238
I2042
sS'Plumbing'
p1239
I2021
sS'dogemarket'
p1240
I2044
sS'vintageaudio'
p1241
I1914
sS'SelfDrivingCars'
p1242
I2025
sS'sto'
p1243
I2010
sS'Coilporn'
p1244
I2031
sS'kindle'
p1245
I2030
sS'iOSthemes'
p1246
I2042
sS'XWingTMG'
p1247
I1888
sS'COents'
p1248
I2004
sS'HighQualityGifs'
p1249
I2041
sS'Fantasy'
p1250
I2047
sS'Iceland'
p1251
I1985
sS'self'
p1252
I2047
sS'HomeworkHelp'
p1253
I2043
sS'CivcraftExchange'
p1254
I1497
sS'depression'
p1255
I2047
sS'paydaytheheist'
p1256
I2045
sS'MovieSuggestions'
p1257
I2032
sS'Fibromyalgia'
p1258
I1825
sS'ActionFigures'
p1259
I2000
sS'Hawaii'
p1260
I2022
sS'pittsburgh'
p1261
I2035
sS'realmadrid'
p1262
I2005
sS'progresspics'
p1263
I2046
sS'beyondthebump'
p1264
I2004
sS'RBA'
p1265
I2027
sS'askdrugs'
p1266
I1992
sS'jakeandamir'
p1267
I2020
sS'newjersey'
p1268
I2041
sS'Silverbugs'
p1269
I2035
sS'TumblrInAction'
p1270
I2047
sS'Fishing'
p1271
I2043
sS'microsoft'
p1272
I2024
sS'TalesFromThePizzaGuy'
p1273
I2043
sS'golf'
p1274
I2042
sS'Psychonaut'
p1275
I2045
sS'adventuretime'
p1276
I2047
sS'PanicHistory'
p1277
I2016
sS'guineapigs'
p1278
I1979
sS'LinuxActionShow'
p1279
I2016
sS'counterstrike'
p1280
I2021
sS'bodybuilding'
p1281
I2045
sS'Foodforthought'
p1282
I2044
sS'blender'
p1283
I2037
sS'languagelearning'
p1284
I2043
sS'Bass'
p1285
I2041
sS'printSF'
p1286
I2030
sS'French'
p1287
I2034
sS'harrypotter'
p1288
I2047
sS'wicked_edge'
p1289
I2046
sS'Trove'
p1290
I1900
sS'DetroitRedWings'
p1291
I2039
sS'boulder'
p1292
I2007
sS'toronto'
p1293
I2046
sS'ArtisanVideos'
p1294
I2044
sS'Magic'
p1295
I2015
sS'CrusaderKings'
p1296
I2040
sS'trees'
p1297
I2047
sS'piercing'
p1298
I2031
sS'clothdiaps'
p1299
I1881
sS'PrettyGirlsUglyFaces'
p1300
I2032
sS'overclocking'
p1301
I2008
sS'AbandonedPorn'
p1302
I2046
sS'spikes'
p1303
I2032
sS'Rabbits'
p1304
I2040
sS'motorcycles'
p1305
I2046
sS'progressive'
p1306
I2033
sS'masseffect'
p1307
I2046
sS'progun'
p1308
I2038
sS'Marijuana'
p1309
I2040
sS'Minneapolis'
p1310
I2014
sS'croatia'
p1311
I1913
sS'ClashOfClans'
p1312
I2047
sS'corgi'
p1313
I2043
sS'PHP'
p1314
I2030
sS'cringe'
p1315
I2047
sS'airsoftmarket'
p1316
I1937
sS'bakchodi'
p1317
I1827
sS'Rochester'
p1318
I2011
sS'CalgaryFlames'
p1319
I1925
sS'devils'
p1320
I2011
sS'InsideGaming'
p1321
I2033
sS'SanJose'
p1322
I2003
sS'see'
p1323
I2043
sS'friendsafari'
p1324
I2044
sS'sips'
p1325
I2032
sS'Vaping101'
p1326
I2021
sS'HeroesofNewerth'
p1327
I2014
sS'analog'
p1328
I2027
sS'rawdenim'
p1329
I2044
sS'cosplay'
p1330
I2047
sS'AmericanHorrorStory'
p1331
I2046
sS'foodhacks'
p1332
I2039
sS'Anarchy101'
p1333
I1965
sS'RWBY'
p1334
I2029
sS'steelers'
p1335
I2031
sS'europe'
p1336
I2046
sS'iosgaming'
p1337
I2043
sS'korea'
p1338
I2040
sS'flightsim'
p1339
I1985
sS'PixelArt'
p1340
I2025
sS'AskTechnology'
p1341
I2023
sS'javascript'
p1342
I2020
sS'celebnsfw'
p1343
I2040
sS'NASCAR'
p1344
I2045
sS'fakeid'
p1345
I2025
sS'newhampshire'
p1346
I2010
sS'Unexpected'
p1347
I2047
sS'saskatoon'
p1348
I1893
sS'Sherlock'
p1349
I2046
sS'baltimore'
p1350
I2038
sS'drunk'
p1351
I2046
sS'xxfitness'
p1352
I2037
sS'community'
p1353
I2046
sS'BBWGW'
p1354
I1921
sS'linux'
p1355
I2045
sS'femalefashionadvice'
p1356
I2041
sS'java'
p1357
I2031
sS'PotterPlayRP'
p1358
I1740
sS'bostonceltics'
p1359
I2013
sS'Enhancement'
p1360
I2042
sS'Guitar'
p1361
I2046
sS'southafrica'
p1362
I2008
sS'California'
p1363
I2038
sS'ireland'
p1364
I2046
sS'peacecorps'
p1365
I1774
sS'web_design'
p1366
I2046
sS'orioles'
p1367
I2034
sS'EA_NHL'
p1368
I1986
sS'gay'
p1369
I2038
sS'mturk'
p1370
I2014
sS'germanshepherds'
p1371
I2010
sS'curlyhair'
p1372
I2006
sS'thelastofus'
p1373
I2039
sS'forza'
p1374
I2020
sS'buildapcforme'
p1375
I2047
sS'sandiego'
p1376
I2044
sS'Chromecast'
p1377
I2043
sS'Flipping'
p1378
I2040
sS'socialism'
p1379
I2044
sS'ultrahardcore'
p1380
I2015
sS'MtF'
p1381
I2002
sS'OnOff'
p1382
I2035
sS'C25K'
p1383
I2033
sS'stopdrinking'
p1384
I2035
sS'rit'
p1385
I1910
sS'Filmmakers'
p1386
I2047
sS'RandomActsOfBlowJob'
p1387
I2012
sS'southpark'
p1388
I2046
sS'funny'
p1389
I2047
sS'astrophotography'
p1390
I2031
sS'deadpool'
p1391
I2030
sS'migraine'
p1392
I1978
sS'selfimprovement'
p1393
I2007
sS'stlouisblues'
p1394
I2022
sS'chelseafc'
p1395
I2036
sS'SaltLakeCity'
p1396
I2027
sS'windows8'
p1397
I2036
sS'fifthworldproblems'
p1398
I2031
sS'Anarchism'
p1399
I2041
sS'knitting'
p1400
I2027
sS'borussiadortmund'
p1401
I1849
sS'AnimalsBeingJerks'
p1402
I2045
sS'KDRAMA'
p1403
I1912
sS'torontoraptors'
p1404
I2009
sS'BMW'
p1405
I2040
sS'catpictures'
p1406
I2041
sS'lacrosse'
p1407
I1967
sS'OutreachHPG'
p1408
I2005
sS'infertility'
p1409
I1890
sS'ArtistLounge'
p1410
I1811
sS'RedditDads'
p1411
I1948
sS'trance'
p1412
I2028
sS'chemistry'
p1413
I2043
sS'exjw'
p1414
I2032
sS'breastfeeding'
p1415
I1963
sS'Albany'
p1416
I1954
sS'Piracy'
p1417
I2035
sS'PublicFreakout'
p1418
I2045
sS'Porsche'
p1419
I2002
sS'OFWGKTA'
p1420
I1990
sS'Switzerland'
p1421
I1984
sS'SkyDiving'
p1422
I1999
sS'Magicdeckbuilding'
p1423
I2020
sS'design_critiques'
p1424
I2035
sS'taiwan'
p1425
I2010
sS'gaybrosgonemild'
p1426
I1983
sS'carporn'
p1427
I2045
sS'TalesFromRetail'
p1428
I2047
sS'TrueReddit'
p1429
I2045
sS'WouldYouRather'
p1430
I2043
sS'quityourbullshit'
p1431
I2045
sS'ProtectAndServe'
p1432
I2046
sS'rangers'
p1433
I2035
sS'sydney'
p1434
I2037
sS'Catholicism'
p1435
I2041
sS'mycology'
p1436
I2030
sS'australia'
p1437
I2047
sS'NSFW_GIF'
p1438
I2047
sS'HomeNetworking'
p1439
I2011
sS'Harley'
p1440
I1985
sS'BipolarReddit'
p1441
I2018
sS'jacksonville'
p1442
I1986
sS'RedPillWomen'
p1443
I2010
sS'ConfusedBoners'
p1444
I2032
sS'strife'
p1445
I1984
sS'UBC'
p1446
I1732
sS'csshelp'
p1447
I2034
sS'MTGLegacy'
p1448
I1869
sS'google'
p1449
I2044
sS'gardening'
p1450
I2042
sS'unitedkingdom'
p1451
I2047
sS'watercooling'
p1452
I1953
sS'circlebroke2'
p1453
I2018
sS'interestingasfuck'
p1454
I2047
sS'FeMRADebates'
p1455
I2006
sS'SFGiants'
p1456
I2036
sS'Warmachine'
p1457
I1981
sS'AMA'
p1458
I2046
sS'Albuquerque'
p1459
I2013
sS'DarkNetMarkets'
p1460
I2045
sS'religion'
p1461
I2034
sS'Gunsforsale'
p1462
I1957
sS'graphic_design'
p1463
I2041
sS'blackberry'
p1464
I2019
sS'DeadBedrooms'
p1465
I2039
sS'Economics'
p1466
I2044
sS'KingdomHearts'
p1467
I2035
sS'rccars'
p1468
I1981
sS'Flyers'
p1469
I2026
sS'lewronggeneration'
p1470
I2047
sS'roblox'
p1471
I1874
sS'Unity3D'
p1472
I2023
sS'Romania'
p1473
I2003
sS'calvinandhobbes'
p1474
I2039
sS'PolishGauntlet'
p1475
I1817
sS'melbourne'
p1476
I2042
sS'Pmsforsale'
p1477
I1665
sS'ShitAmericansSay'
p1478
I2028
sS'intj'
p1479
I2045
sS'selfharm'
p1480
I1907
sS'subaru'
p1481
I2046
sS'RandomKindness'
p1482
I2042
sS'weddingplanning'
p1483
I2032
sS'tifu'
p1484
I2047
sS'sports'
p1485
I2046
sS'SimCity'
p1486
I2030
sS'kansascity'
p1487
I2035
sS'statistics'
p1488
I2002
sS'TinyHouses'
p1489
I2027
sS'SquaredCircle'
p1490
I2047
sS'linux4noobs'
p1491
I2037
sS'mylittleandysonic1'
p1492
I1925
sS'sousvide'
p1493
I1937
sS'asstastic'
p1494
I2020
sS'iphone'
p1495
I2046
sS'BeardedDragons'
p1496
I2006
sS'Suomi'
p1497
I1940
sS'lockpicking'
p1498
I2035
sS'teslamotors'
p1499
I2042
sS'Cigarettes'
p1500
I2028
sS'gatech'
p1501
I1977
sS'dirtypenpals'
p1502
I2032
sS'sailormoon'
p1503
I1981
sS'russian'
p1504
I1999
sS'NoFap'
p1505
I2047
sS'Austin'
p1506
I2045
sS'ProgrammerHumor'
p1507
I2044
sS'bettafish'
p1508
I1991
sS'Random_Acts_Of_Amazon'
p1509
I2047
sS'pathofexile'
p1510
I2046
sS'infj'
p1511
I2022
sS'Pareidolia'
p1512
I2043
sS'forhire'
p1513
I2044
sS'windows'
p1514
I2040
sS'conlangs'
p1515
I1963
sS'civ'
p1516
I2047
sS'BustyPetite'
p1517
I2040
sS'RealEstate'
p1518
I2036
sS'infp'
p1519
I2028
sS'TrueAskReddit'
p1520
I2043
sS'blackladies'
p1521
I1985
sS'ExploreFiction'
p1522
I1651
sS'CanadianForces'
p1523
I1949
sS'Seahawks'
p1524
I2045
sS'dirtykikpals'
p1525
I1941
sS'Colts'
p1526
I2033
sS'workgonewild'
p1527
I1930
sS'tabletopgamedesign'
p1528
I1935
sS'Baking'
p1529
I2041
sS'gopro'
p1530
I2043
sS'socialanxiety'
p1531
I2034
sS'londonontario'
p1532
I1913
sS'ModernMagic'
p1533
I1955
sS'orangecounty'
p1534
I2033
sS'askcarsales'
p1535
I2029
sS'youtube'
p1536
I2041
sS'vaporents'
p1537
I2043
sS'urbanexploration'
p1538
I2036
sS'crossdressing'
p1539
I2004
sS'inthenews'
p1540
I2043
sS'BuyItForLife'
p1541
I2043
sS'syriancivilwar'
p1542
I2035
sS'Drifting'
p1543
I2004
sS'shanghai'
p1544
I1886
sS'Eminem'
p1545
I2038
sS'picrequests'
p1546
I2045
sS'archlinux'
p1547
I2007
sS'GYBB'
p1548
I1857
sS'holdmybeer'
p1549
I2044
sS'FreeKarma'
p1550
I2044
sS'premed'
p1551
I2018
sS'seinfeld'
p1552
I2032
sS'dwarffortress'
p1553
I2038
sS'runescape'
p1554
I2045
sS'Throwers'
p1555
I1897
sS'ukulele'
p1556
I2010
sS'UpliftingNews'
p1557
I2047
sS'3amjokes'
p1558
I2038
sS'reptiles'
p1559
I2037
sS'GunsAreCool'
p1560
I2025
sS'Edmonton'
p1561
I2033
sS'beermoney'
p1562
I2044
sS'Surface'
p1563
I2041
sS'CrappyDesign'
p1564
I2047
sS'Patriots'
p1565
I2042
sS'hackintosh'
p1566
I2026
sS'Libertarian'
p1567
I2046
sS'Seattle'
p1568
I2045
sS'Anarcho_Capitalism'
p1569
I2045
sS'Whatisthis'
p1570
I2036
sS'Paleo'
p1571
I2043
sS'EatCheapAndHealthy'
p1572
I2043
sS'gentlemanboners'
p1573
I2045
sS'stalker'
p1574
I1958
sS'blackpeoplegifs'
p1575
I2040
sS'redditgetsdrawn'
p1576
I2045
sS'neopets'
p1577
I2026
sS'Naruto'
p1578
I2047
sS'Norway'
p1579
I2001
sS'vmware'
p1580
I1937
sS'no_sob_story'
p1581
I2040
sS'Glitch_in_the_Matrix'
p1582
I2043
sS'falcons'
p1583
I2021
sS'Warthunder'
p1584
I2044
sS'DebateReligion'
p1585
I2043
sS'mindcrack'
p1586
I2045
sS'AfterEffects'
p1587
I1971
sS'AskNetsec'
p1588
I2006
sS'MotoG'
p1589
I2016
sS'AnimalCrossing'
p1590
I2043
sS'Amateur'
p1591
I2025
sS'MotoX'
p1592
I2041
sS'pantsu'
p1593
I1701
sS'Equestrian'
p1594
I1917
sS'Ingress'
p1595
I2044
sS'tipofmypenis'
p1596
I2042
sS'survivor'
p1597
I2039
sS'DWMA'
p1598
I1407
sS'ShotBow'
p1599
I1830
sS'alaska'
p1600
I2021
sS'losangeleskings'
p1601
I2009
sS'apple'
p1602
I2046
sS'Assistance'
p1603
I2042
sS'confession'
p1604
I2046
sS'KingOfTheHill'
p1605
I2032
sS'Firearms'
p1606
I2035
sS'festivals'
p1607
I1988
sS'singing'
p1608
I2006
sS'FifaCareers'
p1609
I1950
sS'NewsOfTheStupid'
p1610
I2039
sS'eldertrees'
p1611
I2042
sS'AustralianMakeup'
p1612
I1468
sS'eagles'
p1613
I2043
sS'tipofmytongue'
p1614
I2047
sS'rpg_gamers'
p1615
I2038
sS'opiates'
p1616
I2041
sS'parrots'
p1617
I2023
sS'LifeProTips'
p1618
I2047
sS'asoiaf'
p1619
I2047
sS'penis'
p1620
I1972
sS'AskMen'
p1621
I2047
sS'techsupportgore'
p1622
I2044
sS'findareddit'
p1623
I2045
sS'Birmingham'
p1624
I1992
sS'gundeals'
p1625
I1982
sS'ferrets'
p1626
I2019
sS'solotravel'
p1627
I2043
sS'ShitPoliticsSays'
p1628
I2009
sS'learnprogramming'
p1629
I2047
sS'TwoBestFriendsPlay'
p1630
I2032
sS'TalesFromYourServer'
p1631
I2045
sS'Ask_Politics'
p1632
I2028
sS'asktrp'
p1633
I2041
sS'netsec'
p1634
I2026
sS'Xcom'
p1635
I2034
sS'needadvice'
p1636
I2046
sS'CableManagement'
p1637
I2020
sS'playmindcrack'
p1638
I1846
sS'PickAnAndroidForMe'
p1639
I2022
sS'polandball'
p1640
I2047
sS'GiftofGames'
p1641
I2036
sS'kickstarter'
p1642
I2039
sS'highdeas'
p1643
I2034
sS'Nissan'
p1644
I1991
sS'philosophy'
p1645
I2045
sS'Mommit'
p1646
I2004
sS'Images'
p1647
I2040
sS'paintball'
p1648
I2030
sS'FixedGearBicycle'
p1649
I2033
sS'CHIBears'
p1650
I2045
sS'dating_advice'
p1651
I2045
sS'listentothis'
p1652
I2043
sS'poppunkers'
p1653
I2032
sS'paradoxplaza'
p1654
I2037
sS'cableporn'
p1655
I2035
sS'bartenders'
p1656
I2024
sS'houston'
p1657
I2044
sS'amiugly'
p1658
I2047
sS'electronic_cigarette'
p1659
I2046
sS'actuallesbians'
p1660
I2043
sS'Supernatural'
p1661
I2045
sS'spotify'
p1662
I2039
sS'BabyBumps'
p1663
I2041
sS'beards'
p1664
I2046
sS'gaybros'
p1665
I2045
sS'pornfree'
p1666
I2019
sS'fantasybaseball'
p1667
I2031
sS'nostalgia'
p1668
I2047
sS'pugs'
p1669
I2023
sS'HITsWorthTurkingFor'
p1670
I2025
sS'ruby'
p1671
I1955
sS'Gore'
p1672
I2039
sS'MensRights'
p1673
I2047
sS'YMS'
p1674
I2035
sS'LosAngeles'
p1675
I2047
sS'smallbusiness'
p1676
I2037
sS'Miami'
p1677
I2006
sS'DebateAnAtheist'
p1678
I2041
sS'reddevils'
p1679
I2044
sS'PlayStationPlus'
p1680
I2043
sS'tmobile'
p1681
I2036
sS'LiverpoolFC'
p1682
I2046
sS'tightdresses'
p1683
I1997
sS'nfl'
p1684
I2047
sS'PropagandaPosters'
p1685
I2042
sS'mashups'
p1686
I2038
sS'trap'
p1687
I2038
sS'minimalism'
p1688
I2045
sS'eu4'
p1689
I2040
sS'PJRP_Community'
p1690
I1270
sS'lfg'
p1691
I2030
sS'MakeNewFriendsHere'
p1692
I2025
sS'DoctorWhumour'
p1693
I2034
sS'Warhammer40k'
p1694
I2045
sS'serbia'
p1695
I1877
sS'Madden'
p1696
I2034
sS'opieandanthony'
p1697
I2044
sS'memes'
p1698
I2039
sS'books'
p1699
I2047
sS'popping'
p1700
I2045
sS'entertainment'
p1701
I2042
sS'PKA'
p1702
I2043
sS'China'
p1703
I2041
sS'RoomPorn'
p1704
I2045
sS'Hotwife'
p1705
I1922
sS'electronics'
p1706
I2035
sS'math'
p1707
I2045
sS'wallpaper'
p1708
I2034
sS'whatcarshouldIbuy'
p1709
I2030
sS'AppalachianTrail'
p1710
I1956
sS'conservatives'
p1711
I1998
sS'GamePhysics'
p1712
I2041
sS'pokemontrades'
p1713
I2030
sS'Buffalo'
p1714
I2027
sS'RedHotChiliPeppers'
p1715
I1978
sS'Firefighting'
p1716
I2008
sS'Borderlands'
p1717
I2045
sS'recipes'
p1718
I2043
sS'florida'
p1719
I2031
sS'Rainmeter'
p1720
I2041
sS'Planetside'
p1721
I2046
sS'49ers'
p1722
I2043
sS'resumes'
p1723
I2034
sS'gunpolitics'
p1724
I2008
sS'nexus4'
p1725
I2031
sS'dragonage'
p1726
I2047
sS'AsiansGoneWild'
p1727
I2028
sS'Indiemakeupandmore'
p1728
I1989
sS'tappedout'
p1729
I2041
sS'CrossStitch'
p1730
I1995
sS'privacy'
p1731
I2032
sS'redditblack'
p1732
I1977
sS'classicalmusic'
p1733
I2040
sS'Awesomenauts'
p1734
I1988
sS'Frat'
p1735
I2019
sS'Disneyland'
p1736
I1997
sS'alternativeart'
p1737
I2028
sS'Boobies'
p1738
I2035
sS'firefox'
p1739
I2029
sS'Gundam'
p1740
I2032
sS'Sidehugs'
p1741
I1945
sS'Terraria'
p1742
I2046
sS'breakingmom'
p1743
I1936
sS'surfing'
p1744
I2034
sS'skyrim'
p1745
I2047
sS'Twitch'
p1746
I2046
sS'SRSGaming'
p1747
I1942
sS'ipad'
p1748
I2045
sS'thatHappened'
p1749
I2047
sS'sweden'
p1750
I2046
sS'torrents'
p1751
I2040
sS'ChronicPain'
p1752
I2008
sS'bisexual'
p1753
I2034
sS'urbanplanning'
p1754
I1975
sS'mflb'
p1755
I2028
sS'teenagers'
p1756
I2047
sS'sysadmin'
p1757
I2046
sS'spicy'
p1758
I2042
sS'homelab'
p1759
I2037
sS'redsox'
p1760
I2036
sS'Nootropics'
p1761
I2029
sS'billiards'
p1762
I1994
sS'IAmA'
p1763
I2047
sS'bonnaroo'
p1764
I2024
sS'Reformed'
p1765
I1912
sS'slowcooking'
p1766
I2040
sS'UnresolvedMysteries'
p1767
I2041
sS'nonononoyes'
p1768
I2046
sS'FutureWhatIf'
p1769
I2038
sS'firefly'
p1770
I2045
sS'badphilosophy'
p1771
I2026
sS'aww'
p1772
I2047
sS'NorthCarolina'
p1773
I2033
sS'Games'
p1774
I2047
sS'hearthstone'
p1775
I2047
sS'indiegameswap'
p1776
I1933
sS'glitch_art'
p1777
I2030
sS'secretsanta'
p1778
I2047
sS'shroomers'
p1779
I1947
sS'HailCorporate'
p1780
I2044
sS'painting'
p1781
I2006
sS'wow'
p1782
I2047
sS'climateskeptics'
p1783
I1990
sS'weightroom'
p1784
I2035
sS'RandomActsOfGaming'
p1785
I2047
sS'redheads'
p1786
I2013
sS'Smite'
p1787
I2046
sS'photocritique'
p1788
I2044
sS'buffalobills'
p1789
I2028
sS'PoliticalDiscussion'
p1790
I2045
sS'teslore'
p1791
I2009
sS'manchester'
p1792
I1982
sS'StonerPhilosophy'
p1793
I1993
sS'TheBluePill'
p1794
I2045
sS'MDMA'
p1795
I2029
sS'learnmath'
p1796
I2037
sS'hugeboobs'
p1797
I2017
sS'piano'
p1798
I2038
sS'Welding'
p1799
I2035
sS'classiccars'
p1800
I2023
sS'buildapcsales'
p1801
I2045
sS'shutupandtakemymoney'
p1802
I2045
sS'Tulpas'
p1803
I1993
sS'photography'
p1804
I2046
sS'JusticePorn'
p1805
I2047
sS'diablo3'
p1806
I2046
sS'Fitness'
p1807
I2046
sS'glasgow'
p1808
I1981
sS'powerlifting'
p1809
I2010
sS'hometheater'
p1810
I2036
sS'spotted'
p1811
I2011
sS'StarWars'
p1812
I2047
sS'RATS'
p1813
I2019
sS'Justrolledintotheshop'
p1814
I2046
sS'StandUpComedy'
p1815
I2041
sS'roosterteeth'
p1816
I2047
sS'skateboarding'
p1817
I2043
sS'CODZombies'
p1818
I1919
sS'Winnipeg'
p1819
I2024
sS'againstmensrights'
p1820
I2010
sS'TrueAnime'
p1821
I1926
sS'Marvel'
p1822
I2047
sS'Vivillon'
p1823
I1737
sS'truegaming'
p1824
I2047
sS'flyfishing'
p1825
I2004
sS'Blacksmith'
p1826
I2016
sS'AskCulinary'
p1827
I2037
sS'AllThingsTerran'
p1828
I2002
sS'Republican'
p1829
I2010
sS'medicalschool'
p1830
I2036
sS'CollegeBasketball'
p1831
I2046
sS'nashville'
p1832
I2016
sS'linguistics'
p1833
I2033
sS'tonightsdinner'
p1834
I2023
sS'facepalm'
p1835
I2047
sS'acturnips'
p1836
I1956
sS'NotTimAndEric'
p1837
I2037
sS'MaleFashionMarket'
p1838
I1921
sS'Roku'
p1839
I2005
sS'tf2trade'
p1840
I2021
sS'pinkfloyd'
p1841
I2039
sS'Harmontown'
p1842
I2008
sS'uhccourtroom'
p1843
I1641
sS'keto'
p1844
I2046
sS'Motocross'
p1845
I1968
sS'norge'
p1846
I1904
sS'nosleep'
p1847
I2046
sS'Stretched'
p1848
I1939
sS'watchpeopledie'
p1849
I2045
sS'Quebec'
p1850
I2002
sS'buildapc'
p1851
I2047
sS'ucf'
p1852
I1944
sS'incest'
p1853
I2022
sS'Music'
p1854
I2047
sS'startrek'
p1855
I2046
sS'rpg'
p1856
I2047
sS'DirtySnapchat'
p1857
I1980
sS'BeautyBoxes'
p1858
I1848
sS'Homebrewing'
p1859
I2045
sS'TheWire'
p1860
I2031
sS'Brooklyn'
p1861
I2007
sS'HomeImprovement'
p1862
I2029
sS'Thailand'
p1863
I2010
sS'WTF'
p1864
I2047
sS'verizon'
p1865
I2014
sS'Wellington'
p1866
I1787
sS'Maplestory'
p1867
I2012
sS'smoking'
p1868
I2021
sS'ravens'
p1869
I2037
sS'FullmetalAlchemist'
p1870
I2007
sS'minerapocalypse'
p1871
I1827
sS'pkmntcg'
p1872
I1938
sS'Neverwinter'
p1873
I1975
sS'podcasts'
p1874
I2032
sS'softwaregore'
p1875
I2046
sS'Needafriend'
p1876
I2036
sS'BigBoobsGW'
p1877
I2001
sS'hoggit'
p1878
I1976
sS'hardware'
p1879
I2038
sS'Briggs'
p1880
I1789
sS'shorthairedhotties'
p1881
I2037
sS'starcraft'
p1882
I2046
sS'tattoo'
p1883
I2030
sS'education'
p1884
I2032
sS'productivity'
p1885
I2015
sS'transpassing'
p1886
I2014
sS'katawashoujo'
p1887
I2009
sS'Whatcouldgowrong'
p1888
I2047
sS'notinteresting'
p1889
I2046
sS'birthcontrol'
p1890
I1875
sS'aggies'
p1891
I2003
sS'wargame'
p1892
I1968
sS'leangains'
p1893
I2020
sS'Teachers'
p1894
I2040
sS'MTB'
p1895
I2042
sS'yoga'
p1896
I2028
sS'gratefuldead'
p1897
I1998
sS'diabetes'
p1898
I2023
sS'BurningMan'
p1899
I2020
sS'indonesia'
p1900
I1994
sS'HumanPorn'
p1901
I2045
sS'240sx'
p1902
I1944
sS'Aleague'
p1903
I1912
sS'Sprint'
p1904
I2001
sS'audio'
p1905
I2013
sS'retrogaming'
p1906
I2035
sS'drawing'
p1907
I2043
sS'EmmaWatson'
p1908
I2039
sS'GifSound'
p1909
I2039
sS'FancyFollicles'
p1910
I2041
sS'TagPro'
p1911
I2045
sS'circlebroke'
p1912
I2045
sS'martialarts'
p1913
I2041
sS'gaybears'
p1914
I1812
sS'postrock'
p1915
I2026
sS'futurama'
p1916
I2045
sS'BeardPorn'
p1917
I2004
sS'minnesotavikings'
p1918
I2041
sS'audioengineering'
p1919
I2045
sS'crappymusic'
p1920
I2027
sS'ReefTank'
p1921
I2007
sS'Diablo'
p1922
I2046
sS'androidthemes'
p1923
I2035
sS'aoe2'
p1924
I2014
sS'bigboobproblems'
p1925
I2016
sS'cumsluts'
p1926
I2024
sS'howto'
p1927
I2041
sS'MosinNagant'
p1928
I1994
sS'cringepics'
p1929
I2047
sS'belgium'
p1930
I2022
sS'thewalkingdead'
p1931
I2047
sS'dubai'
p1932
I1949
sS'lost'
p1933
I2034
sS'GlobalOffensiveTrade'
p1934
I2023
sS'Paranormal'
p1935
I2046
sS'GLRP_EastBlue'
p1936
I426
sS'4chan'
p1937
I2047
sS'NHLHUT'
p1938
I1960
sS'LeagueOfMemes'
p1939
I2014
sS'MechanicalKeyboards'
p1940
I2046
sS'NYGiants'
p1941
I2031
sS'xboxone'
p1942
I2046
sS'StarcraftCirclejerk'
p1943
I1908
sS'tumblr'
p1944
I2047
sS'burstingout'
p1945
I1988
sS'mathrock'
p1946
I1962
sS'halifax'
p1947
I2022
sS'batonrouge'
p1948
I1954
sS'Eugene'
p1949
I1957
sS'reloading'
p1950
I1982
sS'Coffee'
p1951
I2044
sS'heroesofthestorm'
p1952
I2045
sS'canadaguns'
p1953
I2012
sS'SkincareAddiction'
p1954
I2045
sS'OSU'
p1955
I2003
sS'KansasCityChiefs'
p1956
I2023
sS'ACMilan'
p1957
I1805
sS'Hardcore'
p1958
I2016
sS'SubredditDrama'
p1959
I2047
sS'starbound'
p1960
I2043
sS'biology'
p1961
I2038
sS'CookieClicker'
p1962
I2024
sS'delusionalartists'
p1963
I2047
sS'StLouisRams'
p1964
I2021
sS'rotmgtradingpost'
p1965
I1540
sS'bayarea'
p1966
I2035
sS'worldbuilding'
p1967
I2046
sS'retrogameswap'
p1968
I1878
sS'sportsbook'
p1969
I2016
sS'DrugNerds'
p1970
I1994
sS'SolForge'
p1971
I1756
sS'GameDeals'
p1972
I2047
sS'battlestations'
p1973
I2046
sS'androidcirclejerk'
p1974
I2008
sS'software'
p1975
I2026
sS'CrohnsDisease'
p1976
I2030
sS'boltedontits'
p1977
I2002
sS'pussy'
p1978
I1936
sS'hiphopheads'
p1979
I2047
sS'Animesuggest'
p1980
I2044
sS'weather'
p1981
I2033
sS'Sneakers'
p1982
I2046
sS'Calgary'
p1983
I2040
sS'cs50'
p1984
I1997
sS'Damnthatsinteresting'
p1985
I2044
sS'stocks'
p1986
I2033
sS'networking'
p1987
I2042
sS'typography'
p1988
I2036
sS'rct'
p1989
I2011
sS'MorbidReality'
p1990
I2047
sS'introvert'
p1991
I2045
sS'Portal'
p1992
I2033
sS'howardstern'
p1993
I2026
sS'MINI'
p1994
I2012
sS'tasker'
p1995
I2026
sS'gaymers'
p1996
I2041
sS'treesgonewild'
p1997
I1981
sS'Detroit'
p1998
I2034
sS'Trucking'
p1999
I1999
sS'HipHopImages'
p2000
I2028
sS'xbox360'
p2001
I2044
sS'Metalcore'
p2002
I2042
sS'TEFL'
p2003
I2018
sS'memphis'
p2004
I1966
sS'whatsthisbird'
p2005
I2010
sS'MachineLearning'
p2006
I1942
sS'geocaching'
p2007
I2006
sS'randomsuperpowers'
p2008
I1858
sS'PercyJacksonRP'
p2009
I1838
sS'Civcraft'
p2010
I2032
sS'buffy'
p2011
I2015
sS'SSBPM'
p2012
I2033
sS'airsoft'
p2013
I2040
sS'bestofworldstar'
p2014
I2043
sS'autism'
p2015
I2021
sS'DAE'
p2016
I2039
sS'AskUK'
p2017
I2027
sS'DestinyTheGame'
p2018
I2046
sS'AskSocialScience'
p2019
I2024
sS'ImaginaryLandscapes'
p2020
I2039
sS'TheWayWeWere'
p2021
I2035
sS'DippingTobacco'
p2022
I1999
sS'badtattoos'
p2023
I2035
sS'animegifs'
p2024
I1942
sS'phish'
p2025
I2017
sS'raspberry_pi'
p2026
I2038
sS'quilting'
p2027
I1840
sS'SuicideWatch'
p2028
I2047
sS'cpp'
p2029
I1981
sS'Warhammer'
p2030
I2045
sS'bigdickproblems'
p2031
I2045
sS'nintendo'
p2032
I2046
sS'allthingszerg'
p2033
I1989
sS'TeraOnline'
p2034
I1948
sS'Starcitizen_trades'
p2035
I1898
sS'roguelikes'
p2036
I1970
sS'CannabisExtracts'
p2037
I2032
sS'GirlGamers'
p2038
I2045
sS'slashdiablo'
p2039
I1884
sS'speedrun'
p2040
I2032
sS'atheism'
p2041
I2047
sS'visualnovels'
p2042
I1968
sS'coys'
p2043
I2034
sS'Spanish'
p2044
I1991
sS'stopsmoking'
p2045
I2044
sS'MassiveCock'
p2046
I1968
sS'Whiskyporn'
p2047
I1899
sS'oklahoma'
p2048
I2017
sS'GWNerdy'
p2049
I1981
s.